   1               		.file	"main.c"
   2               	__SREG__ = 0x3f
   3               	__SP_H__ = 0x3e
   4               	__SP_L__ = 0x3d
   5               	__CCP__  = 0x34
   6               	__tmp_reg__ = 0
   7               	__zero_reg__ = 1
  15               	.Ltext0:
  16               	.global	port_init
  18               	port_init:
  19               	.LFB7:
  20               	.LM1:
  21               	/* prologue: function */
  22               	/* frame size = 0 */
  23               	.LM2:
  24 0000 8FEF      		ldi r24,lo8(-1)
  25 0002 8BBB      		out 59-32,r24
  26               	.LM3:
  27 0004 1ABA      		out 58-32,__zero_reg__
  28               	.LM4:
  29 0006 88BB      		out 56-32,r24
  30               	.LM5:
  31 0008 17BA      		out 55-32,__zero_reg__
  32               	.LM6:
  33 000a 15BA      		out 53-32,__zero_reg__
  34               	.LM7:
  35 000c 84BB      		out 52-32,r24
  36               	.LM8:
  37 000e 82BB      		out 50-32,r24
  38               	.LM9:
  39 0010 11BA      		out 49-32,__zero_reg__
  40               	/* epilogue start */
  41               	.LM10:
  42 0012 0895      		ret
  43               	.LFE7:
  45               	.global	pwm1_init
  47               	pwm1_init:
  48               	.LFB8:
  49               	.LM11:
  50               	/* prologue: function */
  51               	/* frame size = 0 */
  52               	.LM12:
  53 0014 8C9A      		sbi 49-32,4
  54               	.LM13:
  55 0016 8D9A      		sbi 49-32,5
  56               	.LM14:
  57 0018 1EBC      		out 78-32,__zero_reg__
  58               	.LM15:
  59 001a 1DBC      		out 77-32,__zero_reg__
  60               	.LM16:
  61 001c 1CBC      		out 76-32,__zero_reg__
  62               	.LM17:
  63 001e 1BBC      		out 75-32,__zero_reg__
  64               	.LM18:
  65 0020 1ABC      		out 74-32,__zero_reg__
  66               	.LM19:
  67 0022 19BC      		out 73-32,__zero_reg__
  68               	.LM20:
  69 0024 18BC      		out 72-32,__zero_reg__
  70               	.LM21:
  71 0026 81E0      		ldi r24,lo8(1)
  72 0028 87BD      		out 71-32,r24
  73               	.LM22:
  74 002a 8FE8      		ldi r24,lo8(-113)
  75 002c 86BD      		out 70-32,r24
  76               	.LM23:
  77 002e 82EA      		ldi r24,lo8(-94)
  78 0030 8FBD      		out 79-32,r24
  79               	.LM24:
  80 0032 89E1      		ldi r24,lo8(25)
  81 0034 8EBD      		out 78-32,r24
  82               	/* epilogue start */
  83               	.LM25:
  84 0036 0895      		ret
  85               	.LFE8:
  87               	.global	adc_init
  89               	adc_init:
  90               	.LFB9:
  91               	.LM26:
  92               	/* prologue: function */
  93               	/* frame size = 0 */
  94               	.LM27:
  95 0038 1ABA      		out 58-32,__zero_reg__
  96               	.LM28:
  97 003a 16B8      		out 38-32,__zero_reg__
  98               	.LM29:
  99 003c 80E6      		ldi r24,lo8(96)
 100 003e 87B9      		out 39-32,r24
 101               	.LM30:
 102 0040 87E8      		ldi r24,lo8(-121)
 103 0042 86B9      		out 38-32,r24
 104               	.LM31:
 105 0044 80E8      		ldi r24,lo8(-128)
 106 0046 88B9      		out 40-32,r24
 107               	/* epilogue start */
 108               	.LM32:
 109 0048 0895      		ret
 110               	.LFE9:
 112               	.global	adc_start
 114               	adc_start:
 115               	.LFB10:
 116               	.LM33:
 117               	.LVL0:
 118               	/* prologue: function */
 119               	/* frame size = 0 */
 120               	.LM34:
 121 004a 15B8      		out 37-32,__zero_reg__
 122               	.LM35:
 123 004c 8770      		andi r24,lo8(7)
 124               	.LVL1:
 125 004e 8066      		ori r24,lo8(96)
 126 0050 87B9      		out 39-32,r24
 127               	.LM36:
 128 0052 369A      		sbi 38-32,6
 129               	.L8:
 130               	.LM37:
 131 0054 3699      		sbic 38-32,6
 132 0056 00C0      		rjmp .L8
 133               	.LM38:
 134 0058 85B1      		in r24,37-32
 135               	.LVL2:
 136               	.LVL3:
 137               	/* epilogue start */
 138               	.LM39:
 139 005a 0895      		ret
 140               	.LFE10:
 142               	.global	delay_sec
 144               	delay_sec:
 145               	.LFB11:
 146               	.LM40:
 147               	.LVL4:
 148               	/* prologue: function */
 149               	/* frame size = 0 */
 150 005c AC01      		movw r20,r24
 151               	.LM41:
 152 005e 30E0      		ldi r19,lo8(0)
 153               	.LVL5:
 154               	.LBB422:
 155               	.LBB423:
 156               	.LBB424:
 157               	.LBB425:
 158               	.LM42:
 159 0060 60E9      		ldi r22,lo8(400)
 160 0062 71E0      		ldi r23,hi8(400)
 161 0064 00C0      		rjmp .L12
 162               	.LVL6:
 163               	.L13:
 164 0066 FB01      		movw r30,r22
 165               	/* #APP */
 166               	 ;  105 "c:/winavr-20100110/lib/gcc/../../avr/include/util/delay_basic.h" 1
 167 0068 3197      		1: sbiw r30,1
 168 006a 01F4      		brne 1b
 169               	 ;  0 "" 2
 170               	/* #NOAPP */
 171               	.LBE425:
 172               	.LBE424:
 173               	.LM43:
 174 006c 0197      		sbiw r24,1
 175               	.LM44:
 176 006e 01F4      		brne .L13
 177               	.LBE423:
 178               	.LBE422:
 179               	.LM45:
 180 0070 2F5F      		subi r18,lo8(-(1))
 181 0072 2430      		cpi r18,lo8(4)
 182 0074 01F0      		breq .L14
 183               	.LVL7:
 184               	.L16:
 185 0076 84EC      		ldi r24,lo8(2500)
 186 0078 99E0      		ldi r25,hi8(2500)
 187 007a 00C0      		rjmp .L13
 188               	.L14:
 189               	.LM46:
 190 007c 3F5F      		subi r19,lo8(-(1))
 191               	.LVL8:
 192               	.L12:
 193 007e 832F      		mov r24,r19
 194               	.LVL9:
 195 0080 90E0      		ldi r25,lo8(0)
 196 0082 8417      		cp r24,r20
 197 0084 9507      		cpc r25,r21
 198 0086 04F4      		brge .L17
 199               	.LVL10:
 200 0088 20E0      		ldi r18,lo8(0)
 201 008a 00C0      		rjmp .L16
 202               	.L17:
 203 008c 0895      		ret
 204               	.LFE11:
 206               	.global	delay_millisec
 208               	delay_millisec:
 209               	.LFB12:
 210               	.LM47:
 211               	.LVL11:
 212 008e AF92      		push r10
 213 0090 BF92      		push r11
 214 0092 CF92      		push r12
 215 0094 DF92      		push r13
 216 0096 EF92      		push r14
 217 0098 FF92      		push r15
 218 009a 0F93      		push r16
 219 009c 1F93      		push r17
 220               	/* prologue: function */
 221               	/* frame size = 0 */
 222               	.LM48:
 223 009e AA27      		clr r26
 224 00a0 97FD      		sbrc r25,7
 225 00a2 A095      		com r26
 226 00a4 BA2F      		mov r27,r26
 227               	.LVL12:
 228 00a6 BC01      		movw r22,r24
 229 00a8 CD01      		movw r24,r26
 230 00aa 0E94 0000 		call __floatsisf
 231               	.LVL13:
 232 00ae 5B01      		movw r10,r22
 233 00b0 6C01      		movw r12,r24
 234               	.LBB426:
 235               	.LBB427:
 236               	.LM49:
 237 00b2 20E0      		ldi r18,lo8(0x457a0000)
 238 00b4 30E0      		ldi r19,hi8(0x457a0000)
 239 00b6 4AE7      		ldi r20,hlo8(0x457a0000)
 240 00b8 55E4      		ldi r21,hhi8(0x457a0000)
 241 00ba 0E94 0000 		call __mulsf3
 242 00be 7B01      		movw r14,r22
 243 00c0 8C01      		movw r16,r24
 244               	.LM50:
 245 00c2 20E0      		ldi r18,lo8(0x3f800000)
 246 00c4 30E0      		ldi r19,hi8(0x3f800000)
 247 00c6 40E8      		ldi r20,hlo8(0x3f800000)
 248 00c8 5FE3      		ldi r21,hhi8(0x3f800000)
 249 00ca 0E94 0000 		call __ltsf2
 250 00ce 8823      		tst r24
 251 00d0 04F4      		brge .L31
 252 00d2 61E0      		ldi r22,lo8(1)
 253 00d4 70E0      		ldi r23,hi8(1)
 254               	.LVL14:
 255 00d6 00C0      		rjmp .L22
 256               	.LVL15:
 257               	.L31:
 258               	.LM51:
 259 00d8 C801      		movw r24,r16
 260 00da B701      		movw r22,r14
 261 00dc 20E0      		ldi r18,lo8(0x477fff00)
 262 00de 3FEF      		ldi r19,hi8(0x477fff00)
 263 00e0 4FE7      		ldi r20,hlo8(0x477fff00)
 264 00e2 57E4      		ldi r21,hhi8(0x477fff00)
 265 00e4 0E94 0000 		call __gtsf2
 266 00e8 1816      		cp __zero_reg__,r24
 267 00ea 04F4      		brge .L32
 268               	.LM52:
 269 00ec C601      		movw r24,r12
 270 00ee B501      		movw r22,r10
 271 00f0 20E0      		ldi r18,lo8(0x41200000)
 272 00f2 30E0      		ldi r19,hi8(0x41200000)
 273 00f4 40E2      		ldi r20,hlo8(0x41200000)
 274 00f6 51E4      		ldi r21,hhi8(0x41200000)
 275 00f8 0E94 0000 		call __mulsf3
 276 00fc 0E94 0000 		call __fixunssfsi
 277               	.LBB428:
 278               	.LBB429:
 279               	.LM53:
 280 0100 80E9      		ldi r24,lo8(400)
 281 0102 91E0      		ldi r25,hi8(400)
 282 0104 00C0      		rjmp .L25
 283               	.LVL16:
 284               	.L26:
 285 0106 FC01      		movw r30,r24
 286               	/* #APP */
 287               	 ;  105 "c:/winavr-20100110/lib/gcc/../../avr/include/util/delay_basic.h" 1
 288 0108 3197      		1: sbiw r30,1
 289 010a 01F4      		brne 1b
 290               	 ;  0 "" 2
 291               	/* #NOAPP */
 292               	.LBE429:
 293               	.LBE428:
 294               	.LM54:
 295 010c 6150      		subi r22,lo8(-(-1))
 296 010e 7040      		sbci r23,hi8(-(-1))
 297               	.L25:
 298               	.LM55:
 299 0110 6115      		cp r22,__zero_reg__
 300 0112 7105      		cpc r23,__zero_reg__
 301 0114 01F4      		brne .L26
 302 0116 00C0      		rjmp .L28
 303               	.LVL17:
 304               	.L32:
 305               	.LM56:
 306 0118 C801      		movw r24,r16
 307 011a B701      		movw r22,r14
 308 011c 0E94 0000 		call __fixunssfsi
 309               	.LVL18:
 310               	.L22:
 311               	.LBB430:
 312               	.LBB431:
 313               	.LM57:
 314 0120 CB01      		movw r24,r22
 315               	.LVL19:
 316               	/* #APP */
 317               	 ;  105 "c:/winavr-20100110/lib/gcc/../../avr/include/util/delay_basic.h" 1
 318 0122 0197      		1: sbiw r24,1
 319 0124 01F4      		brne 1b
 320               	 ;  0 "" 2
 321               	.LVL20:
 322               	/* #NOAPP */
 323               	.L28:
 324               	/* epilogue start */
 325               	.LBE431:
 326               	.LBE430:
 327               	.LBE427:
 328               	.LBE426:
 329               	.LM58:
 330 0126 1F91      		pop r17
 331 0128 0F91      		pop r16
 332 012a FF90      		pop r15
 333 012c EF90      		pop r14
 334 012e DF90      		pop r13
 335 0130 CF90      		pop r12
 336 0132 BF90      		pop r11
 337 0134 AF90      		pop r10
 338 0136 0895      		ret
 339               	.LFE12:
 341               	.global	delay_microsec
 343               	delay_microsec:
 344               	.LFB13:
 345               	.LM59:
 346               	.LVL21:
 347 0138 AF92      		push r10
 348 013a BF92      		push r11
 349 013c CF92      		push r12
 350 013e DF92      		push r13
 351 0140 EF92      		push r14
 352 0142 FF92      		push r15
 353 0144 0F93      		push r16
 354 0146 1F93      		push r17
 355               	/* prologue: function */
 356               	/* frame size = 0 */
 357               	.LM60:
 358 0148 AA27      		clr r26
 359 014a 97FD      		sbrc r25,7
 360 014c A095      		com r26
 361 014e BA2F      		mov r27,r26
 362               	.LVL22:
 363 0150 BC01      		movw r22,r24
 364 0152 CD01      		movw r24,r26
 365 0154 0E94 0000 		call __floatsisf
 366               	.LVL23:
 367 0158 5B01      		movw r10,r22
 368 015a 6C01      		movw r12,r24
 369               	.LBB432:
 370               	.LBB433:
 371               	.LM61:
 372 015c 2BEA      		ldi r18,lo8(0x40aaaaab)
 373 015e 3AEA      		ldi r19,hi8(0x40aaaaab)
 374 0160 4AEA      		ldi r20,hlo8(0x40aaaaab)
 375 0162 50E4      		ldi r21,hhi8(0x40aaaaab)
 376 0164 0E94 0000 		call __mulsf3
 377 0168 7B01      		movw r14,r22
 378 016a 8C01      		movw r16,r24
 379               	.LM62:
 380 016c 20E0      		ldi r18,lo8(0x3f800000)
 381 016e 30E0      		ldi r19,hi8(0x3f800000)
 382 0170 40E8      		ldi r20,hlo8(0x3f800000)
 383 0172 5FE3      		ldi r21,hhi8(0x3f800000)
 384 0174 0E94 0000 		call __ltsf2
 385 0178 8823      		tst r24
 386 017a 04F4      		brge .L52
 387 017c 61E0      		ldi r22,lo8(1)
 388               	.LVL24:
 389 017e 00C0      		rjmp .L36
 390               	.LVL25:
 391               	.L52:
 392               	.LM63:
 393 0180 C801      		movw r24,r16
 394 0182 B701      		movw r22,r14
 395 0184 20E0      		ldi r18,lo8(0x437f0000)
 396 0186 30E0      		ldi r19,hi8(0x437f0000)
 397 0188 4FE7      		ldi r20,hlo8(0x437f0000)
 398 018a 53E4      		ldi r21,hhi8(0x437f0000)
 399 018c 0E94 0000 		call __gtsf2
 400 0190 1816      		cp __zero_reg__,r24
 401 0192 04F0      		brlt .+2
 402 0194 00C0      		rjmp .L53
 403               	.LM64:
 404 0196 C601      		movw r24,r12
 405 0198 B501      		movw r22,r10
 406 019a 20E0      		ldi r18,lo8(0x447a0000)
 407 019c 30E0      		ldi r19,hi8(0x447a0000)
 408 019e 4AE7      		ldi r20,hlo8(0x447a0000)
 409 01a0 54E4      		ldi r21,hhi8(0x447a0000)
 410 01a2 0E94 0000 		call __divsf3
 411 01a6 5B01      		movw r10,r22
 412 01a8 6C01      		movw r12,r24
 413               	.LBB434:
 414               	.LBB435:
 415               	.LM65:
 416 01aa 20E0      		ldi r18,lo8(0x457a0000)
 417 01ac 30E0      		ldi r19,hi8(0x457a0000)
 418 01ae 4AE7      		ldi r20,hlo8(0x457a0000)
 419 01b0 55E4      		ldi r21,hhi8(0x457a0000)
 420 01b2 0E94 0000 		call __mulsf3
 421 01b6 7B01      		movw r14,r22
 422 01b8 8C01      		movw r16,r24
 423               	.LM66:
 424 01ba 20E0      		ldi r18,lo8(0x3f800000)
 425 01bc 30E0      		ldi r19,hi8(0x3f800000)
 426 01be 40E8      		ldi r20,hlo8(0x3f800000)
 427 01c0 5FE3      		ldi r21,hhi8(0x3f800000)
 428 01c2 0E94 0000 		call __ltsf2
 429 01c6 8823      		tst r24
 430 01c8 04F4      		brge .L54
 431 01ca 61E0      		ldi r22,lo8(1)
 432 01cc 70E0      		ldi r23,hi8(1)
 433               	.LVL26:
 434 01ce 00C0      		rjmp .L41
 435               	.LVL27:
 436               	.L54:
 437               	.LM67:
 438 01d0 C801      		movw r24,r16
 439 01d2 B701      		movw r22,r14
 440 01d4 20E0      		ldi r18,lo8(0x477fff00)
 441 01d6 3FEF      		ldi r19,hi8(0x477fff00)
 442 01d8 4FE7      		ldi r20,hlo8(0x477fff00)
 443 01da 57E4      		ldi r21,hhi8(0x477fff00)
 444 01dc 0E94 0000 		call __gtsf2
 445 01e0 1816      		cp __zero_reg__,r24
 446 01e2 04F4      		brge .L55
 447               	.LM68:
 448 01e4 C601      		movw r24,r12
 449 01e6 B501      		movw r22,r10
 450 01e8 20E0      		ldi r18,lo8(0x41200000)
 451 01ea 30E0      		ldi r19,hi8(0x41200000)
 452 01ec 40E2      		ldi r20,hlo8(0x41200000)
 453 01ee 51E4      		ldi r21,hhi8(0x41200000)
 454 01f0 0E94 0000 		call __mulsf3
 455 01f4 0E94 0000 		call __fixunssfsi
 456               	.LBB436:
 457               	.LBB437:
 458               	.LM69:
 459 01f8 80E9      		ldi r24,lo8(400)
 460 01fa 91E0      		ldi r25,hi8(400)
 461 01fc 00C0      		rjmp .L44
 462               	.LVL28:
 463               	.L45:
 464 01fe FC01      		movw r30,r24
 465               	/* #APP */
 466               	 ;  105 "c:/winavr-20100110/lib/gcc/../../avr/include/util/delay_basic.h" 1
 467 0200 3197      		1: sbiw r30,1
 468 0202 01F4      		brne 1b
 469               	 ;  0 "" 2
 470               	/* #NOAPP */
 471               	.LBE437:
 472               	.LBE436:
 473               	.LM70:
 474 0204 6150      		subi r22,lo8(-(-1))
 475 0206 7040      		sbci r23,hi8(-(-1))
 476               	.L44:
 477               	.LM71:
 478 0208 6115      		cp r22,__zero_reg__
 479 020a 7105      		cpc r23,__zero_reg__
 480 020c 01F4      		brne .L45
 481 020e 00C0      		rjmp .L47
 482               	.LVL29:
 483               	.L55:
 484               	.LM72:
 485 0210 C801      		movw r24,r16
 486 0212 B701      		movw r22,r14
 487 0214 0E94 0000 		call __fixunssfsi
 488               	.LVL30:
 489               	.L41:
 490               	.LBB438:
 491               	.LBB439:
 492               	.LM73:
 493 0218 CB01      		movw r24,r22
 494               	.LVL31:
 495               	/* #APP */
 496               	 ;  105 "c:/winavr-20100110/lib/gcc/../../avr/include/util/delay_basic.h" 1
 497 021a 0197      		1: sbiw r24,1
 498 021c 01F4      		brne 1b
 499               	 ;  0 "" 2
 500               	/* #NOAPP */
 501 021e 00C0      		rjmp .L47
 502               	.LVL32:
 503               	.L53:
 504               	.LBE439:
 505               	.LBE438:
 506               	.LBE435:
 507               	.LBE434:
 508               	.LM74:
 509 0220 C801      		movw r24,r16
 510 0222 B701      		movw r22,r14
 511 0224 0E94 0000 		call __fixunssfsi
 512               	.LVL33:
 513               	.L36:
 514               	.LBB440:
 515               	.LBB441:
 516               	.LM75:
 517               	/* #APP */
 518               	 ;  83 "c:/winavr-20100110/lib/gcc/../../avr/include/util/delay_basic.h" 1
 519 0228 6A95      		1: dec r22
 520 022a 01F4      		brne 1b
 521               	 ;  0 "" 2
 522               	.LVL34:
 523               	/* #NOAPP */
 524               	.L47:
 525               	/* epilogue start */
 526               	.LBE441:
 527               	.LBE440:
 528               	.LBE433:
 529               	.LBE432:
 530               	.LM76:
 531 022c 1F91      		pop r17
 532 022e 0F91      		pop r16
 533 0230 FF90      		pop r15
 534 0232 EF90      		pop r14
 535 0234 DF90      		pop r13
 536 0236 CF90      		pop r12
 537 0238 BF90      		pop r11
 538 023a AF90      		pop r10
 539 023c 0895      		ret
 540               	.LFE13:
 542               	.global	check_sensors
 544               	check_sensors:
 545               	.LFB14:
 546               	.LM77:
 547 023e 0F93      		push r16
 548 0240 1F93      		push r17
 549 0242 CF93      		push r28
 550 0244 DF93      		push r29
 551               	/* prologue: function */
 552               	/* frame size = 0 */
 553               	.LM78:
 554 0246 1092 0000 		sts sensorbyte,__zero_reg__
 555 024a C0E0      		ldi r28,lo8(0)
 556 024c D0E0      		ldi r29,hi8(0)
 557               	.LM79:
 558 024e 01E0      		ldi r16,lo8(1)
 559 0250 10E0      		ldi r17,hi8(1)
 560               	.L58:
 561               	.LM80:
 562 0252 8C2F      		mov r24,r28
 563 0254 0E94 0000 		call adc_start
 564               	.LM81:
 565 0258 8634      		cpi r24,lo8(70)
 566 025a 00F4      		brsh .L57
 567               	.LM82:
 568 025c 9801      		movw r18,r16
 569 025e 0C2E      		mov r0,r28
 570 0260 00C0      		rjmp 2f
 571 0262 220F      	1:	lsl r18
 572 0264 331F      		rol r19
 573 0266 0A94      	2:	dec r0
 574 0268 02F4      		brpl 1b
 575 026a 8091 0000 		lds r24,sensorbyte
 576 026e 822B      		or r24,r18
 577 0270 8093 0000 		sts sensorbyte,r24
 578               	.L57:
 579 0274 2196      		adiw r28,1
 580               	.LM83:
 581 0276 C430      		cpi r28,4
 582 0278 D105      		cpc r29,__zero_reg__
 583 027a 01F4      		brne .L58
 584               	/* epilogue start */
 585               	.LM84:
 586 027c DF91      		pop r29
 587 027e CF91      		pop r28
 588 0280 1F91      		pop r17
 589 0282 0F91      		pop r16
 590 0284 0895      		ret
 591               	.LFE14:
 593               	.global	calibrate_white
 595               	calibrate_white:
 596               	.LFB15:
 597               	.LM85:
 598               	/* prologue: function */
 599               	/* frame size = 0 */
 600               	.LM86:
 601 0286 80E0      		ldi r24,lo8(0)
 602 0288 0E94 0000 		call adc_start
 603 028c 8093 0000 		sts max,r24
 604 0290 81E0      		ldi r24,lo8(1)
 605 0292 0E94 0000 		call adc_start
 606 0296 8093 0000 		sts max+1,r24
 607 029a 82E0      		ldi r24,lo8(2)
 608 029c 0E94 0000 		call adc_start
 609 02a0 8093 0000 		sts max+2,r24
 610 02a4 83E0      		ldi r24,lo8(3)
 611 02a6 0E94 0000 		call adc_start
 612 02aa 8093 0000 		sts max+3,r24
 613               	/* epilogue start */
 614               	.LM87:
 615 02ae 0895      		ret
 616               	.LFE15:
 618               	.global	calibrate_black
 620               	calibrate_black:
 621               	.LFB16:
 622               	.LM88:
 623               	/* prologue: function */
 624               	/* frame size = 0 */
 625               	.LM89:
 626 02b0 80E0      		ldi r24,lo8(0)
 627 02b2 0E94 0000 		call adc_start
 628 02b6 8093 0000 		sts min,r24
 629 02ba 81E0      		ldi r24,lo8(1)
 630 02bc 0E94 0000 		call adc_start
 631 02c0 8093 0000 		sts min+1,r24
 632 02c4 82E0      		ldi r24,lo8(2)
 633 02c6 0E94 0000 		call adc_start
 634 02ca 8093 0000 		sts min+2,r24
 635 02ce 83E0      		ldi r24,lo8(3)
 636 02d0 0E94 0000 		call adc_start
 637 02d4 8093 0000 		sts min+3,r24
 638               	/* epilogue start */
 639               	.LM90:
 640 02d8 0895      		ret
 641               	.LFE16:
 643               	.global	flick
 645               	flick:
 646               	.LFB18:
 647               	.LM91:
 648 02da 1F93      		push r17
 649 02dc CF93      		push r28
 650 02de DF93      		push r29
 651               	/* prologue: function */
 652               	/* frame size = 0 */
 653               	.LM92:
 654 02e0 C0E0      		ldi r28,lo8(0)
 655 02e2 D0E0      		ldi r29,hi8(0)
 656               	.LVL35:
 657               	.LM93:
 658 02e4 1FEF      		ldi r17,lo8(-1)
 659               	.L66:
 660 02e6 15BB      		out 53-32,r17
 661               	.LM94:
 662 02e8 84E6      		ldi r24,lo8(100)
 663 02ea 90E0      		ldi r25,hi8(100)
 664 02ec 0E94 0000 		call delay_millisec
 665               	.LM95:
 666 02f0 15BA      		out 53-32,__zero_reg__
 667               	.LM96:
 668 02f2 84E6      		ldi r24,lo8(100)
 669 02f4 90E0      		ldi r25,hi8(100)
 670 02f6 0E94 0000 		call delay_millisec
 671               	.LM97:
 672 02fa 2196      		adiw r28,1
 673 02fc C530      		cpi r28,5
 674 02fe D105      		cpc r29,__zero_reg__
 675 0300 01F4      		brne .L66
 676               	/* epilogue start */
 677               	.LM98:
 678 0302 DF91      		pop r29
 679 0304 CF91      		pop r28
 680               	.LVL36:
 681 0306 1F91      		pop r17
 682 0308 0895      		ret
 683               	.LFE18:
 685               	.global	set_pwm1a
 687               	set_pwm1a:
 688               	.LFB19:
 689               	.LM99:
 690               	.LVL37:
 691               	/* prologue: function */
 692               	/* frame size = 0 */
 693               	.LM100:
 694 030a 9BBD      		out (74)+1-32,r25
 695 030c 8ABD      		out 74-32,r24
 696               	.LVL38:
 697               	/* epilogue start */
 698               	.LM101:
 699 030e 0895      		ret
 700               	.LFE19:
 702               	.global	set_pwm1b
 704               	set_pwm1b:
 705               	.LFB20:
 706               	.LM102:
 707               	.LVL39:
 708               	/* prologue: function */
 709               	/* frame size = 0 */
 710               	.LM103:
 711 0310 99BD      		out (72)+1-32,r25
 712 0312 88BD      		out 72-32,r24
 713               	.LVL40:
 714               	/* epilogue start */
 715               	.LM104:
 716 0314 0895      		ret
 717               	.LFE20:
 719               	.global	lcd_busy_loop
 721               	lcd_busy_loop:
 722               	.LFB22:
 723               	.LM105:
 724               	/* prologue: function */
 725               	/* frame size = 0 */
 726               	.LM106:
 727 0316 87B3      		in r24,55-32
 728 0318 807F      		andi r24,lo8(-16)
 729 031a 87BB      		out 55-32,r24
 730               	.LM107:
 731 031c C69A      		sbi 56-32,6
 732               	.LM108:
 733 031e C598      		cbi 56-32,5
 734               	.LBB442:
 735               	.LBB443:
 736               	.LBB444:
 737               	.LBB445:
 738               	.LM109:
 739 0320 82E0      		ldi r24,lo8(2)
 740               	.LVL41:
 741               	/* #APP */
 742               	 ;  83 "c:/winavr-20100110/lib/gcc/../../avr/include/util/delay_basic.h" 1
 743 0322 8A95      		1: dec r24
 744 0324 01F4      		brne 1b
 745               	 ;  0 "" 2
 746               	/* #NOAPP */
 747               	.LBE445:
 748               	.LBE444:
 749               	.LBE443:
 750               	.LBE442:
 751               	.LBB446:
 752               	.LBB447:
 753               	.LBB448:
 754               	.LBB449:
 755 0326 22E0      		ldi r18,lo8(2)
 756               	.LBE449:
 757               	.LBE448:
 758               	.LBE447:
 759               	.LBE446:
 760               	.LBB453:
 761               	.LBB454:
 762               	.LBB455:
 763               	.LBB456:
 764 0328 35E0      		ldi r19,lo8(5)
 765               	.L74:
 766               	.LBE456:
 767               	.LBE455:
 768               	.LBE454:
 769               	.LBE453:
 770               	.LM110:
 771 032a C79A      		sbi 56-32,7
 772               	.LBB460:
 773               	.LBB452:
 774               	.LBB451:
 775               	.LBB450:
 776               	.LM111:
 777 032c 822F      		mov r24,r18
 778               	.LVL42:
 779               	/* #APP */
 780               	 ;  83 "c:/winavr-20100110/lib/gcc/../../avr/include/util/delay_basic.h" 1
 781 032e 8A95      		1: dec r24
 782 0330 01F4      		brne 1b
 783               	 ;  0 "" 2
 784               	/* #NOAPP */
 785               	.LBE450:
 786               	.LBE451:
 787               	.LBE452:
 788               	.LBE460:
 789               	.LM112:
 790 0332 86B3      		in r24,54-32
 791               	.LVL43:
 792               	.LM113:
 793 0334 8295      		swap r24
 794 0336 807F      		andi r24,lo8(-16)
 795               	.LBB461:
 796               	.LBB462:
 797               	.LBB463:
 798               	.LBB464:
 799               	.LM114:
 800 0338 922F      		mov r25,r18
 801               	.LVL44:
 802               	/* #APP */
 803               	 ;  83 "c:/winavr-20100110/lib/gcc/../../avr/include/util/delay_basic.h" 1
 804 033a 9A95      		1: dec r25
 805 033c 01F4      		brne 1b
 806               	 ;  0 "" 2
 807               	/* #NOAPP */
 808               	.LBE464:
 809               	.LBE463:
 810               	.LBE462:
 811               	.LBE461:
 812               	.LM115:
 813 033e C798      		cbi 56-32,7
 814               	.LBB465:
 815               	.LBB459:
 816               	.LBB458:
 817               	.LBB457:
 818               	.LM116:
 819 0340 932F      		mov r25,r19
 820               	.LVL45:
 821               	/* #APP */
 822               	 ;  83 "c:/winavr-20100110/lib/gcc/../../avr/include/util/delay_basic.h" 1
 823 0342 9A95      		1: dec r25
 824 0344 01F4      		brne 1b
 825               	 ;  0 "" 2
 826               	/* #NOAPP */
 827               	.LBE457:
 828               	.LBE458:
 829               	.LBE459:
 830               	.LBE465:
 831               	.LM117:
 832 0346 C79A      		sbi 56-32,7
 833               	.LBB466:
 834               	.LBB467:
 835               	.LBB468:
 836               	.LBB469:
 837               	.LM118:
 838 0348 922F      		mov r25,r18
 839               	.LVL46:
 840               	/* #APP */
 841               	 ;  83 "c:/winavr-20100110/lib/gcc/../../avr/include/util/delay_basic.h" 1
 842 034a 9A95      		1: dec r25
 843 034c 01F4      		brne 1b
 844               	 ;  0 "" 2
 845               	/* #NOAPP */
 846               	.LBE469:
 847               	.LBE468:
 848               	.LBE467:
 849               	.LBE466:
 850               	.LM119:
 851 034e 96B3      		in r25,54-32
 852               	.LVL47:
 853               	.LBB470:
 854               	.LBB471:
 855               	.LBB472:
 856               	.LBB473:
 857               	.LM120:
 858 0350 922F      		mov r25,r18
 859               	.LVL48:
 860               	/* #APP */
 861               	 ;  83 "c:/winavr-20100110/lib/gcc/../../avr/include/util/delay_basic.h" 1
 862 0352 9A95      		1: dec r25
 863 0354 01F4      		brne 1b
 864               	 ;  0 "" 2
 865               	/* #NOAPP */
 866               	.LBE473:
 867               	.LBE472:
 868               	.LBE471:
 869               	.LBE470:
 870               	.LM121:
 871 0356 C798      		cbi 56-32,7
 872               	.LBB474:
 873               	.LBB475:
 874               	.LBB476:
 875               	.LBB477:
 876               	.LM122:
 877 0358 932F      		mov r25,r19
 878               	.LVL49:
 879               	/* #APP */
 880               	 ;  83 "c:/winavr-20100110/lib/gcc/../../avr/include/util/delay_basic.h" 1
 881 035a 9A95      		1: dec r25
 882 035c 01F4      		brne 1b
 883               	 ;  0 "" 2
 884               	/* #NOAPP */
 885               	.LBE477:
 886               	.LBE476:
 887               	.LBE475:
 888               	.LBE474:
 889               	.LM123:
 890 035e 87FD      		sbrc r24,7
 891 0360 00C0      		rjmp .L74
 892               	.LM124:
 893 0362 C698      		cbi 56-32,6
 894               	.LM125:
 895 0364 87B3      		in r24,55-32
 896               	.LVL50:
 897 0366 8F60      		ori r24,lo8(15)
 898 0368 87BB      		out 55-32,r24
 899               	/* epilogue start */
 900               	.LM126:
 901 036a 0895      		ret
 902               	.LFE22:
 904               	.global	lcd_byte
 906               	lcd_byte:
 907               	.LFB21:
 908               	.LM127:
 909               	.LVL51:
 910               	/* prologue: function */
 911               	/* frame size = 0 */
 912 036c 282F      		mov r18,r24
 913               	.LM128:
 914 036e 6623      		tst r22
 915 0370 01F4      		brne .L78
 916               	.LVL52:
 917               	.LM129:
 918 0372 C598      		cbi 56-32,5
 919 0374 00C0      		rjmp .L79
 920               	.L78:
 921               	.LM130:
 922 0376 C59A      		sbi 56-32,5
 923               	.L79:
 924               	.LBB478:
 925               	.LBB479:
 926               	.LBB480:
 927               	.LBB481:
 928               	.LM131:
 929 0378 82E0      		ldi r24,lo8(2)
 930               	.LVL53:
 931               	/* #APP */
 932               	 ;  83 "c:/winavr-20100110/lib/gcc/../../avr/include/util/delay_basic.h" 1
 933 037a 8A95      		1: dec r24
 934 037c 01F4      		brne 1b
 935               	 ;  0 "" 2
 936               	/* #NOAPP */
 937               	.LBE481:
 938               	.LBE480:
 939               	.LBE479:
 940               	.LBE478:
 941               	.LM132:
 942 037e C79A      		sbi 56-32,7
 943               	.LM133:
 944 0380 88B3      		in r24,56-32
 945               	.LVL54:
 946 0382 922F      		mov r25,r18
 947 0384 9295      		swap r25
 948 0386 9F70      		andi r25,lo8(15)
 949 0388 807F      		andi r24,lo8(-16)
 950 038a 982B      		or r25,r24
 951               	.LM134:
 952 038c 98BB      		out 56-32,r25
 953               	.LBB482:
 954               	.LBB483:
 955               	.LBB484:
 956               	.LBB485:
 957               	.LM135:
 958 038e 95E0      		ldi r25,lo8(5)
 959 0390 892F      		mov r24,r25
 960               	.LVL55:
 961               	/* #APP */
 962               	 ;  83 "c:/winavr-20100110/lib/gcc/../../avr/include/util/delay_basic.h" 1
 963 0392 8A95      		1: dec r24
 964 0394 01F4      		brne 1b
 965               	 ;  0 "" 2
 966               	/* #NOAPP */
 967               	.LBE485:
 968               	.LBE484:
 969               	.LBE483:
 970               	.LBE482:
 971               	.LM136:
 972 0396 C798      		cbi 56-32,7
 973               	.LBB486:
 974               	.LBB487:
 975               	.LBB488:
 976               	.LBB489:
 977               	.LM137:
 978 0398 892F      		mov r24,r25
 979               	.LVL56:
 980               	/* #APP */
 981               	 ;  83 "c:/winavr-20100110/lib/gcc/../../avr/include/util/delay_basic.h" 1
 982 039a 8A95      		1: dec r24
 983 039c 01F4      		brne 1b
 984               	 ;  0 "" 2
 985               	/* #NOAPP */
 986               	.LBE489:
 987               	.LBE488:
 988               	.LBE487:
 989               	.LBE486:
 990               	.LM138:
 991 039e C79A      		sbi 56-32,7
 992               	.LM139:
 993 03a0 88B3      		in r24,56-32
 994               	.LVL57:
 995 03a2 2F70      		andi r18,lo8(15)
 996 03a4 807F      		andi r24,lo8(-16)
 997 03a6 822B      		or r24,r18
 998               	.LM140:
 999 03a8 88BB      		out 56-32,r24
 1000               	.LBB490:
 1001               	.LBB491:
 1002               	.LBB492:
 1003               	.LBB493:
 1004               	.LM141:
 1005 03aa 892F      		mov r24,r25
 1006               	.LVL58:
 1007               	/* #APP */
 1008               	 ;  83 "c:/winavr-20100110/lib/gcc/../../avr/include/util/delay_basic.h" 1
 1009 03ac 8A95      		1: dec r24
 1010 03ae 01F4      		brne 1b
 1011               	 ;  0 "" 2
 1012               	/* #NOAPP */
 1013               	.LBE493:
 1014               	.LBE492:
 1015               	.LBE491:
 1016               	.LBE490:
 1017               	.LM142:
 1018 03b0 C798      		cbi 56-32,7
 1019               	.LBB494:
 1020               	.LBB495:
 1021               	.LBB496:
 1022               	.LBB497:
 1023               	.LM143:
 1024               	/* #APP */
 1025               	 ;  83 "c:/winavr-20100110/lib/gcc/../../avr/include/util/delay_basic.h" 1
 1026 03b2 9A95      		1: dec r25
 1027 03b4 01F4      		brne 1b
 1028               	 ;  0 "" 2
 1029               	.LVL59:
 1030               	/* #NOAPP */
 1031               	.LBE497:
 1032               	.LBE496:
 1033               	.LBE495:
 1034               	.LBE494:
 1035               	.LM144:
 1036 03b6 0E94 0000 		call lcd_busy_loop
 1037               	.LVL60:
 1038               	/* epilogue start */
 1039               	.LM145:
 1040 03ba 0895      		ret
 1041               	.LFE21:
 1043               	.global	lcd_init
 1045               	lcd_init:
 1046               	.LFB23:
 1047               	.LM146:
 1048               	.LVL61:
 1049 03bc 1F93      		push r17
 1050               	/* prologue: function */
 1051               	/* frame size = 0 */
 1052 03be 182F      		mov r17,r24
 1053               	.LM147:
 1054 03c0 8CE2      		ldi r24,lo8(300)
 1055 03c2 91E0      		ldi r25,hi8(300)
 1056               	.LVL62:
 1057               	.LBB498:
 1058               	.LBB499:
 1059               	.LBB500:
 1060               	.LBB501:
 1061               	.LM148:
 1062 03c4 20E9      		ldi r18,lo8(400)
 1063 03c6 31E0      		ldi r19,hi8(400)
 1064               	.L82:
 1065 03c8 F901      		movw r30,r18
 1066               	.LVL63:
 1067               	/* #APP */
 1068               	 ;  105 "c:/winavr-20100110/lib/gcc/../../avr/include/util/delay_basic.h" 1
 1069 03ca 3197      		1: sbiw r30,1
 1070 03cc 01F4      		brne 1b
 1071               	 ;  0 "" 2
 1072               	/* #NOAPP */
 1073               	.LBE501:
 1074               	.LBE500:
 1075               	.LM149:
 1076 03ce 0197      		sbiw r24,1
 1077               	.LM150:
 1078 03d0 01F4      		brne .L82
 1079               	.LBE499:
 1080               	.LBE498:
 1081               	.LM151:
 1082 03d2 87B3      		in r24,55-32
 1083               	.LVL64:
 1084 03d4 8F60      		ori r24,lo8(15)
 1085 03d6 87BB      		out 55-32,r24
 1086               	.LM152:
 1087 03d8 BF9A      		sbi 55-32,7
 1088               	.LM153:
 1089 03da BD9A      		sbi 55-32,5
 1090               	.LM154:
 1091 03dc BE9A      		sbi 55-32,6
 1092               	.LM155:
 1093 03de 88B3      		in r24,56-32
 1094 03e0 807F      		andi r24,lo8(-16)
 1095 03e2 88BB      		out 56-32,r24
 1096               	.LM156:
 1097 03e4 C798      		cbi 56-32,7
 1098               	.LM157:
 1099 03e6 C698      		cbi 56-32,6
 1100               	.LM158:
 1101 03e8 C598      		cbi 56-32,5
 1102               	.LBB502:
 1103               	.LBB503:
 1104               	.LBB504:
 1105               	.LBB505:
 1106               	.LM159:
 1107 03ea 81E0      		ldi r24,lo8(1)
 1108               	.LVL65:
 1109               	/* #APP */
 1110               	 ;  83 "c:/winavr-20100110/lib/gcc/../../avr/include/util/delay_basic.h" 1
 1111 03ec 8A95      		1: dec r24
 1112 03ee 01F4      		brne 1b
 1113               	 ;  0 "" 2
 1114               	/* #NOAPP */
 1115               	.LBE505:
 1116               	.LBE504:
 1117               	.LBE503:
 1118               	.LBE502:
 1119               	.LM160:
 1120 03f0 C79A      		sbi 56-32,7
 1121               	.LM161:
 1122 03f2 C19A      		sbi 56-32,1
 1123               	.LBB506:
 1124               	.LBB507:
 1125               	.LBB508:
 1126               	.LBB509:
 1127               	.LM162:
 1128 03f4 85E0      		ldi r24,lo8(5)
 1129               	.LVL66:
 1130 03f6 982F      		mov r25,r24
 1131               	.LVL67:
 1132               	/* #APP */
 1133               	 ;  83 "c:/winavr-20100110/lib/gcc/../../avr/include/util/delay_basic.h" 1
 1134 03f8 9A95      		1: dec r25
 1135 03fa 01F4      		brne 1b
 1136               	 ;  0 "" 2
 1137               	/* #NOAPP */
 1138               	.LBE509:
 1139               	.LBE508:
 1140               	.LBE507:
 1141               	.LBE506:
 1142               	.LM163:
 1143 03fc C798      		cbi 56-32,7
 1144               	.LBB510:
 1145               	.LBB511:
 1146               	.LBB512:
 1147               	.LBB513:
 1148               	.LM164:
 1149               	/* #APP */
 1150               	 ;  83 "c:/winavr-20100110/lib/gcc/../../avr/include/util/delay_basic.h" 1
 1151 03fe 8A95      		1: dec r24
 1152 0400 01F4      		brne 1b
 1153               	 ;  0 "" 2
 1154               	.LVL68:
 1155               	/* #NOAPP */
 1156               	.LBE513:
 1157               	.LBE512:
 1158               	.LBE511:
 1159               	.LBE510:
 1160               	.LM165:
 1161 0402 0E94 0000 		call lcd_busy_loop
 1162               	.LVL69:
 1163               	.LM166:
 1164 0406 812F      		mov r24,r17
 1165 0408 8C60      		ori r24,lo8(12)
 1166 040a 60E0      		ldi r22,lo8(0)
 1167 040c 0E94 0000 		call lcd_byte
 1168               	.LM167:
 1169 0410 88E2      		ldi r24,lo8(40)
 1170 0412 60E0      		ldi r22,lo8(0)
 1171 0414 0E94 0000 		call lcd_byte
 1172               	/* epilogue start */
 1173               	.LM168:
 1174 0418 1F91      		pop r17
 1175               	.LVL70:
 1176 041a 0895      		ret
 1177               	.LFE23:
 1179               	.global	lcd_write_string
 1181               	lcd_write_string:
 1182               	.LFB24:
 1183               	.LM169:
 1184               	.LVL71:
 1185 041c CF93      		push r28
 1186 041e DF93      		push r29
 1187               	/* prologue: function */
 1188               	/* frame size = 0 */
 1189 0420 EC01      		movw r28,r24
 1190 0422 00C0      		rjmp .L86
 1191               	.LVL72:
 1192               	.L87:
 1193               	.LM170:
 1194 0424 61E0      		ldi r22,lo8(1)
 1195 0426 0E94 0000 		call lcd_byte
 1196               	.LM171:
 1197 042a 2196      		adiw r28,1
 1198               	.LVL73:
 1199               	.L86:
 1200               	.LM172:
 1201 042c 8881      		ld r24,Y
 1202 042e 8823      		tst r24
 1203 0430 01F4      		brne .L87
 1204               	/* epilogue start */
 1205               	.LM173:
 1206 0432 DF91      		pop r29
 1207 0434 CF91      		pop r28
 1208               	.LVL74:
 1209 0436 0895      		ret
 1210               	.LFE24:
 1212               	.global	lcd_write_int
 1214               	lcd_write_int:
 1215               	.LFB25:
 1216               	.LM174:
 1217               	.LVL75:
 1218 0438 EF92      		push r14
 1219 043a FF92      		push r15
 1220 043c 0F93      		push r16
 1221 043e 1F93      		push r17
 1222 0440 DF93      		push r29
 1223 0442 CF93      		push r28
 1224 0444 00D0      		rcall .
 1225 0446 00D0      		rcall .
 1226 0448 0F92      		push __tmp_reg__
 1227 044a CDB7      		in r28,__SP_L__
 1228 044c DEB7      		in r29,__SP_H__
 1229               	/* prologue: function */
 1230               	/* frame size = 5 */
 1231 044e 9C01      		movw r18,r24
 1232 0450 8B01      		movw r16,r22
 1233               	.LM175:
 1234 0452 FE01      		movw r30,r28
 1235 0454 3196      		adiw r30,1
 1236 0456 85E0      		ldi r24,lo8(5)
 1237               	.LVL76:
 1238 0458 DF01      		movw r26,r30
 1239 045a 1D92      		st X+,__zero_reg__
 1240 045c 8A95      	        dec r24
 1241 045e 01F4      		brne .-6
 1242 0460 FE01      		movw r30,r28
 1243 0462 3596      		adiw r30,5
 1244 0464 00C0      		rjmp .L90
 1245               	.LVL77:
 1246               	.L91:
 1247               	.LM176:
 1248 0466 C901      		movw r24,r18
 1249 0468 6AE0      		ldi r22,lo8(10)
 1250 046a 70E0      		ldi r23,hi8(10)
 1251 046c 0E94 0000 		call __divmodhi4
 1252 0470 8083      		st Z,r24
 1253               	.LM177:
 1254 0472 C901      		movw r24,r18
 1255 0474 6AE0      		ldi r22,lo8(10)
 1256 0476 70E0      		ldi r23,hi8(10)
 1257 0478 0E94 0000 		call __divmodhi4
 1258 047c 9B01      		movw r18,r22
 1259 047e 3197      		sbiw r30,1
 1260               	.LVL78:
 1261               	.L90:
 1262               	.LM178:
 1263 0480 2115      		cp r18,__zero_reg__
 1264 0482 3105      		cpc r19,__zero_reg__
 1265 0484 01F4      		brne .L91
 1266               	.LM179:
 1267 0486 BFEF      		ldi r27,hi8(-1)
 1268 0488 0F3F      		cpi r16,lo8(-1)
 1269 048a 1B07      		cpc r17,r27
 1270 048c 01F4      		brne .L92
 1271 048e 20E0      		ldi r18,lo8(0)
 1272 0490 30E0      		ldi r19,hi8(0)
 1273               	.LVL79:
 1274               	.LM180:
 1275 0492 AE01      		movw r20,r28
 1276 0494 4F5F      		subi r20,lo8(-(1))
 1277 0496 5F4F      		sbci r21,hi8(-(1))
 1278 0498 00C0      		rjmp .L93
 1279               	.L94:
 1280 049a 2F5F      		subi r18,lo8(-(1))
 1281 049c 3F4F      		sbci r19,hi8(-(1))
 1282               	.L93:
 1283 049e FA01      		movw r30,r20
 1284 04a0 E20F      		add r30,r18
 1285 04a2 F31F      		adc r31,r19
 1286 04a4 8081      		ld r24,Z
 1287 04a6 8823      		tst r24
 1288 04a8 01F0      		breq .L94
 1289 04aa 00C0      		rjmp .L95
 1290               	.LVL80:
 1291               	.L92:
 1292               	.LM181:
 1293 04ac 25E0      		ldi r18,lo8(5)
 1294 04ae 30E0      		ldi r19,hi8(5)
 1295               	.LVL81:
 1296 04b0 201B      		sub r18,r16
 1297 04b2 310B      		sbc r19,r17
 1298               	.L95:
 1299 04b4 7E01      		movw r14,r28
 1300 04b6 0894      		sec
 1301 04b8 E11C      		adc r14,__zero_reg__
 1302 04ba F11C      		adc r15,__zero_reg__
 1303 04bc E20E      		add r14,r18
 1304 04be F31E      		adc r15,r19
 1305 04c0 8901      		movw r16,r18
 1306               	.LVL82:
 1307 04c2 00C0      		rjmp .L96
 1308               	.L97:
 1309               	.LM182:
 1310 04c4 F701      		movw r30,r14
 1311 04c6 8191      		ld r24,Z+
 1312 04c8 7F01      		movw r14,r30
 1313 04ca 805D      		subi r24,lo8(-(48))
 1314 04cc 61E0      		ldi r22,lo8(1)
 1315               	.LVL83:
 1316 04ce 0E94 0000 		call lcd_byte
 1317               	.LVL84:
 1318               	.LM183:
 1319 04d2 0F5F      		subi r16,lo8(-(1))
 1320 04d4 1F4F      		sbci r17,hi8(-(1))
 1321               	.LVL85:
 1322               	.L96:
 1323 04d6 0530      		cpi r16,5
 1324 04d8 1105      		cpc r17,__zero_reg__
 1325 04da 04F0      		brlt .L97
 1326               	/* epilogue start */
 1327               	.LM184:
 1328 04dc 0F90      		pop __tmp_reg__
 1329 04de 0F90      		pop __tmp_reg__
 1330 04e0 0F90      		pop __tmp_reg__
 1331 04e2 0F90      		pop __tmp_reg__
 1332 04e4 0F90      		pop __tmp_reg__
 1333 04e6 CF91      		pop r28
 1334 04e8 DF91      		pop r29
 1335 04ea 1F91      		pop r17
 1336 04ec 0F91      		pop r16
 1337               	.LVL86:
 1338 04ee FF90      		pop r15
 1339 04f0 EF90      		pop r14
 1340 04f2 0895      		ret
 1341               	.LFE25:
 1343               	.global	lcd_goto_xy
 1345               	lcd_goto_xy:
 1346               	.LFB26:
 1347               	.LM185:
 1348               	.LVL87:
 1349               	/* prologue: function */
 1350               	/* frame size = 0 */
 1351               	.LM186:
 1352 04f4 8832      		cpi r24,lo8(40)
 1353 04f6 00F4      		brsh .L102
 1354               	.LM187:
 1355 04f8 6111      		cpse r22,__zero_reg__
 1356 04fa 8064      		ori r24,lo8(64)
 1357               	.LVL88:
 1358               	.L101:
 1359               	.LM188:
 1360 04fc 8068      		ori r24,lo8(-128)
 1361               	.LVL89:
 1362 04fe 60E0      		ldi r22,lo8(0)
 1363               	.LVL90:
 1364 0500 0E94 0000 		call lcd_byte
 1365               	.LVL91:
 1366               	.L102:
 1367 0504 0895      		ret
 1368               	.LFE26:
 1370               	.global	lcd_write_string_xy
 1372               	lcd_write_string_xy:
 1373               	.LFB27:
 1374               	.LM189:
 1375               	.LVL92:
 1376 0506 0F93      		push r16
 1377 0508 1F93      		push r17
 1378               	/* prologue: function */
 1379               	/* frame size = 0 */
 1380 050a 8A01      		movw r16,r20
 1381               	.LM190:
 1382 050c 0E94 0000 		call lcd_goto_xy
 1383               	.LVL93:
 1384               	.LM191:
 1385 0510 C801      		movw r24,r16
 1386 0512 0E94 0000 		call lcd_write_string
 1387               	/* epilogue start */
 1388               	.LM192:
 1389 0516 1F91      		pop r17
 1390 0518 0F91      		pop r16
 1391               	.LVL94:
 1392 051a 0895      		ret
 1393               	.LFE27:
 1395               	.global	lcd_write_int_xy
 1397               	lcd_write_int_xy:
 1398               	.LFB28:
 1399               	.LM193:
 1400               	.LVL95:
 1401 051c EF92      		push r14
 1402 051e FF92      		push r15
 1403 0520 0F93      		push r16
 1404 0522 1F93      		push r17
 1405               	/* prologue: function */
 1406               	/* frame size = 0 */
 1407 0524 8A01      		movw r16,r20
 1408 0526 7901      		movw r14,r18
 1409               	.LM194:
 1410 0528 0E94 0000 		call lcd_goto_xy
 1411               	.LVL96:
 1412               	.LM195:
 1413 052c C801      		movw r24,r16
 1414 052e B701      		movw r22,r14
 1415 0530 0E94 0000 		call lcd_write_int
 1416               	/* epilogue start */
 1417               	.LM196:
 1418 0534 1F91      		pop r17
 1419 0536 0F91      		pop r16
 1420               	.LVL97:
 1421 0538 FF90      		pop r15
 1422 053a EF90      		pop r14
 1423               	.LVL98:
 1424 053c 0895      		ret
 1425               	.LFE28:
 1427               	.global	usart_init
 1429               	usart_init:
 1430               	.LFB29:
 1431               	.LM197:
 1432               	/* prologue: function */
 1433               	/* frame size = 0 */
 1434               	.LM198:
 1435 053e 1AB8      		out 42-32,__zero_reg__
 1436               	.LM199:
 1437 0540 1BB8      		out 43-32,__zero_reg__
 1438               	.LM200:
 1439 0542 87E0      		ldi r24,lo8(7)
 1440 0544 80BD      		out 64-32,r24
 1441               	.LM201:
 1442 0546 87E6      		ldi r24,lo8(103)
 1443 0548 89B9      		out 41-32,r24
 1444               	.LM202:
 1445 054a 10BC      		out 64-32,__zero_reg__
 1446               	.LM203:
 1447 054c 88E9      		ldi r24,lo8(-104)
 1448 054e 8AB9      		out 42-32,r24
 1449               	/* epilogue start */
 1450               	.LM204:
 1451 0550 0895      		ret
 1452               	.LFE29:
 1454               	.global	usart_transmit_char
 1456               	usart_transmit_char:
 1457               	.LFB30:
 1458               	.LM205:
 1459               	/* prologue: function */
 1460               	/* frame size = 0 */
 1461               	.LVL99:
 1462               	.L110:
 1463               	.LM206:
 1464 0552 5D9B      		sbis 43-32,5
 1465 0554 00C0      		rjmp .L110
 1466               	.LM207:
 1467 0556 8CB9      		out 44-32,r24
 1468               	/* epilogue start */
 1469               	.LM208:
 1470 0558 0895      		ret
 1471               	.LFE30:
 1473               	.global	usart_transmit_string
 1475               	usart_transmit_string:
 1476               	.LFB31:
 1477               	.LM209:
 1478               	.LVL100:
 1479               	/* prologue: function */
 1480               	/* frame size = 0 */
 1481 055a FC01      		movw r30,r24
 1482 055c 00C0      		rjmp .L114
 1483               	.LVL101:
 1484               	.L117:
 1485               	.LBB514:
 1486               	.LBB515:
 1487               	.LM210:
 1488 055e 5D9B      		sbis 43-32,5
 1489 0560 00C0      		rjmp .L117
 1490               	.LM211:
 1491 0562 8CB9      		out 44-32,r24
 1492               	.LBE515:
 1493               	.LBE514:
 1494               	.LM212:
 1495 0564 3196      		adiw r30,1
 1496               	.LVL102:
 1497               	.L114:
 1498               	.LM213:
 1499 0566 8081      		ld r24,Z
 1500 0568 8823      		tst r24
 1501 056a 01F4      		brne .L117
 1502               	/* epilogue start */
 1503               	.LM214:
 1504 056c 0895      		ret
 1505               	.LFE31:
 1507               	.global	usart_transmit_newline
 1509               	usart_transmit_newline:
 1510               	.LFB32:
 1511               	.LM215:
 1512               	/* prologue: function */
 1513               	/* frame size = 0 */
 1514               	.L120:
 1515               	.LBB516:
 1516               	.LBB517:
 1517               	.LM216:
 1518 056e 5D9B      		sbis 43-32,5
 1519 0570 00C0      		rjmp .L120
 1520               	.LM217:
 1521 0572 8AE0      		ldi r24,lo8(10)
 1522 0574 8CB9      		out 44-32,r24
 1523               	.L121:
 1524               	.LBE517:
 1525               	.LBE516:
 1526               	.LBB518:
 1527               	.LBB519:
 1528               	.LM218:
 1529 0576 5D9B      		sbis 43-32,5
 1530 0578 00C0      		rjmp .L121
 1531               	.LM219:
 1532 057a 8DE0      		ldi r24,lo8(13)
 1533 057c 8CB9      		out 44-32,r24
 1534               	/* epilogue start */
 1535               	.LBE519:
 1536               	.LBE518:
 1537               	.LM220:
 1538 057e 0895      		ret
 1539               	.LFE32:
 1541               	.global	usart_receive_char
 1543               	usart_receive_char:
 1544               	.LFB33:
 1545               	.LM221:
 1546               	/* prologue: function */
 1547               	/* frame size = 0 */
 1548               	.L126:
 1549               	.LM222:
 1550 0580 5F9B      		sbis 43-32,7
 1551 0582 00C0      		rjmp .L126
 1552               	.LM223:
 1553 0584 8CB1      		in r24,44-32
 1554               	/* epilogue start */
 1555               	.LM224:
 1556 0586 0895      		ret
 1557               	.LFE33:
 1559               	.global	bot_motion_init
 1561               	bot_motion_init:
 1562               	.LFB34:
 1563               	.LM225:
 1564               	/* prologue: function */
 1565               	/* frame size = 0 */
 1566               	.LM226:
 1567 0588 8FEF      		ldi r24,lo8(-1)
 1568 058a 84BB      		out 52-32,r24
 1569               	/* epilogue start */
 1570               	.LM227:
 1571 058c 0895      		ret
 1572               	.LFE34:
 1574               	.global	bot_left_forward
 1576               	bot_left_forward:
 1577               	.LFB35:
 1578               	.LM228:
 1579               	/* prologue: function */
 1580               	/* frame size = 0 */
 1581               	.LM229:
 1582 058e AC9A      		sbi 53-32,4
 1583               	.LM230:
 1584 0590 AD98      		cbi 53-32,5
 1585               	.LM231:
 1586 0592 AE98      		cbi 53-32,6
 1587               	.LM232:
 1588 0594 AF98      		cbi 53-32,7
 1589               	/* epilogue start */
 1590               	.LM233:
 1591 0596 0895      		ret
 1592               	.LFE35:
 1594               	.global	bot_left_backward
 1596               	bot_left_backward:
 1597               	.LFB36:
 1598               	.LM234:
 1599               	/* prologue: function */
 1600               	/* frame size = 0 */
 1601               	.LM235:
 1602 0598 AC98      		cbi 53-32,4
 1603               	.LM236:
 1604 059a AD9A      		sbi 53-32,5
 1605               	.LM237:
 1606 059c AE98      		cbi 53-32,6
 1607               	.LM238:
 1608 059e AF98      		cbi 53-32,7
 1609               	/* epilogue start */
 1610               	.LM239:
 1611 05a0 0895      		ret
 1612               	.LFE36:
 1614               	.global	bot_right_forward
 1616               	bot_right_forward:
 1617               	.LFB37:
 1618               	.LM240:
 1619               	/* prologue: function */
 1620               	/* frame size = 0 */
 1621               	.LM241:
 1622 05a2 AC98      		cbi 53-32,4
 1623               	.LM242:
 1624 05a4 AD98      		cbi 53-32,5
 1625               	.LM243:
 1626 05a6 AE9A      		sbi 53-32,6
 1627               	.LM244:
 1628 05a8 AF98      		cbi 53-32,7
 1629               	/* epilogue start */
 1630               	.LM245:
 1631 05aa 0895      		ret
 1632               	.LFE37:
 1634               	.global	bot_left
 1636               	bot_left:
 1637               	.LFB38:
 1638               	.LM246:
 1639               	/* prologue: function */
 1640               	/* frame size = 0 */
 1641               	.LBB520:
 1642               	.LBB521:
 1643               	.LM247:
 1644 05ac AC98      		cbi 53-32,4
 1645               	.LM248:
 1646 05ae AD98      		cbi 53-32,5
 1647               	.LM249:
 1648 05b0 AE9A      		sbi 53-32,6
 1649               	.LM250:
 1650 05b2 AF98      		cbi 53-32,7
 1651               	/* epilogue start */
 1652               	.LBE521:
 1653               	.LBE520:
 1654               	.LM251:
 1655 05b4 0895      		ret
 1656               	.LFE38:
 1658               	.global	bot_right
 1660               	bot_right:
 1661               	.LFB39:
 1662               	.LM252:
 1663               	/* prologue: function */
 1664               	/* frame size = 0 */
 1665               	.LBB522:
 1666               	.LBB523:
 1667               	.LM253:
 1668 05b6 AC9A      		sbi 53-32,4
 1669               	.LM254:
 1670 05b8 AD98      		cbi 53-32,5
 1671               	.LM255:
 1672 05ba AE98      		cbi 53-32,6
 1673               	.LM256:
 1674 05bc AF98      		cbi 53-32,7
 1675               	/* epilogue start */
 1676               	.LBE523:
 1677               	.LBE522:
 1678               	.LM257:
 1679 05be 0895      		ret
 1680               	.LFE39:
 1682               	.global	bot_right_backward
 1684               	bot_right_backward:
 1685               	.LFB40:
 1686               	.LM258:
 1687               	/* prologue: function */
 1688               	/* frame size = 0 */
 1689               	.LM259:
 1690 05c0 AC98      		cbi 53-32,4
 1691               	.LM260:
 1692 05c2 AD98      		cbi 53-32,5
 1693               	.LM261:
 1694 05c4 AE98      		cbi 53-32,6
 1695               	.LM262:
 1696 05c6 AF9A      		sbi 53-32,7
 1697               	/* epilogue start */
 1698               	.LM263:
 1699 05c8 0895      		ret
 1700               	.LFE40:
 1702               	.global	bot_forward
 1704               	bot_forward:
 1705               	.LFB41:
 1706               	.LM264:
 1707               	/* prologue: function */
 1708               	/* frame size = 0 */
 1709               	.LM265:
 1710 05ca AC9A      		sbi 53-32,4
 1711               	.LM266:
 1712 05cc AD98      		cbi 53-32,5
 1713               	.LM267:
 1714 05ce AE9A      		sbi 53-32,6
 1715               	.LM268:
 1716 05d0 AF98      		cbi 53-32,7
 1717               	/* epilogue start */
 1718               	.LM269:
 1719 05d2 0895      		ret
 1720               	.LFE41:
 1722               	.global	bot_backward
 1724               	bot_backward:
 1725               	.LFB42:
 1726               	.LM270:
 1727               	/* prologue: function */
 1728               	/* frame size = 0 */
 1729               	.LM271:
 1730 05d4 AC98      		cbi 53-32,4
 1731               	.LM272:
 1732 05d6 AD9A      		sbi 53-32,5
 1733               	.LM273:
 1734 05d8 AE98      		cbi 53-32,6
 1735               	.LM274:
 1736 05da AF9A      		sbi 53-32,7
 1737               	/* epilogue start */
 1738               	.LM275:
 1739 05dc 0895      		ret
 1740               	.LFE42:
 1742               	.global	bot_spot_left
 1744               	bot_spot_left:
 1745               	.LFB43:
 1746               	.LM276:
 1747               	/* prologue: function */
 1748               	/* frame size = 0 */
 1749               	.LM277:
 1750 05de AC98      		cbi 53-32,4
 1751               	.LM278:
 1752 05e0 AD9A      		sbi 53-32,5
 1753               	.LM279:
 1754 05e2 AE9A      		sbi 53-32,6
 1755               	.LM280:
 1756 05e4 AF98      		cbi 53-32,7
 1757               	/* epilogue start */
 1758               	.LM281:
 1759 05e6 0895      		ret
 1760               	.LFE43:
 1762               	.global	bot_spot_right
 1764               	bot_spot_right:
 1765               	.LFB44:
 1766               	.LM282:
 1767               	/* prologue: function */
 1768               	/* frame size = 0 */
 1769               	.LM283:
 1770 05e8 AC9A      		sbi 53-32,4
 1771               	.LM284:
 1772 05ea AD98      		cbi 53-32,5
 1773               	.LM285:
 1774 05ec AE98      		cbi 53-32,6
 1775               	.LM286:
 1776 05ee AF9A      		sbi 53-32,7
 1777               	/* epilogue start */
 1778               	.LM287:
 1779 05f0 0895      		ret
 1780               	.LFE44:
 1782               	.global	bot_stop
 1784               	bot_stop:
 1785               	.LFB45:
 1786               	.LM288:
 1787               	/* prologue: function */
 1788               	/* frame size = 0 */
 1789               	.LM289:
 1790 05f2 AC98      		cbi 53-32,4
 1791               	.LM290:
 1792 05f4 AD98      		cbi 53-32,5
 1793               	.LM291:
 1794 05f6 AE98      		cbi 53-32,6
 1795               	.LM292:
 1796 05f8 AF98      		cbi 53-32,7
 1797               	/* epilogue start */
 1798               	.LM293:
 1799 05fa 0895      		ret
 1800               	.LFE45:
 1802               	.global	bot_brake
 1804               	bot_brake:
 1805               	.LFB46:
 1806               	.LM294:
 1807               	/* prologue: function */
 1808               	/* frame size = 0 */
 1809               	.LM295:
 1810 05fc AC9A      		sbi 53-32,4
 1811               	.LM296:
 1812 05fe AD9A      		sbi 53-32,5
 1813               	.LM297:
 1814 0600 AE9A      		sbi 53-32,6
 1815               	.LM298:
 1816 0602 AF9A      		sbi 53-32,7
 1817               	/* epilogue start */
 1818               	.LM299:
 1819 0604 0895      		ret
 1820               	.LFE46:
 1822               	.global	switch_init
 1824               	switch_init:
 1825               	.LFB47:
 1826               	.LM300:
 1827               	/* prologue: function */
 1828               	/* frame size = 0 */
 1829               	.LM301:
 1830 0606 82B3      		in r24,50-32
 1831 0608 8F60      		ori r24,lo8(15)
 1832 060a 82BB      		out 50-32,r24
 1833               	.LM302:
 1834 060c 81B3      		in r24,49-32
 1835 060e 807F      		andi r24,lo8(-16)
 1836 0610 81BB      		out 49-32,r24
 1837               	/* epilogue start */
 1838               	.LM303:
 1839 0612 0895      		ret
 1840               	.LFE47:
 1842               	.global	pressed_switch0
 1844               	pressed_switch0:
 1845               	.LFB48:
 1846               	.LM304:
 1847               	/* prologue: function */
 1848               	/* frame size = 0 */
 1849               	.LM305:
 1850 0614 20B3      		in r18,48-32
 1851 0616 30E0      		ldi r19,lo8(0)
 1852 0618 2095      		com r18
 1853 061a 3095      		com r19
 1854 061c 2170      		andi r18,lo8(1)
 1855 061e 3070      		andi r19,hi8(1)
 1856               	.LM306:
 1857 0620 C901      		movw r24,r18
 1858               	/* epilogue start */
 1859 0622 0895      		ret
 1860               	.LFE48:
 1862               	.global	pressed_switch1
 1864               	pressed_switch1:
 1865               	.LFB49:
 1866               	.LM307:
 1867               	/* prologue: function */
 1868               	/* frame size = 0 */
 1869               	.LM308:
 1870 0624 20B3      		in r18,48-32
 1871 0626 30E0      		ldi r19,lo8(0)
 1872 0628 3695      		lsr r19
 1873 062a 2795      		ror r18
 1874 062c 2095      		com r18
 1875 062e 3095      		com r19
 1876 0630 2170      		andi r18,lo8(1)
 1877 0632 3070      		andi r19,hi8(1)
 1878               	.LM309:
 1879 0634 C901      		movw r24,r18
 1880               	/* epilogue start */
 1881 0636 0895      		ret
 1882               	.LFE49:
 1884               	.global	pressed_switch2
 1886               	pressed_switch2:
 1887               	.LFB50:
 1888               	.LM310:
 1889               	/* prologue: function */
 1890               	/* frame size = 0 */
 1891               	.LM311:
 1892 0638 20B3      		in r18,48-32
 1893 063a 30E0      		ldi r19,lo8(0)
 1894 063c 3695      		lsr r19
 1895 063e 2795      		ror r18
 1896 0640 3695      		lsr r19
 1897 0642 2795      		ror r18
 1898 0644 2095      		com r18
 1899 0646 3095      		com r19
 1900 0648 2170      		andi r18,lo8(1)
 1901 064a 3070      		andi r19,hi8(1)
 1902               	.LM312:
 1903 064c C901      		movw r24,r18
 1904               	/* epilogue start */
 1905 064e 0895      		ret
 1906               	.LFE50:
 1908               	.global	pressed_switch3
 1910               	pressed_switch3:
 1911               	.LFB51:
 1912               	.LM313:
 1913               	/* prologue: function */
 1914               	/* frame size = 0 */
 1915               	.LM314:
 1916 0650 20B3      		in r18,48-32
 1917 0652 30E0      		ldi r19,lo8(0)
 1918 0654 43E0      		ldi r20,3
 1919 0656 3695      	1:	lsr r19
 1920 0658 2795      		ror r18
 1921 065a 4A95      		dec r20
 1922 065c 01F4      		brne 1b
 1923 065e 2095      		com r18
 1924 0660 3095      		com r19
 1925 0662 2170      		andi r18,lo8(1)
 1926 0664 3070      		andi r19,hi8(1)
 1927               	.LM315:
 1928 0666 C901      		movw r24,r18
 1929               	/* epilogue start */
 1930 0668 0895      		ret
 1931               	.LFE51:
 1933               	.global	line_track
 1935               	line_track:
 1936               	.LFB53:
 1937               	.LM316:
 1938 066a 6F92      		push r6
 1939 066c 7F92      		push r7
 1940 066e 8F92      		push r8
 1941 0670 9F92      		push r9
 1942 0672 AF92      		push r10
 1943 0674 BF92      		push r11
 1944 0676 CF92      		push r12
 1945 0678 DF92      		push r13
 1946 067a EF92      		push r14
 1947 067c FF92      		push r15
 1948 067e 0F93      		push r16
 1949 0680 1F93      		push r17
 1950               	/* prologue: function */
 1951               	/* frame size = 0 */
 1952               	.LBB524:
 1953               	.LBB525:
 1954               	.LM317:
 1955 0682 AC9A      		sbi 53-32,4
 1956               	.LM318:
 1957 0684 AD98      		cbi 53-32,5
 1958               	.LM319:
 1959 0686 AE9A      		sbi 53-32,6
 1960               	.LM320:
 1961 0688 AF98      		cbi 53-32,7
 1962               	.LBE525:
 1963               	.LBE524:
 1964               	.LM321:
 1965 068a 8091 0000 		lds r24,sensorbyte
 1966 068e 8630      		cpi r24,lo8(6)
 1967 0690 01F0      		breq .L181
 1968 0692 8730      		cpi r24,lo8(7)
 1969 0694 00F4      		brsh .L176
 1970 0696 8230      		cpi r24,lo8(2)
 1971 0698 01F0      		breq .L168
 1972 069a 8330      		cpi r24,lo8(3)
 1973 069c 00F4      		brsh .L177
 1974 069e 8130      		cpi r24,lo8(1)
 1975 06a0 01F4      		brne .L166
 1976 06a2 00C0      		rjmp .L184
 1977               	.L177:
 1978 06a4 8330      		cpi r24,lo8(3)
 1979 06a6 01F0      		breq .L169
 1980 06a8 8430      		cpi r24,lo8(4)
 1981 06aa 01F4      		brne .L166
 1982 06ac 00C0      		rjmp .L185
 1983               	.L176:
 1984 06ae 8830      		cpi r24,lo8(8)
 1985 06b0 01F0      		breq .L173
 1986 06b2 8830      		cpi r24,lo8(8)
 1987 06b4 00F0      		brlo .L172
 1988 06b6 8C30      		cpi r24,lo8(12)
 1989 06b8 01F0      		breq .L174
 1990 06ba 8E30      		cpi r24,lo8(14)
 1991 06bc 01F4      		brne .L166
 1992 06be 00C0      		rjmp .L186
 1993               	.L185:
 1994               	.LM322:
 1995 06c0 81E0      		ldi r24,lo8(1)
 1996 06c2 90E0      		ldi r25,hi8(1)
 1997 06c4 00C0      		rjmp .L180
 1998               	.L168:
 1999               	.LM323:
 2000 06c6 8FEF      		ldi r24,lo8(-1)
 2001 06c8 9FEF      		ldi r25,hi8(-1)
 2002 06ca 00C0      		rjmp .L180
 2003               	.L174:
 2004               	.LM324:
 2005 06cc 83E0      		ldi r24,lo8(3)
 2006 06ce 90E0      		ldi r25,hi8(3)
 2007 06d0 00C0      		rjmp .L180
 2008               	.L169:
 2009               	.LM325:
 2010 06d2 8DEF      		ldi r24,lo8(-3)
 2011 06d4 9FEF      		ldi r25,hi8(-3)
 2012 06d6 00C0      		rjmp .L183
 2013               	.L186:
 2014               	.LM326:
 2015 06d8 84E0      		ldi r24,lo8(4)
 2016 06da 90E0      		ldi r25,hi8(4)
 2017 06dc 00C0      		rjmp .L180
 2018               	.L172:
 2019               	.LM327:
 2020 06de 8CEF      		ldi r24,lo8(-4)
 2021 06e0 9FEF      		ldi r25,hi8(-4)
 2022               	.L183:
 2023 06e2 9093 0000 		sts (mpos)+1,r25
 2024 06e6 8093 0000 		sts mpos,r24
 2025               	.LM328:
 2026 06ea 8091 0000 		lds r24,flag1
 2027 06ee 9091 0000 		lds r25,(flag1)+1
 2028 06f2 0197      		sbiw r24,1
 2029 06f4 01F4      		brne .L166
 2030               	.L181:
 2031               	.LM329:
 2032 06f6 1092 0000 		sts (mpos)+1,__zero_reg__
 2033 06fa 1092 0000 		sts mpos,__zero_reg__
 2034 06fe 00C0      		rjmp .L166
 2035               	.L173:
 2036               	.LM330:
 2037 0700 86E0      		ldi r24,lo8(6)
 2038 0702 90E0      		ldi r25,hi8(6)
 2039 0704 00C0      		rjmp .L180
 2040               	.L184:
 2041               	.LM331:
 2042 0706 8AEF      		ldi r24,lo8(-6)
 2043 0708 9FEF      		ldi r25,hi8(-6)
 2044               	.L180:
 2045 070a 9093 0000 		sts (mpos)+1,r25
 2046 070e 8093 0000 		sts mpos,r24
 2047               	.L166:
 2048               	.LM332:
 2049 0712 6091 0000 		lds r22,mpos
 2050 0716 7091 0000 		lds r23,(mpos)+1
 2051 071a 8827      		clr r24
 2052 071c 77FD      		sbrc r23,7
 2053 071e 8095      		com r24
 2054 0720 982F      		mov r25,r24
 2055 0722 0E94 0000 		call __floatsisf
 2056 0726 5B01      		movw r10,r22
 2057 0728 6C01      		movw r12,r24
 2058 072a 6091 0000 		lds r22,prev_error
 2059 072e 7091 0000 		lds r23,(prev_error)+1
 2060 0732 8091 0000 		lds r24,(prev_error)+2
 2061 0736 9091 0000 		lds r25,(prev_error)+3
 2062 073a A601      		movw r20,r12
 2063 073c 9501      		movw r18,r10
 2064 073e 0E94 0000 		call __subsf3
 2065 0742 7B01      		movw r14,r22
 2066 0744 8C01      		movw r16,r24
 2067 0746 6093 0000 		sts act_error,r22
 2068 074a 7093 0000 		sts (act_error)+1,r23
 2069 074e 8093 0000 		sts (act_error)+2,r24
 2070 0752 9093 0000 		sts (act_error)+3,r25
 2071               	.LM333:
 2072 0756 C601      		movw r24,r12
 2073 0758 B501      		movw r22,r10
 2074 075a 2091 0000 		lds r18,kp
 2075 075e 3091 0000 		lds r19,(kp)+1
 2076 0762 4091 0000 		lds r20,(kp)+2
 2077 0766 5091 0000 		lds r21,(kp)+3
 2078 076a 0E94 0000 		call __mulsf3
 2079 076e 3B01      		movw r6,r22
 2080 0770 4C01      		movw r8,r24
 2081 0772 C801      		movw r24,r16
 2082 0774 B701      		movw r22,r14
 2083 0776 2091 0000 		lds r18,kd
 2084 077a 3091 0000 		lds r19,(kd)+1
 2085 077e 4091 0000 		lds r20,(kd)+2
 2086 0782 5091 0000 		lds r21,(kd)+3
 2087 0786 0E94 0000 		call __mulsf3
 2088 078a 9B01      		movw r18,r22
 2089 078c AC01      		movw r20,r24
 2090 078e C401      		movw r24,r8
 2091 0790 B301      		movw r22,r6
 2092 0792 0E94 0000 		call __subsf3
 2093 0796 7B01      		movw r14,r22
 2094 0798 8C01      		movw r16,r24
 2095 079a 6093 0000 		sts control,r22
 2096 079e 7093 0000 		sts (control)+1,r23
 2097 07a2 8093 0000 		sts (control)+2,r24
 2098 07a6 9093 0000 		sts (control)+3,r25
 2099               	.LM334:
 2100 07aa A092 0000 		sts prev_error,r10
 2101 07ae B092 0000 		sts (prev_error)+1,r11
 2102 07b2 C092 0000 		sts (prev_error)+2,r12
 2103 07b6 D092 0000 		sts (prev_error)+3,r13
 2104               	.LM335:
 2105 07ba 6091 0000 		lds r22,opt
 2106 07be 7091 0000 		lds r23,(opt)+1
 2107 07c2 80E0      		ldi r24,lo8(0)
 2108 07c4 90E0      		ldi r25,hi8(0)
 2109 07c6 0E94 0000 		call __floatunsisf
 2110 07ca 5B01      		movw r10,r22
 2111 07cc 6C01      		movw r12,r24
 2112               	.LBB526:
 2113               	.LBB527:
 2114               	.LM336:
 2115 07ce A801      		movw r20,r16
 2116 07d0 9701      		movw r18,r14
 2117 07d2 0E94 0000 		call __subsf3
 2118 07d6 0E94 0000 		call __fixsfsi
 2119 07da 7BBD      		out (74)+1-32,r23
 2120 07dc 6ABD      		out 74-32,r22
 2121               	.LBE527:
 2122               	.LBE526:
 2123               	.LBB528:
 2124               	.LBB529:
 2125               	.LM337:
 2126 07de C601      		movw r24,r12
 2127 07e0 B501      		movw r22,r10
 2128 07e2 A801      		movw r20,r16
 2129 07e4 9701      		movw r18,r14
 2130 07e6 0E94 0000 		call __addsf3
 2131 07ea 0E94 0000 		call __fixsfsi
 2132 07ee 79BD      		out (72)+1-32,r23
 2133 07f0 68BD      		out 72-32,r22
 2134               	/* epilogue start */
 2135               	.LBE529:
 2136               	.LBE528:
 2137               	.LM338:
 2138 07f2 1F91      		pop r17
 2139 07f4 0F91      		pop r16
 2140 07f6 FF90      		pop r15
 2141 07f8 EF90      		pop r14
 2142 07fa DF90      		pop r13
 2143 07fc CF90      		pop r12
 2144 07fe BF90      		pop r11
 2145 0800 AF90      		pop r10
 2146 0802 9F90      		pop r9
 2147 0804 8F90      		pop r8
 2148 0806 7F90      		pop r7
 2149 0808 6F90      		pop r6
 2150 080a 0895      		ret
 2151               	.LFE53:
 2153               	.global	init_devices
 2155               	init_devices:
 2156               	.LFB54:
 2157               	.LM339:
 2158               	/* prologue: function */
 2159               	/* frame size = 0 */
 2160               	.LM340:
 2161 080c 0E94 0000 		call port_init
 2162               	.LBB530:
 2163               	.LBB531:
 2164               	.LM341:
 2165 0810 1ABA      		out 58-32,__zero_reg__
 2166               	.LM342:
 2167 0812 16B8      		out 38-32,__zero_reg__
 2168               	.LM343:
 2169 0814 80E6      		ldi r24,lo8(96)
 2170 0816 87B9      		out 39-32,r24
 2171               	.LM344:
 2172 0818 87E8      		ldi r24,lo8(-121)
 2173 081a 86B9      		out 38-32,r24
 2174               	.LM345:
 2175 081c 80E8      		ldi r24,lo8(-128)
 2176 081e 88B9      		out 40-32,r24
 2177               	.LBE531:
 2178               	.LBE530:
 2179               	.LBB532:
 2180               	.LBB533:
 2181               	.LM346:
 2182 0820 8FEF      		ldi r24,lo8(-1)
 2183 0822 84BB      		out 52-32,r24
 2184               	.LBE533:
 2185               	.LBE532:
 2186               	.LM347:
 2187 0824 82E0      		ldi r24,lo8(2)
 2188 0826 0E94 0000 		call lcd_init
 2189               	.LBB534:
 2190               	.LBB535:
 2191               	.LM348:
 2192 082a 82B3      		in r24,50-32
 2193 082c 8F60      		ori r24,lo8(15)
 2194 082e 82BB      		out 50-32,r24
 2195               	.LM349:
 2196 0830 81B3      		in r24,49-32
 2197 0832 807F      		andi r24,lo8(-16)
 2198 0834 81BB      		out 49-32,r24
 2199               	.LBE535:
 2200               	.LBE534:
 2201               	.LM350:
 2202 0836 0E94 0000 		call pwm1_init
 2203               	/* epilogue start */
 2204               	.LM351:
 2205 083a 0895      		ret
 2206               	.LFE54:
 2208               	.global	Uturn
 2210               	Uturn:
 2211               	.LFB55:
 2212               	.LM352:
 2213               	/* prologue: function */
 2214               	/* frame size = 0 */
 2215               	.LM353:
 2216 083c 85E7      		ldi r24,lo8(117)
 2217 083e 8093 0000 		sts turn,r24
 2218               	.LBB536:
 2219               	.LBB537:
 2220               	.LM354:
 2221 0842 20EF      		ldi r18,lo8(240)
 2222 0844 30E0      		ldi r19,hi8(240)
 2223               	.LBE537:
 2224               	.LBE536:
 2225               	.LBB539:
 2226               	.LBB540:
 2227               	.LM355:
 2228 0846 82E2      		ldi r24,lo8(290)
 2229 0848 91E0      		ldi r25,hi8(290)
 2230 084a 00C0      		rjmp .L190
 2231               	.L191:
 2232               	.LBE540:
 2233               	.LBE539:
 2234               	.LBB542:
 2235               	.LBB538:
 2236               	.LM356:
 2237 084c 3BBD      		out (74)+1-32,r19
 2238 084e 2ABD      		out 74-32,r18
 2239               	.LBE538:
 2240               	.LBE542:
 2241               	.LBB543:
 2242               	.LBB541:
 2243               	.LM357:
 2244 0850 99BD      		out (72)+1-32,r25
 2245 0852 88BD      		out 72-32,r24
 2246               	.LBE541:
 2247               	.LBE543:
 2248               	.LBB544:
 2249               	.LBB545:
 2250               	.LM358:
 2251 0854 AC98      		cbi 53-32,4
 2252               	.LM359:
 2253 0856 AD9A      		sbi 53-32,5
 2254               	.LM360:
 2255 0858 AE9A      		sbi 53-32,6
 2256               	.LM361:
 2257 085a AF98      		cbi 53-32,7
 2258               	.L190:
 2259               	.LBE545:
 2260               	.LBE544:
 2261               	.LM362:
 2262 085c CD99      		sbic 57-32,5
 2263 085e 00C0      		rjmp .L191
 2264 0860 00C0      		rjmp .L198
 2265               	.L194:
 2266               	.LBB546:
 2267               	.LBB547:
 2268               	.LM363:
 2269 0862 3BBD      		out (74)+1-32,r19
 2270 0864 2ABD      		out 74-32,r18
 2271               	.LBE547:
 2272               	.LBE546:
 2273               	.LBB549:
 2274               	.LBB550:
 2275               	.LM364:
 2276 0866 99BD      		out (72)+1-32,r25
 2277 0868 88BD      		out 72-32,r24
 2278               	.LBE550:
 2279               	.LBE549:
 2280               	.LBB552:
 2281               	.LBB553:
 2282               	.LM365:
 2283 086a AC98      		cbi 53-32,4
 2284               	.LM366:
 2285 086c AD9A      		sbi 53-32,5
 2286               	.LM367:
 2287 086e AE9A      		sbi 53-32,6
 2288               	.LM368:
 2289 0870 AF98      		cbi 53-32,7
 2290 0872 00C0      		rjmp .L197
 2291               	.L198:
 2292               	.LBE553:
 2293               	.LBE552:
 2294               	.LBB554:
 2295               	.LBB548:
 2296               	.LM369:
 2297 0874 29EB      		ldi r18,lo8(185)
 2298 0876 30E0      		ldi r19,hi8(185)
 2299               	.LBE548:
 2300               	.LBE554:
 2301               	.LBB555:
 2302               	.LBB551:
 2303               	.LM370:
 2304 0878 87ED      		ldi r24,lo8(215)
 2305 087a 90E0      		ldi r25,hi8(215)
 2306               	.L197:
 2307               	.LBE551:
 2308               	.LBE555:
 2309               	.LM371:
 2310 087c CE9B      		sbis 57-32,6
 2311 087e 00C0      		rjmp .L193
 2312 0880 8699      		sbic 48-32,6
 2313 0882 00C0      		rjmp .L194
 2314               	.L193:
 2315               	.LBB556:
 2316               	.LBB557:
 2317               	.LM372:
 2318 0884 8FE8      		ldi r24,lo8(399)
 2319 0886 91E0      		ldi r25,hi8(399)
 2320 0888 9BBD      		out (74)+1-32,r25
 2321 088a 8ABD      		out 74-32,r24
 2322               	.LBE557:
 2323               	.LBE556:
 2324               	.LBB558:
 2325               	.LBB559:
 2326               	.LM373:
 2327 088c 99BD      		out (72)+1-32,r25
 2328 088e 88BD      		out 72-32,r24
 2329               	.LBE559:
 2330               	.LBE558:
 2331               	.LBB560:
 2332               	.LBB561:
 2333               	.LM374:
 2334 0890 AC9A      		sbi 53-32,4
 2335               	.LM375:
 2336 0892 AD9A      		sbi 53-32,5
 2337               	.LM376:
 2338 0894 AE9A      		sbi 53-32,6
 2339               	.LM377:
 2340 0896 AF9A      		sbi 53-32,7
 2341               	.LBE561:
 2342               	.LBE560:
 2343               	.LM378:
 2344 0898 82E3      		ldi r24,lo8(50)
 2345 089a 90E0      		ldi r25,hi8(50)
 2346 089c 0E94 0000 		call delay_millisec
 2347               	/* epilogue start */
 2348               	.LM379:
 2349 08a0 0895      		ret
 2350               	.LFE55:
 2352               	.global	left_count
 2354               	left_count:
 2355               	.LFB58:
 2356               	.LM380:
 2357               	/* prologue: function */
 2358               	/* frame size = 0 */
 2359               	.LM381:
 2360 08a2 CC99      		sbic 57-32,4
 2361 08a4 00C0      		rjmp .L200
 2362               	.LM382:
 2363 08a6 8091 0000 		lds r24,l
 2364 08aa 9091 0000 		lds r25,(l)+1
 2365 08ae 892B      		or r24,r25
 2366 08b0 01F4      		brne .L202
 2367               	.LM383:
 2368 08b2 8091 0000 		lds r24,lcount
 2369 08b6 9091 0000 		lds r25,(lcount)+1
 2370 08ba 0196      		adiw r24,1
 2371 08bc 9093 0000 		sts (lcount)+1,r25
 2372 08c0 8093 0000 		sts lcount,r24
 2373               	.LM384:
 2374 08c4 81E0      		ldi r24,lo8(1)
 2375 08c6 90E0      		ldi r25,hi8(1)
 2376 08c8 9093 0000 		sts (l)+1,r25
 2377 08cc 8093 0000 		sts l,r24
 2378 08d0 0895      		ret
 2379               	.L200:
 2380               	.LM385:
 2381 08d2 1092 0000 		sts (l)+1,__zero_reg__
 2382 08d6 1092 0000 		sts l,__zero_reg__
 2383               	.L202:
 2384 08da 0895      		ret
 2385               	.LFE58:
 2387               	.global	special_case_check
 2389               	special_case_check:
 2390               	.LFB60:
 2391               	.LM386:
 2392               	/* prologue: function */
 2393               	/* frame size = 0 */
 2394               	.LM387:
 2395 08dc CD9B      		sbis 57-32,5
 2396 08de 00C0      		rjmp .L204
 2397 08e0 8091 0000 		lds r24,flag1
 2398 08e4 9091 0000 		lds r25,(flag1)+1
 2399 08e8 0197      		sbiw r24,1
 2400 08ea 01F4      		brne .L210
 2401               	.L204:
 2402               	.LM388:
 2403 08ec 81E0      		ldi r24,lo8(1)
 2404 08ee 90E0      		ldi r25,hi8(1)
 2405 08f0 9093 0000 		sts (flag1)+1,r25
 2406 08f4 8093 0000 		sts flag1,r24
 2407               	.LM389:
 2408 08f8 CC99      		sbic 57-32,4
 2409 08fa 00C0      		rjmp .L210
 2410 08fc 869B      		sbis 48-32,6
 2411 08fe 00C0      		rjmp .L206
 2412 0900 CE9B      		sbis 57-32,6
 2413 0902 00C0      		rjmp .L206
 2414 0904 0895      		ret
 2415               	.L209:
 2416               	.LBB562:
 2417               	.LBB563:
 2418               	.LM390:
 2419 0906 3BBD      		out (74)+1-32,r19
 2420 0908 2ABD      		out 74-32,r18
 2421               	.LBE563:
 2422               	.LBE562:
 2423               	.LBB565:
 2424               	.LBB566:
 2425               	.LM391:
 2426 090a 39BD      		out (72)+1-32,r19
 2427 090c 28BD      		out 72-32,r18
 2428               	.LBE566:
 2429               	.LBE565:
 2430               	.LBB567:
 2431               	.LBB568:
 2432               	.LM392:
 2433 090e AC9A      		sbi 53-32,4
 2434               	.LM393:
 2435 0910 AD98      		cbi 53-32,5
 2436               	.LM394:
 2437 0912 AE9A      		sbi 53-32,6
 2438               	.LM395:
 2439 0914 AF98      		cbi 53-32,7
 2440               	.LBE568:
 2441               	.LBE567:
 2442               	.LM396:
 2443 0916 80E0      		ldi r24,lo8(0)
 2444 0918 90E0      		ldi r25,hi8(0)
 2445 091a 8799      		sbic 48-32,7
 2446 091c 00C0      		rjmp .L213
 2447               	.LBB569:
 2448               	.LBB570:
 2449               	.LM397:
 2450 091e AC9A      		sbi 53-32,4
 2451               	.LM398:
 2452 0920 AD9A      		sbi 53-32,5
 2453               	.LM399:
 2454 0922 AE9A      		sbi 53-32,6
 2455               	.LM400:
 2456 0924 AF9A      		sbi 53-32,7
 2457 0926 00C0      		rjmp .L213
 2458               	.L206:
 2459 0928 81E0      		ldi r24,lo8(1)
 2460 092a 90E0      		ldi r25,hi8(1)
 2461               	.LBE570:
 2462               	.LBE569:
 2463               	.LBB571:
 2464               	.LBB564:
 2465               	.LM401:
 2466 092c 20EF      		ldi r18,lo8(240)
 2467 092e 30E0      		ldi r19,hi8(240)
 2468               	.L213:
 2469               	.LBE564:
 2470               	.LBE571:
 2471               	.LM402:
 2472 0930 CC9B      		sbis 57-32,4
 2473 0932 00C0      		rjmp .L208
 2474 0934 9093 0000 		sts (flag1)+1,r25
 2475 0938 8093 0000 		sts flag1,r24
 2476 093c 0895      		ret
 2477               	.L208:
 2478 093e 8799      		sbic 48-32,7
 2479 0940 00C0      		rjmp .L209
 2480 0942 9093 0000 		sts (flag1)+1,r25
 2481 0946 8093 0000 		sts flag1,r24
 2482               	.L210:
 2483 094a 0895      		ret
 2484               	.LFE60:
 2486               	.global	line_track_new
 2488               	line_track_new:
 2489               	.LFB63:
 2490               	.LM403:
 2491               	/* prologue: function */
 2492               	/* frame size = 0 */
 2493               	.LM404:
 2494 094c 0E94 0000 		call check_sensors
 2495               	.LBB572:
 2496               	.LBB573:
 2497               	.LM405:
 2498 0950 AC9A      		sbi 53-32,4
 2499               	.LM406:
 2500 0952 AD98      		cbi 53-32,5
 2501               	.LM407:
 2502 0954 AE9A      		sbi 53-32,6
 2503               	.LM408:
 2504 0956 AF98      		cbi 53-32,7
 2505               	.LBE573:
 2506               	.LBE572:
 2507               	.LM409:
 2508 0958 CE9B      		sbis 57-32,6
 2509 095a 00C0      		rjmp .L215
 2510 095c 8699      		sbic 48-32,6
 2511 095e 00C0      		rjmp .L215
 2512               	.LM410:
 2513 0960 8091 0000 		lds r24,opt
 2514 0964 9091 0000 		lds r25,(opt)+1
 2515 0968 4E97      		sbiw r24,30
 2516               	.LBB574:
 2517               	.LBB575:
 2518               	.LM411:
 2519 096a 9BBD      		out (74)+1-32,r25
 2520 096c 8ABD      		out 74-32,r24
 2521               	.LBE575:
 2522               	.LBE574:
 2523               	.LM412:
 2524 096e CC96      		adiw r24,60
 2525 0970 00C0      		rjmp .L220
 2526               	.L215:
 2527               	.LM413:
 2528 0972 869B      		sbis 48-32,6
 2529 0974 00C0      		rjmp .L217
 2530 0976 CE99      		sbic 57-32,6
 2531 0978 00C0      		rjmp .L217
 2532               	.LM414:
 2533 097a 8091 0000 		lds r24,opt
 2534 097e 9091 0000 		lds r25,(opt)+1
 2535 0982 4E96      		adiw r24,30
 2536               	.LBB576:
 2537               	.LBB577:
 2538               	.LM415:
 2539 0984 9BBD      		out (74)+1-32,r25
 2540 0986 8ABD      		out 74-32,r24
 2541               	.LBE577:
 2542               	.LBE576:
 2543               	.LM416:
 2544 0988 CC97      		sbiw r24,60
 2545 098a 00C0      		rjmp .L220
 2546               	.L217:
 2547               	.LM417:
 2548 098c 869B      		sbis 48-32,6
 2549 098e 00C0      		rjmp .L218
 2550 0990 CE9B      		sbis 57-32,6
 2551 0992 00C0      		rjmp .L218
 2552               	.LM418:
 2553 0994 0E94 0000 		call line_track
 2554 0998 00C0      		rjmp .L216
 2555               	.L218:
 2556               	.LM419:
 2557 099a 8699      		sbic 48-32,6
 2558 099c 00C0      		rjmp .L216
 2559 099e CE99      		sbic 57-32,6
 2560 09a0 00C0      		rjmp .L216
 2561               	.LM420:
 2562 09a2 8091 0000 		lds r24,opt
 2563 09a6 9091 0000 		lds r25,(opt)+1
 2564               	.LBB578:
 2565               	.LBB579:
 2566               	.LM421:
 2567 09aa 9BBD      		out (74)+1-32,r25
 2568 09ac 8ABD      		out 74-32,r24
 2569               	.L220:
 2570               	.LBE579:
 2571               	.LBE578:
 2572               	.LBB580:
 2573               	.LBB581:
 2574               	.LM422:
 2575 09ae 99BD      		out (72)+1-32,r25
 2576 09b0 88BD      		out 72-32,r24
 2577               	.L216:
 2578               	.LBE581:
 2579               	.LBE580:
 2580               	.LM423:
 2581 09b2 8AE0      		ldi r24,lo8(10)
 2582 09b4 90E0      		ldi r25,hi8(10)
 2583 09b6 0E94 0000 		call delay_microsec
 2584               	/* epilogue start */
 2585               	.LM424:
 2586 09ba 0895      		ret
 2587               	.LFE63:
 2589               	.global	end_zone_uturn
 2591               	end_zone_uturn:
 2592               	.LFB59:
 2593               	.LM425:
 2594               	/* prologue: function */
 2595               	/* frame size = 0 */
 2596               	.LM426:
 2597 09bc 85E7      		ldi r24,lo8(117)
 2598 09be 8093 0000 		sts turn,r24
 2599               	.LBB582:
 2600               	.LBB583:
 2601               	.LM427:
 2602 09c2 24E0      		ldi r18,lo8(260)
 2603 09c4 31E0      		ldi r19,hi8(260)
 2604               	.LBE583:
 2605               	.LBE582:
 2606               	.LBB585:
 2607               	.LBB586:
 2608               	.LM428:
 2609 09c6 88E1      		ldi r24,lo8(280)
 2610 09c8 91E0      		ldi r25,hi8(280)
 2611 09ca 00C0      		rjmp .L222
 2612               	.L223:
 2613               	.LBE586:
 2614               	.LBE585:
 2615               	.LBB588:
 2616               	.LBB584:
 2617               	.LM429:
 2618 09cc 3BBD      		out (74)+1-32,r19
 2619 09ce 2ABD      		out 74-32,r18
 2620               	.LBE584:
 2621               	.LBE588:
 2622               	.LBB589:
 2623               	.LBB587:
 2624               	.LM430:
 2625 09d0 99BD      		out (72)+1-32,r25
 2626 09d2 88BD      		out 72-32,r24
 2627               	.LBE587:
 2628               	.LBE589:
 2629               	.LBB590:
 2630               	.LBB591:
 2631               	.LM431:
 2632 09d4 AC98      		cbi 53-32,4
 2633               	.LM432:
 2634 09d6 AD9A      		sbi 53-32,5
 2635               	.LM433:
 2636 09d8 AE9A      		sbi 53-32,6
 2637               	.LM434:
 2638 09da AF98      		cbi 53-32,7
 2639               	.L222:
 2640               	.LBE591:
 2641               	.LBE590:
 2642               	.LM435:
 2643 09dc CD9B      		sbis 57-32,5
 2644 09de 00C0      		rjmp .L223
 2645               	.L236:
 2646               	.LM436:
 2647 09e0 CE9B      		sbis 57-32,6
 2648 09e2 00C0      		rjmp .L236
 2649 09e4 869B      		sbis 48-32,6
 2650 09e6 00C0      		rjmp .L236
 2651               	.L232:
 2652               	.LM437:
 2653 09e8 CD99      		sbic 57-32,5
 2654 09ea 00C0      		rjmp .L232
 2655 09ec 00C0      		rjmp .L239
 2656               	.L228:
 2657               	.LBB592:
 2658               	.LBB593:
 2659               	.LM438:
 2660 09ee 9BBD      		out (74)+1-32,r25
 2661 09f0 8ABD      		out 74-32,r24
 2662               	.LBE593:
 2663               	.LBE592:
 2664               	.LBB595:
 2665               	.LBB596:
 2666               	.LM439:
 2667 09f2 99BD      		out (72)+1-32,r25
 2668 09f4 88BD      		out 72-32,r24
 2669               	.LBE596:
 2670               	.LBE595:
 2671               	.LBB597:
 2672               	.LBB598:
 2673               	.LM440:
 2674 09f6 AC98      		cbi 53-32,4
 2675               	.LM441:
 2676 09f8 AD9A      		sbi 53-32,5
 2677               	.LM442:
 2678 09fa AE9A      		sbi 53-32,6
 2679               	.LM443:
 2680 09fc AF98      		cbi 53-32,7
 2681 09fe 00C0      		rjmp .L238
 2682               	.L239:
 2683               	.LBE598:
 2684               	.LBE597:
 2685               	.LBB599:
 2686               	.LBB594:
 2687               	.LM444:
 2688 0a00 82ED      		ldi r24,lo8(210)
 2689 0a02 90E0      		ldi r25,hi8(210)
 2690               	.L238:
 2691               	.LBE594:
 2692               	.LBE599:
 2693               	.LM445:
 2694 0a04 CE9B      		sbis 57-32,6
 2695 0a06 00C0      		rjmp .L235
 2696 0a08 8699      		sbic 48-32,6
 2697 0a0a 00C0      		rjmp .L228
 2698 0a0c 00C0      		rjmp .L235
 2699               	.L229:
 2700               	.LM446:
 2701 0a0e 0E94 0000 		call line_track_new
 2702               	.L235:
 2703               	.LM447:
 2704 0a12 CC9B      		sbis 57-32,4
 2705 0a14 00C0      		rjmp .L229
 2706 0a16 879B      		sbis 48-32,7
 2707 0a18 00C0      		rjmp .L229
 2708               	.LBB600:
 2709               	.LBB601:
 2710               	.LM448:
 2711 0a1a 8FE8      		ldi r24,lo8(399)
 2712 0a1c 91E0      		ldi r25,hi8(399)
 2713 0a1e 9BBD      		out (74)+1-32,r25
 2714 0a20 8ABD      		out 74-32,r24
 2715               	.LBE601:
 2716               	.LBE600:
 2717               	.LBB602:
 2718               	.LBB603:
 2719               	.LM449:
 2720 0a22 99BD      		out (72)+1-32,r25
 2721 0a24 88BD      		out 72-32,r24
 2722               	.LBE603:
 2723               	.LBE602:
 2724               	.LBB604:
 2725               	.LBB605:
 2726               	.LM450:
 2727 0a26 AC9A      		sbi 53-32,4
 2728               	.LM451:
 2729 0a28 AD9A      		sbi 53-32,5
 2730               	.LM452:
 2731 0a2a AE9A      		sbi 53-32,6
 2732               	.LM453:
 2733 0a2c AF9A      		sbi 53-32,7
 2734               	.LBE605:
 2735               	.LBE604:
 2736               	.LM454:
 2737 0a2e 82E3      		ldi r24,lo8(50)
 2738 0a30 90E0      		ldi r25,hi8(50)
 2739 0a32 0E94 0000 		call delay_millisec
 2740               	/* epilogue start */
 2741               	.LM455:
 2742 0a36 0895      		ret
 2743               	.LFE59:
 2745               	.global	turn_left
 2747               	turn_left:
 2748               	.LFB57:
 2749               	.LM456:
 2750               	/* prologue: function */
 2751               	/* frame size = 0 */
 2752               	.LM457:
 2753 0a38 8CE6      		ldi r24,lo8(108)
 2754 0a3a 8093 0000 		sts turn,r24
 2755               	.LBB606:
 2756               	.LBB607:
 2757               	.LM458:
 2758 0a3e 85EF      		ldi r24,lo8(245)
 2759 0a40 90E0      		ldi r25,hi8(245)
 2760 0a42 00C0      		rjmp .L241
 2761               	.L242:
 2762 0a44 9BBD      		out (74)+1-32,r25
 2763 0a46 8ABD      		out 74-32,r24
 2764               	.LBE607:
 2765               	.LBE606:
 2766               	.LBB608:
 2767               	.LBB609:
 2768               	.LM459:
 2769 0a48 99BD      		out (72)+1-32,r25
 2770 0a4a 88BD      		out 72-32,r24
 2771               	.LBE609:
 2772               	.LBE608:
 2773               	.LBB610:
 2774               	.LBB611:
 2775               	.LM460:
 2776 0a4c AC98      		cbi 53-32,4
 2777               	.LM461:
 2778 0a4e AD9A      		sbi 53-32,5
 2779               	.LM462:
 2780 0a50 AE9A      		sbi 53-32,6
 2781               	.LM463:
 2782 0a52 AF98      		cbi 53-32,7
 2783               	.L241:
 2784               	.LBE611:
 2785               	.LBE610:
 2786               	.LM464:
 2787 0a54 CD99      		sbic 57-32,5
 2788 0a56 00C0      		rjmp .L242
 2789 0a58 00C0      		rjmp .L251
 2790               	.L245:
 2791               	.LBB612:
 2792               	.LBB613:
 2793               	.LM465:
 2794 0a5a 9BBD      		out (74)+1-32,r25
 2795 0a5c 8ABD      		out 74-32,r24
 2796               	.LBE613:
 2797               	.LBE612:
 2798               	.LBB615:
 2799               	.LBB616:
 2800               	.LM466:
 2801 0a5e 99BD      		out (72)+1-32,r25
 2802 0a60 88BD      		out 72-32,r24
 2803               	.LBE616:
 2804               	.LBE615:
 2805               	.LBB617:
 2806               	.LBB618:
 2807               	.LM467:
 2808 0a62 AC98      		cbi 53-32,4
 2809               	.LM468:
 2810 0a64 AD9A      		sbi 53-32,5
 2811               	.LM469:
 2812 0a66 AE9A      		sbi 53-32,6
 2813               	.LM470:
 2814 0a68 AF98      		cbi 53-32,7
 2815 0a6a 00C0      		rjmp .L250
 2816               	.L251:
 2817               	.LBE618:
 2818               	.LBE617:
 2819               	.LBB619:
 2820               	.LBB614:
 2821               	.LM471:
 2822 0a6c 80EF      		ldi r24,lo8(240)
 2823 0a6e 90E0      		ldi r25,hi8(240)
 2824               	.L250:
 2825               	.LBE614:
 2826               	.LBE619:
 2827               	.LM472:
 2828 0a70 CE9B      		sbis 57-32,6
 2829 0a72 00C0      		rjmp .L248
 2830 0a74 8699      		sbic 48-32,6
 2831 0a76 00C0      		rjmp .L245
 2832 0a78 00C0      		rjmp .L248
 2833               	.L246:
 2834               	.LM473:
 2835 0a7a 0E94 0000 		call line_track_new
 2836               	.L248:
 2837               	.LM474:
 2838 0a7e CC9B      		sbis 57-32,4
 2839 0a80 00C0      		rjmp .L246
 2840 0a82 879B      		sbis 48-32,7
 2841 0a84 00C0      		rjmp .L246
 2842               	.LBB620:
 2843               	.LBB621:
 2844               	.LM475:
 2845 0a86 8FE8      		ldi r24,lo8(399)
 2846 0a88 91E0      		ldi r25,hi8(399)
 2847 0a8a 9BBD      		out (74)+1-32,r25
 2848 0a8c 8ABD      		out 74-32,r24
 2849               	.LBE621:
 2850               	.LBE620:
 2851               	.LBB622:
 2852               	.LBB623:
 2853               	.LM476:
 2854 0a8e 99BD      		out (72)+1-32,r25
 2855 0a90 88BD      		out 72-32,r24
 2856               	.LBE623:
 2857               	.LBE622:
 2858               	.LBB624:
 2859               	.LBB625:
 2860               	.LM477:
 2861 0a92 AC9A      		sbi 53-32,4
 2862               	.LM478:
 2863 0a94 AD9A      		sbi 53-32,5
 2864               	.LM479:
 2865 0a96 AE9A      		sbi 53-32,6
 2866               	.LM480:
 2867 0a98 AF9A      		sbi 53-32,7
 2868               	.LBE625:
 2869               	.LBE624:
 2870               	.LM481:
 2871 0a9a 82E3      		ldi r24,lo8(50)
 2872 0a9c 90E0      		ldi r25,hi8(50)
 2873 0a9e 0E94 0000 		call delay_millisec
 2874               	/* epilogue start */
 2875               	.LM482:
 2876 0aa2 0895      		ret
 2877               	.LFE57:
 2879               	.global	turn_right
 2881               	turn_right:
 2882               	.LFB56:
 2883               	.LM483:
 2884               	/* prologue: function */
 2885               	/* frame size = 0 */
 2886               	.LM484:
 2887 0aa4 82E7      		ldi r24,lo8(114)
 2888 0aa6 8093 0000 		sts turn,r24
 2889               	.LBB626:
 2890               	.LBB627:
 2891               	.LM485:
 2892 0aaa 85EF      		ldi r24,lo8(245)
 2893 0aac 90E0      		ldi r25,hi8(245)
 2894 0aae 00C0      		rjmp .L253
 2895               	.L254:
 2896 0ab0 9BBD      		out (74)+1-32,r25
 2897 0ab2 8ABD      		out 74-32,r24
 2898               	.LBE627:
 2899               	.LBE626:
 2900               	.LBB628:
 2901               	.LBB629:
 2902               	.LM486:
 2903 0ab4 99BD      		out (72)+1-32,r25
 2904 0ab6 88BD      		out 72-32,r24
 2905               	.LBE629:
 2906               	.LBE628:
 2907               	.LBB630:
 2908               	.LBB631:
 2909               	.LM487:
 2910 0ab8 AC9A      		sbi 53-32,4
 2911               	.LM488:
 2912 0aba AD98      		cbi 53-32,5
 2913               	.LM489:
 2914 0abc AE98      		cbi 53-32,6
 2915               	.LM490:
 2916 0abe AF9A      		sbi 53-32,7
 2917               	.L253:
 2918               	.LBE631:
 2919               	.LBE630:
 2920               	.LM491:
 2921 0ac0 CF99      		sbic 57-32,7
 2922 0ac2 00C0      		rjmp .L254
 2923 0ac4 00C0      		rjmp .L263
 2924               	.L257:
 2925               	.LBB632:
 2926               	.LBB633:
 2927               	.LM492:
 2928 0ac6 9BBD      		out (74)+1-32,r25
 2929 0ac8 8ABD      		out 74-32,r24
 2930               	.LBE633:
 2931               	.LBE632:
 2932               	.LBB635:
 2933               	.LBB636:
 2934               	.LM493:
 2935 0aca 99BD      		out (72)+1-32,r25
 2936 0acc 88BD      		out 72-32,r24
 2937               	.LBE636:
 2938               	.LBE635:
 2939               	.LBB637:
 2940               	.LBB638:
 2941               	.LM494:
 2942 0ace AC9A      		sbi 53-32,4
 2943               	.LM495:
 2944 0ad0 AD98      		cbi 53-32,5
 2945               	.LM496:
 2946 0ad2 AE98      		cbi 53-32,6
 2947               	.LM497:
 2948 0ad4 AF9A      		sbi 53-32,7
 2949 0ad6 00C0      		rjmp .L262
 2950               	.L263:
 2951               	.LBE638:
 2952               	.LBE637:
 2953               	.LBB639:
 2954               	.LBB634:
 2955               	.LM498:
 2956 0ad8 80EF      		ldi r24,lo8(240)
 2957 0ada 90E0      		ldi r25,hi8(240)
 2958               	.L262:
 2959               	.LBE634:
 2960               	.LBE639:
 2961               	.LM499:
 2962 0adc CE9B      		sbis 57-32,6
 2963 0ade 00C0      		rjmp .L260
 2964 0ae0 8699      		sbic 48-32,6
 2965 0ae2 00C0      		rjmp .L257
 2966 0ae4 00C0      		rjmp .L260
 2967               	.L258:
 2968               	.LM500:
 2969 0ae6 0E94 0000 		call line_track_new
 2970               	.L260:
 2971               	.LM501:
 2972 0aea CC9B      		sbis 57-32,4
 2973 0aec 00C0      		rjmp .L258
 2974 0aee 879B      		sbis 48-32,7
 2975 0af0 00C0      		rjmp .L258
 2976               	.LBB640:
 2977               	.LBB641:
 2978               	.LM502:
 2979 0af2 8FE8      		ldi r24,lo8(399)
 2980 0af4 91E0      		ldi r25,hi8(399)
 2981 0af6 9BBD      		out (74)+1-32,r25
 2982 0af8 8ABD      		out 74-32,r24
 2983               	.LBE641:
 2984               	.LBE640:
 2985               	.LBB642:
 2986               	.LBB643:
 2987               	.LM503:
 2988 0afa 99BD      		out (72)+1-32,r25
 2989 0afc 88BD      		out 72-32,r24
 2990               	.LBE643:
 2991               	.LBE642:
 2992               	.LBB644:
 2993               	.LBB645:
 2994               	.LM504:
 2995 0afe AC9A      		sbi 53-32,4
 2996               	.LM505:
 2997 0b00 AD9A      		sbi 53-32,5
 2998               	.LM506:
 2999 0b02 AE9A      		sbi 53-32,6
 3000               	.LM507:
 3001 0b04 AF9A      		sbi 53-32,7
 3002               	.LBE645:
 3003               	.LBE644:
 3004               	.LM508:
 3005 0b06 82E3      		ldi r24,lo8(50)
 3006 0b08 90E0      		ldi r25,hi8(50)
 3007 0b0a 0E94 0000 		call delay_millisec
 3008               	/* epilogue start */
 3009               	.LM509:
 3010 0b0e 0895      		ret
 3011               	.LFE56:
 3013               	.global	sense_of_directon
 3015               	sense_of_directon:
 3016               	.LFB66:
 3017               	.LM510:
 3018               	/* prologue: function */
 3019               	/* frame size = 0 */
 3020               	.LM511:
 3021 0b10 8091 0000 		lds r24,turn
 3022 0b14 8237      		cpi r24,lo8(114)
 3023 0b16 01F4      		brne .L265
 3024               	.LM512:
 3025 0b18 8091 0000 		lds r24,dir
 3026 0b1c 9091 0000 		lds r25,(dir)+1
 3027 0b20 2FEF      		ldi r18,hi8(-1)
 3028 0b22 8F3F      		cpi r24,lo8(-1)
 3029 0b24 9207      		cpc r25,r18
 3030 0b26 01F0      		breq .L275
 3031 0b28 2FEF      		ldi r18,hi8(-1)
 3032 0b2a 8F3F      		cpi r24,lo8(-1)
 3033 0b2c 9207      		cpc r25,r18
 3034 0b2e 01F0      		breq .+2
 3035 0b30 04F4      		brge .L271
 3036 0b32 8E5F      		subi r24,lo8(-2)
 3037 0b34 9F4F      		sbci r25,hi8(-2)
 3038 0b36 01F0      		breq .+2
 3039 0b38 00C0      		rjmp .L283
 3040 0b3a 00C0      		rjmp .L280
 3041               	.L271:
 3042 0b3c 8130      		cpi r24,1
 3043 0b3e 9105      		cpc r25,__zero_reg__
 3044 0b40 01F4      		brne .+2
 3045 0b42 00C0      		rjmp .L281
 3046 0b44 0297      		sbiw r24,2
 3047 0b46 01F0      		breq .+2
 3048 0b48 00C0      		rjmp .L283
 3049 0b4a 00C0      		rjmp .L279
 3050               	.L265:
 3051               	.LM513:
 3052 0b4c 8C36      		cpi r24,lo8(108)
 3053 0b4e 01F4      		brne .L272
 3054               	.LM514:
 3055 0b50 8091 0000 		lds r24,dir
 3056 0b54 9091 0000 		lds r25,(dir)+1
 3057 0b58 2FEF      		ldi r18,hi8(-1)
 3058 0b5a 8F3F      		cpi r24,lo8(-1)
 3059 0b5c 9207      		cpc r25,r18
 3060 0b5e 01F0      		breq .L281
 3061 0b60 2FEF      		ldi r18,hi8(-1)
 3062 0b62 8F3F      		cpi r24,lo8(-1)
 3063 0b64 9207      		cpc r25,r18
 3064 0b66 01F0      		breq .+2
 3065 0b68 04F4      		brge .L277
 3066 0b6a 8E5F      		subi r24,lo8(-2)
 3067 0b6c 9F4F      		sbci r25,hi8(-2)
 3068 0b6e 01F4      		brne .L283
 3069 0b70 00C0      		rjmp .L279
 3070               	.L277:
 3071 0b72 8130      		cpi r24,1
 3072 0b74 9105      		cpc r25,__zero_reg__
 3073 0b76 01F0      		breq .L275
 3074 0b78 0297      		sbiw r24,2
 3075 0b7a 01F4      		brne .L283
 3076 0b7c 00C0      		rjmp .L280
 3077               	.L275:
 3078               	.LM515:
 3079 0b7e 82E0      		ldi r24,lo8(2)
 3080 0b80 90E0      		ldi r25,hi8(2)
 3081 0b82 00C0      		rjmp .L284
 3082               	.L272:
 3083               	.LM516:
 3084 0b84 8537      		cpi r24,lo8(117)
 3085 0b86 01F4      		brne .L283
 3086               	.LM517:
 3087 0b88 8091 0000 		lds r24,dir
 3088 0b8c 9091 0000 		lds r25,(dir)+1
 3089 0b90 2FEF      		ldi r18,hi8(-1)
 3090 0b92 8F3F      		cpi r24,lo8(-1)
 3091 0b94 9207      		cpc r25,r18
 3092 0b96 01F0      		breq .L279
 3093 0b98 2FEF      		ldi r18,hi8(-1)
 3094 0b9a 8F3F      		cpi r24,lo8(-1)
 3095 0b9c 9207      		cpc r25,r18
 3096 0b9e 01F0      		breq .+2
 3097 0ba0 04F4      		brge .L282
 3098 0ba2 8E5F      		subi r24,lo8(-2)
 3099 0ba4 9F4F      		sbci r25,hi8(-2)
 3100 0ba6 01F4      		brne .L283
 3101 0ba8 00C0      		rjmp .L285
 3102               	.L282:
 3103 0baa 8130      		cpi r24,1
 3104 0bac 9105      		cpc r25,__zero_reg__
 3105 0bae 01F0      		breq .L280
 3106 0bb0 0297      		sbiw r24,2
 3107 0bb2 01F4      		brne .L283
 3108 0bb4 00C0      		rjmp .L281
 3109               	.L280:
 3110               	.LM518:
 3111 0bb6 8FEF      		ldi r24,lo8(-1)
 3112 0bb8 9FEF      		ldi r25,hi8(-1)
 3113 0bba 00C0      		rjmp .L284
 3114               	.L279:
 3115               	.LM519:
 3116 0bbc 81E0      		ldi r24,lo8(1)
 3117 0bbe 90E0      		ldi r25,hi8(1)
 3118 0bc0 00C0      		rjmp .L284
 3119               	.L281:
 3120               	.LM520:
 3121 0bc2 8EEF      		ldi r24,lo8(-2)
 3122 0bc4 9FEF      		ldi r25,hi8(-2)
 3123               	.L284:
 3124 0bc6 9093 0000 		sts (dir)+1,r25
 3125 0bca 8093 0000 		sts dir,r24
 3126 0bce 0895      		ret
 3127               	.L285:
 3128               	.LM521:
 3129 0bd0 82E0      		ldi r24,lo8(2)
 3130 0bd2 90E0      		ldi r25,hi8(2)
 3131 0bd4 9093 0000 		sts (dir)+1,r25
 3132 0bd8 8093 0000 		sts dir,r24
 3133               	.L283:
 3134 0bdc 0895      		ret
 3135               	.LFE66:
 3137               	.global	is_coordinate_null
 3139               	is_coordinate_null:
 3140               	.LFB68:
 3141               	.LM522:
 3142               	.LVL103:
 3143               	/* prologue: function */
 3144               	/* frame size = 0 */
 3145               	.LM523:
 3146 0bde FC01      		movw r30,r24
 3147 0be0 A4E0      		ldi r26,4
 3148 0be2 EE0F      	1:	lsl r30
 3149 0be4 FF1F      		rol r31
 3150 0be6 AA95      		dec r26
 3151 0be8 01F4      		brne 1b
 3152 0bea E60F      		add r30,r22
 3153 0bec F71F      		adc r31,r23
 3154 0bee DF01      		movw r26,r30
 3155 0bf0 AA0F      		lsl r26
 3156 0bf2 BB1F      		rol r27
 3157 0bf4 AA0F      		lsl r26
 3158 0bf6 BB1F      		rol r27
 3159               	.LVL104:
 3160 0bf8 A050      		subi r26,lo8(-(dir_array))
 3161 0bfa B040      		sbci r27,hi8(-(dir_array))
 3162 0bfc 8C91      		ld r24,X
 3163               	.LVL105:
 3164 0bfe 8634      		cpi r24,lo8(70)
 3165 0c00 01F4      		brne .L287
 3166 0c02 1196      		adiw r26,1
 3167 0c04 8C91      		ld r24,X
 3168 0c06 1197      		sbiw r26,1
 3169 0c08 8634      		cpi r24,lo8(70)
 3170 0c0a 01F4      		brne .L287
 3171 0c0c EE0F      		lsl r30
 3172 0c0e FF1F      		rol r31
 3173 0c10 EE0F      		lsl r30
 3174 0c12 FF1F      		rol r31
 3175 0c14 E050      		subi r30,lo8(-(dir_array+2))
 3176 0c16 F040      		sbci r31,hi8(-(dir_array+2))
 3177 0c18 8081      		ld r24,Z
 3178 0c1a 8634      		cpi r24,lo8(70)
 3179 0c1c 01F4      		brne .L287
 3180 0c1e 90E0      		ldi r25,lo8(0)
 3181 0c20 1396      		adiw r26,3
 3182 0c22 8C91      		ld r24,X
 3183 0c24 8634      		cpi r24,lo8(70)
 3184 0c26 01F0      		breq .L288
 3185 0c28 91E0      		ldi r25,lo8(1)
 3186               	.L288:
 3187 0c2a 81E0      		ldi r24,lo8(1)
 3188 0c2c 9827      		eor r25,r24
 3189 0c2e 292F      		mov r18,r25
 3190 0c30 30E0      		ldi r19,lo8(0)
 3191 0c32 00C0      		rjmp .L289
 3192               	.L287:
 3193 0c34 20E0      		ldi r18,lo8(0)
 3194 0c36 30E0      		ldi r19,hi8(0)
 3195               	.L289:
 3196               	.LM524:
 3197 0c38 C901      		movw r24,r18
 3198               	/* epilogue start */
 3199 0c3a 0895      		ret
 3200               	.LFE68:
 3202               	.global	update_array
 3204               	update_array:
 3205               	.LFB67:
 3206               	.LM525:
 3207               	.LVL106:
 3208 0c3c CF92      		push r12
 3209 0c3e DF92      		push r13
 3210 0c40 EF92      		push r14
 3211 0c42 FF92      		push r15
 3212 0c44 0F93      		push r16
 3213 0c46 1F93      		push r17
 3214 0c48 CF93      		push r28
 3215 0c4a DF93      		push r29
 3216               	/* prologue: function */
 3217               	/* frame size = 0 */
 3218 0c4c F82E      		mov r15,r24
 3219 0c4e E62E      		mov r14,r22
 3220 0c50 D42E      		mov r13,r20
 3221 0c52 C22E      		mov r12,r18
 3222               	.LM526:
 3223 0c54 C091 0000 		lds r28,x_coordinate
 3224 0c58 D091 0000 		lds r29,(x_coordinate)+1
 3225 0c5c 0091 0000 		lds r16,y_coordinate
 3226 0c60 1091 0000 		lds r17,(y_coordinate)+1
 3227 0c64 CE01      		movw r24,r28
 3228               	.LVL107:
 3229 0c66 B801      		movw r22,r16
 3230               	.LVL108:
 3231 0c68 0E94 0000 		call is_coordinate_null
 3232               	.LVL109:
 3233 0c6c 892B      		or r24,r25
 3234 0c6e 01F4      		brne .+2
 3235 0c70 00C0      		rjmp .L298
 3236               	.LM527:
 3237 0c72 8091 0000 		lds r24,dir
 3238 0c76 9091 0000 		lds r25,(dir)+1
 3239 0c7a 2FEF      		ldi r18,hi8(-1)
 3240 0c7c 8F3F      		cpi r24,lo8(-1)
 3241 0c7e 9207      		cpc r25,r18
 3242 0c80 01F4      		brne .+2
 3243 0c82 00C0      		rjmp .L294
 3244 0c84 2FEF      		ldi r18,hi8(-1)
 3245 0c86 8F3F      		cpi r24,lo8(-1)
 3246 0c88 9207      		cpc r25,r18
 3247 0c8a 01F0      		breq .+2
 3248 0c8c 04F4      		brge .L297
 3249 0c8e 8E5F      		subi r24,lo8(-2)
 3250 0c90 9F4F      		sbci r25,hi8(-2)
 3251 0c92 01F0      		breq .+2
 3252 0c94 00C0      		rjmp .L298
 3253 0c96 00C0      		rjmp .L299
 3254               	.L297:
 3255 0c98 8130      		cpi r24,1
 3256 0c9a 9105      		cpc r25,__zero_reg__
 3257 0c9c 01F0      		breq .L295
 3258 0c9e 0297      		sbiw r24,2
 3259 0ca0 01F0      		breq .+2
 3260 0ca2 00C0      		rjmp .L298
 3261               	.LM528:
 3262 0ca4 FE01      		movw r30,r28
 3263 0ca6 B4E0      		ldi r27,4
 3264 0ca8 EE0F      	1:	lsl r30
 3265 0caa FF1F      		rol r31
 3266 0cac BA95      		dec r27
 3267 0cae 01F4      		brne 1b
 3268 0cb0 E00F      		add r30,r16
 3269 0cb2 F11F      		adc r31,r17
 3270 0cb4 EE0F      		lsl r30
 3271 0cb6 FF1F      		rol r31
 3272 0cb8 EE0F      		lsl r30
 3273 0cba FF1F      		rol r31
 3274 0cbc DF01      		movw r26,r30
 3275 0cbe A050      		subi r26,lo8(-(dir_array))
 3276 0cc0 B040      		sbci r27,hi8(-(dir_array))
 3277 0cc2 FC92      		st X,r15
 3278               	.LM529:
 3279 0cc4 1196      		adiw r26,1
 3280 0cc6 EC92      		st X,r14
 3281 0cc8 1197      		sbiw r26,1
 3282               	.LM530:
 3283 0cca E050      		subi r30,lo8(-(dir_array+2))
 3284 0ccc F040      		sbci r31,hi8(-(dir_array+2))
 3285 0cce D082      		st Z,r13
 3286               	.LM531:
 3287 0cd0 1396      		adiw r26,3
 3288 0cd2 CC92      		st X,r12
 3289 0cd4 00C0      		rjmp .L298
 3290               	.L295:
 3291               	.LM532:
 3292 0cd6 FE01      		movw r30,r28
 3293 0cd8 64E0      		ldi r22,4
 3294 0cda EE0F      	1:	lsl r30
 3295 0cdc FF1F      		rol r31
 3296 0cde 6A95      		dec r22
 3297 0ce0 01F4      		brne 1b
 3298 0ce2 E00F      		add r30,r16
 3299 0ce4 F11F      		adc r31,r17
 3300 0ce6 EE0F      		lsl r30
 3301 0ce8 FF1F      		rol r31
 3302 0cea EE0F      		lsl r30
 3303 0cec FF1F      		rol r31
 3304 0cee DF01      		movw r26,r30
 3305 0cf0 A050      		subi r26,lo8(-(dir_array))
 3306 0cf2 B040      		sbci r27,hi8(-(dir_array))
 3307 0cf4 1196      		adiw r26,1
 3308 0cf6 FC92      		st X,r15
 3309 0cf8 1197      		sbiw r26,1
 3310               	.LM533:
 3311 0cfa E050      		subi r30,lo8(-(dir_array+2))
 3312 0cfc F040      		sbci r31,hi8(-(dir_array+2))
 3313 0cfe E082      		st Z,r14
 3314               	.LM534:
 3315 0d00 1396      		adiw r26,3
 3316 0d02 DC92      		st X,r13
 3317 0d04 1397      		sbiw r26,3
 3318               	.LM535:
 3319 0d06 CC92      		st X,r12
 3320 0d08 00C0      		rjmp .L298
 3321               	.L299:
 3322               	.LM536:
 3323 0d0a FE01      		movw r30,r28
 3324 0d0c 34E0      		ldi r19,4
 3325 0d0e EE0F      	1:	lsl r30
 3326 0d10 FF1F      		rol r31
 3327 0d12 3A95      		dec r19
 3328 0d14 01F4      		brne 1b
 3329 0d16 E00F      		add r30,r16
 3330 0d18 F11F      		adc r31,r17
 3331 0d1a EE0F      		lsl r30
 3332 0d1c FF1F      		rol r31
 3333 0d1e EE0F      		lsl r30
 3334 0d20 FF1F      		rol r31
 3335 0d22 DF01      		movw r26,r30
 3336 0d24 A050      		subi r26,lo8(-(dir_array+2))
 3337 0d26 B040      		sbci r27,hi8(-(dir_array+2))
 3338 0d28 FC92      		st X,r15
 3339               	.LM537:
 3340 0d2a E050      		subi r30,lo8(-(dir_array))
 3341 0d2c F040      		sbci r31,hi8(-(dir_array))
 3342 0d2e E382      		std Z+3,r14
 3343               	.LM538:
 3344 0d30 D082      		st Z,r13
 3345               	.LM539:
 3346 0d32 C182      		std Z+1,r12
 3347 0d34 00C0      		rjmp .L298
 3348               	.L294:
 3349               	.LM540:
 3350 0d36 FE01      		movw r30,r28
 3351 0d38 84E0      		ldi r24,4
 3352 0d3a EE0F      	1:	lsl r30
 3353 0d3c FF1F      		rol r31
 3354 0d3e 8A95      		dec r24
 3355 0d40 01F4      		brne 1b
 3356 0d42 E00F      		add r30,r16
 3357 0d44 F11F      		adc r31,r17
 3358 0d46 EE0F      		lsl r30
 3359 0d48 FF1F      		rol r31
 3360 0d4a EE0F      		lsl r30
 3361 0d4c FF1F      		rol r31
 3362 0d4e DF01      		movw r26,r30
 3363 0d50 A050      		subi r26,lo8(-(dir_array))
 3364 0d52 B040      		sbci r27,hi8(-(dir_array))
 3365 0d54 1396      		adiw r26,3
 3366 0d56 FC92      		st X,r15
 3367 0d58 1397      		sbiw r26,3
 3368               	.LM541:
 3369 0d5a EC92      		st X,r14
 3370               	.LM542:
 3371 0d5c 1196      		adiw r26,1
 3372 0d5e DC92      		st X,r13
 3373               	.LM543:
 3374 0d60 E050      		subi r30,lo8(-(dir_array+2))
 3375 0d62 F040      		sbci r31,hi8(-(dir_array+2))
 3376 0d64 C082      		st Z,r12
 3377               	.L298:
 3378               	/* epilogue start */
 3379               	.LM544:
 3380 0d66 DF91      		pop r29
 3381 0d68 CF91      		pop r28
 3382 0d6a 1F91      		pop r17
 3383 0d6c 0F91      		pop r16
 3384 0d6e FF90      		pop r15
 3385               	.LVL110:
 3386 0d70 EF90      		pop r14
 3387               	.LVL111:
 3388 0d72 DF90      		pop r13
 3389               	.LVL112:
 3390 0d74 CF90      		pop r12
 3391               	.LVL113:
 3392 0d76 0895      		ret
 3393               	.LFE67:
 3395               	.global	update_coordinates
 3397               	update_coordinates:
 3398               	.LFB65:
 3399               	.LM545:
 3400               	/* prologue: function */
 3401               	/* frame size = 0 */
 3402               	.LM546:
 3403 0d78 8091 0000 		lds r24,Coordinates_changed_by
 3404 0d7c 9091 0000 		lds r25,(Coordinates_changed_by)+1
 3405               	.LVL114:
 3406               	.LM547:
 3407 0d80 8230      		cpi r24,2
 3408 0d82 9105      		cpc r25,__zero_reg__
 3409 0d84 01F0      		breq .+2
 3410 0d86 00C0      		rjmp .L301
 3411               	.LM548:
 3412 0d88 8091 0000 		lds r24,dir
 3413 0d8c 9091 0000 		lds r25,(dir)+1
 3414               	.LVL115:
 3415 0d90 2FEF      		ldi r18,hi8(-1)
 3416 0d92 8F3F      		cpi r24,lo8(-1)
 3417 0d94 9207      		cpc r25,r18
 3418 0d96 01F0      		breq .L304
 3419 0d98 2FEF      		ldi r18,hi8(-1)
 3420 0d9a 8F3F      		cpi r24,lo8(-1)
 3421 0d9c 9207      		cpc r25,r18
 3422 0d9e 01F0      		breq .+2
 3423 0da0 04F4      		brge .L307
 3424 0da2 8E5F      		subi r24,lo8(-2)
 3425 0da4 9F4F      		sbci r25,hi8(-2)
 3426 0da6 01F0      		breq .+2
 3427 0da8 00C0      		rjmp .L302
 3428 0daa 00C0      		rjmp .L332
 3429               	.L307:
 3430 0dac 8130      		cpi r24,1
 3431 0dae 9105      		cpc r25,__zero_reg__
 3432 0db0 01F0      		breq .L305
 3433 0db2 0297      		sbiw r24,2
 3434 0db4 01F0      		breq .+2
 3435 0db6 00C0      		rjmp .L302
 3436 0db8 00C0      		rjmp .L333
 3437               	.L305:
 3438               	.LM549:
 3439 0dba 8091 0000 		lds r24,x_coordinate
 3440 0dbe 9091 0000 		lds r25,(x_coordinate)+1
 3441 0dc2 0196      		adiw r24,1
 3442 0dc4 9093 0000 		sts (x_coordinate)+1,r25
 3443 0dc8 8093 0000 		sts x_coordinate,r24
 3444               	.LM550:
 3445 0dcc 84E5      		ldi r24,lo8(84)
 3446 0dce 90E0      		ldi r25,hi8(84)
 3447 0dd0 66E4      		ldi r22,lo8(70)
 3448 0dd2 70E0      		ldi r23,hi8(70)
 3449 0dd4 44E5      		ldi r20,lo8(84)
 3450 0dd6 50E0      		ldi r21,hi8(84)
 3451 0dd8 26E4      		ldi r18,lo8(70)
 3452 0dda 30E0      		ldi r19,hi8(70)
 3453 0ddc 0E94 0000 		call update_array
 3454               	.LM551:
 3455 0de0 8091 0000 		lds r24,x_coordinate
 3456 0de4 9091 0000 		lds r25,(x_coordinate)+1
 3457 0de8 0196      		adiw r24,1
 3458 0dea 9093 0000 		sts (x_coordinate)+1,r25
 3459 0dee 8093 0000 		sts x_coordinate,r24
 3460               	.LM552:
 3461 0df2 6091 0000 		lds r22,y_coordinate
 3462 0df6 7091 0000 		lds r23,(y_coordinate)+1
 3463 0dfa 0E94 0000 		call is_coordinate_null
 3464 0dfe 00C0      		rjmp .L325
 3465               	.L304:
 3466               	.LM553:
 3467 0e00 8091 0000 		lds r24,x_coordinate
 3468 0e04 9091 0000 		lds r25,(x_coordinate)+1
 3469 0e08 0197      		sbiw r24,1
 3470 0e0a 9093 0000 		sts (x_coordinate)+1,r25
 3471 0e0e 8093 0000 		sts x_coordinate,r24
 3472               	.LM554:
 3473 0e12 84E5      		ldi r24,lo8(84)
 3474 0e14 90E0      		ldi r25,hi8(84)
 3475 0e16 66E4      		ldi r22,lo8(70)
 3476 0e18 70E0      		ldi r23,hi8(70)
 3477 0e1a 44E5      		ldi r20,lo8(84)
 3478 0e1c 50E0      		ldi r21,hi8(84)
 3479 0e1e 26E4      		ldi r18,lo8(70)
 3480 0e20 30E0      		ldi r19,hi8(70)
 3481 0e22 0E94 0000 		call update_array
 3482               	.LM555:
 3483 0e26 8091 0000 		lds r24,x_coordinate
 3484 0e2a 9091 0000 		lds r25,(x_coordinate)+1
 3485 0e2e 0197      		sbiw r24,1
 3486 0e30 9093 0000 		sts (x_coordinate)+1,r25
 3487 0e34 8093 0000 		sts x_coordinate,r24
 3488               	.LM556:
 3489 0e38 6091 0000 		lds r22,y_coordinate
 3490 0e3c 7091 0000 		lds r23,(y_coordinate)+1
 3491 0e40 0E94 0000 		call is_coordinate_null
 3492 0e44 00C0      		rjmp .L325
 3493               	.L333:
 3494               	.LM557:
 3495 0e46 8091 0000 		lds r24,y_coordinate
 3496 0e4a 9091 0000 		lds r25,(y_coordinate)+1
 3497 0e4e 0196      		adiw r24,1
 3498 0e50 9093 0000 		sts (y_coordinate)+1,r25
 3499 0e54 8093 0000 		sts y_coordinate,r24
 3500               	.LM558:
 3501 0e58 84E5      		ldi r24,lo8(84)
 3502 0e5a 90E0      		ldi r25,hi8(84)
 3503 0e5c 66E4      		ldi r22,lo8(70)
 3504 0e5e 70E0      		ldi r23,hi8(70)
 3505 0e60 44E5      		ldi r20,lo8(84)
 3506 0e62 50E0      		ldi r21,hi8(84)
 3507 0e64 26E4      		ldi r18,lo8(70)
 3508 0e66 30E0      		ldi r19,hi8(70)
 3509 0e68 0E94 0000 		call update_array
 3510               	.LM559:
 3511 0e6c 6091 0000 		lds r22,y_coordinate
 3512 0e70 7091 0000 		lds r23,(y_coordinate)+1
 3513 0e74 6F5F      		subi r22,lo8(-(1))
 3514 0e76 7F4F      		sbci r23,hi8(-(1))
 3515 0e78 7093 0000 		sts (y_coordinate)+1,r23
 3516 0e7c 6093 0000 		sts y_coordinate,r22
 3517               	.LM560:
 3518 0e80 8091 0000 		lds r24,x_coordinate
 3519 0e84 9091 0000 		lds r25,(x_coordinate)+1
 3520 0e88 0E94 0000 		call is_coordinate_null
 3521 0e8c 00C0      		rjmp .L325
 3522               	.L332:
 3523               	.LM561:
 3524 0e8e 8091 0000 		lds r24,y_coordinate
 3525 0e92 9091 0000 		lds r25,(y_coordinate)+1
 3526 0e96 0197      		sbiw r24,1
 3527 0e98 9093 0000 		sts (y_coordinate)+1,r25
 3528 0e9c 8093 0000 		sts y_coordinate,r24
 3529               	.LM562:
 3530 0ea0 84E5      		ldi r24,lo8(84)
 3531 0ea2 90E0      		ldi r25,hi8(84)
 3532 0ea4 66E4      		ldi r22,lo8(70)
 3533 0ea6 70E0      		ldi r23,hi8(70)
 3534 0ea8 44E5      		ldi r20,lo8(84)
 3535 0eaa 50E0      		ldi r21,hi8(84)
 3536 0eac 26E4      		ldi r18,lo8(70)
 3537 0eae 30E0      		ldi r19,hi8(70)
 3538 0eb0 0E94 0000 		call update_array
 3539               	.LM563:
 3540 0eb4 6091 0000 		lds r22,y_coordinate
 3541 0eb8 7091 0000 		lds r23,(y_coordinate)+1
 3542 0ebc 6150      		subi r22,lo8(-(-1))
 3543 0ebe 7040      		sbci r23,hi8(-(-1))
 3544 0ec0 7093 0000 		sts (y_coordinate)+1,r23
 3545 0ec4 6093 0000 		sts y_coordinate,r22
 3546               	.LM564:
 3547 0ec8 8091 0000 		lds r24,x_coordinate
 3548 0ecc 9091 0000 		lds r25,(x_coordinate)+1
 3549 0ed0 0E94 0000 		call is_coordinate_null
 3550 0ed4 00C0      		rjmp .L325
 3551               	.LVL116:
 3552               	.L301:
 3553               	.LM565:
 3554 0ed6 0197      		sbiw r24,1
 3555 0ed8 01F0      		breq .+2
 3556 0eda 00C0      		rjmp .L302
 3557               	.LM566:
 3558 0edc 8091 0000 		lds r24,dir
 3559 0ee0 9091 0000 		lds r25,(dir)+1
 3560               	.LVL117:
 3561 0ee4 2FEF      		ldi r18,hi8(-1)
 3562 0ee6 8F3F      		cpi r24,lo8(-1)
 3563 0ee8 9207      		cpc r25,r18
 3564 0eea 01F0      		breq .L313
 3565 0eec 2FEF      		ldi r18,hi8(-1)
 3566 0eee 8F3F      		cpi r24,lo8(-1)
 3567 0ef0 9207      		cpc r25,r18
 3568 0ef2 01F0      		breq .+2
 3569 0ef4 04F4      		brge .L316
 3570 0ef6 8E5F      		subi r24,lo8(-2)
 3571 0ef8 9F4F      		sbci r25,hi8(-2)
 3572 0efa 01F0      		breq .+2
 3573 0efc 00C0      		rjmp .L302
 3574 0efe 00C0      		rjmp .L334
 3575               	.L316:
 3576 0f00 8130      		cpi r24,1
 3577 0f02 9105      		cpc r25,__zero_reg__
 3578 0f04 01F0      		breq .L314
 3579 0f06 0297      		sbiw r24,2
 3580 0f08 01F0      		breq .+2
 3581 0f0a 00C0      		rjmp .L302
 3582 0f0c 00C0      		rjmp .L335
 3583               	.L314:
 3584               	.LM567:
 3585 0f0e 8091 0000 		lds r24,x_coordinate
 3586 0f12 9091 0000 		lds r25,(x_coordinate)+1
 3587 0f16 0196      		adiw r24,1
 3588 0f18 9093 0000 		sts (x_coordinate)+1,r25
 3589 0f1c 8093 0000 		sts x_coordinate,r24
 3590               	.LM568:
 3591 0f20 6091 0000 		lds r22,y_coordinate
 3592 0f24 7091 0000 		lds r23,(y_coordinate)+1
 3593 0f28 0E94 0000 		call is_coordinate_null
 3594 0f2c 00C0      		rjmp .L325
 3595               	.L313:
 3596               	.LM569:
 3597 0f2e 8091 0000 		lds r24,x_coordinate
 3598 0f32 9091 0000 		lds r25,(x_coordinate)+1
 3599 0f36 0197      		sbiw r24,1
 3600 0f38 9093 0000 		sts (x_coordinate)+1,r25
 3601 0f3c 8093 0000 		sts x_coordinate,r24
 3602               	.LM570:
 3603 0f40 6091 0000 		lds r22,y_coordinate
 3604 0f44 7091 0000 		lds r23,(y_coordinate)+1
 3605 0f48 0E94 0000 		call is_coordinate_null
 3606 0f4c 00C0      		rjmp .L325
 3607               	.L335:
 3608               	.LM571:
 3609 0f4e 6091 0000 		lds r22,y_coordinate
 3610 0f52 7091 0000 		lds r23,(y_coordinate)+1
 3611 0f56 6F5F      		subi r22,lo8(-(1))
 3612 0f58 7F4F      		sbci r23,hi8(-(1))
 3613 0f5a 7093 0000 		sts (y_coordinate)+1,r23
 3614 0f5e 6093 0000 		sts y_coordinate,r22
 3615               	.LM572:
 3616 0f62 8091 0000 		lds r24,x_coordinate
 3617 0f66 9091 0000 		lds r25,(x_coordinate)+1
 3618 0f6a 0E94 0000 		call is_coordinate_null
 3619 0f6e 00C0      		rjmp .L325
 3620               	.L334:
 3621               	.LM573:
 3622 0f70 6091 0000 		lds r22,y_coordinate
 3623 0f74 7091 0000 		lds r23,(y_coordinate)+1
 3624 0f78 6150      		subi r22,lo8(-(-1))
 3625 0f7a 7040      		sbci r23,hi8(-(-1))
 3626 0f7c 7093 0000 		sts (y_coordinate)+1,r23
 3627 0f80 6093 0000 		sts y_coordinate,r22
 3628               	.LM574:
 3629 0f84 8091 0000 		lds r24,x_coordinate
 3630 0f88 9091 0000 		lds r25,(x_coordinate)+1
 3631 0f8c 0E94 0000 		call is_coordinate_null
 3632               	.L325:
 3633 0f90 892B      		or r24,r25
 3634 0f92 01F4      		brne .L320
 3635               	.LM575:
 3636 0f94 8091 0000 		lds r24,repeat
 3637 0f98 9091 0000 		lds r25,(repeat)+1
 3638 0f9c 0196      		adiw r24,1
 3639 0f9e 9093 0000 		sts (repeat)+1,r25
 3640 0fa2 8093 0000 		sts repeat,r24
 3641 0fa6 00C0      		rjmp .L302
 3642               	.L320:
 3643               	.LM576:
 3644 0fa8 1092 0000 		sts (repeat)+1,__zero_reg__
 3645 0fac 1092 0000 		sts repeat,__zero_reg__
 3646               	.LVL118:
 3647               	.L302:
 3648               	.LM577:
 3649 0fb0 81E0      		ldi r24,lo8(1)
 3650               	.LVL119:
 3651 0fb2 60E0      		ldi r22,lo8(0)
 3652 0fb4 0E94 0000 		call lcd_byte
 3653               	.LM578:
 3654 0fb8 4091 0000 		lds r20,x_coordinate
 3655 0fbc 5091 0000 		lds r21,(x_coordinate)+1
 3656 0fc0 84E0      		ldi r24,lo8(4)
 3657 0fc2 90E0      		ldi r25,hi8(4)
 3658 0fc4 60E0      		ldi r22,lo8(0)
 3659 0fc6 70E0      		ldi r23,hi8(0)
 3660 0fc8 22E0      		ldi r18,lo8(2)
 3661 0fca 30E0      		ldi r19,hi8(2)
 3662 0fcc 0E94 0000 		call lcd_write_int_xy
 3663               	.LM579:
 3664 0fd0 4091 0000 		lds r20,y_coordinate
 3665 0fd4 5091 0000 		lds r21,(y_coordinate)+1
 3666 0fd8 88E0      		ldi r24,lo8(8)
 3667 0fda 90E0      		ldi r25,hi8(8)
 3668 0fdc 60E0      		ldi r22,lo8(0)
 3669 0fde 70E0      		ldi r23,hi8(0)
 3670 0fe0 22E0      		ldi r18,lo8(2)
 3671 0fe2 30E0      		ldi r19,hi8(2)
 3672 0fe4 0E94 0000 		call lcd_write_int_xy
 3673               	.LM580:
 3674 0fe8 1092 0000 		sts (Coordinates_changed_by)+1,__zero_reg__
 3675 0fec 1092 0000 		sts Coordinates_changed_by,__zero_reg__
 3676               	/* epilogue start */
 3677               	.LM581:
 3678 0ff0 0895      		ret
 3679               	.LFE65:
 3681               	.global	left_junc_check
 3683               	left_junc_check:
 3684               	.LFB64:
 3685               	.LM582:
 3686 0ff2 CF93      		push r28
 3687 0ff4 DF93      		push r29
 3688               	/* prologue: function */
 3689               	/* frame size = 0 */
 3690               	.LM583:
 3691 0ff6 CD99      		sbic 57-32,5
 3692 0ff8 00C0      		rjmp .L337
 3693               	.LM584:
 3694 0ffa C1E0      		ldi r28,lo8(1)
 3695 0ffc D0E0      		ldi r29,hi8(1)
 3696 0ffe D093 0000 		sts (flag1)+1,r29
 3697 1002 C093 0000 		sts flag1,r28
 3698               	.LM585:
 3699 1006 8091 0000 		lds r24,irc
 3700 100a 9091 0000 		lds r25,(irc)+1
 3701 100e 815D      		subi r24,lo8(2001)
 3702 1010 9740      		sbci r25,hi8(2001)
 3703 1012 04F0      		brlt .L338
 3704               	.LM586:
 3705 1014 81E0      		ldi r24,lo8(1)
 3706 1016 60E0      		ldi r22,lo8(0)
 3707 1018 0E94 0000 		call lcd_byte
 3708               	.LM587:
 3709 101c 82E0      		ldi r24,lo8(2)
 3710 101e 90E0      		ldi r25,hi8(2)
 3711 1020 9093 0000 		sts (Coordinates_changed_by)+1,r25
 3712 1024 8093 0000 		sts Coordinates_changed_by,r24
 3713 1028 00C0      		rjmp .L339
 3714               	.L338:
 3715               	.LM588:
 3716 102a 81E0      		ldi r24,lo8(1)
 3717 102c 60E0      		ldi r22,lo8(0)
 3718 102e 0E94 0000 		call lcd_byte
 3719               	.LM589:
 3720 1032 D093 0000 		sts (Coordinates_changed_by)+1,r29
 3721 1036 C093 0000 		sts Coordinates_changed_by,r28
 3722               	.L339:
 3723               	.LM590:
 3724 103a 8091 0000 		lds r24,irc
 3725 103e 9091 0000 		lds r25,(irc)+1
 3726 1042 892B      		or r24,r25
 3727 1044 01F4      		brne .L337
 3728               	.LM591:
 3729 1046 1092 0000 		sts (Coordinates_changed_by)+1,__zero_reg__
 3730 104a 1092 0000 		sts Coordinates_changed_by,__zero_reg__
 3731               	.L337:
 3732               	.LM592:
 3733 104e CE9B      		sbis 57-32,6
 3734 1050 00C0      		rjmp .L340
 3735 1052 8699      		sbic 48-32,6
 3736 1054 00C0      		rjmp .L341
 3737               	.L340:
 3738 1056 CC9B      		sbis 57-32,4
 3739 1058 00C0      		rjmp .L342
 3740 105a 8091 0000 		lds r24,special_flag
 3741 105e 9091 0000 		lds r25,(special_flag)+1
 3742 1062 0197      		sbiw r24,1
 3743 1064 01F4      		brne .L341
 3744               	.L342:
 3745               	.LM593:
 3746 1066 0E94 0000 		call update_coordinates
 3747               	.LM594:
 3748 106a 84E5      		ldi r24,lo8(84)
 3749 106c 90E0      		ldi r25,hi8(84)
 3750 106e 66E4      		ldi r22,lo8(70)
 3751 1070 70E0      		ldi r23,hi8(70)
 3752 1072 44E5      		ldi r20,lo8(84)
 3753 1074 50E0      		ldi r21,hi8(84)
 3754 1076 24E5      		ldi r18,lo8(84)
 3755 1078 30E0      		ldi r19,hi8(84)
 3756 107a 0E94 0000 		call update_array
 3757               	.LM595:
 3758 107e 1092 0000 		sts (irc)+1,__zero_reg__
 3759 1082 1092 0000 		sts irc,__zero_reg__
 3760 1086 00C0      		rjmp .L346
 3761               	.L341:
 3762               	.LM596:
 3763 1088 CC9B      		sbis 57-32,4
 3764 108a 00C0      		rjmp .L344
 3765 108c 8091 0000 		lds r24,special_flag
 3766 1090 9091 0000 		lds r25,(special_flag)+1
 3767 1094 0197      		sbiw r24,1
 3768 1096 01F4      		brne .L345
 3769               	.L344:
 3770 1098 CE9B      		sbis 57-32,6
 3771 109a 00C0      		rjmp .L345
 3772 109c 869B      		sbis 48-32,6
 3773 109e 00C0      		rjmp .L345
 3774               	.LM597:
 3775 10a0 0E94 0000 		call update_coordinates
 3776               	.LM598:
 3777 10a4 1092 0000 		sts (irc)+1,__zero_reg__
 3778 10a8 1092 0000 		sts irc,__zero_reg__
 3779               	.LBB646:
 3780               	.LBB647:
 3781               	.LM599:
 3782 10ac AC9A      		sbi 53-32,4
 3783               	.LM600:
 3784 10ae AD9A      		sbi 53-32,5
 3785               	.LM601:
 3786 10b0 AE9A      		sbi 53-32,6
 3787               	.LM602:
 3788 10b2 AF9A      		sbi 53-32,7
 3789               	.LBE647:
 3790               	.LBE646:
 3791               	.LM603:
 3792 10b4 8091 0000 		lds r24,repeat
 3793 10b8 9091 0000 		lds r25,(repeat)+1
 3794 10bc 0397      		sbiw r24,3
 3795 10be 04F4      		brge .L345
 3796               	.LM604:
 3797 10c0 0E94 0000 		call turn_left
 3798               	.LM605:
 3799 10c4 86E4      		ldi r24,lo8(70)
 3800 10c6 90E0      		ldi r25,hi8(70)
 3801 10c8 66E4      		ldi r22,lo8(70)
 3802 10ca 70E0      		ldi r23,hi8(70)
 3803 10cc 44E5      		ldi r20,lo8(84)
 3804 10ce 50E0      		ldi r21,hi8(84)
 3805 10d0 24E5      		ldi r18,lo8(84)
 3806 10d2 30E0      		ldi r19,hi8(84)
 3807 10d4 0E94 0000 		call update_array
 3808               	.LBB648:
 3809               	.LBB649:
 3810               	.LM606:
 3811 10d8 AC9A      		sbi 53-32,4
 3812               	.LM607:
 3813 10da AD9A      		sbi 53-32,5
 3814               	.LM608:
 3815 10dc AE9A      		sbi 53-32,6
 3816               	.LM609:
 3817 10de AF9A      		sbi 53-32,7
 3818               	.LBE649:
 3819               	.LBE648:
 3820               	.LM610:
 3821 10e0 0E94 0000 		call sense_of_directon
 3822               	.LM611:
 3823 10e4 1092 0000 		sts (flag1)+1,__zero_reg__
 3824 10e8 1092 0000 		sts flag1,__zero_reg__
 3825               	.L346:
 3826               	.LM612:
 3827 10ec 1092 0000 		sts (special_flag)+1,__zero_reg__
 3828 10f0 1092 0000 		sts special_flag,__zero_reg__
 3829               	.L345:
 3830               	/* epilogue start */
 3831               	.LM613:
 3832 10f4 DF91      		pop r29
 3833 10f6 CF91      		pop r28
 3834 10f8 0895      		ret
 3835               	.LFE64:
 3837               	.global	frSensorCheck
 3839               	frSensorCheck:
 3840               	.LFB62:
 3841               	.LM614:
 3842               	/* prologue: function */
 3843               	/* frame size = 0 */
 3844               	.LM615:
 3845 10fa CE9B      		sbis 57-32,6
 3846 10fc 00C0      		rjmp .L348
 3847 10fe 869B      		sbis 48-32,6
 3848 1100 00C0      		rjmp .L348
 3849               	.LM616:
 3850 1102 8091 0000 		lds r24,irc
 3851 1106 9091 0000 		lds r25,(irc)+1
 3852 110a 2091 0000 		lds r18,Coordinates_changed_by
 3853 110e 3091 0000 		lds r19,(Coordinates_changed_by)+1
 3854 1112 815D      		subi r24,lo8(2001)
 3855 1114 9740      		sbci r25,hi8(2001)
 3856 1116 04F0      		brlt .L349
 3857               	.LM617:
 3858 1118 232B      		or r18,r19
 3859 111a 01F4      		brne .L348
 3860               	.LM618:
 3861 111c 82E0      		ldi r24,lo8(2)
 3862 111e 90E0      		ldi r25,hi8(2)
 3863 1120 00C0      		rjmp .L352
 3864               	.L349:
 3865               	.LM619:
 3866 1122 232B      		or r18,r19
 3867 1124 01F4      		brne .L348
 3868               	.LM620:
 3869 1126 81E0      		ldi r24,lo8(1)
 3870 1128 90E0      		ldi r25,hi8(1)
 3871               	.L352:
 3872 112a 9093 0000 		sts (Coordinates_changed_by)+1,r25
 3873 112e 8093 0000 		sts Coordinates_changed_by,r24
 3874               	.L348:
 3875               	.LM621:
 3876 1132 8091 0000 		lds r24,sensorbyte
 3877 1136 8823      		tst r24
 3878 1138 01F4      		brne .L351
 3879 113a CC9B      		sbis 57-32,4
 3880 113c 00C0      		rjmp .L351
 3881 113e CD9B      		sbis 57-32,5
 3882 1140 00C0      		rjmp .L351
 3883 1142 CE9B      		sbis 57-32,6
 3884 1144 00C0      		rjmp .L351
 3885 1146 CF9B      		sbis 57-32,7
 3886 1148 00C0      		rjmp .L351
 3887 114a 869B      		sbis 48-32,6
 3888 114c 00C0      		rjmp .L351
 3889 114e 879B      		sbis 48-32,7
 3890 1150 00C0      		rjmp .L351
 3891               	.LBB650:
 3892               	.LBB651:
 3893               	.LM622:
 3894 1152 AC9A      		sbi 53-32,4
 3895               	.LM623:
 3896 1154 AD9A      		sbi 53-32,5
 3897               	.LM624:
 3898 1156 AE9A      		sbi 53-32,6
 3899               	.LM625:
 3900 1158 AF9A      		sbi 53-32,7
 3901               	.LBE651:
 3902               	.LBE650:
 3903               	.LM626:
 3904 115a 0E94 0000 		call update_coordinates
 3905               	.LM627:
 3906 115e 86E4      		ldi r24,lo8(70)
 3907 1160 90E0      		ldi r25,hi8(70)
 3908 1162 66E4      		ldi r22,lo8(70)
 3909 1164 70E0      		ldi r23,hi8(70)
 3910 1166 44E5      		ldi r20,lo8(84)
 3911 1168 50E0      		ldi r21,hi8(84)
 3912 116a 26E4      		ldi r18,lo8(70)
 3913 116c 30E0      		ldi r19,hi8(70)
 3914 116e 0E94 0000 		call update_array
 3915               	.LM628:
 3916 1172 0E94 0000 		call Uturn
 3917               	.LM629:
 3918 1176 0E94 0000 		call sense_of_directon
 3919               	.LM630:
 3920 117a 1092 0000 		sts (flag1)+1,__zero_reg__
 3921 117e 1092 0000 		sts flag1,__zero_reg__
 3922               	.LM631:
 3923 1182 1092 0000 		sts (irc)+1,__zero_reg__
 3924 1186 1092 0000 		sts irc,__zero_reg__
 3925               	.L351:
 3926 118a 0895      		ret
 3927               	.LFE62:
 3929               		.data
 3930               	.LC0:
 3931 0000 4669 6C6C 		.string	"Filliable"
 3931      6961 626C 
 3931      6500 
 3932               		.text
 3933               	.global	fill_missed_array
 3935               	fill_missed_array:
 3936               	.LFB69:
 3937               	.LM632:
 3938 118c 6F92      		push r6
 3939 118e 7F92      		push r7
 3940 1190 8F92      		push r8
 3941 1192 9F92      		push r9
 3942 1194 BF92      		push r11
 3943 1196 CF92      		push r12
 3944 1198 DF92      		push r13
 3945 119a EF92      		push r14
 3946 119c FF92      		push r15
 3947 119e 0F93      		push r16
 3948 11a0 1F93      		push r17
 3949 11a2 CF93      		push r28
 3950 11a4 DF93      		push r29
 3951               	/* prologue: function */
 3952               	/* frame size = 0 */
 3953               	.LM633:
 3954 11a6 81E0      		ldi r24,lo8(1)
 3955 11a8 E82E      		mov r14,r24
 3956 11aa F12C      		mov r15,__zero_reg__
 3957               	.LVL120:
 3958               	.LBB652:
 3959               	.LBB653:
 3960               	.LM634:
 3961 11ac 06E4      		ldi r16,lo8(70)
 3962 11ae B02E      		mov r11,r16
 3963 11b0 00C0      		rjmp .L354
 3964               	.LVL121:
 3965               	.L363:
 3966               	.LM635:
 3967 11b2 C701      		movw r24,r14
 3968 11b4 B801      		movw r22,r16
 3969 11b6 0E94 0000 		call is_coordinate_null
 3970 11ba 892B      		or r24,r25
 3971 11bc 01F4      		brne .+2
 3972 11be 00C0      		rjmp .L355
 3973               	.LM636:
 3974 11c0 81E0      		ldi r24,lo8(1)
 3975 11c2 60E0      		ldi r22,lo8(0)
 3976 11c4 0E94 0000 		call lcd_byte
 3977               	.LM637:
 3978 11c8 C301      		movw r24,r6
 3979 11ca B801      		movw r22,r16
 3980 11cc 0E94 0000 		call is_coordinate_null
 3981 11d0 892B      		or r24,r25
 3982 11d2 01F0      		breq .+2
 3983 11d4 00C0      		rjmp .L355
 3984 11d6 C401      		movw r24,r8
 3985 11d8 B801      		movw r22,r16
 3986 11da 0E94 0000 		call is_coordinate_null
 3987 11de 892B      		or r24,r25
 3988 11e0 01F4      		brne .L355
 3989 11e2 B801      		movw r22,r16
 3990 11e4 6150      		subi r22,lo8(-(-1))
 3991 11e6 7040      		sbci r23,hi8(-(-1))
 3992 11e8 C701      		movw r24,r14
 3993 11ea 0E94 0000 		call is_coordinate_null
 3994 11ee 892B      		or r24,r25
 3995 11f0 01F4      		brne .L355
 3996 11f2 B801      		movw r22,r16
 3997 11f4 6F5F      		subi r22,lo8(-(1))
 3998 11f6 7F4F      		sbci r23,hi8(-(1))
 3999 11f8 C701      		movw r24,r14
 4000 11fa 0E94 0000 		call is_coordinate_null
 4001 11fe 892B      		or r24,r25
 4002 1200 01F4      		brne .L355
 4003               	.LM638:
 4004 1202 81E0      		ldi r24,lo8(1)
 4005 1204 60E0      		ldi r22,lo8(0)
 4006 1206 0E94 0000 		call lcd_byte
 4007               	.LM639:
 4008 120a 80E0      		ldi r24,lo8(.LC0)
 4009 120c 90E0      		ldi r25,hi8(.LC0)
 4010 120e 0E94 0000 		call lcd_write_string
 4011               	.LM640:
 4012 1212 80ED      		ldi r24,lo8(2000)
 4013 1214 97E0      		ldi r25,hi8(2000)
 4014 1216 0E94 0000 		call delay_millisec
 4015               	.LM641:
 4016 121a CD5B      		subi r28,lo8(-(67))
 4017 121c DF4F      		sbci r29,hi8(-(67))
 4018 121e 8881      		ld r24,Y
 4019 1220 C354      		subi r28,lo8(-(-67))
 4020 1222 D040      		sbci r29,hi8(-(-67))
 4021 1224 8435      		cpi r24,lo8(84)
 4022 1226 01F4      		brne .L356
 4023               	.LM642:
 4024 1228 8983      		std Y+1,r24
 4025 122a 00C0      		rjmp .L357
 4026               	.L356:
 4027               	.LM643:
 4028 122c B982      		std Y+1,r11
 4029               	.L357:
 4030               	.LM644:
 4031 122e EF97      		sbiw r28,63
 4032 1230 8881      		ld r24,Y
 4033 1232 EF96      		adiw r28,63
 4034 1234 8435      		cpi r24,lo8(84)
 4035 1236 01F4      		brne .L358
 4036               	.LM645:
 4037 1238 8B83      		std Y+3,r24
 4038 123a 00C0      		rjmp .L359
 4039               	.L358:
 4040               	.LM646:
 4041 123c BB82      		std Y+3,r11
 4042               	.L359:
 4043               	.LM647:
 4044 123e 8E81      		ldd r24,Y+6
 4045 1240 8435      		cpi r24,lo8(84)
 4046 1242 01F4      		brne .L360
 4047               	.LM648:
 4048 1244 8883      		st Y,r24
 4049 1246 00C0      		rjmp .L361
 4050               	.L360:
 4051               	.LM649:
 4052 1248 B882      		st Y,r11
 4053               	.L361:
 4054               	.LM650:
 4055 124a F601      		movw r30,r12
 4056 124c 8081      		ld r24,Z
 4057 124e 8435      		cpi r24,lo8(84)
 4058 1250 01F4      		brne .L362
 4059               	.LM651:
 4060 1252 8A83      		std Y+2,r24
 4061 1254 00C0      		rjmp .L355
 4062               	.L362:
 4063               	.LM652:
 4064 1256 BA82      		std Y+2,r11
 4065               	.L355:
 4066               	.LM653:
 4067 1258 0F5F      		subi r16,lo8(-(1))
 4068 125a 1F4F      		sbci r17,hi8(-(1))
 4069 125c 85E0      		ldi r24,lo8(5)
 4070 125e 90E0      		ldi r25,hi8(5)
 4071 1260 C80E      		add r12,r24
 4072 1262 D91E      		adc r13,r25
 4073 1264 2496      		adiw r28,4
 4074 1266 0F30      		cpi r16,15
 4075 1268 1105      		cpc r17,__zero_reg__
 4076 126a 01F0      		breq .+2
 4077 126c 00C0      		rjmp .L363
 4078               	.LBE653:
 4079               	.LM654:
 4080 126e 0894      		sec
 4081 1270 E11C      		adc r14,__zero_reg__
 4082 1272 F11C      		adc r15,__zero_reg__
 4083 1274 9FE0      		ldi r25,lo8(15)
 4084 1276 E916      		cp r14,r25
 4085 1278 F104      		cpc r15,__zero_reg__
 4086 127a 01F0      		breq .L365
 4087               	.L354:
 4088 127c 6701      		movw r12,r14
 4089 127e 16E0      		ldi r17,6
 4090 1280 CC0C      	1:	lsl r12
 4091 1282 DD1C      		rol r13
 4092 1284 1A95      		dec r17
 4093 1286 01F4      		brne 1b
 4094 1288 E0E0      		ldi r30,lo8(dir_array+4)
 4095 128a F0E0      		ldi r31,hi8(dir_array+4)
 4096 128c CE0E      		add r12,r30
 4097 128e DF1E      		adc r13,r31
 4098 1290 E601      		movw r28,r12
 4099 1292 01E0      		ldi r16,lo8(1)
 4100 1294 10E0      		ldi r17,hi8(1)
 4101               	.LBB654:
 4102               	.LM655:
 4103 1296 3701      		movw r6,r14
 4104 1298 0894      		sec
 4105 129a 611C      		adc r6,__zero_reg__
 4106 129c 711C      		adc r7,__zero_reg__
 4107 129e 4701      		movw r8,r14
 4108 12a0 0894      		sec
 4109 12a2 8108      		sbc r8,__zero_reg__
 4110 12a4 9108      		sbc r9,__zero_reg__
 4111 12a6 00C0      		rjmp .L363
 4112               	.L365:
 4113               	/* epilogue start */
 4114               	.LBE654:
 4115               	.LBE652:
 4116               	.LM656:
 4117 12a8 DF91      		pop r29
 4118 12aa CF91      		pop r28
 4119 12ac 1F91      		pop r17
 4120 12ae 0F91      		pop r16
 4121               	.LVL122:
 4122 12b0 FF90      		pop r15
 4123 12b2 EF90      		pop r14
 4124               	.LVL123:
 4125 12b4 DF90      		pop r13
 4126 12b6 CF90      		pop r12
 4127 12b8 BF90      		pop r11
 4128 12ba 9F90      		pop r9
 4129 12bc 8F90      		pop r8
 4130 12be 7F90      		pop r7
 4131 12c0 6F90      		pop r6
 4132 12c2 0895      		ret
 4133               	.LFE69:
 4135               	.global	coordinates_tobe_reached
 4137               	coordinates_tobe_reached:
 4138               	.LFB70:
 4139               	.LM657:
 4140 12c4 2F92      		push r2
 4141 12c6 3F92      		push r3
 4142 12c8 4F92      		push r4
 4143 12ca 5F92      		push r5
 4144 12cc 6F92      		push r6
 4145 12ce 7F92      		push r7
 4146 12d0 8F92      		push r8
 4147 12d2 9F92      		push r9
 4148 12d4 AF92      		push r10
 4149 12d6 BF92      		push r11
 4150 12d8 CF92      		push r12
 4151 12da DF92      		push r13
 4152 12dc EF92      		push r14
 4153 12de FF92      		push r15
 4154 12e0 0F93      		push r16
 4155 12e2 1F93      		push r17
 4156 12e4 DF93      		push r29
 4157 12e6 CF93      		push r28
 4158 12e8 CDB7      		in r28,__SP_L__
 4159 12ea DEB7      		in r29,__SP_H__
 4160 12ec 6897      		sbiw r28,24
 4161 12ee 0FB6      		in __tmp_reg__,__SREG__
 4162 12f0 F894      		cli
 4163 12f2 DEBF      		out __SP_H__,r29
 4164 12f4 0FBE      		out __SREG__,__tmp_reg__
 4165 12f6 CDBF      		out __SP_L__,r28
 4166               	/* prologue: function */
 4167               	/* frame size = 24 */
 4168               	.LM658:
 4169 12f8 1092 0000 		sts (mx)+1,__zero_reg__
 4170 12fc 1092 0000 		sts mx,__zero_reg__
 4171               	.LM659:
 4172 1300 1092 0000 		sts (my)+1,__zero_reg__
 4173 1304 1092 0000 		sts my,__zero_reg__
 4174               	.LBB655:
 4175               	.LBB656:
 4176               	.LM660:
 4177 1308 8090 0000 		lds r8,x_coordinate
 4178 130c 9090 0000 		lds r9,(x_coordinate)+1
 4179 1310 A090 0000 		lds r10,y_coordinate
 4180 1314 B090 0000 		lds r11,(y_coordinate)+1
 4181 1318 CC24      		clr r12
 4182 131a DD24      		clr r13
 4183 131c C818      		sub r12,r8
 4184 131e D908      		sbc r13,r9
 4185 1320 DE82      		std Y+6,r13
 4186 1322 CD82      		std Y+5,r12
 4187 1324 DC82      		std Y+4,r13
 4188 1326 CB82      		std Y+3,r12
 4189 1328 DA82      		std Y+2,r13
 4190 132a C982      		std Y+1,r12
 4191 132c 00E0      		ldi r16,lo8(0)
 4192 132e 10E0      		ldi r17,hi8(0)
 4193               	.LVL124:
 4194               	.LM661:
 4195 1330 2227      		clr r18
 4196 1332 3327      		clr r19
 4197 1334 2A19      		sub r18,r10
 4198 1336 3B09      		sbc r19,r11
 4199 1338 3E8B      		std Y+22,r19
 4200 133a 2D8B      		std Y+21,r18
 4201 133c 00C0      		rjmp .L368
 4202               	.LVL125:
 4203               	.L377:
 4204               	.LM662:
 4205 133e C801      		movw r24,r16
 4206 1340 6F89      		ldd r22,Y+23
 4207 1342 788D      		ldd r23,Y+24
 4208 1344 0E94 0000 		call is_coordinate_null
 4209 1348 892B      		or r24,r25
 4210 134a 01F0      		breq .+2
 4211 134c 00C0      		rjmp .L369
 4212               	.LM663:
 4213 134e F701      		movw r30,r14
 4214 1350 8081      		ld r24,Z
 4215 1352 8435      		cpi r24,lo8(84)
 4216 1354 01F0      		breq .+2
 4217 1356 00C0      		rjmp .L370
 4218               	.LM664:
 4219 1358 6F89      		ldd r22,Y+23
 4220 135a 788D      		ldd r23,Y+24
 4221 135c 6F5F      		subi r22,lo8(-(1))
 4222 135e 7F4F      		sbci r23,hi8(-(1))
 4223 1360 C801      		movw r24,r16
 4224 1362 0E94 0000 		call is_coordinate_null
 4225 1366 892B      		or r24,r25
 4226 1368 01F4      		brne .+2
 4227 136a 00C0      		rjmp .L370
 4228               	.LM665:
 4229 136c 6091 0000 		lds r22,mx
 4230 1370 7091 0000 		lds r23,(mx)+1
 4231 1374 6115      		cp r22,__zero_reg__
 4232 1376 7105      		cpc r23,__zero_reg__
 4233 1378 01F4      		brne .L371
 4234 137a 8091 0000 		lds r24,my
 4235 137e 9091 0000 		lds r25,(my)+1
 4236 1382 892B      		or r24,r25
 4237 1384 01F0      		breq .L381
 4238               	.L371:
 4239               	.LM666:
 4240 1386 6819      		sub r22,r8
 4241 1388 7909      		sbc r23,r9
 4242 138a 8091 0000 		lds r24,my
 4243 138e 9091 0000 		lds r25,(my)+1
 4244 1392 8A19      		sub r24,r10
 4245 1394 9B09      		sbc r25,r11
 4246               	.LM667:
 4247 1396 ED85      		ldd r30,Y+13
 4248 1398 FE85      		ldd r31,Y+14
 4249 139a EE9F      		mul r30,r30
 4250 139c A001      		movw r20,r0
 4251 139e EF9F      		mul r30,r31
 4252 13a0 500D      		add r21,r0
 4253 13a2 FE9F      		mul r31,r30
 4254 13a4 500D      		add r21,r0
 4255 13a6 1124      		clr r1
 4256 13a8 2F85      		ldd r18,Y+15
 4257 13aa 3889      		ldd r19,Y+16
 4258 13ac 420F      		add r20,r18
 4259 13ae 531F      		adc r21,r19
 4260 13b0 FC01      		movw r30,r24
 4261 13b2 EE9F      		mul r30,r30
 4262 13b4 C001      		movw r24,r0
 4263 13b6 EF9F      		mul r30,r31
 4264 13b8 900D      		add r25,r0
 4265 13ba FE9F      		mul r31,r30
 4266 13bc 900D      		add r25,r0
 4267 13be 1124      		clr r1
 4268 13c0 669F      		mul r22,r22
 4269 13c2 9001      		movw r18,r0
 4270 13c4 679F      		mul r22,r23
 4271 13c6 300D      		add r19,r0
 4272 13c8 769F      		mul r23,r22
 4273 13ca 300D      		add r19,r0
 4274 13cc 1124      		clr r1
 4275 13ce 820F      		add r24,r18
 4276 13d0 931F      		adc r25,r19
 4277 13d2 4817      		cp r20,r24
 4278 13d4 5907      		cpc r21,r25
 4279 13d6 04F4      		brge .L370
 4280               	.L381:
 4281               	.LM668:
 4282 13d8 1093 0000 		sts (mx)+1,r17
 4283 13dc 0093 0000 		sts mx,r16
 4284               	.LM669:
 4285 13e0 2F89      		ldd r18,Y+23
 4286 13e2 388D      		ldd r19,Y+24
 4287 13e4 3093 0000 		sts (my)+1,r19
 4288 13e8 2093 0000 		sts my,r18
 4289               	.L370:
 4290               	.LM670:
 4291 13ec F701      		movw r30,r14
 4292 13ee 8181      		ldd r24,Z+1
 4293 13f0 8435      		cpi r24,lo8(84)
 4294 13f2 01F0      		breq .+2
 4295 13f4 00C0      		rjmp .L372
 4296               	.LM671:
 4297 13f6 8B89      		ldd r24,Y+19
 4298 13f8 9C89      		ldd r25,Y+20
 4299 13fa 6F89      		ldd r22,Y+23
 4300 13fc 788D      		ldd r23,Y+24
 4301 13fe 0E94 0000 		call is_coordinate_null
 4302 1402 892B      		or r24,r25
 4303 1404 01F4      		brne .+2
 4304 1406 00C0      		rjmp .L372
 4305               	.LM672:
 4306 1408 6091 0000 		lds r22,mx
 4307 140c 7091 0000 		lds r23,(mx)+1
 4308 1410 6115      		cp r22,__zero_reg__
 4309 1412 7105      		cpc r23,__zero_reg__
 4310 1414 01F4      		brne .L373
 4311 1416 8091 0000 		lds r24,my
 4312 141a 9091 0000 		lds r25,(my)+1
 4313 141e 892B      		or r24,r25
 4314 1420 01F4      		brne .L373
 4315               	.LM673:
 4316 1422 1093 0000 		sts (mx)+1,r17
 4317 1426 0093 0000 		sts mx,r16
 4318               	.LM674:
 4319 142a 2F89      		ldd r18,Y+23
 4320 142c 388D      		ldd r19,Y+24
 4321 142e 3093 0000 		sts (my)+1,r19
 4322 1432 2093 0000 		sts my,r18
 4323 1436 00C0      		rjmp .L372
 4324               	.L373:
 4325               	.LM675:
 4326 1438 6819      		sub r22,r8
 4327 143a 7909      		sbc r23,r9
 4328 143c 8091 0000 		lds r24,my
 4329 1440 9091 0000 		lds r25,(my)+1
 4330 1444 8A19      		sub r24,r10
 4331 1446 9B09      		sbc r25,r11
 4332               	.LM676:
 4333 1448 669C      		mul r6,r6
 4334 144a A001      		movw r20,r0
 4335 144c 679C      		mul r6,r7
 4336 144e 500D      		add r21,r0
 4337 1450 769C      		mul r7,r6
 4338 1452 500D      		add r21,r0
 4339 1454 1124      		clr r1
 4340 1456 EB85      		ldd r30,Y+11
 4341 1458 FC85      		ldd r31,Y+12
 4342 145a 4E0F      		add r20,r30
 4343 145c 5F1F      		adc r21,r31
 4344 145e 9C01      		movw r18,r24
 4345 1460 229F      		mul r18,r18
 4346 1462 C001      		movw r24,r0
 4347 1464 239F      		mul r18,r19
 4348 1466 900D      		add r25,r0
 4349 1468 329F      		mul r19,r18
 4350 146a 900D      		add r25,r0
 4351 146c 1124      		clr r1
 4352 146e 669F      		mul r22,r22
 4353 1470 9001      		movw r18,r0
 4354 1472 679F      		mul r22,r23
 4355 1474 300D      		add r19,r0
 4356 1476 769F      		mul r23,r22
 4357 1478 300D      		add r19,r0
 4358 147a 1124      		clr r1
 4359 147c 820F      		add r24,r18
 4360 147e 931F      		adc r25,r19
 4361 1480 4817      		cp r20,r24
 4362 1482 5907      		cpc r21,r25
 4363 1484 04F4      		brge .L372
 4364               	.LM677:
 4365 1486 1093 0000 		sts (mx)+1,r17
 4366 148a 0093 0000 		sts mx,r16
 4367               	.LM678:
 4368 148e 8F89      		ldd r24,Y+23
 4369 1490 988D      		ldd r25,Y+24
 4370 1492 9093 0000 		sts (my)+1,r25
 4371 1496 8093 0000 		sts my,r24
 4372               	.L372:
 4373               	.LM679:
 4374 149a F701      		movw r30,r14
 4375 149c 8281      		ldd r24,Z+2
 4376 149e 8435      		cpi r24,lo8(84)
 4377 14a0 01F0      		breq .+2
 4378 14a2 00C0      		rjmp .L374
 4379               	.LM680:
 4380 14a4 6F89      		ldd r22,Y+23
 4381 14a6 788D      		ldd r23,Y+24
 4382 14a8 6150      		subi r22,lo8(-(-1))
 4383 14aa 7040      		sbci r23,hi8(-(-1))
 4384 14ac C801      		movw r24,r16
 4385 14ae 0E94 0000 		call is_coordinate_null
 4386 14b2 892B      		or r24,r25
 4387 14b4 01F4      		brne .+2
 4388 14b6 00C0      		rjmp .L374
 4389               	.LM681:
 4390 14b8 6091 0000 		lds r22,mx
 4391 14bc 7091 0000 		lds r23,(mx)+1
 4392 14c0 6115      		cp r22,__zero_reg__
 4393 14c2 7105      		cpc r23,__zero_reg__
 4394 14c4 01F4      		brne .L375
 4395 14c6 8091 0000 		lds r24,my
 4396 14ca 9091 0000 		lds r25,(my)+1
 4397 14ce 892B      		or r24,r25
 4398 14d0 01F4      		brne .L375
 4399               	.LM682:
 4400 14d2 1093 0000 		sts (mx)+1,r17
 4401 14d6 0093 0000 		sts mx,r16
 4402               	.LM683:
 4403 14da 2F89      		ldd r18,Y+23
 4404 14dc 388D      		ldd r19,Y+24
 4405 14de 3093 0000 		sts (my)+1,r19
 4406 14e2 2093 0000 		sts my,r18
 4407 14e6 00C0      		rjmp .L374
 4408               	.L375:
 4409               	.LM684:
 4410 14e8 6819      		sub r22,r8
 4411 14ea 7909      		sbc r23,r9
 4412 14ec 8091 0000 		lds r24,my
 4413 14f0 9091 0000 		lds r25,(my)+1
 4414 14f4 8A19      		sub r24,r10
 4415 14f6 9B09      		sbc r25,r11
 4416               	.LM685:
 4417 14f8 449C      		mul r4,r4
 4418 14fa A001      		movw r20,r0
 4419 14fc 459C      		mul r4,r5
 4420 14fe 500D      		add r21,r0
 4421 1500 549C      		mul r5,r4
 4422 1502 500D      		add r21,r0
 4423 1504 1124      		clr r1
 4424 1506 E985      		ldd r30,Y+9
 4425 1508 FA85      		ldd r31,Y+10
 4426 150a 4E0F      		add r20,r30
 4427 150c 5F1F      		adc r21,r31
 4428 150e 9C01      		movw r18,r24
 4429 1510 229F      		mul r18,r18
 4430 1512 C001      		movw r24,r0
 4431 1514 239F      		mul r18,r19
 4432 1516 900D      		add r25,r0
 4433 1518 329F      		mul r19,r18
 4434 151a 900D      		add r25,r0
 4435 151c 1124      		clr r1
 4436 151e 669F      		mul r22,r22
 4437 1520 9001      		movw r18,r0
 4438 1522 679F      		mul r22,r23
 4439 1524 300D      		add r19,r0
 4440 1526 769F      		mul r23,r22
 4441 1528 300D      		add r19,r0
 4442 152a 1124      		clr r1
 4443 152c 820F      		add r24,r18
 4444 152e 931F      		adc r25,r19
 4445 1530 4817      		cp r20,r24
 4446 1532 5907      		cpc r21,r25
 4447 1534 04F4      		brge .L374
 4448               	.LM686:
 4449 1536 1093 0000 		sts (mx)+1,r17
 4450 153a 0093 0000 		sts mx,r16
 4451               	.LM687:
 4452 153e 8F89      		ldd r24,Y+23
 4453 1540 988D      		ldd r25,Y+24
 4454 1542 9093 0000 		sts (my)+1,r25
 4455 1546 8093 0000 		sts my,r24
 4456               	.L374:
 4457               	.LM688:
 4458 154a F701      		movw r30,r14
 4459 154c 8381      		ldd r24,Z+3
 4460 154e 8435      		cpi r24,lo8(84)
 4461 1550 01F0      		breq .+2
 4462 1552 00C0      		rjmp .L369
 4463               	.LM689:
 4464 1554 8989      		ldd r24,Y+17
 4465 1556 9A89      		ldd r25,Y+18
 4466 1558 6F89      		ldd r22,Y+23
 4467 155a 788D      		ldd r23,Y+24
 4468 155c 0E94 0000 		call is_coordinate_null
 4469 1560 892B      		or r24,r25
 4470 1562 01F4      		brne .+2
 4471 1564 00C0      		rjmp .L369
 4472               	.LM690:
 4473 1566 6091 0000 		lds r22,mx
 4474 156a 7091 0000 		lds r23,(mx)+1
 4475 156e 6115      		cp r22,__zero_reg__
 4476 1570 7105      		cpc r23,__zero_reg__
 4477 1572 01F4      		brne .L376
 4478 1574 8091 0000 		lds r24,my
 4479 1578 9091 0000 		lds r25,(my)+1
 4480 157c 892B      		or r24,r25
 4481 157e 01F4      		brne .L376
 4482               	.LM691:
 4483 1580 1093 0000 		sts (mx)+1,r17
 4484 1584 0093 0000 		sts mx,r16
 4485               	.LM692:
 4486 1588 2F89      		ldd r18,Y+23
 4487 158a 388D      		ldd r19,Y+24
 4488 158c 3093 0000 		sts (my)+1,r19
 4489 1590 2093 0000 		sts my,r18
 4490 1594 00C0      		rjmp .L369
 4491               	.L376:
 4492               	.LM693:
 4493 1596 6819      		sub r22,r8
 4494 1598 7909      		sbc r23,r9
 4495 159a 8091 0000 		lds r24,my
 4496 159e 9091 0000 		lds r25,(my)+1
 4497 15a2 8A19      		sub r24,r10
 4498 15a4 9B09      		sbc r25,r11
 4499               	.LM694:
 4500 15a6 229C      		mul r2,r2
 4501 15a8 A001      		movw r20,r0
 4502 15aa 239C      		mul r2,r3
 4503 15ac 500D      		add r21,r0
 4504 15ae 329C      		mul r3,r2
 4505 15b0 500D      		add r21,r0
 4506 15b2 1124      		clr r1
 4507 15b4 EF81      		ldd r30,Y+7
 4508 15b6 F885      		ldd r31,Y+8
 4509 15b8 4E0F      		add r20,r30
 4510 15ba 5F1F      		adc r21,r31
 4511 15bc 9C01      		movw r18,r24
 4512 15be 229F      		mul r18,r18
 4513 15c0 C001      		movw r24,r0
 4514 15c2 239F      		mul r18,r19
 4515 15c4 900D      		add r25,r0
 4516 15c6 329F      		mul r19,r18
 4517 15c8 900D      		add r25,r0
 4518 15ca 1124      		clr r1
 4519 15cc 669F      		mul r22,r22
 4520 15ce 9001      		movw r18,r0
 4521 15d0 679F      		mul r22,r23
 4522 15d2 300D      		add r19,r0
 4523 15d4 769F      		mul r23,r22
 4524 15d6 300D      		add r19,r0
 4525 15d8 1124      		clr r1
 4526 15da 820F      		add r24,r18
 4527 15dc 931F      		adc r25,r19
 4528 15de 4817      		cp r20,r24
 4529 15e0 5907      		cpc r21,r25
 4530 15e2 04F4      		brge .L369
 4531               	.LM695:
 4532 15e4 1093 0000 		sts (mx)+1,r17
 4533 15e8 0093 0000 		sts mx,r16
 4534               	.LM696:
 4535 15ec 8F89      		ldd r24,Y+23
 4536 15ee 988D      		ldd r25,Y+24
 4537 15f0 9093 0000 		sts (my)+1,r25
 4538 15f4 8093 0000 		sts my,r24
 4539               	.L369:
 4540               	.LM697:
 4541 15f8 EF89      		ldd r30,Y+23
 4542 15fa F88D      		ldd r31,Y+24
 4543 15fc 3196      		adiw r30,1
 4544 15fe F88F      		std Y+24,r31
 4545 1600 EF8B      		std Y+23,r30
 4546               	.LVL126:
 4547 1602 24E0      		ldi r18,lo8(4)
 4548 1604 30E0      		ldi r19,hi8(4)
 4549 1606 E20E      		add r14,r18
 4550 1608 F31E      		adc r15,r19
 4551 160a 0894      		sec
 4552 160c 211C      		adc r2,__zero_reg__
 4553 160e 311C      		adc r3,__zero_reg__
 4554 1610 0894      		sec
 4555 1612 411C      		adc r4,__zero_reg__
 4556 1614 511C      		adc r5,__zero_reg__
 4557 1616 0894      		sec
 4558 1618 611C      		adc r6,__zero_reg__
 4559 161a 711C      		adc r7,__zero_reg__
 4560 161c 8D85      		ldd r24,Y+13
 4561 161e 9E85      		ldd r25,Y+14
 4562 1620 0196      		adiw r24,1
 4563 1622 9E87      		std Y+14,r25
 4564 1624 8D87      		std Y+13,r24
 4565 1626 7097      		sbiw r30,16
 4566 1628 01F0      		breq .+2
 4567 162a 00C0      		rjmp .L377
 4568               	.LBE656:
 4569               	.LM698:
 4570 162c 0F5F      		subi r16,lo8(-(1))
 4571 162e 1F4F      		sbci r17,hi8(-(1))
 4572 1630 0894      		sec
 4573 1632 C11C      		adc r12,__zero_reg__
 4574 1634 D11C      		adc r13,__zero_reg__
 4575 1636 ED81      		ldd r30,Y+5
 4576 1638 FE81      		ldd r31,Y+6
 4577 163a 3196      		adiw r30,1
 4578 163c FE83      		std Y+6,r31
 4579 163e ED83      		std Y+5,r30
 4580 1640 2B81      		ldd r18,Y+3
 4581 1642 3C81      		ldd r19,Y+4
 4582 1644 2F5F      		subi r18,lo8(-(1))
 4583 1646 3F4F      		sbci r19,hi8(-(1))
 4584 1648 3C83      		std Y+4,r19
 4585 164a 2B83      		std Y+3,r18
 4586 164c 8981      		ldd r24,Y+1
 4587 164e 9A81      		ldd r25,Y+2
 4588 1650 0196      		adiw r24,1
 4589 1652 9A83      		std Y+2,r25
 4590 1654 8983      		std Y+1,r24
 4591 1656 0031      		cpi r16,16
 4592 1658 1105      		cpc r17,__zero_reg__
 4593 165a 01F4      		brne .+2
 4594 165c 00C0      		rjmp .L379
 4595               	.L368:
 4596               	.LBB657:
 4597               	.LM699:
 4598 165e CC9C      		mul r12,r12
 4599 1660 F001      		movw r30,r0
 4600 1662 CD9C      		mul r12,r13
 4601 1664 F00D      		add r31,r0
 4602 1666 DC9C      		mul r13,r12
 4603 1668 F00D      		add r31,r0
 4604 166a 1124      		clr r1
 4605 166c F88B      		std Y+16,r31
 4606 166e EF87      		std Y+15,r30
 4607               	.LM700:
 4608 1670 8D81      		ldd r24,Y+5
 4609 1672 9E81      		ldd r25,Y+6
 4610 1674 889F      		mul r24,r24
 4611 1676 9001      		movw r18,r0
 4612 1678 899F      		mul r24,r25
 4613 167a 300D      		add r19,r0
 4614 167c 989F      		mul r25,r24
 4615 167e 300D      		add r19,r0
 4616 1680 1124      		clr r1
 4617 1682 3C87      		std Y+12,r19
 4618 1684 2B87      		std Y+11,r18
 4619               	.LM701:
 4620 1686 2B81      		ldd r18,Y+3
 4621 1688 3C81      		ldd r19,Y+4
 4622 168a 229F      		mul r18,r18
 4623 168c F001      		movw r30,r0
 4624 168e 239F      		mul r18,r19
 4625 1690 F00D      		add r31,r0
 4626 1692 329F      		mul r19,r18
 4627 1694 F00D      		add r31,r0
 4628 1696 1124      		clr r1
 4629 1698 FA87      		std Y+10,r31
 4630 169a E987      		std Y+9,r30
 4631               	.LM702:
 4632 169c E981      		ldd r30,Y+1
 4633 169e FA81      		ldd r31,Y+2
 4634 16a0 EE9F      		mul r30,r30
 4635 16a2 C001      		movw r24,r0
 4636 16a4 EF9F      		mul r30,r31
 4637 16a6 900D      		add r25,r0
 4638 16a8 FE9F      		mul r31,r30
 4639 16aa 900D      		add r25,r0
 4640 16ac 1124      		clr r1
 4641 16ae 9887      		std Y+8,r25
 4642 16b0 8F83      		std Y+7,r24
 4643 16b2 7801      		movw r14,r16
 4644 16b4 96E0      		ldi r25,6
 4645 16b6 EE0C      	1:	lsl r14
 4646 16b8 FF1C      		rol r15
 4647 16ba 9A95      		dec r25
 4648 16bc 01F4      		brne 1b
 4649 16be 20E0      		ldi r18,lo8(dir_array)
 4650 16c0 30E0      		ldi r19,hi8(dir_array)
 4651 16c2 E20E      		add r14,r18
 4652 16c4 F31E      		adc r15,r19
 4653 16c6 8D89      		ldd r24,Y+21
 4654 16c8 9E89      		ldd r25,Y+22
 4655 16ca 9E87      		std Y+14,r25
 4656 16cc 8D87      		std Y+13,r24
 4657 16ce 1C01      		movw r2,r24
 4658 16d0 2C01      		movw r4,r24
 4659 16d2 3C01      		movw r6,r24
 4660 16d4 188E      		std Y+24,__zero_reg__
 4661 16d6 1F8A      		std Y+23,__zero_reg__
 4662               	.LVL127:
 4663               	.LM703:
 4664 16d8 F801      		movw r30,r16
 4665 16da 3197      		sbiw r30,1
 4666 16dc FA8B      		std Y+18,r31
 4667 16de E98B      		std Y+17,r30
 4668               	.LM704:
 4669 16e0 9801      		movw r18,r16
 4670 16e2 2F5F      		subi r18,lo8(-(1))
 4671 16e4 3F4F      		sbci r19,hi8(-(1))
 4672 16e6 3C8B      		std Y+20,r19
 4673 16e8 2B8B      		std Y+19,r18
 4674 16ea 00C0      		rjmp .L377
 4675               	.L379:
 4676               	/* epilogue start */
 4677               	.LBE657:
 4678               	.LBE655:
 4679               	.LM705:
 4680 16ec 6896      		adiw r28,24
 4681 16ee 0FB6      		in __tmp_reg__,__SREG__
 4682 16f0 F894      		cli
 4683 16f2 DEBF      		out __SP_H__,r29
 4684 16f4 0FBE      		out __SREG__,__tmp_reg__
 4685 16f6 CDBF      		out __SP_L__,r28
 4686 16f8 CF91      		pop r28
 4687 16fa DF91      		pop r29
 4688 16fc 1F91      		pop r17
 4689 16fe 0F91      		pop r16
 4690               	.LVL128:
 4691 1700 FF90      		pop r15
 4692 1702 EF90      		pop r14
 4693 1704 DF90      		pop r13
 4694 1706 CF90      		pop r12
 4695 1708 BF90      		pop r11
 4696 170a AF90      		pop r10
 4697 170c 9F90      		pop r9
 4698 170e 8F90      		pop r8
 4699 1710 7F90      		pop r7
 4700 1712 6F90      		pop r6
 4701 1714 5F90      		pop r5
 4702 1716 4F90      		pop r4
 4703 1718 3F90      		pop r3
 4704 171a 2F90      		pop r2
 4705 171c 0895      		ret
 4706               	.LFE70:
 4708               		.data
 4709               	.LC1:
 4710 000a 4272 6F6B 		.string	"Broke path "
 4710      6520 7061 
 4710      7468 2000 
 4711               		.text
 4712               	.global	get_path
 4714               	get_path:
 4715               	.LFB71:
 4716               	.LM706:
 4717 171e 6F92      		push r6
 4718 1720 7F92      		push r7
 4719 1722 8F92      		push r8
 4720 1724 9F92      		push r9
 4721 1726 AF92      		push r10
 4722 1728 BF92      		push r11
 4723 172a CF92      		push r12
 4724 172c DF92      		push r13
 4725 172e EF92      		push r14
 4726 1730 FF92      		push r15
 4727 1732 0F93      		push r16
 4728 1734 1F93      		push r17
 4729 1736 CF93      		push r28
 4730 1738 DF93      		push r29
 4731               	/* prologue: function */
 4732               	/* frame size = 0 */
 4733               	.LM707:
 4734 173a 4091 0000 		lds r20,y_coordinate
 4735 173e 5091 0000 		lds r21,(y_coordinate)+1
 4736               	.LVL129:
 4737               	.LM708:
 4738 1742 6091 0000 		lds r22,x_coordinate
 4739 1746 7091 0000 		lds r23,(x_coordinate)+1
 4740               	.LVL130:
 4741 174a 00E0      		ldi r16,lo8(path_array)
 4742 174c 10E0      		ldi r17,hi8(path_array)
 4743 174e F801      		movw r30,r16
 4744               	.L383:
 4745               	.LBB658:
 4746               	.LM709:
 4747 1750 1182      		std Z+1,__zero_reg__
 4748 1752 1082      		st Z,__zero_reg__
 4749               	.LM710:
 4750 1754 1382      		std Z+3,__zero_reg__
 4751 1756 1282      		std Z+2,__zero_reg__
 4752 1758 3496      		adiw r30,4
 4753               	.LM711:
 4754 175a 80E0      		ldi r24,hi8(path_array+60)
 4755 175c E030      		cpi r30,lo8(path_array+60)
 4756 175e F807      		cpc r31,r24
 4757 1760 01F4      		brne .L383
 4758               	.LBE658:
 4759               	.LM712:
 4760 1762 1092 0000 		sts (ipl)+1,__zero_reg__
 4761 1766 1092 0000 		sts ipl,__zero_reg__
 4762 176a 6624      		clr r6
 4763 176c 7724      		clr r7
 4764 176e 00C0      		rjmp .L384
 4765               	.LVL131:
 4766               	.L394:
 4767               	.LM713:
 4768 1770 6B01      		movw r12,r22
 4769 1772 0894      		sec
 4770 1774 C11C      		adc r12,__zero_reg__
 4771 1776 D11C      		adc r13,__zero_reg__
 4772               	.LVL132:
 4773 1778 9601      		movw r18,r12
 4774 177a 84E0      		ldi r24,4
 4775 177c 220F      	1:	lsl r18
 4776 177e 331F      		rol r19
 4777 1780 8A95      		dec r24
 4778 1782 01F4      		brne 1b
 4779 1784 240F      		add r18,r20
 4780 1786 351F      		adc r19,r21
 4781 1788 7901      		movw r14,r18
 4782 178a EE0C      		lsl r14
 4783 178c FF1C      		rol r15
 4784 178e F701      		movw r30,r14
 4785 1790 E050      		subi r30,lo8(-(map_array))
 4786 1792 F040      		sbci r31,hi8(-(map_array))
 4787 1794 8080      		ld r8,Z
 4788 1796 9180      		ldd r9,Z+1
 4789 1798 8A14      		cp r8,r10
 4790 179a 9B04      		cpc r9,r11
 4791 179c 04F0      		brlt .+2
 4792 179e 00C0      		rjmp .L385
 4793 17a0 AA0F      		lsl r26
 4794 17a2 BB1F      		rol r27
 4795 17a4 AA0F      		lsl r26
 4796 17a6 BB1F      		rol r27
 4797 17a8 A050      		subi r26,lo8(-(dir_array))
 4798 17aa B040      		sbci r27,hi8(-(dir_array))
 4799 17ac 1196      		adiw r26,1
 4800 17ae 8C91      		ld r24,X
 4801 17b0 8435      		cpi r24,lo8(84)
 4802 17b2 01F0      		breq .+2
 4803 17b4 00C0      		rjmp .L385
 4804 17b6 E901      		movw r28,r18
 4805 17b8 CC0F      		lsl r28
 4806 17ba DD1F      		rol r29
 4807 17bc CC0F      		lsl r28
 4808 17be DD1F      		rol r29
 4809 17c0 C050      		subi r28,lo8(-(dir_array))
 4810 17c2 D040      		sbci r29,hi8(-(dir_array))
 4811 17c4 8B81      		ldd r24,Y+3
 4812 17c6 8435      		cpi r24,lo8(84)
 4813 17c8 01F0      		breq .+2
 4814 17ca 00C0      		rjmp .L385
 4815 17cc 6F30      		cpi r22,15
 4816 17ce 7105      		cpc r23,__zero_reg__
 4817 17d0 04F0      		brlt .+2
 4818 17d2 00C0      		rjmp .L385
 4819               	.LVL133:
 4820               	.LM714:
 4821 17d4 F801      		movw r30,r16
 4822 17d6 D182      		std Z+1,r13
 4823 17d8 C082      		st Z,r12
 4824               	.LM715:
 4825 17da 5383      		std Z+3,r21
 4826 17dc 4283      		std Z+2,r20
 4827               	.LM716:
 4828 17de B601      		movw r22,r12
 4829 17e0 6F5F      		subi r22,lo8(-(1))
 4830 17e2 7F4F      		sbci r23,hi8(-(1))
 4831 17e4 DB01      		movw r26,r22
 4832 17e6 94E0      		ldi r25,4
 4833 17e8 AA0F      	1:	lsl r26
 4834 17ea BB1F      		rol r27
 4835 17ec 9A95      		dec r25
 4836 17ee 01F4      		brne 1b
 4837 17f0 A40F      		add r26,r20
 4838 17f2 B51F      		adc r27,r21
 4839 17f4 FD01      		movw r30,r26
 4840 17f6 EE0F      		lsl r30
 4841 17f8 FF1F      		rol r31
 4842 17fa E050      		subi r30,lo8(-(map_array))
 4843 17fc F040      		sbci r31,hi8(-(map_array))
 4844 17fe 8081      		ld r24,Z
 4845 1800 9181      		ldd r25,Z+1
 4846 1802 8815      		cp r24,r8
 4847 1804 9905      		cpc r25,r9
 4848 1806 04F0      		brlt .+2
 4849 1808 00C0      		rjmp .L389
 4850 180a AA0F      		lsl r26
 4851 180c BB1F      		rol r27
 4852 180e AA0F      		lsl r26
 4853 1810 BB1F      		rol r27
 4854 1812 A050      		subi r26,lo8(-(dir_array))
 4855 1814 B040      		sbci r27,hi8(-(dir_array))
 4856 1816 1396      		adiw r26,3
 4857 1818 8C91      		ld r24,X
 4858 181a 8435      		cpi r24,lo8(84)
 4859 181c 01F0      		breq .+2
 4860 181e 00C0      		rjmp .L389
 4861 1820 8881      		ld r24,Y
 4862 1822 8634      		cpi r24,lo8(70)
 4863 1824 01F0      		breq .+2
 4864 1826 00C0      		rjmp .L389
 4865 1828 8981      		ldd r24,Y+1
 4866 182a 8435      		cpi r24,lo8(84)
 4867 182c 01F0      		breq .+2
 4868 182e 00C0      		rjmp .L389
 4869 1830 EE0C      		lsl r14
 4870 1832 FF1C      		rol r15
 4871 1834 80E0      		ldi r24,lo8(dir_array+2)
 4872 1836 90E0      		ldi r25,hi8(dir_array+2)
 4873 1838 E80E      		add r14,r24
 4874 183a F91E      		adc r15,r25
 4875 183c F701      		movw r30,r14
 4876 183e 8081      		ld r24,Z
 4877 1840 8634      		cpi r24,lo8(70)
 4878 1842 01F0      		breq .+2
 4879 1844 00C0      		rjmp .L389
 4880 1846 FFE0      		ldi r31,lo8(15)
 4881 1848 CF16      		cp r12,r31
 4882 184a D104      		cpc r13,__zero_reg__
 4883 184c 04F0      		brlt .+2
 4884 184e 00C0      		rjmp .L389
 4885               	.LVL134:
 4886 1850 00C0      		rjmp .L399
 4887               	.LVL135:
 4888               	.L385:
 4889               	.LM717:
 4890 1852 6B01      		movw r12,r22
 4891 1854 0894      		sec
 4892 1856 C108      		sbc r12,__zero_reg__
 4893 1858 D108      		sbc r13,__zero_reg__
 4894 185a 9601      		movw r18,r12
 4895 185c 94E0      		ldi r25,4
 4896 185e 220F      	1:	lsl r18
 4897 1860 331F      		rol r19
 4898 1862 9A95      		dec r25
 4899 1864 01F4      		brne 1b
 4900 1866 240F      		add r18,r20
 4901 1868 351F      		adc r19,r21
 4902 186a 7901      		movw r14,r18
 4903 186c EE0C      		lsl r14
 4904 186e FF1C      		rol r15
 4905 1870 F701      		movw r30,r14
 4906 1872 E050      		subi r30,lo8(-(map_array))
 4907 1874 F040      		sbci r31,hi8(-(map_array))
 4908 1876 8080      		ld r8,Z
 4909 1878 9180      		ldd r9,Z+1
 4910 187a 8A14      		cp r8,r10
 4911 187c 9B04      		cpc r9,r11
 4912 187e 04F0      		brlt .+2
 4913 1880 00C0      		rjmp .L388
 4914 1882 FB01      		movw r30,r22
 4915 1884 B4E0      		ldi r27,4
 4916 1886 EE0F      	1:	lsl r30
 4917 1888 FF1F      		rol r31
 4918 188a BA95      		dec r27
 4919 188c 01F4      		brne 1b
 4920 188e E40F      		add r30,r20
 4921 1890 F51F      		adc r31,r21
 4922 1892 EE0F      		lsl r30
 4923 1894 FF1F      		rol r31
 4924 1896 EE0F      		lsl r30
 4925 1898 FF1F      		rol r31
 4926 189a E050      		subi r30,lo8(-(dir_array))
 4927 189c F040      		sbci r31,hi8(-(dir_array))
 4928 189e 8381      		ldd r24,Z+3
 4929 18a0 8435      		cpi r24,lo8(84)
 4930 18a2 01F0      		breq .+2
 4931 18a4 00C0      		rjmp .L388
 4932               	.LVL136:
 4933 18a6 E901      		movw r28,r18
 4934 18a8 CC0F      		lsl r28
 4935 18aa DD1F      		rol r29
 4936 18ac CC0F      		lsl r28
 4937 18ae DD1F      		rol r29
 4938 18b0 C050      		subi r28,lo8(-(dir_array))
 4939 18b2 D040      		sbci r29,hi8(-(dir_array))
 4940 18b4 8981      		ldd r24,Y+1
 4941 18b6 8435      		cpi r24,lo8(84)
 4942 18b8 01F0      		breq .+2
 4943 18ba 00C0      		rjmp .L388
 4944 18bc 1616      		cp __zero_reg__,r22
 4945 18be 1706      		cpc __zero_reg__,r23
 4946 18c0 04F0      		brlt .+2
 4947 18c2 00C0      		rjmp .L388
 4948               	.LM718:
 4949 18c4 F801      		movw r30,r16
 4950 18c6 D182      		std Z+1,r13
 4951 18c8 C082      		st Z,r12
 4952               	.LM719:
 4953 18ca 5383      		std Z+3,r21
 4954 18cc 4283      		std Z+2,r20
 4955               	.LM720:
 4956 18ce B601      		movw r22,r12
 4957 18d0 6150      		subi r22,lo8(-(-1))
 4958 18d2 7040      		sbci r23,hi8(-(-1))
 4959 18d4 DB01      		movw r26,r22
 4960 18d6 24E0      		ldi r18,4
 4961 18d8 AA0F      	1:	lsl r26
 4962 18da BB1F      		rol r27
 4963 18dc 2A95      		dec r18
 4964 18de 01F4      		brne 1b
 4965 18e0 A40F      		add r26,r20
 4966 18e2 B51F      		adc r27,r21
 4967 18e4 FD01      		movw r30,r26
 4968 18e6 EE0F      		lsl r30
 4969 18e8 FF1F      		rol r31
 4970 18ea E050      		subi r30,lo8(-(map_array))
 4971 18ec F040      		sbci r31,hi8(-(map_array))
 4972 18ee 8081      		ld r24,Z
 4973 18f0 9181      		ldd r25,Z+1
 4974 18f2 8815      		cp r24,r8
 4975 18f4 9905      		cpc r25,r9
 4976 18f6 04F0      		brlt .+2
 4977 18f8 00C0      		rjmp .L389
 4978 18fa AA0F      		lsl r26
 4979 18fc BB1F      		rol r27
 4980 18fe AA0F      		lsl r26
 4981 1900 BB1F      		rol r27
 4982 1902 A050      		subi r26,lo8(-(dir_array))
 4983 1904 B040      		sbci r27,hi8(-(dir_array))
 4984 1906 1196      		adiw r26,1
 4985 1908 8C91      		ld r24,X
 4986 190a 8435      		cpi r24,lo8(84)
 4987 190c 01F0      		breq .+2
 4988 190e 00C0      		rjmp .L389
 4989 1910 8881      		ld r24,Y
 4990 1912 8634      		cpi r24,lo8(70)
 4991 1914 01F0      		breq .+2
 4992 1916 00C0      		rjmp .L389
 4993 1918 EE0C      		lsl r14
 4994 191a FF1C      		rol r15
 4995 191c 80E0      		ldi r24,lo8(dir_array+2)
 4996 191e 90E0      		ldi r25,hi8(dir_array+2)
 4997 1920 E80E      		add r14,r24
 4998 1922 F91E      		adc r15,r25
 4999 1924 F701      		movw r30,r14
 5000 1926 8081      		ld r24,Z
 5001 1928 8634      		cpi r24,lo8(70)
 5002 192a 01F0      		breq .+2
 5003 192c 00C0      		rjmp .L389
 5004 192e 8B81      		ldd r24,Y+3
 5005 1930 8435      		cpi r24,lo8(84)
 5006 1932 01F0      		breq .+2
 5007 1934 00C0      		rjmp .L389
 5008 1936 1C14      		cp __zero_reg__,r12
 5009 1938 1D04      		cpc __zero_reg__,r13
 5010 193a 04F0      		brlt .+2
 5011 193c 00C0      		rjmp .L389
 5012               	.LVL137:
 5013               	.L399:
 5014               	.LM721:
 5015 193e F801      		movw r30,r16
 5016 1940 7183      		std Z+1,r23
 5017 1942 6083      		st Z,r22
 5018 1944 00C0      		rjmp .L387
 5019               	.LVL138:
 5020               	.L388:
 5021               	.LM722:
 5022 1946 EA01      		movw r28,r20
 5023 1948 2196      		adiw r28,1
 5024               	.LVL139:
 5025 194a 9B01      		movw r18,r22
 5026 194c F4E0      		ldi r31,4
 5027 194e 220F      	1:	lsl r18
 5028 1950 331F      		rol r19
 5029 1952 FA95      		dec r31
 5030 1954 01F4      		brne 1b
 5031 1956 6901      		movw r12,r18
 5032               	.LVL140:
 5033 1958 CC0E      		add r12,r28
 5034 195a DD1E      		adc r13,r29
 5035 195c D601      		movw r26,r12
 5036 195e AA0F      		lsl r26
 5037 1960 BB1F      		rol r27
 5038 1962 FD01      		movw r30,r26
 5039 1964 E050      		subi r30,lo8(-(map_array))
 5040 1966 F040      		sbci r31,hi8(-(map_array))
 5041 1968 E080      		ld r14,Z
 5042 196a F180      		ldd r15,Z+1
 5043 196c EA14      		cp r14,r10
 5044 196e FB04      		cpc r15,r11
 5045 1970 04F0      		brlt .+2
 5046 1972 00C0      		rjmp .L390
 5047 1974 F901      		movw r30,r18
 5048 1976 E40F      		add r30,r20
 5049 1978 F51F      		adc r31,r21
 5050 197a EE0F      		lsl r30
 5051 197c FF1F      		rol r31
 5052 197e EE0F      		lsl r30
 5053 1980 FF1F      		rol r31
 5054 1982 E050      		subi r30,lo8(-(dir_array))
 5055 1984 F040      		sbci r31,hi8(-(dir_array))
 5056 1986 8081      		ld r24,Z
 5057 1988 8435      		cpi r24,lo8(84)
 5058 198a 01F0      		breq .+2
 5059 198c 00C0      		rjmp .L390
 5060               	.LVL141:
 5061 198e AA0F      		lsl r26
 5062 1990 BB1F      		rol r27
 5063 1992 A050      		subi r26,lo8(-(dir_array+2))
 5064 1994 B040      		sbci r27,hi8(-(dir_array+2))
 5065 1996 8C91      		ld r24,X
 5066 1998 8435      		cpi r24,lo8(84)
 5067 199a 01F4      		brne .L390
 5068 199c 4F30      		cpi r20,15
 5069 199e 5105      		cpc r21,__zero_reg__
 5070 19a0 04F4      		brge .L390
 5071               	.LM723:
 5072 19a2 F801      		movw r30,r16
 5073 19a4 7183      		std Z+1,r23
 5074 19a6 6083      		st Z,r22
 5075               	.LM724:
 5076 19a8 D383      		std Z+3,r29
 5077 19aa C283      		std Z+2,r28
 5078               	.LM725:
 5079 19ac AE01      		movw r20,r28
 5080 19ae 4F5F      		subi r20,lo8(-(1))
 5081 19b0 5F4F      		sbci r21,hi8(-(1))
 5082 19b2 D901      		movw r26,r18
 5083 19b4 A40F      		add r26,r20
 5084 19b6 B51F      		adc r27,r21
 5085 19b8 AA0F      		lsl r26
 5086 19ba BB1F      		rol r27
 5087 19bc FD01      		movw r30,r26
 5088 19be E050      		subi r30,lo8(-(map_array))
 5089 19c0 F040      		sbci r31,hi8(-(map_array))
 5090 19c2 8081      		ld r24,Z
 5091 19c4 9181      		ldd r25,Z+1
 5092 19c6 8E15      		cp r24,r14
 5093 19c8 9F05      		cpc r25,r15
 5094 19ca 04F0      		brlt .+2
 5095 19cc 00C0      		rjmp .L391
 5096 19ce AA0F      		lsl r26
 5097 19d0 BB1F      		rol r27
 5098 19d2 A050      		subi r26,lo8(-(dir_array+2))
 5099 19d4 B040      		sbci r27,hi8(-(dir_array+2))
 5100 19d6 8C91      		ld r24,X
 5101 19d8 8435      		cpi r24,lo8(84)
 5102 19da 01F0      		breq .+2
 5103 19dc 00C0      		rjmp .L391
 5104 19de F601      		movw r30,r12
 5105 19e0 EE0F      		lsl r30
 5106 19e2 FF1F      		rol r31
 5107 19e4 EE0F      		lsl r30
 5108 19e6 FF1F      		rol r31
 5109 19e8 E050      		subi r30,lo8(-(dir_array))
 5110 19ea F040      		sbci r31,hi8(-(dir_array))
 5111 19ec 8081      		ld r24,Z
 5112 19ee 8435      		cpi r24,lo8(84)
 5113 19f0 01F0      		breq .+2
 5114 19f2 00C0      		rjmp .L391
 5115 19f4 8181      		ldd r24,Z+1
 5116 19f6 8634      		cpi r24,lo8(70)
 5117 19f8 01F0      		breq .+2
 5118 19fa 00C0      		rjmp .L391
 5119 19fc 8381      		ldd r24,Z+3
 5120 19fe 8634      		cpi r24,lo8(70)
 5121 1a00 01F0      		breq .+2
 5122 1a02 00C0      		rjmp .L391
 5123 1a04 CF30      		cpi r28,15
 5124 1a06 D105      		cpc r29,__zero_reg__
 5125 1a08 04F0      		brlt .+2
 5126 1a0a 00C0      		rjmp .L391
 5127               	.LVL142:
 5128 1a0c 00C0      		rjmp .L398
 5129               	.L390:
 5130               	.LM726:
 5131 1a0e 7A01      		movw r14,r20
 5132 1a10 0894      		sec
 5133 1a12 E108      		sbc r14,__zero_reg__
 5134 1a14 F108      		sbc r15,__zero_reg__
 5135               	.LVL143:
 5136 1a16 DB01      		movw r26,r22
 5137 1a18 24E0      		ldi r18,4
 5138 1a1a AA0F      	1:	lsl r26
 5139 1a1c BB1F      		rol r27
 5140 1a1e 2A95      		dec r18
 5141 1a20 01F4      		brne 1b
 5142 1a22 ED01      		movw r28,r26
 5143 1a24 CE0D      		add r28,r14
 5144 1a26 DF1D      		adc r29,r15
 5145 1a28 9E01      		movw r18,r28
 5146 1a2a 220F      		lsl r18
 5147 1a2c 331F      		rol r19
 5148 1a2e F901      		movw r30,r18
 5149 1a30 E050      		subi r30,lo8(-(map_array))
 5150 1a32 F040      		sbci r31,hi8(-(map_array))
 5151 1a34 C080      		ld r12,Z
 5152 1a36 D180      		ldd r13,Z+1
 5153 1a38 CA14      		cp r12,r10
 5154 1a3a DB04      		cpc r13,r11
 5155 1a3c 04F0      		brlt .+2
 5156 1a3e 00C0      		rjmp .L387
 5157 1a40 FD01      		movw r30,r26
 5158 1a42 E40F      		add r30,r20
 5159 1a44 F51F      		adc r31,r21
 5160 1a46 EE0F      		lsl r30
 5161 1a48 FF1F      		rol r31
 5162 1a4a EE0F      		lsl r30
 5163 1a4c FF1F      		rol r31
 5164 1a4e E050      		subi r30,lo8(-(dir_array+2))
 5165 1a50 F040      		sbci r31,hi8(-(dir_array+2))
 5166 1a52 8081      		ld r24,Z
 5167 1a54 8435      		cpi r24,lo8(84)
 5168 1a56 01F0      		breq .+2
 5169 1a58 00C0      		rjmp .L387
 5170               	.LVL144:
 5171 1a5a CC0F      		lsl r28
 5172 1a5c DD1F      		rol r29
 5173 1a5e CC0F      		lsl r28
 5174 1a60 DD1F      		rol r29
 5175 1a62 C050      		subi r28,lo8(-(dir_array))
 5176 1a64 D040      		sbci r29,hi8(-(dir_array))
 5177 1a66 8881      		ld r24,Y
 5178 1a68 8435      		cpi r24,lo8(84)
 5179 1a6a 01F4      		brne .L387
 5180 1a6c 1416      		cp __zero_reg__,r20
 5181 1a6e 1506      		cpc __zero_reg__,r21
 5182 1a70 04F4      		brge .L387
 5183               	.LM727:
 5184 1a72 F801      		movw r30,r16
 5185 1a74 7183      		std Z+1,r23
 5186 1a76 6083      		st Z,r22
 5187               	.LM728:
 5188 1a78 F382      		std Z+3,r15
 5189 1a7a E282      		std Z+2,r14
 5190               	.LM729:
 5191 1a7c A701      		movw r20,r14
 5192 1a7e 4150      		subi r20,lo8(-(-1))
 5193 1a80 5040      		sbci r21,hi8(-(-1))
 5194 1a82 A40F      		add r26,r20
 5195 1a84 B51F      		adc r27,r21
 5196 1a86 FD01      		movw r30,r26
 5197 1a88 EE0F      		lsl r30
 5198 1a8a FF1F      		rol r31
 5199 1a8c E050      		subi r30,lo8(-(map_array))
 5200 1a8e F040      		sbci r31,hi8(-(map_array))
 5201 1a90 8081      		ld r24,Z
 5202 1a92 9181      		ldd r25,Z+1
 5203 1a94 8C15      		cp r24,r12
 5204 1a96 9D05      		cpc r25,r13
 5205 1a98 04F4      		brge .L392
 5206 1a9a AA0F      		lsl r26
 5207 1a9c BB1F      		rol r27
 5208 1a9e AA0F      		lsl r26
 5209 1aa0 BB1F      		rol r27
 5210 1aa2 A050      		subi r26,lo8(-(dir_array))
 5211 1aa4 B040      		sbci r27,hi8(-(dir_array))
 5212 1aa6 8C91      		ld r24,X
 5213 1aa8 8435      		cpi r24,lo8(84)
 5214 1aaa 01F4      		brne .L392
 5215 1aac 8981      		ldd r24,Y+1
 5216 1aae 8634      		cpi r24,lo8(70)
 5217 1ab0 01F4      		brne .L392
 5218 1ab2 220F      		lsl r18
 5219 1ab4 331F      		rol r19
 5220 1ab6 2050      		subi r18,lo8(-(dir_array+2))
 5221 1ab8 3040      		sbci r19,hi8(-(dir_array+2))
 5222 1aba F901      		movw r30,r18
 5223 1abc 8081      		ld r24,Z
 5224 1abe 8435      		cpi r24,lo8(84)
 5225 1ac0 01F4      		brne .L392
 5226 1ac2 8B81      		ldd r24,Y+3
 5227 1ac4 8634      		cpi r24,lo8(70)
 5228 1ac6 01F4      		brne .L392
 5229 1ac8 1E14      		cp __zero_reg__,r14
 5230 1aca 1F04      		cpc __zero_reg__,r15
 5231 1acc 04F4      		brge .L392
 5232               	.LVL145:
 5233               	.L398:
 5234               	.LM730:
 5235 1ace F801      		movw r30,r16
 5236               	.LM731:
 5237 1ad0 5383      		std Z+3,r21
 5238 1ad2 4283      		std Z+2,r20
 5239 1ad4 00C0      		rjmp .L387
 5240               	.LVL146:
 5241               	.L389:
 5242 1ad6 B601      		movw r22,r12
 5243 1ad8 00C0      		rjmp .L387
 5244               	.LVL147:
 5245               	.L391:
 5246 1ada AE01      		movw r20,r28
 5247 1adc 00C0      		rjmp .L387
 5248               	.LVL148:
 5249               	.L392:
 5250 1ade A701      		movw r20,r14
 5251               	.LVL149:
 5252               	.L387:
 5253               	.LM732:
 5254 1ae0 0894      		sec
 5255 1ae2 611C      		adc r6,__zero_reg__
 5256 1ae4 711C      		adc r7,__zero_reg__
 5257 1ae6 0C5F      		subi r16,lo8(-(4))
 5258 1ae8 1F4F      		sbci r17,hi8(-(4))
 5259               	.LM733:
 5260 1aea F0E1      		ldi r31,lo8(16)
 5261 1aec 6F16      		cp r6,r31
 5262 1aee 7104      		cpc r7,__zero_reg__
 5263 1af0 04F0      		brlt .L384
 5264 1af2 7092 0000 		sts (ipl)+1,r7
 5265 1af6 6092 0000 		sts ipl,r6
 5266               	.LM734:
 5267 1afa 81E0      		ldi r24,lo8(1)
 5268 1afc 60E0      		ldi r22,lo8(0)
 5269               	.LVL150:
 5270 1afe 0E94 0000 		call lcd_byte
 5271               	.LVL151:
 5272               	.LM735:
 5273 1b02 80E0      		ldi r24,lo8(.LC1)
 5274 1b04 90E0      		ldi r25,hi8(.LC1)
 5275 1b06 0E94 0000 		call lcd_write_string
 5276               	.LM736:
 5277 1b0a 82E0      		ldi r24,lo8(2)
 5278 1b0c 90E0      		ldi r25,hi8(2)
 5279 1b0e 0E94 0000 		call delay_sec
 5280 1b12 00C0      		rjmp .L395
 5281               	.LVL152:
 5282               	.L384:
 5283               	.LM737:
 5284 1b14 DB01      		movw r26,r22
 5285 1b16 34E0      		ldi r19,4
 5286 1b18 AA0F      	1:	lsl r26
 5287 1b1a BB1F      		rol r27
 5288 1b1c 3A95      		dec r19
 5289 1b1e 01F4      		brne 1b
 5290 1b20 A40F      		add r26,r20
 5291 1b22 B51F      		adc r27,r21
 5292 1b24 FD01      		movw r30,r26
 5293 1b26 EE0F      		lsl r30
 5294 1b28 FF1F      		rol r31
 5295 1b2a E050      		subi r30,lo8(-(map_array))
 5296 1b2c F040      		sbci r31,hi8(-(map_array))
 5297 1b2e A080      		ld r10,Z
 5298 1b30 B180      		ldd r11,Z+1
 5299 1b32 A114      		cp r10,__zero_reg__
 5300 1b34 B104      		cpc r11,__zero_reg__
 5301 1b36 01F0      		breq .+2
 5302 1b38 00C0      		rjmp .L394
 5303 1b3a 7092 0000 		sts (ipl)+1,r7
 5304 1b3e 6092 0000 		sts ipl,r6
 5305               	.LVL153:
 5306               	.L395:
 5307               	/* epilogue start */
 5308               	.LM738:
 5309 1b42 DF91      		pop r29
 5310 1b44 CF91      		pop r28
 5311               	.LVL154:
 5312 1b46 1F91      		pop r17
 5313 1b48 0F91      		pop r16
 5314 1b4a FF90      		pop r15
 5315 1b4c EF90      		pop r14
 5316               	.LVL155:
 5317 1b4e DF90      		pop r13
 5318 1b50 CF90      		pop r12
 5319               	.LVL156:
 5320 1b52 BF90      		pop r11
 5321 1b54 AF90      		pop r10
 5322 1b56 9F90      		pop r9
 5323 1b58 8F90      		pop r8
 5324 1b5a 7F90      		pop r7
 5325 1b5c 6F90      		pop r6
 5326 1b5e 0895      		ret
 5327               	.LFE71:
 5329               		.data
 5330               	.LC2:
 5331 0016 4272 6F6B 		.string	"Broke build"
 5331      6520 6275 
 5331      696C 6400 
 5332               		.text
 5333               	.global	build_map
 5335               	build_map:
 5336               	.LFB72:
 5337               	.LM739:
 5338               	.LVL157:
 5339 1b60 4F92      		push r4
 5340 1b62 5F92      		push r5
 5341 1b64 6F92      		push r6
 5342 1b66 7F92      		push r7
 5343 1b68 8F92      		push r8
 5344 1b6a 9F92      		push r9
 5345 1b6c AF92      		push r10
 5346 1b6e BF92      		push r11
 5347 1b70 CF92      		push r12
 5348 1b72 DF92      		push r13
 5349 1b74 EF92      		push r14
 5350 1b76 FF92      		push r15
 5351 1b78 0F93      		push r16
 5352 1b7a 1F93      		push r17
 5353 1b7c CF93      		push r28
 5354 1b7e DF93      		push r29
 5355               	/* prologue: function */
 5356               	/* frame size = 0 */
 5357 1b80 5C01      		movw r10,r24
 5358 1b82 4B01      		movw r8,r22
 5359 1b84 3A01      		movw r6,r20
 5360 1b86 2901      		movw r4,r18
 5361               	.LM740:
 5362 1b88 20E0      		ldi r18,lo8(0)
 5363 1b8a 30E0      		ldi r19,hi8(0)
 5364               	.LVL158:
 5365               	.LBB659:
 5366               	.LBB660:
 5367               	.LM741:
 5368 1b8c 44E6      		ldi r20,lo8(100)
 5369 1b8e 50E0      		ldi r21,hi8(100)
 5370               	.LVL159:
 5371 1b90 00C0      		rjmp .L401
 5372               	.LVL160:
 5373               	.L402:
 5374 1b92 4193      		st Z+,r20
 5375 1b94 5193      		st Z+,r21
 5376               	.LM742:
 5377 1b96 0196      		adiw r24,1
 5378 1b98 8031      		cpi r24,16
 5379 1b9a 9105      		cpc r25,__zero_reg__
 5380 1b9c 01F4      		brne .L402
 5381               	.LBE660:
 5382               	.LM743:
 5383 1b9e 2F5F      		subi r18,lo8(-(1))
 5384 1ba0 3F4F      		sbci r19,hi8(-(1))
 5385 1ba2 2031      		cpi r18,16
 5386 1ba4 3105      		cpc r19,__zero_reg__
 5387 1ba6 01F0      		breq .L403
 5388               	.LVL161:
 5389               	.L401:
 5390 1ba8 F901      		movw r30,r18
 5391 1baa 65E0      		ldi r22,5
 5392 1bac EE0F      	1:	lsl r30
 5393 1bae FF1F      		rol r31
 5394 1bb0 6A95      		dec r22
 5395 1bb2 01F4      		brne 1b
 5396 1bb4 E050      		subi r30,lo8(-(map_array))
 5397 1bb6 F040      		sbci r31,hi8(-(map_array))
 5398 1bb8 80E0      		ldi r24,lo8(0)
 5399 1bba 90E0      		ldi r25,hi8(0)
 5400 1bbc 00C0      		rjmp .L402
 5401               	.L403:
 5402               	.LBE659:
 5403               	.LM744:
 5404 1bbe F301      		movw r30,r6
 5405 1bc0 54E0      		ldi r21,4
 5406 1bc2 EE0F      	1:	lsl r30
 5407 1bc4 FF1F      		rol r31
 5408 1bc6 5A95      		dec r21
 5409 1bc8 01F4      		brne 1b
 5410 1bca E40D      		add r30,r4
 5411 1bcc F51D      		adc r31,r5
 5412 1bce EE0F      		lsl r30
 5413 1bd0 FF1F      		rol r31
 5414 1bd2 E050      		subi r30,lo8(-(map_array))
 5415 1bd4 F040      		sbci r31,hi8(-(map_array))
 5416 1bd6 1182      		std Z+1,__zero_reg__
 5417 1bd8 1082      		st Z,__zero_reg__
 5418 1bda EE24      		clr r14
 5419 1bdc FF24      		clr r15
 5420               	.LVL162:
 5421               	.LM745:
 5422 1bde A501      		movw r20,r10
 5423 1be0 34E0      		ldi r19,4
 5424 1be2 440F      	1:	lsl r20
 5425 1be4 551F      		rol r21
 5426 1be6 3A95      		dec r19
 5427 1be8 01F4      		brne 1b
 5428 1bea 480D      		add r20,r8
 5429 1bec 591D      		adc r21,r9
 5430 1bee 440F      		lsl r20
 5431 1bf0 551F      		rol r21
 5432               	.LVL163:
 5433 1bf2 4050      		subi r20,lo8(-(map_array))
 5434 1bf4 5040      		sbci r21,hi8(-(map_array))
 5435 1bf6 00C0      		rjmp .L404
 5436               	.LVL164:
 5437               	.L409:
 5438               	.LBB661:
 5439               	.LBB662:
 5440               	.LM746:
 5441 1bf8 9096      		adiw r26,32
 5442 1bfa 8D91      		ld r24,X+
 5443 1bfc 9C91      		ld r25,X
 5444 1bfe 9197      		sbiw r26,32+1
 5445 1c00 8E15      		cp r24,r14
 5446 1c02 9F05      		cpc r25,r15
 5447 1c04 01F0      		breq .+2
 5448 1c06 00C0      		rjmp .L405
 5449               	.LM747:
 5450 1c08 8481      		ldd r24,Z+4
 5451 1c0a 8435      		cpi r24,lo8(84)
 5452 1c0c 01F4      		brne .L406
 5453 1c0e 8285      		ldd r24,Z+10
 5454 1c10 8435      		cpi r24,lo8(84)
 5455 1c12 01F4      		brne .L406
 5456               	.LM748:
 5457 1c14 8881      		ld r24,Y
 5458 1c16 9981      		ldd r25,Y+1
 5459 1c18 8436      		cpi r24,100
 5460 1c1a 9105      		cpc r25,__zero_reg__
 5461 1c1c 01F4      		brne .L406
 5462               	.LM749:
 5463 1c1e 1983      		std Y+1,r17
 5464 1c20 0883      		st Y,r16
 5465               	.L406:
 5466               	.LM750:
 5467 1c22 8581      		ldd r24,Z+5
 5468 1c24 8435      		cpi r24,lo8(84)
 5469 1c26 01F4      		brne .L407
 5470 1c28 E95B      		subi r30,lo8(-(71))
 5471 1c2a FF4F      		sbci r31,hi8(-(71))
 5472 1c2c 8081      		ld r24,Z
 5473 1c2e E754      		subi r30,lo8(-(-71))
 5474 1c30 F040      		sbci r31,hi8(-(-71))
 5475 1c32 8435      		cpi r24,lo8(84)
 5476 1c34 01F4      		brne .L407
 5477               	.LM751:
 5478 1c36 8E8D      		ldd r24,Y+30
 5479 1c38 9F8D      		ldd r25,Y+31
 5480 1c3a 8436      		cpi r24,100
 5481 1c3c 9105      		cpc r25,__zero_reg__
 5482 1c3e 01F4      		brne .L407
 5483               	.LM752:
 5484 1c40 1F8F      		std Y+31,r17
 5485 1c42 0E8F      		std Y+30,r16
 5486               	.L407:
 5487               	.LM753:
 5488 1c44 8681      		ldd r24,Z+6
 5489 1c46 8435      		cpi r24,lo8(84)
 5490 1c48 01F4      		brne .L408
 5491 1c4a 8081      		ld r24,Z
 5492 1c4c 8435      		cpi r24,lo8(84)
 5493 1c4e 01F4      		brne .L408
 5494               	.LM754:
 5495 1c50 5E96      		adiw r26,30
 5496 1c52 8D91      		ld r24,X+
 5497 1c54 9C91      		ld r25,X
 5498 1c56 5F97      		sbiw r26,30+1
 5499 1c58 8436      		cpi r24,100
 5500 1c5a 9105      		cpc r25,__zero_reg__
 5501 1c5c 01F4      		brne .L408
 5502               	.LM755:
 5503 1c5e 5F96      		adiw r26,30+1
 5504 1c60 1C93      		st X,r17
 5505 1c62 0E93      		st -X,r16
 5506 1c64 5E97      		sbiw r26,30
 5507               	.L408:
 5508               	.LM756:
 5509 1c66 8781      		ldd r24,Z+7
 5510 1c68 8435      		cpi r24,lo8(84)
 5511 1c6a 01F4      		brne .L405
 5512 1c6c FB97      		sbiw r30,59
 5513 1c6e 8081      		ld r24,Z
 5514 1c70 FB96      		adiw r30,59
 5515 1c72 8435      		cpi r24,lo8(84)
 5516 1c74 01F4      		brne .L405
 5517               	.LM757:
 5518 1c76 8D91      		ld r24,X+
 5519 1c78 9C91      		ld r25,X
 5520 1c7a 1197      		sbiw r26,1
 5521 1c7c 8436      		cpi r24,100
 5522 1c7e 9105      		cpc r25,__zero_reg__
 5523 1c80 01F4      		brne .L405
 5524               	.LM758:
 5525 1c82 1196      		adiw r26,1
 5526 1c84 1C93      		st X,r17
 5527 1c86 0E93      		st -X,r16
 5528               	.L405:
 5529 1c88 1296      		adiw r26,2
 5530 1c8a 3496      		adiw r30,4
 5531 1c8c 2296      		adiw r28,2
 5532               	.LM759:
 5533 1c8e AC15      		cp r26,r12
 5534 1c90 BD05      		cpc r27,r13
 5535 1c92 01F0      		breq .+2
 5536 1c94 00C0      		rjmp .L409
 5537               	.LBE662:
 5538               	.LM760:
 5539 1c96 6F5F      		subi r22,lo8(-(1))
 5540 1c98 7F4F      		sbci r23,hi8(-(1))
 5541 1c9a 90E2      		ldi r25,lo8(32)
 5542 1c9c C92E      		mov r12,r25
 5543 1c9e D12C      		mov r13,__zero_reg__
 5544 1ca0 CA0E      		add r12,r26
 5545 1ca2 DB1E      		adc r13,r27
 5546 1ca4 6031      		cpi r22,16
 5547 1ca6 7105      		cpc r23,__zero_reg__
 5548 1ca8 01F0      		breq .L410
 5549               	.L412:
 5550 1caa DB01      		movw r26,r22
 5551 1cac 85E0      		ldi r24,5
 5552 1cae AA0F      	1:	lsl r26
 5553 1cb0 BB1F      		rol r27
 5554 1cb2 8A95      		dec r24
 5555 1cb4 01F4      		brne 1b
 5556 1cb6 A050      		subi r26,lo8(-(map_array-32))
 5557 1cb8 B040      		sbci r27,hi8(-(map_array-32))
 5558 1cba 9B01      		movw r18,r22
 5559 1cbc F4E0      		ldi r31,4
 5560 1cbe 220F      	1:	lsl r18
 5561 1cc0 331F      		rol r19
 5562 1cc2 FA95      		dec r31
 5563 1cc4 01F4      		brne 1b
 5564 1cc6 8827      		clr r24
 5565 1cc8 9927      		clr r25
 5566 1cca 821B      		sub r24,r18
 5567 1ccc 930B      		sbc r25,r19
 5568 1cce 0196      		adiw r24,1
 5569 1cd0 880F      		lsl r24
 5570 1cd2 991F      		rol r25
 5571 1cd4 880F      		lsl r24
 5572 1cd6 991F      		rol r25
 5573 1cd8 EE27      		clr r30
 5574 1cda FF27      		clr r31
 5575 1cdc E81B      		sub r30,r24
 5576 1cde F90B      		sbc r31,r25
 5577 1ce0 E050      		subi r30,lo8(-(dir_array))
 5578 1ce2 F040      		sbci r31,hi8(-(dir_array))
 5579 1ce4 E901      		movw r28,r18
 5580 1ce6 CC0F      		lsl r28
 5581 1ce8 DD1F      		rol r29
 5582 1cea C050      		subi r28,lo8(-(map_array+2))
 5583 1cec D040      		sbci r29,hi8(-(map_array+2))
 5584 1cee 00C0      		rjmp .L409
 5585               	.L410:
 5586               	.LBE661:
 5587               	.LM761:
 5588 1cf0 0894      		sec
 5589 1cf2 E11C      		adc r14,__zero_reg__
 5590 1cf4 F11C      		adc r15,__zero_reg__
 5591               	.LM762:
 5592 1cf6 83E3      		ldi r24,lo8(51)
 5593 1cf8 E816      		cp r14,r24
 5594 1cfa F104      		cpc r15,__zero_reg__
 5595 1cfc 01F4      		brne .L404
 5596               	.LM763:
 5597 1cfe 81E0      		ldi r24,lo8(1)
 5598 1d00 60E0      		ldi r22,lo8(0)
 5599               	.LVL165:
 5600 1d02 0E94 0000 		call lcd_byte
 5601               	.LM764:
 5602 1d06 80E0      		ldi r24,lo8(.LC2)
 5603 1d08 90E0      		ldi r25,hi8(.LC2)
 5604 1d0a 0E94 0000 		call lcd_write_string
 5605               	.LM765:
 5606 1d0e 80E0      		ldi r24,lo8(0)
 5607 1d10 90E0      		ldi r25,hi8(0)
 5608 1d12 61E0      		ldi r22,lo8(1)
 5609 1d14 70E0      		ldi r23,hi8(1)
 5610 1d16 A501      		movw r20,r10
 5611 1d18 22E0      		ldi r18,lo8(2)
 5612 1d1a 30E0      		ldi r19,hi8(2)
 5613 1d1c 0E94 0000 		call lcd_write_int_xy
 5614               	.LM766:
 5615 1d20 83E0      		ldi r24,lo8(3)
 5616 1d22 90E0      		ldi r25,hi8(3)
 5617 1d24 61E0      		ldi r22,lo8(1)
 5618 1d26 70E0      		ldi r23,hi8(1)
 5619 1d28 A401      		movw r20,r8
 5620 1d2a 22E0      		ldi r18,lo8(2)
 5621 1d2c 30E0      		ldi r19,hi8(2)
 5622 1d2e 0E94 0000 		call lcd_write_int_xy
 5623               	.LM767:
 5624 1d32 88E0      		ldi r24,lo8(8)
 5625 1d34 90E0      		ldi r25,hi8(8)
 5626 1d36 61E0      		ldi r22,lo8(1)
 5627 1d38 70E0      		ldi r23,hi8(1)
 5628 1d3a A301      		movw r20,r6
 5629 1d3c 22E0      		ldi r18,lo8(2)
 5630 1d3e 30E0      		ldi r19,hi8(2)
 5631 1d40 0E94 0000 		call lcd_write_int_xy
 5632               	.LM768:
 5633 1d44 8BE0      		ldi r24,lo8(11)
 5634 1d46 90E0      		ldi r25,hi8(11)
 5635 1d48 61E0      		ldi r22,lo8(1)
 5636 1d4a 70E0      		ldi r23,hi8(1)
 5637 1d4c A201      		movw r20,r4
 5638 1d4e 22E0      		ldi r18,lo8(2)
 5639 1d50 30E0      		ldi r19,hi8(2)
 5640 1d52 0E94 0000 		call lcd_write_int_xy
 5641               	.LM769:
 5642 1d56 82E0      		ldi r24,lo8(2)
 5643 1d58 90E0      		ldi r25,hi8(2)
 5644 1d5a 0E94 0000 		call delay_sec
 5645 1d5e 00C0      		rjmp .L413
 5646               	.LVL166:
 5647               	.L404:
 5648               	.LM770:
 5649 1d60 FA01      		movw r30,r20
 5650 1d62 8081      		ld r24,Z
 5651 1d64 9181      		ldd r25,Z+1
 5652               	.LVL167:
 5653 1d66 8436      		cpi r24,100
 5654 1d68 9105      		cpc r25,__zero_reg__
 5655 1d6a 01F4      		brne .L413
 5656 1d6c 90E0      		ldi r25,lo8(map_array)
 5657 1d6e C92E      		mov r12,r25
 5658 1d70 90E0      		ldi r25,hi8(map_array)
 5659 1d72 D92E      		mov r13,r25
 5660 1d74 60E0      		ldi r22,lo8(0)
 5661 1d76 70E0      		ldi r23,hi8(0)
 5662               	.LBB664:
 5663               	.LBB663:
 5664               	.LM771:
 5665 1d78 8701      		movw r16,r14
 5666 1d7a 0F5F      		subi r16,lo8(-(1))
 5667 1d7c 1F4F      		sbci r17,hi8(-(1))
 5668 1d7e 00C0      		rjmp .L412
 5669               	.L413:
 5670               	/* epilogue start */
 5671               	.LBE663:
 5672               	.LBE664:
 5673               	.LM772:
 5674 1d80 DF91      		pop r29
 5675 1d82 CF91      		pop r28
 5676 1d84 1F91      		pop r17
 5677 1d86 0F91      		pop r16
 5678 1d88 FF90      		pop r15
 5679 1d8a EF90      		pop r14
 5680               	.LVL168:
 5681 1d8c DF90      		pop r13
 5682 1d8e CF90      		pop r12
 5683 1d90 BF90      		pop r11
 5684 1d92 AF90      		pop r10
 5685               	.LVL169:
 5686 1d94 9F90      		pop r9
 5687 1d96 8F90      		pop r8
 5688               	.LVL170:
 5689 1d98 7F90      		pop r7
 5690 1d9a 6F90      		pop r6
 5691               	.LVL171:
 5692 1d9c 5F90      		pop r5
 5693 1d9e 4F90      		pop r4
 5694               	.LVL172:
 5695 1da0 0895      		ret
 5696               	.LFE72:
 5698               	.global	checkAndCorrectDirection
 5700               	checkAndCorrectDirection:
 5701               	.LFB74:
 5702               	.LM773:
 5703               	.LVL173:
 5704 1da2 CF93      		push r28
 5705 1da4 DF93      		push r29
 5706               	/* prologue: function */
 5707               	/* frame size = 0 */
 5708 1da6 EC01      		movw r28,r24
 5709               	.LM774:
 5710 1da8 8130      		cpi r24,1
 5711 1daa 9105      		cpc r25,__zero_reg__
 5712 1dac 01F4      		brne .L418
 5713               	.LM775:
 5714 1dae 8091 0000 		lds r24,dir
 5715 1db2 9091 0000 		lds r25,(dir)+1
 5716               	.LVL174:
 5717 1db6 2FEF      		ldi r18,hi8(-1)
 5718 1db8 8F3F      		cpi r24,lo8(-1)
 5719 1dba 9207      		cpc r25,r18
 5720 1dbc 01F0      		breq .L421
 5721 1dbe 8230      		cpi r24,2
 5722 1dc0 9105      		cpc r25,__zero_reg__
 5723 1dc2 01F4      		brne .+2
 5724 1dc4 00C0      		rjmp .L430
 5725 1dc6 8E5F      		subi r24,lo8(-2)
 5726 1dc8 9F4F      		sbci r25,hi8(-2)
 5727 1dca 01F0      		breq .+2
 5728 1dcc 00C0      		rjmp .L419
 5729 1dce 00C0      		rjmp .L434
 5730               	.L421:
 5731               	.LM776:
 5732 1dd0 E091 0000 		lds r30,x_coordinate
 5733 1dd4 F091 0000 		lds r31,(x_coordinate)+1
 5734 1dd8 44E0      		ldi r20,4
 5735 1dda EE0F      	1:	lsl r30
 5736 1ddc FF1F      		rol r31
 5737 1dde 4A95      		dec r20
 5738 1de0 01F4      		brne 1b
 5739 1de2 8091 0000 		lds r24,y_coordinate
 5740 1de6 9091 0000 		lds r25,(y_coordinate)+1
 5741 1dea E80F      		add r30,r24
 5742 1dec F91F      		adc r31,r25
 5743 1dee EE0F      		lsl r30
 5744 1df0 FF1F      		rol r31
 5745 1df2 EE0F      		lsl r30
 5746 1df4 FF1F      		rol r31
 5747 1df6 E050      		subi r30,lo8(-(dir_array))
 5748 1df8 F040      		sbci r31,hi8(-(dir_array))
 5749 1dfa 00C0      		rjmp .L445
 5750               	.LVL175:
 5751               	.L418:
 5752               	.LM777:
 5753 1dfc 8230      		cpi r24,2
 5754 1dfe 9105      		cpc r25,__zero_reg__
 5755 1e00 01F4      		brne .L424
 5756               	.LM778:
 5757 1e02 8091 0000 		lds r24,dir
 5758 1e06 9091 0000 		lds r25,(dir)+1
 5759               	.LVL176:
 5760 1e0a 2FEF      		ldi r18,hi8(-1)
 5761 1e0c 8F3F      		cpi r24,lo8(-1)
 5762 1e0e 9207      		cpc r25,r18
 5763 1e10 01F0      		breq .L430
 5764 1e12 8130      		cpi r24,1
 5765 1e14 9105      		cpc r25,__zero_reg__
 5766 1e16 01F4      		brne .+2
 5767 1e18 00C0      		rjmp .L434
 5768 1e1a 8E5F      		subi r24,lo8(-2)
 5769 1e1c 9F4F      		sbci r25,hi8(-2)
 5770 1e1e 01F0      		breq .+2
 5771 1e20 00C0      		rjmp .L419
 5772               	.LM779:
 5773 1e22 E091 0000 		lds r30,x_coordinate
 5774 1e26 F091 0000 		lds r31,(x_coordinate)+1
 5775 1e2a 24E0      		ldi r18,4
 5776 1e2c EE0F      	1:	lsl r30
 5777 1e2e FF1F      		rol r31
 5778 1e30 2A95      		dec r18
 5779 1e32 01F4      		brne 1b
 5780 1e34 8091 0000 		lds r24,y_coordinate
 5781 1e38 9091 0000 		lds r25,(y_coordinate)+1
 5782 1e3c E80F      		add r30,r24
 5783 1e3e F91F      		adc r31,r25
 5784 1e40 EE0F      		lsl r30
 5785 1e42 FF1F      		rol r31
 5786 1e44 EE0F      		lsl r30
 5787 1e46 FF1F      		rol r31
 5788 1e48 E050      		subi r30,lo8(-(dir_array))
 5789 1e4a F040      		sbci r31,hi8(-(dir_array))
 5790 1e4c 8381      		ldd r24,Z+3
 5791 1e4e 00C0      		rjmp .L442
 5792               	.LVL177:
 5793               	.L424:
 5794               	.LM780:
 5795 1e50 8FEF      		ldi r24,hi8(-1)
 5796 1e52 CF3F      		cpi r28,lo8(-1)
 5797 1e54 D807      		cpc r29,r24
 5798               	.LVL178:
 5799 1e56 01F4      		brne .L429
 5800               	.LM781:
 5801 1e58 8091 0000 		lds r24,dir
 5802 1e5c 9091 0000 		lds r25,(dir)+1
 5803 1e60 8130      		cpi r24,1
 5804 1e62 9105      		cpc r25,__zero_reg__
 5805 1e64 01F0      		breq .L431
 5806 1e66 8230      		cpi r24,2
 5807 1e68 9105      		cpc r25,__zero_reg__
 5808 1e6a 01F0      		breq .L434
 5809 1e6c 8E5F      		subi r24,lo8(-2)
 5810 1e6e 9F4F      		sbci r25,hi8(-2)
 5811 1e70 01F0      		breq .+2
 5812 1e72 00C0      		rjmp .L419
 5813               	.L430:
 5814               	.LM782:
 5815 1e74 0E94 0000 		call turn_right
 5816               	.L439:
 5817 1e78 0E94 0000 		call sense_of_directon
 5818 1e7c 00C0      		rjmp .L419
 5819               	.L431:
 5820               	.LM783:
 5821 1e7e E091 0000 		lds r30,x_coordinate
 5822 1e82 F091 0000 		lds r31,(x_coordinate)+1
 5823 1e86 84E0      		ldi r24,4
 5824 1e88 EE0F      	1:	lsl r30
 5825 1e8a FF1F      		rol r31
 5826 1e8c 8A95      		dec r24
 5827 1e8e 01F4      		brne 1b
 5828 1e90 8091 0000 		lds r24,y_coordinate
 5829 1e94 9091 0000 		lds r25,(y_coordinate)+1
 5830 1e98 E80F      		add r30,r24
 5831 1e9a F91F      		adc r31,r25
 5832 1e9c EE0F      		lsl r30
 5833 1e9e FF1F      		rol r31
 5834 1ea0 EE0F      		lsl r30
 5835 1ea2 FF1F      		rol r31
 5836 1ea4 E050      		subi r30,lo8(-(dir_array+2))
 5837 1ea6 F040      		sbci r31,hi8(-(dir_array+2))
 5838               	.L445:
 5839 1ea8 8081      		ld r24,Z
 5840 1eaa 00C0      		rjmp .L442
 5841               	.L429:
 5842               	.LM784:
 5843 1eac 8FEF      		ldi r24,hi8(-2)
 5844 1eae CE3F      		cpi r28,lo8(-2)
 5845 1eb0 D807      		cpc r29,r24
 5846 1eb2 01F4      		brne .L419
 5847               	.LM785:
 5848 1eb4 8091 0000 		lds r24,dir
 5849 1eb8 9091 0000 		lds r25,(dir)+1
 5850 1ebc 8130      		cpi r24,1
 5851 1ebe 9105      		cpc r25,__zero_reg__
 5852 1ec0 01F0      		breq .L430
 5853 1ec2 8230      		cpi r24,2
 5854 1ec4 9105      		cpc r25,__zero_reg__
 5855 1ec6 01F0      		breq .L436
 5856 1ec8 8F5F      		subi r24,lo8(-1)
 5857 1eca 9F4F      		sbci r25,hi8(-1)
 5858 1ecc 01F4      		brne .L419
 5859               	.L434:
 5860               	.LM786:
 5861 1ece 0E94 0000 		call turn_left
 5862 1ed2 00C0      		rjmp .L439
 5863               	.L436:
 5864               	.LM787:
 5865 1ed4 E091 0000 		lds r30,x_coordinate
 5866 1ed8 F091 0000 		lds r31,(x_coordinate)+1
 5867 1edc A4E0      		ldi r26,4
 5868 1ede EE0F      	1:	lsl r30
 5869 1ee0 FF1F      		rol r31
 5870 1ee2 AA95      		dec r26
 5871 1ee4 01F4      		brne 1b
 5872 1ee6 8091 0000 		lds r24,y_coordinate
 5873 1eea 9091 0000 		lds r25,(y_coordinate)+1
 5874 1eee E80F      		add r30,r24
 5875 1ef0 F91F      		adc r31,r25
 5876 1ef2 EE0F      		lsl r30
 5877 1ef4 FF1F      		rol r31
 5878 1ef6 EE0F      		lsl r30
 5879 1ef8 FF1F      		rol r31
 5880 1efa E050      		subi r30,lo8(-(dir_array))
 5881 1efc F040      		sbci r31,hi8(-(dir_array))
 5882 1efe 8181      		ldd r24,Z+1
 5883               	.L442:
 5884 1f00 8435      		cpi r24,lo8(84)
 5885 1f02 01F4      		brne .L437
 5886               	.LM788:
 5887 1f04 0E94 0000 		call turn_right
 5888               	.L437:
 5889               	.LM789:
 5890 1f08 0E94 0000 		call turn_right
 5891               	.LM790:
 5892 1f0c D093 0000 		sts (dir)+1,r29
 5893 1f10 C093 0000 		sts dir,r28
 5894               	.L419:
 5895               	.LBB665:
 5896               	.LBB666:
 5897               	.LM791:
 5898 1f14 AC9A      		sbi 53-32,4
 5899               	.LM792:
 5900 1f16 AD9A      		sbi 53-32,5
 5901               	.LM793:
 5902 1f18 AE9A      		sbi 53-32,6
 5903               	.LM794:
 5904 1f1a AF9A      		sbi 53-32,7
 5905               	/* epilogue start */
 5906               	.LBE666:
 5907               	.LBE665:
 5908               	.LM795:
 5909 1f1c DF91      		pop r29
 5910 1f1e CF91      		pop r28
 5911               	.LVL179:
 5912 1f20 0895      		ret
 5913               	.LFE74:
 5915               	.global	go_to_coordinate
 5917               	go_to_coordinate:
 5918               	.LFB73:
 5919               	.LM796:
 5920               	.LVL180:
 5921 1f22 0F93      		push r16
 5922 1f24 1F93      		push r17
 5923 1f26 CF93      		push r28
 5924 1f28 DF93      		push r29
 5925               	/* prologue: function */
 5926               	/* frame size = 0 */
 5927 1f2a EC01      		movw r28,r24
 5928 1f2c 8B01      		movw r16,r22
 5929               	.LM797:
 5930 1f2e 8091 0000 		lds r24,x_coordinate
 5931 1f32 9091 0000 		lds r25,(x_coordinate)+1
 5932               	.LVL181:
 5933 1f36 8C17      		cp r24,r28
 5934 1f38 9D07      		cpc r25,r29
 5935 1f3a 04F4      		brge .L447
 5936               	.LVL182:
 5937               	.LM798:
 5938 1f3c 81E0      		ldi r24,lo8(1)
 5939 1f3e 90E0      		ldi r25,hi8(1)
 5940 1f40 0E94 0000 		call checkAndCorrectDirection
 5941 1f44 00C0      		rjmp .L448
 5942               	.L450:
 5943               	.LM799:
 5944 1f46 0E94 0000 		call line_track_new
 5945               	.L448:
 5946               	.LM800:
 5947 1f4a CD9B      		sbis 57-32,5
 5948 1f4c 00C0      		rjmp .L472
 5949 1f4e CF99      		sbic 57-32,7
 5950 1f50 00C0      		rjmp .L450
 5951 1f52 00C0      		rjmp .L472
 5952               	.L452:
 5953               	.LM801:
 5954 1f54 0E94 0000 		call line_track_new
 5955               	.L472:
 5956               	.LM802:
 5957 1f58 CC9B      		sbis 57-32,4
 5958 1f5a 00C0      		rjmp .L469
 5959 1f5c 8799      		sbic 48-32,7
 5960 1f5e 00C0      		rjmp .L452
 5961 1f60 00C0      		rjmp .L469
 5962               	.LVL183:
 5963               	.L447:
 5964               	.LM803:
 5965 1f62 C817      		cp r28,r24
 5966 1f64 D907      		cpc r29,r25
 5967 1f66 04F4      		brge .L454
 5968               	.LM804:
 5969 1f68 8FEF      		ldi r24,lo8(-1)
 5970 1f6a 9FEF      		ldi r25,hi8(-1)
 5971 1f6c 0E94 0000 		call checkAndCorrectDirection
 5972 1f70 00C0      		rjmp .L455
 5973               	.L457:
 5974               	.LM805:
 5975 1f72 0E94 0000 		call line_track_new
 5976               	.L455:
 5977               	.LM806:
 5978 1f76 CD9B      		sbis 57-32,5
 5979 1f78 00C0      		rjmp .L473
 5980 1f7a CF99      		sbic 57-32,7
 5981 1f7c 00C0      		rjmp .L457
 5982 1f7e 00C0      		rjmp .L473
 5983               	.L459:
 5984               	.LM807:
 5985 1f80 0E94 0000 		call line_track_new
 5986               	.L473:
 5987               	.LM808:
 5988 1f84 CC9B      		sbis 57-32,4
 5989 1f86 00C0      		rjmp .L469
 5990 1f88 8799      		sbic 48-32,7
 5991 1f8a 00C0      		rjmp .L459
 5992 1f8c 00C0      		rjmp .L469
 5993               	.LVL184:
 5994               	.L454:
 5995               	.LM809:
 5996 1f8e 8091 0000 		lds r24,y_coordinate
 5997 1f92 9091 0000 		lds r25,(y_coordinate)+1
 5998 1f96 8617      		cp r24,r22
 5999 1f98 9707      		cpc r25,r23
 6000 1f9a 04F4      		brge .L460
 6001               	.LVL185:
 6002               	.LM810:
 6003 1f9c 82E0      		ldi r24,lo8(2)
 6004 1f9e 90E0      		ldi r25,hi8(2)
 6005 1fa0 0E94 0000 		call checkAndCorrectDirection
 6006               	.LVL186:
 6007 1fa4 00C0      		rjmp .L461
 6008               	.L463:
 6009               	.LM811:
 6010 1fa6 0E94 0000 		call line_track_new
 6011               	.L461:
 6012               	.LM812:
 6013 1faa CD9B      		sbis 57-32,5
 6014 1fac 00C0      		rjmp .L474
 6015 1fae CF99      		sbic 57-32,7
 6016 1fb0 00C0      		rjmp .L463
 6017 1fb2 00C0      		rjmp .L474
 6018               	.L465:
 6019               	.LM813:
 6020 1fb4 0E94 0000 		call line_track_new
 6021               	.L474:
 6022               	.LM814:
 6023 1fb8 CC9B      		sbis 57-32,4
 6024 1fba 00C0      		rjmp .L469
 6025 1fbc 8799      		sbic 48-32,7
 6026 1fbe 00C0      		rjmp .L465
 6027 1fc0 00C0      		rjmp .L469
 6028               	.LVL187:
 6029               	.L460:
 6030               	.LM815:
 6031 1fc2 6817      		cp r22,r24
 6032 1fc4 7907      		cpc r23,r25
 6033 1fc6 04F4      		brge .L453
 6034               	.LM816:
 6035 1fc8 1092 0000 		sts (right)+1,__zero_reg__
 6036 1fcc 1092 0000 		sts right,__zero_reg__
 6037               	.LM817:
 6038 1fd0 8EEF      		ldi r24,lo8(-2)
 6039 1fd2 9FEF      		ldi r25,hi8(-2)
 6040 1fd4 0E94 0000 		call checkAndCorrectDirection
 6041               	.LVL188:
 6042 1fd8 00C0      		rjmp .L466
 6043               	.L468:
 6044               	.LM818:
 6045 1fda 0E94 0000 		call line_track_new
 6046               	.L466:
 6047               	.LM819:
 6048 1fde CD9B      		sbis 57-32,5
 6049 1fe0 00C0      		rjmp .L475
 6050 1fe2 CF99      		sbic 57-32,7
 6051 1fe4 00C0      		rjmp .L468
 6052 1fe6 00C0      		rjmp .L475
 6053               	.L470:
 6054               	.LM820:
 6055 1fe8 0E94 0000 		call line_track_new
 6056               	.L475:
 6057               	.LM821:
 6058 1fec CC9B      		sbis 57-32,4
 6059 1fee 00C0      		rjmp .L469
 6060 1ff0 8799      		sbic 48-32,7
 6061 1ff2 00C0      		rjmp .L470
 6062               	.L469:
 6063               	.LBB667:
 6064               	.LBB668:
 6065               	.LM822:
 6066 1ff4 8FE8      		ldi r24,lo8(399)
 6067 1ff6 91E0      		ldi r25,hi8(399)
 6068 1ff8 99BD      		out (72)+1-32,r25
 6069 1ffa 88BD      		out 72-32,r24
 6070               	.LBE668:
 6071               	.LBE667:
 6072               	.LBB669:
 6073               	.LBB670:
 6074               	.LM823:
 6075 1ffc 9BBD      		out (74)+1-32,r25
 6076 1ffe 8ABD      		out 74-32,r24
 6077               	.LBE670:
 6078               	.LBE669:
 6079               	.LBB671:
 6080               	.LBB672:
 6081               	.LM824:
 6082 2000 AC9A      		sbi 53-32,4
 6083               	.LM825:
 6084 2002 AD9A      		sbi 53-32,5
 6085               	.LM826:
 6086 2004 AE9A      		sbi 53-32,6
 6087               	.LM827:
 6088 2006 AF9A      		sbi 53-32,7
 6089               	.LVL189:
 6090               	.L453:
 6091               	.LBE672:
 6092               	.LBE671:
 6093               	.LM828:
 6094 2008 D093 0000 		sts (x_coordinate)+1,r29
 6095 200c C093 0000 		sts x_coordinate,r28
 6096               	.LM829:
 6097 2010 1093 0000 		sts (y_coordinate)+1,r17
 6098 2014 0093 0000 		sts y_coordinate,r16
 6099               	.LM830:
 6100 2018 81E0      		ldi r24,lo8(1)
 6101 201a 60E0      		ldi r22,lo8(0)
 6102 201c 0E94 0000 		call lcd_byte
 6103               	.LM831:
 6104 2020 4091 0000 		lds r20,x_coordinate
 6105 2024 5091 0000 		lds r21,(x_coordinate)+1
 6106 2028 80E0      		ldi r24,lo8(0)
 6107 202a 90E0      		ldi r25,hi8(0)
 6108 202c 61E0      		ldi r22,lo8(1)
 6109 202e 70E0      		ldi r23,hi8(1)
 6110 2030 22E0      		ldi r18,lo8(2)
 6111 2032 30E0      		ldi r19,hi8(2)
 6112 2034 0E94 0000 		call lcd_write_int_xy
 6113               	.LM832:
 6114 2038 4091 0000 		lds r20,y_coordinate
 6115 203c 5091 0000 		lds r21,(y_coordinate)+1
 6116 2040 85E0      		ldi r24,lo8(5)
 6117 2042 90E0      		ldi r25,hi8(5)
 6118 2044 61E0      		ldi r22,lo8(1)
 6119 2046 70E0      		ldi r23,hi8(1)
 6120 2048 22E0      		ldi r18,lo8(2)
 6121 204a 30E0      		ldi r19,hi8(2)
 6122 204c 0E94 0000 		call lcd_write_int_xy
 6123               	.LM833:
 6124 2050 4091 0000 		lds r20,irc
 6125 2054 5091 0000 		lds r21,(irc)+1
 6126 2058 83E0      		ldi r24,lo8(3)
 6127 205a 90E0      		ldi r25,hi8(3)
 6128 205c 60E0      		ldi r22,lo8(0)
 6129 205e 70E0      		ldi r23,hi8(0)
 6130 2060 25E0      		ldi r18,lo8(5)
 6131 2062 30E0      		ldi r19,hi8(5)
 6132 2064 0E94 0000 		call lcd_write_int_xy
 6133               	.LBB673:
 6134               	.LBB674:
 6135               	.LM834:
 6136 2068 AC9A      		sbi 53-32,4
 6137               	.LM835:
 6138 206a AD9A      		sbi 53-32,5
 6139               	.LM836:
 6140 206c AE9A      		sbi 53-32,6
 6141               	.LM837:
 6142 206e AF9A      		sbi 53-32,7
 6143               	/* epilogue start */
 6144               	.LBE674:
 6145               	.LBE673:
 6146               	.LM838:
 6147 2070 DF91      		pop r29
 6148 2072 CF91      		pop r28
 6149               	.LVL190:
 6150 2074 1F91      		pop r17
 6151 2076 0F91      		pop r16
 6152               	.LVL191:
 6153 2078 0895      		ret
 6154               	.LFE73:
 6156               	.global	print_path
 6158               	print_path:
 6159               	.LFB76:
 6160               	.LM839:
 6161 207a CF92      		push r12
 6162 207c DF92      		push r13
 6163 207e EF92      		push r14
 6164 2080 FF92      		push r15
 6165 2082 0F93      		push r16
 6166 2084 1F93      		push r17
 6167 2086 CF93      		push r28
 6168 2088 DF93      		push r29
 6169               	/* prologue: function */
 6170               	/* frame size = 0 */
 6171               	.LM840:
 6172 208a 81E0      		ldi r24,lo8(1)
 6173 208c 60E0      		ldi r22,lo8(0)
 6174 208e 0E94 0000 		call lcd_byte
 6175 2092 00E0      		ldi r16,lo8(path_array)
 6176 2094 10E0      		ldi r17,hi8(path_array)
 6177 2096 C0E0      		ldi r28,lo8(0)
 6178 2098 D0E0      		ldi r29,hi8(0)
 6179               	.LVL192:
 6180 209a EE24      		clr r14
 6181 209c FF24      		clr r15
 6182               	.LVL193:
 6183 209e CC24      		clr r12
 6184 20a0 DD24      		clr r13
 6185               	.LVL194:
 6186 20a2 00C0      		rjmp .L477
 6187               	.L479:
 6188               	.LBB675:
 6189               	.LM841:
 6190 20a4 F801      		movw r30,r16
 6191 20a6 4081      		ld r20,Z
 6192 20a8 5181      		ldd r21,Z+1
 6193 20aa CE01      		movw r24,r28
 6194 20ac B701      		movw r22,r14
 6195 20ae 22E0      		ldi r18,lo8(2)
 6196 20b0 30E0      		ldi r19,hi8(2)
 6197 20b2 0E94 0000 		call lcd_write_int_xy
 6198               	.LM842:
 6199 20b6 F801      		movw r30,r16
 6200 20b8 4281      		ldd r20,Z+2
 6201 20ba 5381      		ldd r21,Z+3
 6202 20bc CE01      		movw r24,r28
 6203 20be 0296      		adiw r24,2
 6204 20c0 B701      		movw r22,r14
 6205 20c2 22E0      		ldi r18,lo8(2)
 6206 20c4 30E0      		ldi r19,hi8(2)
 6207 20c6 0E94 0000 		call lcd_write_int_xy
 6208               	.LM843:
 6209 20ca 2596      		adiw r28,5
 6210               	.LM844:
 6211 20cc CE30      		cpi r28,14
 6212 20ce D105      		cpc r29,__zero_reg__
 6213 20d0 04F0      		brlt .L478
 6214 20d2 C0E0      		ldi r28,lo8(0)
 6215 20d4 D0E0      		ldi r29,hi8(0)
 6216 20d6 51E0      		ldi r21,lo8(1)
 6217 20d8 E52E      		mov r14,r21
 6218 20da F12C      		mov r15,__zero_reg__
 6219               	.L478:
 6220               	.LM845:
 6221 20dc 0894      		sec
 6222 20de C11C      		adc r12,__zero_reg__
 6223 20e0 D11C      		adc r13,__zero_reg__
 6224 20e2 0C5F      		subi r16,lo8(-(4))
 6225 20e4 1F4F      		sbci r17,hi8(-(4))
 6226               	.L477:
 6227 20e6 8091 0000 		lds r24,ipl
 6228 20ea 9091 0000 		lds r25,(ipl)+1
 6229 20ee 8C15      		cp r24,r12
 6230 20f0 9D05      		cpc r25,r13
 6231 20f2 04F4      		brge .L479
 6232               	/* epilogue start */
 6233               	.LBE675:
 6234               	.LM846:
 6235 20f4 DF91      		pop r29
 6236 20f6 CF91      		pop r28
 6237               	.LVL195:
 6238 20f8 1F91      		pop r17
 6239 20fa 0F91      		pop r16
 6240 20fc FF90      		pop r15
 6241 20fe EF90      		pop r14
 6242               	.LVL196:
 6243 2100 DF90      		pop r13
 6244 2102 CF90      		pop r12
 6245               	.LVL197:
 6246 2104 0895      		ret
 6247               	.LFE76:
 6249               		.data
 6250               	.LC3:
 6251 0022 6D78 3A20 		.string	"mx: "
 6251      00
 6252               	.LC4:
 6253 0027 6D79 3A20 		.string	"my: "
 6253      00
 6254               	.LC5:
 6255 002c 783A 2000 		.string	"x: "
 6256               	.LC6:
 6257 0030 793A 2000 		.string	"y: "
 6258               	.LC7:
 6259 0034 5072 6573 		.string	"Press Any Key"
 6259      7320 416E 
 6259      7920 4B65 
 6259      7900 
 6260               	.LC8:
 6261 0042 5374 6F72 		.string	"Stored In EP"
 6261      6564 2049 
 6261      6E20 4550 
 6261      00
 6262               		.text
 6263               	.global	end_zone
 6265               	end_zone:
 6266               	.LFB77:
 6267               	.LM847:
 6268 2106 EF92      		push r14
 6269 2108 FF92      		push r15
 6270 210a 0F93      		push r16
 6271 210c 1F93      		push r17
 6272 210e CF93      		push r28
 6273 2110 DF93      		push r29
 6274               	/* prologue: function */
 6275               	/* frame size = 0 */
 6276               	.LM848:
 6277 2112 0091 0000 		lds r16,x_coordinate
 6278 2116 1091 0000 		lds r17,(x_coordinate)+1
 6279               	.LVL198:
 6280 211a C091 0000 		lds r28,y_coordinate
 6281 211e D091 0000 		lds r29,(y_coordinate)+1
 6282               	.LVL199:
 6283               	.LM849:
 6284 2122 86E4      		ldi r24,lo8(70)
 6285 2124 66E4      		ldi r22,lo8(70)
 6286 2126 44E5      		ldi r20,lo8(84)
 6287 2128 26E4      		ldi r18,lo8(70)
 6288 212a 0E94 0000 		call update_array
 6289               	.LM850:
 6290 212e 81E0      		ldi r24,lo8(1)
 6291 2130 60E0      		ldi r22,lo8(0)
 6292 2132 0E94 0000 		call lcd_byte
 6293               	.LBB676:
 6294               	.LBB677:
 6295               	.LM851:
 6296 2136 8FE8      		ldi r24,lo8(399)
 6297 2138 91E0      		ldi r25,hi8(399)
 6298 213a 9BBD      		out (74)+1-32,r25
 6299 213c 8ABD      		out 74-32,r24
 6300               	.LBE677:
 6301               	.LBE676:
 6302               	.LBB678:
 6303               	.LBB679:
 6304               	.LM852:
 6305 213e 99BD      		out (72)+1-32,r25
 6306 2140 88BD      		out 72-32,r24
 6307               	.LBE679:
 6308               	.LBE678:
 6309               	.LBB680:
 6310               	.LBB681:
 6311               	.LM853:
 6312 2142 AC9A      		sbi 53-32,4
 6313               	.LM854:
 6314 2144 AD9A      		sbi 53-32,5
 6315               	.LM855:
 6316 2146 AE9A      		sbi 53-32,6
 6317               	.LM856:
 6318 2148 AF9A      		sbi 53-32,7
 6319               	.LBE681:
 6320               	.LBE680:
 6321               	.LM857:
 6322 214a 0E94 0000 		call flick
 6323               	.LM858:
 6324 214e 0E94 0000 		call end_zone_uturn
 6325               	.LM859:
 6326 2152 0E94 0000 		call sense_of_directon
 6327               	.LM860:
 6328 2156 0E94 0000 		call fill_missed_array
 6329               	.LM861:
 6330 215a 0E94 0000 		call coordinates_tobe_reached
 6331               	.LM862:
 6332 215e 81E0      		ldi r24,lo8(1)
 6333 2160 60E0      		ldi r22,lo8(0)
 6334 2162 0E94 0000 		call lcd_byte
 6335               	.LM863:
 6336 2166 80E0      		ldi r24,lo8(0)
 6337 2168 90E0      		ldi r25,hi8(0)
 6338 216a 60E0      		ldi r22,lo8(0)
 6339 216c 70E0      		ldi r23,hi8(0)
 6340 216e 40E0      		ldi r20,lo8(.LC3)
 6341 2170 50E0      		ldi r21,hi8(.LC3)
 6342 2172 0E94 0000 		call lcd_write_string_xy
 6343               	.LM864:
 6344 2176 4091 0000 		lds r20,mx
 6345 217a 5091 0000 		lds r21,(mx)+1
 6346 217e 84E0      		ldi r24,lo8(4)
 6347 2180 90E0      		ldi r25,hi8(4)
 6348 2182 60E0      		ldi r22,lo8(0)
 6349 2184 70E0      		ldi r23,hi8(0)
 6350 2186 22E0      		ldi r18,lo8(2)
 6351 2188 30E0      		ldi r19,hi8(2)
 6352 218a 0E94 0000 		call lcd_write_int_xy
 6353               	.LM865:
 6354 218e 87E0      		ldi r24,lo8(7)
 6355 2190 90E0      		ldi r25,hi8(7)
 6356 2192 60E0      		ldi r22,lo8(0)
 6357 2194 70E0      		ldi r23,hi8(0)
 6358 2196 40E0      		ldi r20,lo8(.LC4)
 6359 2198 50E0      		ldi r21,hi8(.LC4)
 6360 219a 0E94 0000 		call lcd_write_string_xy
 6361               	.LM866:
 6362 219e 4091 0000 		lds r20,my
 6363 21a2 5091 0000 		lds r21,(my)+1
 6364 21a6 8BE0      		ldi r24,lo8(11)
 6365 21a8 90E0      		ldi r25,hi8(11)
 6366 21aa 60E0      		ldi r22,lo8(0)
 6367 21ac 70E0      		ldi r23,hi8(0)
 6368 21ae 22E0      		ldi r18,lo8(2)
 6369 21b0 30E0      		ldi r19,hi8(2)
 6370 21b2 0E94 0000 		call lcd_write_int_xy
 6371               	.LM867:
 6372 21b6 80E0      		ldi r24,lo8(0)
 6373 21b8 90E0      		ldi r25,hi8(0)
 6374 21ba 61E0      		ldi r22,lo8(1)
 6375 21bc 70E0      		ldi r23,hi8(1)
 6376 21be 40E0      		ldi r20,lo8(.LC5)
 6377 21c0 50E0      		ldi r21,hi8(.LC5)
 6378 21c2 0E94 0000 		call lcd_write_string_xy
 6379               	.LM868:
 6380 21c6 4091 0000 		lds r20,x_coordinate
 6381 21ca 5091 0000 		lds r21,(x_coordinate)+1
 6382 21ce 84E0      		ldi r24,lo8(4)
 6383 21d0 90E0      		ldi r25,hi8(4)
 6384 21d2 61E0      		ldi r22,lo8(1)
 6385 21d4 70E0      		ldi r23,hi8(1)
 6386 21d6 22E0      		ldi r18,lo8(2)
 6387 21d8 30E0      		ldi r19,hi8(2)
 6388 21da 0E94 0000 		call lcd_write_int_xy
 6389               	.LM869:
 6390 21de 87E0      		ldi r24,lo8(7)
 6391 21e0 90E0      		ldi r25,hi8(7)
 6392 21e2 61E0      		ldi r22,lo8(1)
 6393 21e4 70E0      		ldi r23,hi8(1)
 6394 21e6 40E0      		ldi r20,lo8(.LC6)
 6395 21e8 50E0      		ldi r21,hi8(.LC6)
 6396 21ea 0E94 0000 		call lcd_write_string_xy
 6397               	.LM870:
 6398 21ee 4091 0000 		lds r20,y_coordinate
 6399 21f2 5091 0000 		lds r21,(y_coordinate)+1
 6400 21f6 8BE0      		ldi r24,lo8(11)
 6401 21f8 90E0      		ldi r25,hi8(11)
 6402 21fa 61E0      		ldi r22,lo8(1)
 6403 21fc 70E0      		ldi r23,hi8(1)
 6404 21fe 22E0      		ldi r18,lo8(2)
 6405 2200 30E0      		ldi r19,hi8(2)
 6406 2202 0E94 0000 		call lcd_write_int_xy
 6407               	.LM871:
 6408 2206 8091 0000 		lds r24,mx
 6409 220a 9091 0000 		lds r25,(mx)+1
 6410 220e 892B      		or r24,r25
 6411 2210 01F0      		breq .L482
 6412 2212 8091 0000 		lds r24,my
 6413 2216 9091 0000 		lds r25,(my)+1
 6414 221a 892B      		or r24,r25
 6415 221c 01F0      		breq .L482
 6416               	.LM872:
 6417 221e 0E94 0000 		call map_all
 6418               	.L482:
 6419               	.LM873:
 6420 2222 87E0      		ldi r24,lo8(7)
 6421 2224 90E0      		ldi r25,hi8(7)
 6422 2226 9093 0000 		sts (x_coordinate)+1,r25
 6423 222a 8093 0000 		sts x_coordinate,r24
 6424               	.LM874:
 6425 222e 9093 0000 		sts (y_coordinate)+1,r25
 6426 2232 8093 0000 		sts y_coordinate,r24
 6427               	.LM875:
 6428 2236 82E0      		ldi r24,lo8(2)
 6429 2238 90E0      		ldi r25,hi8(2)
 6430 223a 9093 0000 		sts (dir)+1,r25
 6431 223e 8093 0000 		sts dir,r24
 6432               	.LM876:
 6433 2242 80E0      		ldi r24,lo8(.LC7)
 6434 2244 90E0      		ldi r25,hi8(.LC7)
 6435 2246 0E94 0000 		call lcd_write_string
 6436               	.L490:
 6437               	.LBB682:
 6438               	.LBB683:
 6439               	.LM877:
 6440 224a 8299      		sbic 48-32,2
 6441 224c 00C0      		rjmp .L483
 6442               	.L489:
 6443               	.LBE683:
 6444               	.LBE682:
 6445               	.LBB684:
 6446               	.LM878:
 6447 224e 87E0      		ldi r24,lo8(7)
 6448 2250 90E0      		ldi r25,hi8(7)
 6449 2252 67E0      		ldi r22,lo8(7)
 6450 2254 70E0      		ldi r23,hi8(7)
 6451 2256 A801      		movw r20,r16
 6452 2258 9E01      		movw r18,r28
 6453 225a 0E94 0000 		call build_map
 6454               	.LM879:
 6455 225e 0E94 0000 		call get_path
 6456 2262 60E0      		ldi r22,lo8(path_array)
 6457 2264 E62E      		mov r14,r22
 6458 2266 60E0      		ldi r22,hi8(path_array)
 6459 2268 F62E      		mov r15,r22
 6460 226a 8701      		movw r16,r14
 6461               	.LVL200:
 6462 226c C0E0      		ldi r28,lo8(0)
 6463 226e D0E0      		ldi r29,hi8(0)
 6464               	.LVL201:
 6465               	.L484:
 6466               	.LBB692:
 6467               	.LM880:
 6468 2270 F801      		movw r30,r16
 6469 2272 6081      		ld r22,Z
 6470 2274 7181      		ldd r23,Z+1
 6471 2276 CE01      		movw r24,r28
 6472 2278 0E94 0000 		call __eewr_word_m32
 6473               	.LM881:
 6474 227c F801      		movw r30,r16
 6475 227e 6281      		ldd r22,Z+2
 6476 2280 7381      		ldd r23,Z+3
 6477 2282 CE01      		movw r24,r28
 6478 2284 0296      		adiw r24,2
 6479 2286 0E94 0000 		call __eewr_word_m32
 6480 228a 0C5F      		subi r16,lo8(-(4))
 6481 228c 1F4F      		sbci r17,hi8(-(4))
 6482 228e 2496      		adiw r28,4
 6483               	.LM882:
 6484 2290 CC33      		cpi r28,60
 6485 2292 D105      		cpc r29,__zero_reg__
 6486 2294 01F4      		brne .L484
 6487               	.LBE692:
 6488               	.LM883:
 6489 2296 81E0      		ldi r24,lo8(1)
 6490 2298 60E0      		ldi r22,lo8(0)
 6491 229a 0E94 0000 		call lcd_byte
 6492               	.LM884:
 6493 229e 80E0      		ldi r24,lo8(.LC8)
 6494 22a0 90E0      		ldi r25,hi8(.LC8)
 6495 22a2 0E94 0000 		call lcd_write_string
 6496               	.LM885:
 6497 22a6 81E0      		ldi r24,lo8(1)
 6498 22a8 90E0      		ldi r25,hi8(1)
 6499 22aa 0E94 0000 		call delay_sec
 6500               	.LM886:
 6501 22ae 1092 0000 		sts (right)+1,__zero_reg__
 6502 22b2 1092 0000 		sts right,__zero_reg__
 6503               	.LM887:
 6504 22b6 0E94 0000 		call print_path
 6505               	.LBB690:
 6506               	.LBB691:
 6507               	.LM888:
 6508 22ba AC9A      		sbi 53-32,4
 6509               	.LM889:
 6510 22bc AD9A      		sbi 53-32,5
 6511               	.LM890:
 6512 22be AE9A      		sbi 53-32,6
 6513               	.LM891:
 6514 22c0 AF9A      		sbi 53-32,7
 6515               	.L492:
 6516               	.LBE691:
 6517               	.LBE690:
 6518               	.LBB688:
 6519               	.LBB689:
 6520               	.LM892:
 6521 22c2 8299      		sbic 48-32,2
 6522 22c4 00C0      		rjmp .L485
 6523               	.L491:
 6524               	.LBE689:
 6525               	.LBE688:
 6526               	.LM893:
 6527 22c6 81E0      		ldi r24,lo8(1)
 6528 22c8 60E0      		ldi r22,lo8(0)
 6529 22ca 0E94 0000 		call lcd_byte
 6530               	.LM894:
 6531 22ce 81E0      		ldi r24,lo8(1)
 6532 22d0 90E0      		ldi r25,hi8(1)
 6533 22d2 0E94 0000 		call delay_sec
 6534               	.L488:
 6535               	.LBB687:
 6536               	.LM895:
 6537 22d6 F701      		movw r30,r14
 6538 22d8 2081      		ld r18,Z
 6539 22da 3181      		ldd r19,Z+1
 6540 22dc 2115      		cp r18,__zero_reg__
 6541 22de 3105      		cpc r19,__zero_reg__
 6542 22e0 01F4      		brne .L486
 6543 22e2 8281      		ldd r24,Z+2
 6544 22e4 9381      		ldd r25,Z+3
 6545 22e6 892B      		or r24,r25
 6546 22e8 01F0      		breq .L496
 6547               	.L486:
 6548               	.LM896:
 6549 22ea F701      		movw r30,r14
 6550 22ec 6281      		ldd r22,Z+2
 6551 22ee 7381      		ldd r23,Z+3
 6552 22f0 C901      		movw r24,r18
 6553 22f2 0E94 0000 		call go_to_coordinate
 6554 22f6 84E0      		ldi r24,lo8(4)
 6555 22f8 90E0      		ldi r25,hi8(4)
 6556 22fa E80E      		add r14,r24
 6557 22fc F91E      		adc r15,r25
 6558               	.LM897:
 6559 22fe 90E0      		ldi r25,lo8(path_array+60)
 6560 2300 E916      		cp r14,r25
 6561 2302 90E0      		ldi r25,hi8(path_array+60)
 6562 2304 F906      		cpc r15,r25
 6563 2306 01F4      		brne .L488
 6564               	.L496:
 6565               	.LBE687:
 6566               	.LBB685:
 6567               	.LBB686:
 6568               	.LM898:
 6569 2308 AC98      		cbi 53-32,4
 6570               	.LM899:
 6571 230a AD98      		cbi 53-32,5
 6572               	.LM900:
 6573 230c AE98      		cbi 53-32,6
 6574               	.LM901:
 6575 230e AF98      		cbi 53-32,7
 6576 2310 00C0      		rjmp .L496
 6577               	.LVL202:
 6578               	.L483:
 6579               	.LBE686:
 6580               	.LBE685:
 6581               	.LBE684:
 6582               	.LBB699:
 6583               	.LBB700:
 6584               	.LM902:
 6585 2312 809B      		sbis 48-32,0
 6586 2314 00C0      		rjmp .L489
 6587               	.LBE700:
 6588               	.LBE699:
 6589               	.LBB701:
 6590               	.LBB702:
 6591               	.LM903:
 6592 2316 819B      		sbis 48-32,1
 6593 2318 00C0      		rjmp .L489
 6594               	.LBE702:
 6595               	.LBE701:
 6596               	.LBB703:
 6597               	.LBB704:
 6598               	.LM904:
 6599 231a 839B      		sbis 48-32,3
 6600 231c 00C0      		rjmp .L489
 6601 231e 00C0      		rjmp .L490
 6602               	.LVL203:
 6603               	.L485:
 6604               	.LBE704:
 6605               	.LBE703:
 6606               	.LBB705:
 6607               	.LBB693:
 6608               	.LBB694:
 6609               	.LM905:
 6610 2320 809B      		sbis 48-32,0
 6611 2322 00C0      		rjmp .L491
 6612               	.LBE694:
 6613               	.LBE693:
 6614               	.LBB695:
 6615               	.LBB696:
 6616               	.LM906:
 6617 2324 819B      		sbis 48-32,1
 6618 2326 00C0      		rjmp .L491
 6619               	.LBE696:
 6620               	.LBE695:
 6621               	.LBB697:
 6622               	.LBB698:
 6623               	.LM907:
 6624 2328 839B      		sbis 48-32,3
 6625 232a 00C0      		rjmp .L491
 6626 232c 00C0      		rjmp .L492
 6627               	.LBE698:
 6628               	.LBE697:
 6629               	.LBE705:
 6630               	.LFE77:
 6632               		.data
 6633               	.LC9:
 6634 004f 2B20 4465 		.string	"+ Detected"
 6634      7465 6374 
 6634      6564 00
 6635               	.LC10:
 6636 005a 5454 5446 		.string	"TTTF"
 6636      00
 6637               	.LC11:
 6638 005f 5420 4465 		.string	"T Detected"
 6638      7465 6374 
 6638      6564 00
 6639               	.LC12:
 6640 006a 4654 5454 		.string	"FTTT"
 6640      00
 6641               	.LC13:
 6642 006f 4C20 4465 		.string	"L Detected"
 6642      7465 6374 
 6642      6564 00
 6643               	.LC14:
 6644 007a 4654 5446 		.string	"FTTF"
 6644      00
 6645               	.LC15:
 6646 007f 7C2D 2044 		.string	"|- Detected"
 6646      6574 6563 
 6646      7465 6400 
 6647               		.text
 6648               	.global	right_junc_check
 6650               	right_junc_check:
 6651               	.LFB61:
 6652               	.LM908:
 6653               	/* prologue: function */
 6654               	/* frame size = 0 */
 6655               	.LBB706:
 6656               	.LBB707:
 6657               	.LM909:
 6658 232e 8FE8      		ldi r24,lo8(399)
 6659 2330 91E0      		ldi r25,hi8(399)
 6660 2332 9BBD      		out (74)+1-32,r25
 6661 2334 8ABD      		out 74-32,r24
 6662               	.LBE707:
 6663               	.LBE706:
 6664               	.LBB708:
 6665               	.LBB709:
 6666               	.LM910:
 6667 2336 99BD      		out (72)+1-32,r25
 6668 2338 88BD      		out 72-32,r24
 6669               	.LBE709:
 6670               	.LBE708:
 6671               	.LBB710:
 6672               	.LBB711:
 6673               	.LM911:
 6674 233a AC9A      		sbi 53-32,4
 6675               	.LM912:
 6676 233c AD9A      		sbi 53-32,5
 6677               	.LM913:
 6678 233e AE9A      		sbi 53-32,6
 6679               	.LM914:
 6680 2340 AF9A      		sbi 53-32,7
 6681               	.LBE711:
 6682               	.LBE710:
 6683               	.LM915:
 6684 2342 81E0      		ldi r24,lo8(1)
 6685 2344 60E0      		ldi r22,lo8(0)
 6686 2346 0E94 0000 		call lcd_byte
 6687               	.LM916:
 6688 234a 2091 0000 		lds r18,irc
 6689 234e 3091 0000 		lds r19,(irc)+1
 6690 2352 87E0      		ldi r24,hi8(2001)
 6691 2354 213D      		cpi r18,lo8(2001)
 6692 2356 3807      		cpc r19,r24
 6693 2358 04F0      		brlt .L498
 6694               	.LM917:
 6695 235a 82E0      		ldi r24,lo8(2)
 6696 235c 90E0      		ldi r25,hi8(2)
 6697 235e 00C0      		rjmp .L520
 6698               	.L498:
 6699               	.LM918:
 6700 2360 81E0      		ldi r24,lo8(1)
 6701 2362 90E0      		ldi r25,hi8(1)
 6702               	.L520:
 6703 2364 9093 0000 		sts (Coordinates_changed_by)+1,r25
 6704 2368 8093 0000 		sts Coordinates_changed_by,r24
 6705               	.LM919:
 6706 236c 232B      		or r18,r19
 6707 236e 01F4      		brne .L500
 6708               	.LM920:
 6709 2370 1092 0000 		sts (Coordinates_changed_by)+1,__zero_reg__
 6710 2374 1092 0000 		sts Coordinates_changed_by,__zero_reg__
 6711               	.L500:
 6712               	.LM921:
 6713 2378 0E94 0000 		call update_coordinates
 6714               	.LM922:
 6715 237c 8091 0000 		lds r24,lcount
 6716 2380 9091 0000 		lds r25,(lcount)+1
 6717 2384 9093 0000 		sts (lcountPrev)+1,r25
 6718 2388 8093 0000 		sts lcountPrev,r24
 6719 238c 00C0      		rjmp .L501
 6720               	.L502:
 6721               	.LM923:
 6722 238e 0E94 0000 		call line_track_new
 6723               	.LM924:
 6724 2392 0E94 0000 		call left_count
 6725               	.L501:
 6726               	.LM925:
 6727 2396 8799      		sbic 48-32,7
 6728 2398 00C0      		rjmp .L502
 6729               	.LM926:
 6730 239a CE99      		sbic 57-32,6
 6731 239c 00C0      		rjmp .L517
 6732 239e 8699      		sbic 48-32,6
 6733 23a0 00C0      		rjmp .L517
 6734 23a2 CD99      		sbic 57-32,5
 6735 23a4 00C0      		rjmp .L517
 6736 23a6 CF99      		sbic 57-32,7
 6737 23a8 00C0      		rjmp .L517
 6738               	.LM927:
 6739 23aa 0E94 0000 		call end_zone
 6740 23ae 00C0      		rjmp .L517
 6741               	.L504:
 6742               	.LM928:
 6743 23b0 0E94 0000 		call line_track_new
 6744               	.LM929:
 6745 23b4 0E94 0000 		call left_count
 6746               	.L517:
 6747               	.LM930:
 6748 23b8 879B      		sbis 48-32,7
 6749 23ba 00C0      		rjmp .L504
 6750 23bc CC9B      		sbis 57-32,4
 6751 23be 00C0      		rjmp .L504
 6752 23c0 00C0      		rjmp .L523
 6753               	.L507:
 6754               	.LBB712:
 6755               	.LBB713:
 6756               	.LM931:
 6757 23c2 9BBD      		out (74)+1-32,r25
 6758 23c4 8ABD      		out 74-32,r24
 6759               	.LBE713:
 6760               	.LBE712:
 6761               	.LBB715:
 6762               	.LBB716:
 6763               	.LM932:
 6764 23c6 99BD      		out (72)+1-32,r25
 6765 23c8 88BD      		out 72-32,r24
 6766               	.LBE716:
 6767               	.LBE715:
 6768               	.LBB717:
 6769               	.LBB718:
 6770               	.LM933:
 6771 23ca AC98      		cbi 53-32,4
 6772               	.LM934:
 6773 23cc AD9A      		sbi 53-32,5
 6774               	.LM935:
 6775 23ce AE98      		cbi 53-32,6
 6776               	.LM936:
 6777 23d0 AF9A      		sbi 53-32,7
 6778 23d2 00C0      		rjmp .L519
 6779               	.L523:
 6780               	.LBE718:
 6781               	.LBE717:
 6782               	.LBB719:
 6783               	.LBB714:
 6784               	.LM937:
 6785 23d4 85EF      		ldi r24,lo8(245)
 6786 23d6 90E0      		ldi r25,hi8(245)
 6787               	.L519:
 6788               	.LBE714:
 6789               	.LBE719:
 6790               	.LM938:
 6791 23d8 879B      		sbis 48-32,7
 6792 23da 00C0      		rjmp .L506
 6793 23dc CC99      		sbic 57-32,4
 6794 23de 00C0      		rjmp .L507
 6795               	.L506:
 6796               	.LBB720:
 6797               	.LBB721:
 6798               	.LM939:
 6799 23e0 8FE8      		ldi r24,lo8(399)
 6800 23e2 91E0      		ldi r25,hi8(399)
 6801 23e4 9BBD      		out (74)+1-32,r25
 6802 23e6 8ABD      		out 74-32,r24
 6803               	.LBE721:
 6804               	.LBE720:
 6805               	.LBB722:
 6806               	.LBB723:
 6807               	.LM940:
 6808 23e8 99BD      		out (72)+1-32,r25
 6809 23ea 88BD      		out 72-32,r24
 6810               	.LBE723:
 6811               	.LBE722:
 6812               	.LBB724:
 6813               	.LBB725:
 6814               	.LM941:
 6815 23ec AC9A      		sbi 53-32,4
 6816               	.LM942:
 6817 23ee AD9A      		sbi 53-32,5
 6818               	.LM943:
 6819 23f0 AE9A      		sbi 53-32,6
 6820               	.LM944:
 6821 23f2 AF9A      		sbi 53-32,7
 6822               	.LBE725:
 6823               	.LBE724:
 6824               	.LM945:
 6825 23f4 81E0      		ldi r24,lo8(1)
 6826 23f6 60E0      		ldi r22,lo8(0)
 6827 23f8 0E94 0000 		call lcd_byte
 6828               	.LM946:
 6829 23fc 4091 0000 		lds r20,lcount
 6830 2400 5091 0000 		lds r21,(lcount)+1
 6831 2404 80E0      		ldi r24,lo8(0)
 6832 2406 90E0      		ldi r25,hi8(0)
 6833 2408 60E0      		ldi r22,lo8(0)
 6834 240a 70E0      		ldi r23,hi8(0)
 6835 240c 21E0      		ldi r18,lo8(1)
 6836 240e 30E0      		ldi r19,hi8(1)
 6837 2410 0E94 0000 		call lcd_write_int_xy
 6838               	.LM947:
 6839 2414 8091 0000 		lds r24,repeat
 6840 2418 9091 0000 		lds r25,(repeat)+1
 6841 241c 0397      		sbiw r24,3
 6842 241e 04F0      		brlt .+2
 6843 2420 00C0      		rjmp .L516
 6844               	.LM948:
 6845 2422 CE9B      		sbis 57-32,6
 6846 2424 00C0      		rjmp .L509
 6847 2426 8699      		sbic 48-32,6
 6848 2428 00C0      		rjmp .L510
 6849               	.L509:
 6850               	.LM949:
 6851 242a 81E0      		ldi r24,lo8(1)
 6852 242c 90E0      		ldi r25,hi8(1)
 6853 242e 9093 0000 		sts (straight)+1,r25
 6854 2432 8093 0000 		sts straight,r24
 6855 2436 00C0      		rjmp .L511
 6856               	.L510:
 6857               	.LM950:
 6858 2438 1092 0000 		sts (straight)+1,__zero_reg__
 6859 243c 1092 0000 		sts straight,__zero_reg__
 6860               	.L511:
 6861               	.LM951:
 6862 2440 0E94 0000 		call turn_right
 6863               	.LM952:
 6864 2444 1092 0000 		sts (l)+1,__zero_reg__
 6865 2448 1092 0000 		sts l,__zero_reg__
 6866               	.LBB726:
 6867               	.LBB727:
 6868               	.LM953:
 6869 244c AC9A      		sbi 53-32,4
 6870               	.LM954:
 6871 244e AD9A      		sbi 53-32,5
 6872               	.LM955:
 6873 2450 AE9A      		sbi 53-32,6
 6874               	.LM956:
 6875 2452 AF9A      		sbi 53-32,7
 6876               	.LBE727:
 6877               	.LBE726:
 6878               	.LM957:
 6879 2454 1092 0000 		sts (flag1)+1,__zero_reg__
 6880 2458 1092 0000 		sts flag1,__zero_reg__
 6881               	.LM958:
 6882 245c 1092 0000 		sts (irc)+1,__zero_reg__
 6883 2460 1092 0000 		sts irc,__zero_reg__
 6884               	.LM959:
 6885 2464 2091 0000 		lds r18,lcount
 6886 2468 3091 0000 		lds r19,(lcount)+1
 6887 246c 8091 0000 		lds r24,lcountPrev
 6888 2470 9091 0000 		lds r25,(lcountPrev)+1
 6889 2474 281B      		sub r18,r24
 6890 2476 390B      		sbc r19,r25
 6891 2478 3093 0000 		sts (temp)+1,r19
 6892 247c 2093 0000 		sts temp,r18
 6893               	.LM960:
 6894 2480 8091 0000 		lds r24,straight
 6895 2484 9091 0000 		lds r25,(straight)+1
 6896 2488 8130      		cpi r24,1
 6897 248a 9105      		cpc r25,__zero_reg__
 6898 248c 01F4      		brne .L512
 6899 248e 1216      		cp __zero_reg__,r18
 6900 2490 1306      		cpc __zero_reg__,r19
 6901 2492 04F0      		brlt .+2
 6902 2494 00C0      		rjmp .L513
 6903               	.LM961:
 6904 2496 80E0      		ldi r24,lo8(0)
 6905 2498 90E0      		ldi r25,hi8(0)
 6906 249a 61E0      		ldi r22,lo8(1)
 6907 249c 70E0      		ldi r23,hi8(1)
 6908 249e 40E0      		ldi r20,lo8(.LC9)
 6909 24a0 50E0      		ldi r21,hi8(.LC9)
 6910 24a2 0E94 0000 		call lcd_write_string_xy
 6911               	.LM962:
 6912 24a6 84E5      		ldi r24,lo8(84)
 6913 24a8 90E0      		ldi r25,hi8(84)
 6914 24aa 64E5      		ldi r22,lo8(84)
 6915 24ac 70E0      		ldi r23,hi8(84)
 6916 24ae 44E5      		ldi r20,lo8(84)
 6917 24b0 50E0      		ldi r21,hi8(84)
 6918 24b2 24E5      		ldi r18,lo8(84)
 6919 24b4 30E0      		ldi r19,hi8(84)
 6920 24b6 00C0      		rjmp .L521
 6921               	.L512:
 6922               	.LM963:
 6923 24b8 892B      		or r24,r25
 6924 24ba 01F0      		breq .+2
 6925 24bc 00C0      		rjmp .L514
 6926 24be 1216      		cp __zero_reg__,r18
 6927 24c0 1306      		cpc __zero_reg__,r19
 6928 24c2 04F4      		brge .L515
 6929               	.LM964:
 6930 24c4 80E0      		ldi r24,lo8(0)
 6931 24c6 90E0      		ldi r25,hi8(0)
 6932 24c8 61E0      		ldi r22,lo8(1)
 6933 24ca 70E0      		ldi r23,hi8(1)
 6934 24cc 40E0      		ldi r20,lo8(.LC11)
 6935 24ce 50E0      		ldi r21,hi8(.LC11)
 6936 24d0 0E94 0000 		call lcd_write_string_xy
 6937               	.LM965:
 6938 24d4 86E4      		ldi r24,lo8(70)
 6939 24d6 90E0      		ldi r25,hi8(70)
 6940 24d8 64E5      		ldi r22,lo8(84)
 6941 24da 70E0      		ldi r23,hi8(84)
 6942 24dc 44E5      		ldi r20,lo8(84)
 6943 24de 50E0      		ldi r21,hi8(84)
 6944 24e0 24E5      		ldi r18,lo8(84)
 6945 24e2 30E0      		ldi r19,hi8(84)
 6946 24e4 0E94 0000 		call update_array
 6947               	.LM966:
 6948 24e8 84E0      		ldi r24,lo8(4)
 6949 24ea 90E0      		ldi r25,hi8(4)
 6950 24ec 60E0      		ldi r22,lo8(0)
 6951 24ee 70E0      		ldi r23,hi8(0)
 6952 24f0 40E0      		ldi r20,lo8(.LC12)
 6953 24f2 50E0      		ldi r21,hi8(.LC12)
 6954 24f4 00C0      		rjmp .L522
 6955               	.L515:
 6956               	.LM967:
 6957 24f6 232B      		or r18,r19
 6958 24f8 01F4      		brne .L514
 6959               	.LM968:
 6960 24fa 80E0      		ldi r24,lo8(0)
 6961 24fc 90E0      		ldi r25,hi8(0)
 6962 24fe 61E0      		ldi r22,lo8(1)
 6963 2500 70E0      		ldi r23,hi8(1)
 6964 2502 40E0      		ldi r20,lo8(.LC13)
 6965 2504 50E0      		ldi r21,hi8(.LC13)
 6966 2506 0E94 0000 		call lcd_write_string_xy
 6967               	.LM969:
 6968 250a 86E4      		ldi r24,lo8(70)
 6969 250c 90E0      		ldi r25,hi8(70)
 6970 250e 64E5      		ldi r22,lo8(84)
 6971 2510 70E0      		ldi r23,hi8(84)
 6972 2512 44E5      		ldi r20,lo8(84)
 6973 2514 50E0      		ldi r21,hi8(84)
 6974 2516 26E4      		ldi r18,lo8(70)
 6975 2518 30E0      		ldi r19,hi8(70)
 6976 251a 0E94 0000 		call update_array
 6977               	.LM970:
 6978 251e 84E0      		ldi r24,lo8(4)
 6979 2520 90E0      		ldi r25,hi8(4)
 6980 2522 60E0      		ldi r22,lo8(0)
 6981 2524 70E0      		ldi r23,hi8(0)
 6982 2526 40E0      		ldi r20,lo8(.LC14)
 6983 2528 50E0      		ldi r21,hi8(.LC14)
 6984 252a 00C0      		rjmp .L522
 6985               	.L513:
 6986               	.LM971:
 6987 252c 232B      		or r18,r19
 6988 252e 01F4      		brne .L514
 6989               	.LM972:
 6990 2530 80E0      		ldi r24,lo8(0)
 6991 2532 90E0      		ldi r25,hi8(0)
 6992 2534 61E0      		ldi r22,lo8(1)
 6993 2536 70E0      		ldi r23,hi8(1)
 6994 2538 40E0      		ldi r20,lo8(.LC15)
 6995 253a 50E0      		ldi r21,hi8(.LC15)
 6996 253c 0E94 0000 		call lcd_write_string_xy
 6997               	.LM973:
 6998 2540 84E5      		ldi r24,lo8(84)
 6999 2542 90E0      		ldi r25,hi8(84)
 7000 2544 64E5      		ldi r22,lo8(84)
 7001 2546 70E0      		ldi r23,hi8(84)
 7002 2548 44E5      		ldi r20,lo8(84)
 7003 254a 50E0      		ldi r21,hi8(84)
 7004 254c 26E4      		ldi r18,lo8(70)
 7005 254e 30E0      		ldi r19,hi8(70)
 7006               	.L521:
 7007 2550 0E94 0000 		call update_array
 7008               	.LM974:
 7009 2554 84E0      		ldi r24,lo8(4)
 7010 2556 90E0      		ldi r25,hi8(4)
 7011 2558 60E0      		ldi r22,lo8(0)
 7012 255a 70E0      		ldi r23,hi8(0)
 7013 255c 40E0      		ldi r20,lo8(.LC10)
 7014 255e 50E0      		ldi r21,hi8(.LC10)
 7015               	.L522:
 7016 2560 0E94 0000 		call lcd_write_string_xy
 7017               	.L514:
 7018               	.LM975:
 7019 2564 1092 0000 		sts (temp)+1,__zero_reg__
 7020 2568 1092 0000 		sts temp,__zero_reg__
 7021               	.LM976:
 7022 256c 0E94 0000 		call sense_of_directon
 7023               	.L516:
 7024 2570 0895      		ret
 7025               	.LFE61:
 7027               		.data
 7028               	.LC16:
 7029 008b 4433 2066 		.string	"D3 for dry run"
 7029      6F72 2064 
 7029      7279 2072 
 7029      756E 00
 7030               	.LC17:
 7031 009a 4430 2066 		.string	"D0 for Stst path"
 7031      6F72 2053 
 7031      7473 7420 
 7031      7061 7468 
 7031      00
 7032               		.text
 7033               	.global	main
 7035               	main:
 7036               	.LFB78:
 7037               	.LM977:
 7038 2572 EF92      		push r14
 7039 2574 FF92      		push r15
 7040 2576 0F93      		push r16
 7041 2578 1F93      		push r17
 7042 257a CF93      		push r28
 7043 257c DF93      		push r29
 7044               	/* prologue: function */
 7045               	/* frame size = 0 */
 7046               	.LM978:
 7047 257e 0E94 0000 		call init_devices
 7048               	.LM979:
 7049 2582 81E0      		ldi r24,lo8(1)
 7050 2584 60E0      		ldi r22,lo8(0)
 7051 2586 0E94 0000 		call lcd_byte
 7052 258a 20E0      		ldi r18,lo8(0)
 7053 258c 30E0      		ldi r19,hi8(0)
 7054               	.LVL204:
 7055               	.LM980:
 7056 258e 46E4      		ldi r20,lo8(70)
 7057 2590 00C0      		rjmp .L525
 7058               	.LVL205:
 7059               	.L526:
 7060 2592 4083      		st Z,r20
 7061 2594 4183      		std Z+1,r20
 7062 2596 4283      		std Z+2,r20
 7063 2598 4383      		std Z+3,r20
 7064               	.LM981:
 7065 259a 0196      		adiw r24,1
 7066 259c 3496      		adiw r30,4
 7067 259e 8031      		cpi r24,16
 7068 25a0 9105      		cpc r25,__zero_reg__
 7069 25a2 01F4      		brne .L526
 7070               	.LM982:
 7071 25a4 2F5F      		subi r18,lo8(-(1))
 7072 25a6 3F4F      		sbci r19,hi8(-(1))
 7073 25a8 2031      		cpi r18,16
 7074 25aa 3105      		cpc r19,__zero_reg__
 7075 25ac 01F0      		breq .L527
 7076               	.L525:
 7077 25ae F901      		movw r30,r18
 7078 25b0 66E0      		ldi r22,6
 7079 25b2 EE0F      	1:	lsl r30
 7080 25b4 FF1F      		rol r31
 7081 25b6 6A95      		dec r22
 7082 25b8 01F4      		brne 1b
 7083 25ba E050      		subi r30,lo8(-(dir_array))
 7084 25bc F040      		sbci r31,hi8(-(dir_array))
 7085 25be 80E0      		ldi r24,lo8(0)
 7086 25c0 90E0      		ldi r25,hi8(0)
 7087 25c2 00C0      		rjmp .L526
 7088               	.L527:
 7089               	.LM983:
 7090 25c4 81E0      		ldi r24,lo8(1)
 7091               	.LVL206:
 7092 25c6 60E0      		ldi r22,lo8(0)
 7093 25c8 0E94 0000 		call lcd_byte
 7094               	.LVL207:
 7095               	.LM984:
 7096 25cc 80E0      		ldi r24,lo8(.LC16)
 7097 25ce 90E0      		ldi r25,hi8(.LC16)
 7098 25d0 0E94 0000 		call lcd_write_string
 7099               	.LM985:
 7100 25d4 80E0      		ldi r24,lo8(0)
 7101 25d6 90E0      		ldi r25,hi8(0)
 7102 25d8 61E0      		ldi r22,lo8(1)
 7103 25da 70E0      		ldi r23,hi8(1)
 7104 25dc 40E0      		ldi r20,lo8(.LC17)
 7105 25de 50E0      		ldi r21,hi8(.LC17)
 7106 25e0 0E94 0000 		call lcd_write_string_xy
 7107               	.LM986:
 7108 25e4 84E5      		ldi r24,lo8(84)
 7109 25e6 66E4      		ldi r22,lo8(70)
 7110 25e8 46E4      		ldi r20,lo8(70)
 7111 25ea 26E4      		ldi r18,lo8(70)
 7112 25ec 0E94 0000 		call update_array
 7113               	.L556:
 7114               	.LBB728:
 7115               	.LBB729:
 7116               	.LM987:
 7117 25f0 8399      		sbic 48-32,3
 7118 25f2 00C0      		rjmp .L528
 7119               	.L557:
 7120               	.LBE729:
 7121               	.LBE728:
 7122               	.LM988:
 7123 25f4 1092 0000 		sts (repeat)+1,__zero_reg__
 7124 25f8 1092 0000 		sts repeat,__zero_reg__
 7125 25fc 00C0      		rjmp .L529
 7126               	.L531:
 7127               	.LM989:
 7128 25fe 0E94 0000 		call line_track_new
 7129               	.LM990:
 7130 2602 85B3      		in r24,53-32
 7131 2604 807F      		andi r24,lo8(-16)
 7132 2606 85BB      		out 53-32,r24
 7133               	.LM991:
 7134 2608 85B3      		in r24,53-32
 7135 260a 9091 0000 		lds r25,sensorbyte
 7136 260e 892B      		or r24,r25
 7137 2610 85BB      		out 53-32,r24
 7138               	.LM992:
 7139 2612 CF99      		sbic 57-32,7
 7140 2614 00C0      		rjmp .L530
 7141               	.LM993:
 7142 2616 0E94 0000 		call right_junc_check
 7143               	.L530:
 7144               	.LM994:
 7145 261a 0E94 0000 		call left_junc_check
 7146               	.LM995:
 7147 261e 0E94 0000 		call frSensorCheck
 7148               	.LM996:
 7149 2622 8091 0000 		lds r24,irc
 7150 2626 9091 0000 		lds r25,(irc)+1
 7151 262a 0196      		adiw r24,1
 7152 262c 9093 0000 		sts (irc)+1,r25
 7153 2630 8093 0000 		sts irc,r24
 7154               	.L529:
 7155               	.LM997:
 7156 2634 8091 0000 		lds r24,repeat
 7157 2638 9091 0000 		lds r25,(repeat)+1
 7158 263c 0397      		sbiw r24,3
 7159 263e 04F0      		brlt .L531
 7160               	.LBB730:
 7161               	.LBB731:
 7162               	.LM998:
 7163 2640 AC9A      		sbi 53-32,4
 7164               	.LM999:
 7165 2642 AD9A      		sbi 53-32,5
 7166               	.LM1000:
 7167 2644 AE9A      		sbi 53-32,6
 7168               	.LM1001:
 7169 2646 AF9A      		sbi 53-32,7
 7170               	.LBE731:
 7171               	.LBE730:
 7172               	.LM1002:
 7173 2648 0E94 0000 		call fill_missed_array
 7174               	.LM1003:
 7175 264c 1092 0000 		sts (mx)+1,__zero_reg__
 7176 2650 1092 0000 		sts mx,__zero_reg__
 7177               	.LM1004:
 7178 2654 1092 0000 		sts (my)+1,__zero_reg__
 7179 2658 1092 0000 		sts my,__zero_reg__
 7180               	.LM1005:
 7181 265c 0E94 0000 		call coordinates_tobe_reached
 7182               	.LM1006:
 7183 2660 6091 0000 		lds r22,y_coordinate
 7184 2664 7091 0000 		lds r23,(y_coordinate)+1
 7185 2668 4091 0000 		lds r20,mx
 7186 266c 5091 0000 		lds r21,(mx)+1
 7187 2670 2091 0000 		lds r18,my
 7188 2674 3091 0000 		lds r19,(my)+1
 7189 2678 8091 0000 		lds r24,x_coordinate
 7190 267c 9091 0000 		lds r25,(x_coordinate)+1
 7191 2680 0E94 0000 		call build_map
 7192               	.LM1007:
 7193 2684 0E94 0000 		call get_path
 7194               	.LM1008:
 7195 2688 1092 0000 		sts (right)+1,__zero_reg__
 7196 268c 1092 0000 		sts right,__zero_reg__
 7197               	.LM1009:
 7198 2690 0E94 0000 		call print_path
 7199 2694 C0E0      		ldi r28,lo8(path_array)
 7200 2696 D0E0      		ldi r29,hi8(path_array)
 7201               	.L534:
 7202               	.LBB732:
 7203               	.LM1010:
 7204 2698 2881      		ld r18,Y
 7205 269a 3981      		ldd r19,Y+1
 7206 269c 2115      		cp r18,__zero_reg__
 7207 269e 3105      		cpc r19,__zero_reg__
 7208 26a0 01F4      		brne .L532
 7209 26a2 8A81      		ldd r24,Y+2
 7210 26a4 9B81      		ldd r25,Y+3
 7211 26a6 892B      		or r24,r25
 7212 26a8 01F0      		breq .L533
 7213               	.L532:
 7214               	.LM1011:
 7215 26aa 6A81      		ldd r22,Y+2
 7216 26ac 7B81      		ldd r23,Y+3
 7217 26ae C901      		movw r24,r18
 7218 26b0 0E94 0000 		call go_to_coordinate
 7219 26b4 2496      		adiw r28,4
 7220               	.LM1012:
 7221 26b6 80E0      		ldi r24,hi8(path_array+60)
 7222 26b8 C030      		cpi r28,lo8(path_array+60)
 7223 26ba D807      		cpc r29,r24
 7224 26bc 01F4      		brne .L534
 7225               	.L533:
 7226               	.LBE732:
 7227               	.LM1013:
 7228 26be 0091 0000 		lds r16,x_coordinate
 7229 26c2 1091 0000 		lds r17,(x_coordinate)+1
 7230 26c6 C091 0000 		lds r28,y_coordinate
 7231 26ca D091 0000 		lds r29,(y_coordinate)+1
 7232 26ce F801      		movw r30,r16
 7233 26d0 54E0      		ldi r21,4
 7234 26d2 EE0F      	1:	lsl r30
 7235 26d4 FF1F      		rol r31
 7236 26d6 5A95      		dec r21
 7237 26d8 01F4      		brne 1b
 7238 26da EC0F      		add r30,r28
 7239 26dc FD1F      		adc r31,r29
 7240 26de EE0F      		lsl r30
 7241 26e0 FF1F      		rol r31
 7242 26e2 EE0F      		lsl r30
 7243 26e4 FF1F      		rol r31
 7244 26e6 E050      		subi r30,lo8(-(dir_array))
 7245 26e8 F040      		sbci r31,hi8(-(dir_array))
 7246 26ea 8081      		ld r24,Z
 7247 26ec 8435      		cpi r24,lo8(84)
 7248 26ee 01F4      		brne .L535
 7249 26f0 BE01      		movw r22,r28
 7250 26f2 6F5F      		subi r22,lo8(-(1))
 7251 26f4 7F4F      		sbci r23,hi8(-(1))
 7252 26f6 C801      		movw r24,r16
 7253 26f8 0E94 0000 		call is_coordinate_null
 7254 26fc 892B      		or r24,r25
 7255 26fe 01F0      		breq .L535
 7256               	.LM1014:
 7257 2700 82E0      		ldi r24,lo8(2)
 7258 2702 90E0      		ldi r25,hi8(2)
 7259 2704 00C0      		rjmp .L558
 7260               	.L535:
 7261               	.LM1015:
 7262 2706 F801      		movw r30,r16
 7263 2708 34E0      		ldi r19,4
 7264 270a EE0F      	1:	lsl r30
 7265 270c FF1F      		rol r31
 7266 270e 3A95      		dec r19
 7267 2710 01F4      		brne 1b
 7268 2712 EC0F      		add r30,r28
 7269 2714 FD1F      		adc r31,r29
 7270 2716 EE0F      		lsl r30
 7271 2718 FF1F      		rol r31
 7272 271a EE0F      		lsl r30
 7273 271c FF1F      		rol r31
 7274 271e E050      		subi r30,lo8(-(dir_array))
 7275 2720 F040      		sbci r31,hi8(-(dir_array))
 7276 2722 8181      		ldd r24,Z+1
 7277 2724 8435      		cpi r24,lo8(84)
 7278 2726 01F4      		brne .L537
 7279 2728 C801      		movw r24,r16
 7280 272a 0196      		adiw r24,1
 7281 272c BE01      		movw r22,r28
 7282 272e 0E94 0000 		call is_coordinate_null
 7283 2732 892B      		or r24,r25
 7284 2734 01F0      		breq .L537
 7285               	.LM1016:
 7286 2736 81E0      		ldi r24,lo8(1)
 7287 2738 90E0      		ldi r25,hi8(1)
 7288 273a 00C0      		rjmp .L558
 7289               	.L537:
 7290               	.LM1017:
 7291 273c F801      		movw r30,r16
 7292 273e 94E0      		ldi r25,4
 7293 2740 EE0F      	1:	lsl r30
 7294 2742 FF1F      		rol r31
 7295 2744 9A95      		dec r25
 7296 2746 01F4      		brne 1b
 7297 2748 EC0F      		add r30,r28
 7298 274a FD1F      		adc r31,r29
 7299 274c EE0F      		lsl r30
 7300 274e FF1F      		rol r31
 7301 2750 EE0F      		lsl r30
 7302 2752 FF1F      		rol r31
 7303 2754 E050      		subi r30,lo8(-(dir_array+2))
 7304 2756 F040      		sbci r31,hi8(-(dir_array+2))
 7305 2758 8081      		ld r24,Z
 7306 275a 8435      		cpi r24,lo8(84)
 7307 275c 01F4      		brne .L538
 7308 275e BE01      		movw r22,r28
 7309 2760 6150      		subi r22,lo8(-(-1))
 7310 2762 7040      		sbci r23,hi8(-(-1))
 7311 2764 C801      		movw r24,r16
 7312 2766 0E94 0000 		call is_coordinate_null
 7313 276a 892B      		or r24,r25
 7314 276c 01F0      		breq .L538
 7315               	.LM1018:
 7316 276e 8EEF      		ldi r24,lo8(-2)
 7317 2770 9FEF      		ldi r25,hi8(-2)
 7318 2772 00C0      		rjmp .L558
 7319               	.L538:
 7320               	.LM1019:
 7321 2774 F801      		movw r30,r16
 7322 2776 B4E0      		ldi r27,4
 7323 2778 EE0F      	1:	lsl r30
 7324 277a FF1F      		rol r31
 7325 277c BA95      		dec r27
 7326 277e 01F4      		brne 1b
 7327 2780 EC0F      		add r30,r28
 7328 2782 FD1F      		adc r31,r29
 7329 2784 EE0F      		lsl r30
 7330 2786 FF1F      		rol r31
 7331 2788 EE0F      		lsl r30
 7332 278a FF1F      		rol r31
 7333 278c E050      		subi r30,lo8(-(dir_array))
 7334 278e F040      		sbci r31,hi8(-(dir_array))
 7335 2790 8381      		ldd r24,Z+3
 7336 2792 8435      		cpi r24,lo8(84)
 7337 2794 01F4      		brne .L554
 7338 2796 C801      		movw r24,r16
 7339 2798 0197      		sbiw r24,1
 7340 279a BE01      		movw r22,r28
 7341 279c 0E94 0000 		call is_coordinate_null
 7342 27a0 892B      		or r24,r25
 7343 27a2 01F0      		breq .L554
 7344               	.LM1020:
 7345 27a4 8FEF      		ldi r24,lo8(-1)
 7346 27a6 9FEF      		ldi r25,hi8(-1)
 7347               	.L558:
 7348 27a8 0E94 0000 		call checkAndCorrectDirection
 7349 27ac 00C0      		rjmp .L554
 7350               	.L539:
 7351               	.LM1021:
 7352 27ae 0E94 0000 		call line_track_new
 7353               	.L554:
 7354               	.LM1022:
 7355 27b2 CC9B      		sbis 57-32,4
 7356 27b4 00C0      		rjmp .L539
 7357 27b6 879B      		sbis 48-32,7
 7358 27b8 00C0      		rjmp .L539
 7359               	.LBB733:
 7360               	.LBB734:
 7361               	.LM1023:
 7362 27ba AC9A      		sbi 53-32,4
 7363               	.LM1024:
 7364 27bc AD9A      		sbi 53-32,5
 7365               	.LM1025:
 7366 27be AE9A      		sbi 53-32,6
 7367               	.LM1026:
 7368 27c0 AF9A      		sbi 53-32,7
 7369               	.LBE734:
 7370               	.LBE733:
 7371               	.LM1027:
 7372 27c2 1092 0000 		sts (Coordinates_changed_by)+1,__zero_reg__
 7373 27c6 1092 0000 		sts Coordinates_changed_by,__zero_reg__
 7374               	.LM1028:
 7375 27ca 1092 0000 		sts (irc)+1,__zero_reg__
 7376 27ce 1092 0000 		sts irc,__zero_reg__
 7377               	.LM1029:
 7378 27d2 1092 0000 		sts (special_flag)+1,__zero_reg__
 7379 27d6 1092 0000 		sts special_flag,__zero_reg__
 7380 27da 00C0      		rjmp .L557
 7381               	.L541:
 7382               	.LBB735:
 7383               	.LBB739:
 7384               	.LM1030:
 7385 27dc CE01      		movw r24,r28
 7386 27de 0E94 0000 		call __eerd_word_m32
 7387 27e2 F801      		movw r30,r16
 7388 27e4 9183      		std Z+1,r25
 7389 27e6 8083      		st Z,r24
 7390               	.LM1031:
 7391 27e8 CE01      		movw r24,r28
 7392 27ea 0296      		adiw r24,2
 7393 27ec 0E94 0000 		call __eerd_word_m32
 7394 27f0 F801      		movw r30,r16
 7395 27f2 9383      		std Z+3,r25
 7396 27f4 8283      		std Z+2,r24
 7397 27f6 2496      		adiw r28,4
 7398 27f8 0C5F      		subi r16,lo8(-(4))
 7399 27fa 1F4F      		sbci r17,hi8(-(4))
 7400               	.LM1032:
 7401 27fc CC33      		cpi r28,60
 7402 27fe D105      		cpc r29,__zero_reg__
 7403 2800 01F4      		brne .L541
 7404               	.LBE739:
 7405               	.LM1033:
 7406 2802 81E0      		ldi r24,lo8(1)
 7407 2804 60E0      		ldi r22,lo8(0)
 7408 2806 0E94 0000 		call lcd_byte
 7409               	.LM1034:
 7410 280a 4091 0000 		lds r20,path_array
 7411 280e 5091 0000 		lds r21,(path_array)+1
 7412 2812 80E0      		ldi r24,lo8(0)
 7413 2814 90E0      		ldi r25,hi8(0)
 7414 2816 60E0      		ldi r22,lo8(0)
 7415 2818 70E0      		ldi r23,hi8(0)
 7416 281a 21E0      		ldi r18,lo8(1)
 7417 281c 30E0      		ldi r19,hi8(1)
 7418 281e 0E94 0000 		call lcd_write_int_xy
 7419               	.LM1035:
 7420 2822 4091 0000 		lds r20,path_array+2
 7421 2826 5091 0000 		lds r21,(path_array+2)+1
 7422 282a 81E0      		ldi r24,lo8(1)
 7423 282c 90E0      		ldi r25,hi8(1)
 7424 282e 60E0      		ldi r22,lo8(0)
 7425 2830 70E0      		ldi r23,hi8(0)
 7426 2832 21E0      		ldi r18,lo8(1)
 7427 2834 30E0      		ldi r19,hi8(1)
 7428 2836 0E94 0000 		call lcd_write_int_xy
 7429               	.LM1036:
 7430 283a 4091 0000 		lds r20,path_array+4
 7431 283e 5091 0000 		lds r21,(path_array+4)+1
 7432 2842 83E0      		ldi r24,lo8(3)
 7433 2844 90E0      		ldi r25,hi8(3)
 7434 2846 60E0      		ldi r22,lo8(0)
 7435 2848 70E0      		ldi r23,hi8(0)
 7436 284a 21E0      		ldi r18,lo8(1)
 7437 284c 30E0      		ldi r19,hi8(1)
 7438 284e 0E94 0000 		call lcd_write_int_xy
 7439               	.LM1037:
 7440 2852 4091 0000 		lds r20,path_array+6
 7441 2856 5091 0000 		lds r21,(path_array+6)+1
 7442 285a 84E0      		ldi r24,lo8(4)
 7443 285c 90E0      		ldi r25,hi8(4)
 7444 285e 60E0      		ldi r22,lo8(0)
 7445 2860 70E0      		ldi r23,hi8(0)
 7446 2862 21E0      		ldi r18,lo8(1)
 7447 2864 30E0      		ldi r19,hi8(1)
 7448 2866 0E94 0000 		call lcd_write_int_xy
 7449               	.LM1038:
 7450 286a 4091 0000 		lds r20,path_array+8
 7451 286e 5091 0000 		lds r21,(path_array+8)+1
 7452 2872 86E0      		ldi r24,lo8(6)
 7453 2874 90E0      		ldi r25,hi8(6)
 7454 2876 60E0      		ldi r22,lo8(0)
 7455 2878 70E0      		ldi r23,hi8(0)
 7456 287a 21E0      		ldi r18,lo8(1)
 7457 287c 30E0      		ldi r19,hi8(1)
 7458 287e 0E94 0000 		call lcd_write_int_xy
 7459               	.LM1039:
 7460 2882 4091 0000 		lds r20,path_array+10
 7461 2886 5091 0000 		lds r21,(path_array+10)+1
 7462 288a 87E0      		ldi r24,lo8(7)
 7463 288c 90E0      		ldi r25,hi8(7)
 7464 288e 60E0      		ldi r22,lo8(0)
 7465 2890 70E0      		ldi r23,hi8(0)
 7466 2892 21E0      		ldi r18,lo8(1)
 7467 2894 30E0      		ldi r19,hi8(1)
 7468 2896 0E94 0000 		call lcd_write_int_xy
 7469               	.LM1040:
 7470 289a 4091 0000 		lds r20,path_array+12
 7471 289e 5091 0000 		lds r21,(path_array+12)+1
 7472 28a2 89E0      		ldi r24,lo8(9)
 7473 28a4 90E0      		ldi r25,hi8(9)
 7474 28a6 60E0      		ldi r22,lo8(0)
 7475 28a8 70E0      		ldi r23,hi8(0)
 7476 28aa 21E0      		ldi r18,lo8(1)
 7477 28ac 30E0      		ldi r19,hi8(1)
 7478 28ae 0E94 0000 		call lcd_write_int_xy
 7479               	.LM1041:
 7480 28b2 4091 0000 		lds r20,path_array+14
 7481 28b6 5091 0000 		lds r21,(path_array+14)+1
 7482 28ba 8AE0      		ldi r24,lo8(10)
 7483 28bc 90E0      		ldi r25,hi8(10)
 7484 28be 60E0      		ldi r22,lo8(0)
 7485 28c0 70E0      		ldi r23,hi8(0)
 7486 28c2 21E0      		ldi r18,lo8(1)
 7487 28c4 30E0      		ldi r19,hi8(1)
 7488 28c6 0E94 0000 		call lcd_write_int_xy
 7489               	.LM1042:
 7490 28ca 4091 0000 		lds r20,path_array+16
 7491 28ce 5091 0000 		lds r21,(path_array+16)+1
 7492 28d2 8CE0      		ldi r24,lo8(12)
 7493 28d4 90E0      		ldi r25,hi8(12)
 7494 28d6 60E0      		ldi r22,lo8(0)
 7495 28d8 70E0      		ldi r23,hi8(0)
 7496 28da 21E0      		ldi r18,lo8(1)
 7497 28dc 30E0      		ldi r19,hi8(1)
 7498 28de 0E94 0000 		call lcd_write_int_xy
 7499               	.LM1043:
 7500 28e2 4091 0000 		lds r20,path_array+18
 7501 28e6 5091 0000 		lds r21,(path_array+18)+1
 7502 28ea 8DE0      		ldi r24,lo8(13)
 7503 28ec 90E0      		ldi r25,hi8(13)
 7504 28ee 60E0      		ldi r22,lo8(0)
 7505 28f0 70E0      		ldi r23,hi8(0)
 7506 28f2 21E0      		ldi r18,lo8(1)
 7507 28f4 30E0      		ldi r19,hi8(1)
 7508 28f6 0E94 0000 		call lcd_write_int_xy
 7509               	.LM1044:
 7510 28fa 4091 0000 		lds r20,path_array+20
 7511 28fe 5091 0000 		lds r21,(path_array+20)+1
 7512 2902 80E0      		ldi r24,lo8(0)
 7513 2904 90E0      		ldi r25,hi8(0)
 7514 2906 61E0      		ldi r22,lo8(1)
 7515 2908 70E0      		ldi r23,hi8(1)
 7516 290a 21E0      		ldi r18,lo8(1)
 7517 290c 30E0      		ldi r19,hi8(1)
 7518 290e 0E94 0000 		call lcd_write_int_xy
 7519               	.LM1045:
 7520 2912 4091 0000 		lds r20,path_array+22
 7521 2916 5091 0000 		lds r21,(path_array+22)+1
 7522 291a 81E0      		ldi r24,lo8(1)
 7523 291c 90E0      		ldi r25,hi8(1)
 7524 291e 61E0      		ldi r22,lo8(1)
 7525 2920 70E0      		ldi r23,hi8(1)
 7526 2922 21E0      		ldi r18,lo8(1)
 7527 2924 30E0      		ldi r19,hi8(1)
 7528 2926 0E94 0000 		call lcd_write_int_xy
 7529               	.L547:
 7530               	.LBB737:
 7531               	.LBB738:
 7532               	.LM1046:
 7533 292a 8299      		sbic 48-32,2
 7534 292c 00C0      		rjmp .L542
 7535               	.L546:
 7536               	.LBE738:
 7537               	.LBE737:
 7538               	.LM1047:
 7539 292e 81E0      		ldi r24,lo8(1)
 7540 2930 60E0      		ldi r22,lo8(0)
 7541 2932 0E94 0000 		call lcd_byte
 7542               	.LM1048:
 7543 2936 81E0      		ldi r24,lo8(1)
 7544 2938 90E0      		ldi r25,hi8(1)
 7545 293a 0E94 0000 		call delay_sec
 7546               	.L545:
 7547               	.LBB736:
 7548               	.LM1049:
 7549 293e F701      		movw r30,r14
 7550 2940 2081      		ld r18,Z
 7551 2942 3181      		ldd r19,Z+1
 7552 2944 2115      		cp r18,__zero_reg__
 7553 2946 3105      		cpc r19,__zero_reg__
 7554 2948 01F4      		brne .L543
 7555 294a 8281      		ldd r24,Z+2
 7556 294c 9381      		ldd r25,Z+3
 7557 294e 892B      		or r24,r25
 7558 2950 01F4      		brne .+2
 7559 2952 00C0      		rjmp .L556
 7560               	.L543:
 7561               	.LM1050:
 7562 2954 F701      		movw r30,r14
 7563 2956 6281      		ldd r22,Z+2
 7564 2958 7381      		ldd r23,Z+3
 7565 295a C901      		movw r24,r18
 7566 295c 0E94 0000 		call go_to_coordinate
 7567 2960 84E0      		ldi r24,lo8(4)
 7568 2962 90E0      		ldi r25,hi8(4)
 7569 2964 E80E      		add r14,r24
 7570 2966 F91E      		adc r15,r25
 7571               	.LM1051:
 7572 2968 90E0      		ldi r25,lo8(path_array+60)
 7573 296a E916      		cp r14,r25
 7574 296c 90E0      		ldi r25,hi8(path_array+60)
 7575 296e F906      		cpc r15,r25
 7576 2970 01F4      		brne .L545
 7577 2972 00C0      		rjmp .L556
 7578               	.L528:
 7579               	.LBE736:
 7580               	.LBE735:
 7581               	.LBB746:
 7582               	.LBB747:
 7583               	.LM1052:
 7584 2974 8099      		sbic 48-32,0
 7585 2976 00C0      		rjmp .L556
 7586 2978 70E0      		ldi r23,lo8(path_array)
 7587 297a E72E      		mov r14,r23
 7588 297c 70E0      		ldi r23,hi8(path_array)
 7589 297e F72E      		mov r15,r23
 7590 2980 8701      		movw r16,r14
 7591 2982 C0E0      		ldi r28,lo8(0)
 7592 2984 D0E0      		ldi r29,hi8(0)
 7593 2986 00C0      		rjmp .L541
 7594               	.L542:
 7595               	.LBE747:
 7596               	.LBE746:
 7597               	.LBB748:
 7598               	.LBB740:
 7599               	.LBB741:
 7600 2988 809B      		sbis 48-32,0
 7601 298a 00C0      		rjmp .L546
 7602               	.LBE741:
 7603               	.LBE740:
 7604               	.LBB742:
 7605               	.LBB743:
 7606               	.LM1053:
 7607 298c 819B      		sbis 48-32,1
 7608 298e 00C0      		rjmp .L546
 7609               	.LBE743:
 7610               	.LBE742:
 7611               	.LBB744:
 7612               	.LBB745:
 7613               	.LM1054:
 7614 2990 839B      		sbis 48-32,3
 7615 2992 00C0      		rjmp .L546
 7616 2994 00C0      		rjmp .L547
 7617               	.LBE745:
 7618               	.LBE744:
 7619               	.LBE748:
 7620               	.LFE78:
 7622               	.global	map_all
 7624               	map_all:
 7625               	.LFB75:
 7626               	.LM1055:
 7627 2996 EF92      		push r14
 7628 2998 FF92      		push r15
 7629 299a 0F93      		push r16
 7630 299c 1F93      		push r17
 7631 299e CF93      		push r28
 7632 29a0 DF93      		push r29
 7633               	/* prologue: function */
 7634               	/* frame size = 0 */
 7635               	.LBB749:
 7636               	.LBB750:
 7637               	.LM1056:
 7638 29a2 5FE8      		ldi r21,lo8(399)
 7639 29a4 E52E      		mov r14,r21
 7640 29a6 51E0      		ldi r21,hi8(399)
 7641 29a8 F52E      		mov r15,r21
 7642               	.L577:
 7643               	.LBE750:
 7644               	.LBE749:
 7645               	.LBB752:
 7646               	.LBB753:
 7647               	.LM1057:
 7648 29aa AC9A      		sbi 53-32,4
 7649               	.LM1058:
 7650 29ac AD9A      		sbi 53-32,5
 7651               	.LM1059:
 7652 29ae AE9A      		sbi 53-32,6
 7653               	.LM1060:
 7654 29b0 AF9A      		sbi 53-32,7
 7655               	.LBE753:
 7656               	.LBE752:
 7657               	.LM1061:
 7658 29b2 6091 0000 		lds r22,y_coordinate
 7659 29b6 7091 0000 		lds r23,(y_coordinate)+1
 7660 29ba 4091 0000 		lds r20,mx
 7661 29be 5091 0000 		lds r21,(mx)+1
 7662 29c2 2091 0000 		lds r18,my
 7663 29c6 3091 0000 		lds r19,(my)+1
 7664 29ca 8091 0000 		lds r24,x_coordinate
 7665 29ce 9091 0000 		lds r25,(x_coordinate)+1
 7666 29d2 0E94 0000 		call build_map
 7667               	.LM1062:
 7668 29d6 0E94 0000 		call get_path
 7669               	.LM1063:
 7670 29da 1092 0000 		sts (right)+1,__zero_reg__
 7671 29de 1092 0000 		sts right,__zero_reg__
 7672               	.LM1064:
 7673 29e2 0E94 0000 		call print_path
 7674 29e6 C0E0      		ldi r28,lo8(path_array)
 7675 29e8 D0E0      		ldi r29,hi8(path_array)
 7676               	.L562:
 7677               	.LBB754:
 7678               	.LM1065:
 7679 29ea 2881      		ld r18,Y
 7680 29ec 3981      		ldd r19,Y+1
 7681 29ee 2115      		cp r18,__zero_reg__
 7682 29f0 3105      		cpc r19,__zero_reg__
 7683 29f2 01F4      		brne .L560
 7684 29f4 8A81      		ldd r24,Y+2
 7685 29f6 9B81      		ldd r25,Y+3
 7686 29f8 892B      		or r24,r25
 7687 29fa 01F0      		breq .L561
 7688               	.L560:
 7689               	.LM1066:
 7690 29fc 6A81      		ldd r22,Y+2
 7691 29fe 7B81      		ldd r23,Y+3
 7692 2a00 C901      		movw r24,r18
 7693 2a02 0E94 0000 		call go_to_coordinate
 7694 2a06 2496      		adiw r28,4
 7695               	.LM1067:
 7696 2a08 80E0      		ldi r24,hi8(path_array+60)
 7697 2a0a C030      		cpi r28,lo8(path_array+60)
 7698 2a0c D807      		cpc r29,r24
 7699 2a0e 01F4      		brne .L562
 7700               	.L561:
 7701               	.LBE754:
 7702               	.LM1068:
 7703 2a10 0091 0000 		lds r16,x_coordinate
 7704 2a14 1091 0000 		lds r17,(x_coordinate)+1
 7705 2a18 C091 0000 		lds r28,y_coordinate
 7706 2a1c D091 0000 		lds r29,(y_coordinate)+1
 7707 2a20 F801      		movw r30,r16
 7708 2a22 44E0      		ldi r20,4
 7709 2a24 EE0F      	1:	lsl r30
 7710 2a26 FF1F      		rol r31
 7711 2a28 4A95      		dec r20
 7712 2a2a 01F4      		brne 1b
 7713 2a2c EC0F      		add r30,r28
 7714 2a2e FD1F      		adc r31,r29
 7715 2a30 EE0F      		lsl r30
 7716 2a32 FF1F      		rol r31
 7717 2a34 EE0F      		lsl r30
 7718 2a36 FF1F      		rol r31
 7719 2a38 E050      		subi r30,lo8(-(dir_array))
 7720 2a3a F040      		sbci r31,hi8(-(dir_array))
 7721 2a3c 8081      		ld r24,Z
 7722 2a3e 8435      		cpi r24,lo8(84)
 7723 2a40 01F4      		brne .L563
 7724 2a42 BE01      		movw r22,r28
 7725 2a44 6F5F      		subi r22,lo8(-(1))
 7726 2a46 7F4F      		sbci r23,hi8(-(1))
 7727 2a48 C801      		movw r24,r16
 7728 2a4a 0E94 0000 		call is_coordinate_null
 7729 2a4e 892B      		or r24,r25
 7730 2a50 01F0      		breq .L563
 7731               	.LM1069:
 7732 2a52 82E0      		ldi r24,lo8(2)
 7733 2a54 90E0      		ldi r25,hi8(2)
 7734 2a56 00C0      		rjmp .L578
 7735               	.L563:
 7736               	.LM1070:
 7737 2a58 F801      		movw r30,r16
 7738 2a5a 24E0      		ldi r18,4
 7739 2a5c EE0F      	1:	lsl r30
 7740 2a5e FF1F      		rol r31
 7741 2a60 2A95      		dec r18
 7742 2a62 01F4      		brne 1b
 7743 2a64 EC0F      		add r30,r28
 7744 2a66 FD1F      		adc r31,r29
 7745 2a68 EE0F      		lsl r30
 7746 2a6a FF1F      		rol r31
 7747 2a6c EE0F      		lsl r30
 7748 2a6e FF1F      		rol r31
 7749 2a70 E050      		subi r30,lo8(-(dir_array))
 7750 2a72 F040      		sbci r31,hi8(-(dir_array))
 7751 2a74 8181      		ldd r24,Z+1
 7752 2a76 8435      		cpi r24,lo8(84)
 7753 2a78 01F4      		brne .L565
 7754 2a7a C801      		movw r24,r16
 7755 2a7c 0196      		adiw r24,1
 7756 2a7e BE01      		movw r22,r28
 7757 2a80 0E94 0000 		call is_coordinate_null
 7758 2a84 892B      		or r24,r25
 7759 2a86 01F0      		breq .L565
 7760               	.LM1071:
 7761 2a88 81E0      		ldi r24,lo8(1)
 7762 2a8a 90E0      		ldi r25,hi8(1)
 7763 2a8c 00C0      		rjmp .L578
 7764               	.L565:
 7765               	.LM1072:
 7766 2a8e F801      		movw r30,r16
 7767 2a90 84E0      		ldi r24,4
 7768 2a92 EE0F      	1:	lsl r30
 7769 2a94 FF1F      		rol r31
 7770 2a96 8A95      		dec r24
 7771 2a98 01F4      		brne 1b
 7772 2a9a EC0F      		add r30,r28
 7773 2a9c FD1F      		adc r31,r29
 7774 2a9e EE0F      		lsl r30
 7775 2aa0 FF1F      		rol r31
 7776 2aa2 EE0F      		lsl r30
 7777 2aa4 FF1F      		rol r31
 7778 2aa6 E050      		subi r30,lo8(-(dir_array+2))
 7779 2aa8 F040      		sbci r31,hi8(-(dir_array+2))
 7780 2aaa 8081      		ld r24,Z
 7781 2aac 8435      		cpi r24,lo8(84)
 7782 2aae 01F4      		brne .L566
 7783 2ab0 BE01      		movw r22,r28
 7784 2ab2 6150      		subi r22,lo8(-(-1))
 7785 2ab4 7040      		sbci r23,hi8(-(-1))
 7786 2ab6 C801      		movw r24,r16
 7787 2ab8 0E94 0000 		call is_coordinate_null
 7788 2abc 892B      		or r24,r25
 7789 2abe 01F0      		breq .L566
 7790               	.LM1073:
 7791 2ac0 8EEF      		ldi r24,lo8(-2)
 7792 2ac2 9FEF      		ldi r25,hi8(-2)
 7793 2ac4 00C0      		rjmp .L578
 7794               	.L566:
 7795               	.LM1074:
 7796 2ac6 F801      		movw r30,r16
 7797 2ac8 A4E0      		ldi r26,4
 7798 2aca EE0F      	1:	lsl r30
 7799 2acc FF1F      		rol r31
 7800 2ace AA95      		dec r26
 7801 2ad0 01F4      		brne 1b
 7802 2ad2 EC0F      		add r30,r28
 7803 2ad4 FD1F      		adc r31,r29
 7804 2ad6 EE0F      		lsl r30
 7805 2ad8 FF1F      		rol r31
 7806 2ada EE0F      		lsl r30
 7807 2adc FF1F      		rol r31
 7808 2ade E050      		subi r30,lo8(-(dir_array))
 7809 2ae0 F040      		sbci r31,hi8(-(dir_array))
 7810 2ae2 8381      		ldd r24,Z+3
 7811 2ae4 8435      		cpi r24,lo8(84)
 7812 2ae6 01F4      		brne .L575
 7813 2ae8 C801      		movw r24,r16
 7814 2aea 0197      		sbiw r24,1
 7815 2aec BE01      		movw r22,r28
 7816 2aee 0E94 0000 		call is_coordinate_null
 7817 2af2 892B      		or r24,r25
 7818 2af4 01F0      		breq .L575
 7819               	.LM1075:
 7820 2af6 8FEF      		ldi r24,lo8(-1)
 7821 2af8 9FEF      		ldi r25,hi8(-1)
 7822               	.L578:
 7823 2afa 0E94 0000 		call checkAndCorrectDirection
 7824 2afe 00C0      		rjmp .L575
 7825               	.L567:
 7826               	.LM1076:
 7827 2b00 0E94 0000 		call line_track_new
 7828               	.L575:
 7829               	.LM1077:
 7830 2b04 CC9B      		sbis 57-32,4
 7831 2b06 00C0      		rjmp .L567
 7832 2b08 879B      		sbis 48-32,7
 7833 2b0a 00C0      		rjmp .L567
 7834               	.LBB755:
 7835               	.LBB756:
 7836               	.LM1078:
 7837 2b0c AC9A      		sbi 53-32,4
 7838               	.LM1079:
 7839 2b0e AD9A      		sbi 53-32,5
 7840               	.LM1080:
 7841 2b10 AE9A      		sbi 53-32,6
 7842               	.LM1081:
 7843 2b12 AF9A      		sbi 53-32,7
 7844               	.LBE756:
 7845               	.LBE755:
 7846               	.LM1082:
 7847 2b14 1092 0000 		sts (Coordinates_changed_by)+1,__zero_reg__
 7848 2b18 1092 0000 		sts Coordinates_changed_by,__zero_reg__
 7849               	.LM1083:
 7850 2b1c 1092 0000 		sts (irc)+1,__zero_reg__
 7851 2b20 1092 0000 		sts irc,__zero_reg__
 7852               	.LM1084:
 7853 2b24 1092 0000 		sts (special_flag)+1,__zero_reg__
 7854 2b28 1092 0000 		sts special_flag,__zero_reg__
 7855               	.LM1085:
 7856 2b2c 1092 0000 		sts (repeat)+1,__zero_reg__
 7857 2b30 1092 0000 		sts repeat,__zero_reg__
 7858 2b34 00C0      		rjmp .L568
 7859               	.L570:
 7860               	.LM1086:
 7861 2b36 0E94 0000 		call line_track_new
 7862               	.LM1087:
 7863 2b3a 85B3      		in r24,53-32
 7864 2b3c 807F      		andi r24,lo8(-16)
 7865 2b3e 85BB      		out 53-32,r24
 7866               	.LM1088:
 7867 2b40 85B3      		in r24,53-32
 7868 2b42 9091 0000 		lds r25,sensorbyte
 7869 2b46 892B      		or r24,r25
 7870 2b48 85BB      		out 53-32,r24
 7871               	.LM1089:
 7872 2b4a CF99      		sbic 57-32,7
 7873 2b4c 00C0      		rjmp .L569
 7874               	.LM1090:
 7875 2b4e 0E94 0000 		call right_junc_check
 7876               	.L569:
 7877               	.LM1091:
 7878 2b52 0E94 0000 		call left_junc_check
 7879               	.LM1092:
 7880 2b56 0E94 0000 		call frSensorCheck
 7881               	.LM1093:
 7882 2b5a 8091 0000 		lds r24,irc
 7883 2b5e 9091 0000 		lds r25,(irc)+1
 7884 2b62 0196      		adiw r24,1
 7885 2b64 9093 0000 		sts (irc)+1,r25
 7886 2b68 8093 0000 		sts irc,r24
 7887               	.L568:
 7888               	.LM1094:
 7889 2b6c 8091 0000 		lds r24,repeat
 7890 2b70 9091 0000 		lds r25,(repeat)+1
 7891 2b74 0397      		sbiw r24,3
 7892 2b76 04F0      		brlt .L570
 7893               	.LBB757:
 7894               	.LBB751:
 7895               	.LM1095:
 7896 2b78 FBBC      		out (74)+1-32,r15
 7897 2b7a EABC      		out 74-32,r14
 7898               	.LBE751:
 7899               	.LBE757:
 7900               	.LBB758:
 7901               	.LBB759:
 7902               	.LM1096:
 7903 2b7c F9BC      		out (72)+1-32,r15
 7904 2b7e E8BC      		out 72-32,r14
 7905               	.LBE759:
 7906               	.LBE758:
 7907               	.LBB760:
 7908               	.LBB761:
 7909               	.LM1097:
 7910 2b80 AC9A      		sbi 53-32,4
 7911               	.LM1098:
 7912 2b82 AD9A      		sbi 53-32,5
 7913               	.LM1099:
 7914 2b84 AE9A      		sbi 53-32,6
 7915               	.LM1100:
 7916 2b86 AF9A      		sbi 53-32,7
 7917               	.LBE761:
 7918               	.LBE760:
 7919               	.LM1101:
 7920 2b88 0E94 0000 		call fill_missed_array
 7921               	.LM1102:
 7922 2b8c 1092 0000 		sts (mx)+1,__zero_reg__
 7923 2b90 1092 0000 		sts mx,__zero_reg__
 7924               	.LM1103:
 7925 2b94 1092 0000 		sts (my)+1,__zero_reg__
 7926 2b98 1092 0000 		sts my,__zero_reg__
 7927               	.LM1104:
 7928 2b9c 0E94 0000 		call coordinates_tobe_reached
 7929               	.LM1105:
 7930 2ba0 8091 0000 		lds r24,mx
 7931 2ba4 9091 0000 		lds r25,(mx)+1
 7932 2ba8 892B      		or r24,r25
 7933 2baa 01F0      		breq .+2
 7934 2bac 00C0      		rjmp .L577
 7935 2bae 8091 0000 		lds r24,my
 7936 2bb2 9091 0000 		lds r25,(my)+1
 7937 2bb6 892B      		or r24,r25
 7938 2bb8 01F0      		breq .+2
 7939 2bba 00C0      		rjmp .L577
 7940               	/* epilogue start */
 7941               	.LM1106:
 7942 2bbc DF91      		pop r29
 7943 2bbe CF91      		pop r28
 7944 2bc0 1F91      		pop r17
 7945 2bc2 0F91      		pop r16
 7946 2bc4 FF90      		pop r15
 7947 2bc6 EF90      		pop r14
 7948 2bc8 0895      		ret
 7949               	.LFE75:
 7951               	.global	retrieve_threshold
 7953               	retrieve_threshold:
 7954               	.LFB52:
 7955               	.LM1107:
 7956               	/* prologue: function */
 7957               	/* frame size = 0 */
 7958               	.LBB762:
 7959               	.LM1108:
 7960 2bca 80E0      		ldi r24,lo8(0)
 7961 2bcc 90E0      		ldi r25,hi8(0)
 7962 2bce 0E94 0000 		call __eerd_byte_m32
 7963 2bd2 8093 0000 		sts threshold1,r24
 7964 2bd6 81E0      		ldi r24,lo8(1)
 7965 2bd8 90E0      		ldi r25,hi8(1)
 7966 2bda 0E94 0000 		call __eerd_byte_m32
 7967 2bde 8093 0000 		sts threshold1+1,r24
 7968 2be2 82E0      		ldi r24,lo8(2)
 7969 2be4 90E0      		ldi r25,hi8(2)
 7970 2be6 0E94 0000 		call __eerd_byte_m32
 7971 2bea 8093 0000 		sts threshold1+2,r24
 7972 2bee 83E0      		ldi r24,lo8(3)
 7973 2bf0 90E0      		ldi r25,hi8(3)
 7974 2bf2 0E94 0000 		call __eerd_byte_m32
 7975 2bf6 8093 0000 		sts threshold1+3,r24
 7976               	/* epilogue start */
 7977               	.LBE762:
 7978               	.LM1109:
 7979 2bfa 0895      		ret
 7980               	.LFE52:
 7982               	.global	set_threshold
 7984               	set_threshold:
 7985               	.LFB17:
 7986               	.LM1110:
 7987 2bfc CF93      		push r28
 7988 2bfe DF93      		push r29
 7989               	/* prologue: function */
 7990               	/* frame size = 0 */
 7991               	.LM1111:
 7992 2c00 2091 0000 		lds r18,min
 7993 2c04 8091 0000 		lds r24,max
 7994 2c08 90E0      		ldi r25,lo8(0)
 7995 2c0a 820F      		add r24,r18
 7996 2c0c 911D      		adc r25,__zero_reg__
 7997 2c0e 9595      		asr r25
 7998 2c10 8795      		ror r24
 7999 2c12 8093 0000 		sts threshold1,r24
 8000 2c16 2091 0000 		lds r18,min+1
 8001 2c1a 8091 0000 		lds r24,max+1
 8002 2c1e 90E0      		ldi r25,lo8(0)
 8003 2c20 820F      		add r24,r18
 8004 2c22 911D      		adc r25,__zero_reg__
 8005 2c24 9595      		asr r25
 8006 2c26 8795      		ror r24
 8007 2c28 8093 0000 		sts threshold1+1,r24
 8008 2c2c 2091 0000 		lds r18,min+2
 8009 2c30 8091 0000 		lds r24,max+2
 8010 2c34 90E0      		ldi r25,lo8(0)
 8011 2c36 820F      		add r24,r18
 8012 2c38 911D      		adc r25,__zero_reg__
 8013 2c3a 9595      		asr r25
 8014 2c3c 8795      		ror r24
 8015 2c3e 8093 0000 		sts threshold1+2,r24
 8016 2c42 2091 0000 		lds r18,min+3
 8017 2c46 8091 0000 		lds r24,max+3
 8018 2c4a 90E0      		ldi r25,lo8(0)
 8019 2c4c 820F      		add r24,r18
 8020 2c4e 911D      		adc r25,__zero_reg__
 8021 2c50 9595      		asr r25
 8022 2c52 8795      		ror r24
 8023 2c54 8093 0000 		sts threshold1+3,r24
 8024 2c58 C0E0      		ldi r28,lo8(0)
 8025 2c5a D0E0      		ldi r29,hi8(0)
 8026               	.LVL208:
 8027               	.L582:
 8028               	.LBB763:
 8029               	.LM1112:
 8030 2c5c FE01      		movw r30,r28
 8031 2c5e E050      		subi r30,lo8(-(threshold1))
 8032 2c60 F040      		sbci r31,hi8(-(threshold1))
 8033 2c62 CE01      		movw r24,r28
 8034 2c64 6081      		ld r22,Z
 8035 2c66 0E94 0000 		call __eewr_byte_m32
 8036               	.LM1113:
 8037 2c6a 2196      		adiw r28,1
 8038 2c6c C430      		cpi r28,4
 8039 2c6e D105      		cpc r29,__zero_reg__
 8040 2c70 01F4      		brne .L582
 8041               	/* epilogue start */
 8042               	.LBE763:
 8043               	.LM1114:
 8044 2c72 DF91      		pop r29
 8045 2c74 CF91      		pop r28
 8046               	.LVL209:
 8047 2c76 0895      		ret
 8048               	.LFE17:
 8050               	.global	sensorbyte
 8051               	.global	sensorbyte
 8052               		.section .bss
 8055               	sensorbyte:
 8056 0000 00        		.skip 1,0
 8057               	.global	mpos
 8058               	.global	mpos
 8061               	mpos:
 8062 0001 0000      		.skip 2,0
 8063               	.global	opt
 8064               		.data
 8067               	opt:
 8068 00ab FF00      		.word	255
 8069               	.global	kp
 8072               	kp:
 8073 00ad 00        		.byte	0
 8074 00ae 00        		.byte	0
 8075 00af 70        		.byte	112
 8076 00b0 41        		.byte	65
 8077               	.global	kd
 8080               	kd:
 8081 00b1 66        		.byte	102
 8082 00b2 66        		.byte	102
 8083 00b3 46        		.byte	70
 8084 00b4 40        		.byte	64
 8085               	.global	flcount
 8086               	.global	flcount
 8087               		.section .bss
 8090               	flcount:
 8091 0003 0000      		.skip 2,0
 8092               	.global	l
 8093               	.global	l
 8096               	l:
 8097 0005 0000      		.skip 2,0
 8098               	.global	lcount
 8099               	.global	lcount
 8102               	lcount:
 8103 0007 0000      		.skip 2,0
 8104               	.global	straight
 8105               	.global	straight
 8108               	straight:
 8109 0009 0000      		.skip 2,0
 8110               	.global	lcountPrev
 8111               	.global	lcountPrev
 8114               	lcountPrev:
 8115 000b 0000      		.skip 2,0
 8116               	.global	flag1
 8117               	.global	flag1
 8120               	flag1:
 8121 000d 0000      		.skip 2,0
 8122               	.global	irc
 8123               	.global	irc
 8126               	irc:
 8127 000f 0000      		.skip 2,0
 8128               	.global	temp
 8129               	.global	temp
 8132               	temp:
 8133 0011 0000      		.skip 2,0
 8134               	.global	turn
 8135               		.data
 8138               	turn:
 8139 00b5 73        		.byte	115
 8140               	.global	dir
 8143               	dir:
 8144 00b6 0200      		.word	2
 8145               	.global	Coordinates_changed_by
 8146               	.global	Coordinates_changed_by
 8147               		.section .bss
 8150               	Coordinates_changed_by:
 8151 0013 0000      		.skip 2,0
 8152               	.global	x_coordinate
 8153               		.data
 8156               	x_coordinate:
 8157 00b8 0700      		.word	7
 8158               	.global	y_coordinate
 8161               	y_coordinate:
 8162 00ba 0700      		.word	7
 8163               	.global	mx
 8164               	.global	mx
 8165               		.section .bss
 8168               	mx:
 8169 0015 0000      		.skip 2,0
 8170               	.global	my
 8171               	.global	my
 8174               	my:
 8175 0017 0000      		.skip 2,0
 8176               	.global	special_flag
 8177               	.global	special_flag
 8180               	special_flag:
 8181 0019 0000      		.skip 2,0
 8182               	.global	repeat
 8183               	.global	repeat
 8186               	repeat:
 8187 001b 0000      		.skip 2,0
 8188               	.global	ipl
 8189               	.global	ipl
 8192               	ipl:
 8193 001d 0000      		.skip 2,0
 8194               		.comm min,4,1
 8195               		.comm max,4,1
 8196               		.comm threshold1,4,1
 8197               		.comm control,4,1
 8198               		.comm prev_error,4,1
 8199               		.comm act_error,4,1
 8200               		.comm dir_array,1024,1
 8201               		.comm map_array,512,1
 8202               		.comm path_array,60,1
 8203               		.comm right,2,1
 8796               	.Letext0:
DEFINED SYMBOLS
                            *ABS*:00000000 main.c
C:\Users\Chirag\AppData\Local\Temp/cc3giFNP.s:2      *ABS*:0000003f __SREG__
C:\Users\Chirag\AppData\Local\Temp/cc3giFNP.s:3      *ABS*:0000003e __SP_H__
C:\Users\Chirag\AppData\Local\Temp/cc3giFNP.s:4      *ABS*:0000003d __SP_L__
C:\Users\Chirag\AppData\Local\Temp/cc3giFNP.s:5      *ABS*:00000034 __CCP__
C:\Users\Chirag\AppData\Local\Temp/cc3giFNP.s:6      *ABS*:00000000 __tmp_reg__
C:\Users\Chirag\AppData\Local\Temp/cc3giFNP.s:7      *ABS*:00000001 __zero_reg__
C:\Users\Chirag\AppData\Local\Temp/cc3giFNP.s:18     .text:00000000 port_init
C:\Users\Chirag\AppData\Local\Temp/cc3giFNP.s:47     .text:00000014 pwm1_init
C:\Users\Chirag\AppData\Local\Temp/cc3giFNP.s:89     .text:00000038 adc_init
C:\Users\Chirag\AppData\Local\Temp/cc3giFNP.s:114    .text:0000004a adc_start
C:\Users\Chirag\AppData\Local\Temp/cc3giFNP.s:144    .text:0000005c delay_sec
C:\Users\Chirag\AppData\Local\Temp/cc3giFNP.s:208    .text:0000008e delay_millisec
C:\Users\Chirag\AppData\Local\Temp/cc3giFNP.s:343    .text:00000138 delay_microsec
C:\Users\Chirag\AppData\Local\Temp/cc3giFNP.s:544    .text:0000023e check_sensors
C:\Users\Chirag\AppData\Local\Temp/cc3giFNP.s:8055   .bss:00000000 sensorbyte
C:\Users\Chirag\AppData\Local\Temp/cc3giFNP.s:595    .text:00000286 calibrate_white
                            *COM*:00000004 max
C:\Users\Chirag\AppData\Local\Temp/cc3giFNP.s:620    .text:000002b0 calibrate_black
                            *COM*:00000004 min
C:\Users\Chirag\AppData\Local\Temp/cc3giFNP.s:645    .text:000002da flick
C:\Users\Chirag\AppData\Local\Temp/cc3giFNP.s:687    .text:0000030a set_pwm1a
C:\Users\Chirag\AppData\Local\Temp/cc3giFNP.s:704    .text:00000310 set_pwm1b
C:\Users\Chirag\AppData\Local\Temp/cc3giFNP.s:721    .text:00000316 lcd_busy_loop
C:\Users\Chirag\AppData\Local\Temp/cc3giFNP.s:906    .text:0000036c lcd_byte
C:\Users\Chirag\AppData\Local\Temp/cc3giFNP.s:1045   .text:000003bc lcd_init
C:\Users\Chirag\AppData\Local\Temp/cc3giFNP.s:1181   .text:0000041c lcd_write_string
C:\Users\Chirag\AppData\Local\Temp/cc3giFNP.s:1214   .text:00000438 lcd_write_int
C:\Users\Chirag\AppData\Local\Temp/cc3giFNP.s:1345   .text:000004f4 lcd_goto_xy
C:\Users\Chirag\AppData\Local\Temp/cc3giFNP.s:1372   .text:00000506 lcd_write_string_xy
C:\Users\Chirag\AppData\Local\Temp/cc3giFNP.s:1397   .text:0000051c lcd_write_int_xy
C:\Users\Chirag\AppData\Local\Temp/cc3giFNP.s:1429   .text:0000053e usart_init
C:\Users\Chirag\AppData\Local\Temp/cc3giFNP.s:1456   .text:00000552 usart_transmit_char
C:\Users\Chirag\AppData\Local\Temp/cc3giFNP.s:1475   .text:0000055a usart_transmit_string
C:\Users\Chirag\AppData\Local\Temp/cc3giFNP.s:1509   .text:0000056e usart_transmit_newline
C:\Users\Chirag\AppData\Local\Temp/cc3giFNP.s:1543   .text:00000580 usart_receive_char
C:\Users\Chirag\AppData\Local\Temp/cc3giFNP.s:1561   .text:00000588 bot_motion_init
C:\Users\Chirag\AppData\Local\Temp/cc3giFNP.s:1576   .text:0000058e bot_left_forward
C:\Users\Chirag\AppData\Local\Temp/cc3giFNP.s:1596   .text:00000598 bot_left_backward
C:\Users\Chirag\AppData\Local\Temp/cc3giFNP.s:1616   .text:000005a2 bot_right_forward
C:\Users\Chirag\AppData\Local\Temp/cc3giFNP.s:1636   .text:000005ac bot_left
C:\Users\Chirag\AppData\Local\Temp/cc3giFNP.s:1660   .text:000005b6 bot_right
C:\Users\Chirag\AppData\Local\Temp/cc3giFNP.s:1684   .text:000005c0 bot_right_backward
C:\Users\Chirag\AppData\Local\Temp/cc3giFNP.s:1704   .text:000005ca bot_forward
C:\Users\Chirag\AppData\Local\Temp/cc3giFNP.s:1724   .text:000005d4 bot_backward
C:\Users\Chirag\AppData\Local\Temp/cc3giFNP.s:1744   .text:000005de bot_spot_left
C:\Users\Chirag\AppData\Local\Temp/cc3giFNP.s:1764   .text:000005e8 bot_spot_right
C:\Users\Chirag\AppData\Local\Temp/cc3giFNP.s:1784   .text:000005f2 bot_stop
C:\Users\Chirag\AppData\Local\Temp/cc3giFNP.s:1804   .text:000005fc bot_brake
C:\Users\Chirag\AppData\Local\Temp/cc3giFNP.s:1824   .text:00000606 switch_init
C:\Users\Chirag\AppData\Local\Temp/cc3giFNP.s:1844   .text:00000614 pressed_switch0
C:\Users\Chirag\AppData\Local\Temp/cc3giFNP.s:1864   .text:00000624 pressed_switch1
C:\Users\Chirag\AppData\Local\Temp/cc3giFNP.s:1886   .text:00000638 pressed_switch2
C:\Users\Chirag\AppData\Local\Temp/cc3giFNP.s:1910   .text:00000650 pressed_switch3
C:\Users\Chirag\AppData\Local\Temp/cc3giFNP.s:1935   .text:0000066a line_track
C:\Users\Chirag\AppData\Local\Temp/cc3giFNP.s:8061   .bss:00000001 mpos
C:\Users\Chirag\AppData\Local\Temp/cc3giFNP.s:8120   .bss:0000000d flag1
                            *COM*:00000004 prev_error
                            *COM*:00000004 act_error
C:\Users\Chirag\AppData\Local\Temp/cc3giFNP.s:8072   .data:000000ad kp
C:\Users\Chirag\AppData\Local\Temp/cc3giFNP.s:8080   .data:000000b1 kd
                            *COM*:00000004 control
C:\Users\Chirag\AppData\Local\Temp/cc3giFNP.s:8067   .data:000000ab opt
C:\Users\Chirag\AppData\Local\Temp/cc3giFNP.s:2155   .text:0000080c init_devices
C:\Users\Chirag\AppData\Local\Temp/cc3giFNP.s:2210   .text:0000083c Uturn
C:\Users\Chirag\AppData\Local\Temp/cc3giFNP.s:8138   .data:000000b5 turn
C:\Users\Chirag\AppData\Local\Temp/cc3giFNP.s:2354   .text:000008a2 left_count
C:\Users\Chirag\AppData\Local\Temp/cc3giFNP.s:8096   .bss:00000005 l
C:\Users\Chirag\AppData\Local\Temp/cc3giFNP.s:8102   .bss:00000007 lcount
C:\Users\Chirag\AppData\Local\Temp/cc3giFNP.s:2389   .text:000008dc special_case_check
C:\Users\Chirag\AppData\Local\Temp/cc3giFNP.s:2488   .text:0000094c line_track_new
C:\Users\Chirag\AppData\Local\Temp/cc3giFNP.s:2591   .text:000009bc end_zone_uturn
C:\Users\Chirag\AppData\Local\Temp/cc3giFNP.s:2747   .text:00000a38 turn_left
C:\Users\Chirag\AppData\Local\Temp/cc3giFNP.s:2881   .text:00000aa4 turn_right
C:\Users\Chirag\AppData\Local\Temp/cc3giFNP.s:3015   .text:00000b10 sense_of_directon
C:\Users\Chirag\AppData\Local\Temp/cc3giFNP.s:8143   .data:000000b6 dir
C:\Users\Chirag\AppData\Local\Temp/cc3giFNP.s:3139   .text:00000bde is_coordinate_null
                            *COM*:00000400 dir_array
C:\Users\Chirag\AppData\Local\Temp/cc3giFNP.s:3204   .text:00000c3c update_array
C:\Users\Chirag\AppData\Local\Temp/cc3giFNP.s:8156   .data:000000b8 x_coordinate
C:\Users\Chirag\AppData\Local\Temp/cc3giFNP.s:8161   .data:000000ba y_coordinate
C:\Users\Chirag\AppData\Local\Temp/cc3giFNP.s:3397   .text:00000d78 update_coordinates
C:\Users\Chirag\AppData\Local\Temp/cc3giFNP.s:8150   .bss:00000013 Coordinates_changed_by
C:\Users\Chirag\AppData\Local\Temp/cc3giFNP.s:8186   .bss:0000001b repeat
C:\Users\Chirag\AppData\Local\Temp/cc3giFNP.s:3683   .text:00000ff2 left_junc_check
C:\Users\Chirag\AppData\Local\Temp/cc3giFNP.s:8126   .bss:0000000f irc
C:\Users\Chirag\AppData\Local\Temp/cc3giFNP.s:8180   .bss:00000019 special_flag
C:\Users\Chirag\AppData\Local\Temp/cc3giFNP.s:3839   .text:000010fa frSensorCheck
C:\Users\Chirag\AppData\Local\Temp/cc3giFNP.s:3935   .text:0000118c fill_missed_array
C:\Users\Chirag\AppData\Local\Temp/cc3giFNP.s:4137   .text:000012c4 coordinates_tobe_reached
C:\Users\Chirag\AppData\Local\Temp/cc3giFNP.s:8168   .bss:00000015 mx
C:\Users\Chirag\AppData\Local\Temp/cc3giFNP.s:8174   .bss:00000017 my
C:\Users\Chirag\AppData\Local\Temp/cc3giFNP.s:4714   .text:0000171e get_path
                            *COM*:0000003c path_array
C:\Users\Chirag\AppData\Local\Temp/cc3giFNP.s:8192   .bss:0000001d ipl
                            *COM*:00000200 map_array
C:\Users\Chirag\AppData\Local\Temp/cc3giFNP.s:5335   .text:00001b60 build_map
C:\Users\Chirag\AppData\Local\Temp/cc3giFNP.s:5700   .text:00001da2 checkAndCorrectDirection
C:\Users\Chirag\AppData\Local\Temp/cc3giFNP.s:5917   .text:00001f22 go_to_coordinate
                            *COM*:00000002 right
C:\Users\Chirag\AppData\Local\Temp/cc3giFNP.s:6158   .text:0000207a print_path
C:\Users\Chirag\AppData\Local\Temp/cc3giFNP.s:6265   .text:00002106 end_zone
C:\Users\Chirag\AppData\Local\Temp/cc3giFNP.s:7624   .text:00002996 map_all
C:\Users\Chirag\AppData\Local\Temp/cc3giFNP.s:6650   .text:0000232e right_junc_check
C:\Users\Chirag\AppData\Local\Temp/cc3giFNP.s:8114   .bss:0000000b lcountPrev
C:\Users\Chirag\AppData\Local\Temp/cc3giFNP.s:8108   .bss:00000009 straight
C:\Users\Chirag\AppData\Local\Temp/cc3giFNP.s:8132   .bss:00000011 temp
C:\Users\Chirag\AppData\Local\Temp/cc3giFNP.s:7035   .text:00002572 main
C:\Users\Chirag\AppData\Local\Temp/cc3giFNP.s:7953   .text:00002bca retrieve_threshold
                            *COM*:00000004 threshold1
C:\Users\Chirag\AppData\Local\Temp/cc3giFNP.s:7984   .text:00002bfc set_threshold
C:\Users\Chirag\AppData\Local\Temp/cc3giFNP.s:8090   .bss:00000003 flcount

UNDEFINED SYMBOLS
__floatsisf
__mulsf3
__ltsf2
__gtsf2
__fixunssfsi
__divsf3
__divmodhi4
__subsf3
__floatunsisf
__fixsfsi
__addsf3
__eewr_word_m32
__eerd_word_m32
__eerd_byte_m32
__eewr_byte_m32
__do_copy_data
__do_clear_bss
