   1               		.file	"main.c"
   2               	__SREG__ = 0x3f
   3               	__SP_H__ = 0x3e
   4               	__SP_L__ = 0x3d
   5               	__CCP__  = 0x34
   6               	__tmp_reg__ = 0
   7               	__zero_reg__ = 1
  15               	.Ltext0:
  16               	.global	port_init
  18               	port_init:
  19               	.LFB7:
  20               	.LM1:
  21               	/* prologue: function */
  22               	/* frame size = 0 */
  23               	.LM2:
  24 0000 8FEF      		ldi r24,lo8(-1)
  25 0002 8BBB      		out 59-32,r24
  26               	.LM3:
  27 0004 1ABA      		out 58-32,__zero_reg__
  28               	.LM4:
  29 0006 88BB      		out 56-32,r24
  30               	.LM5:
  31 0008 17BA      		out 55-32,__zero_reg__
  32               	.LM6:
  33 000a 15BA      		out 53-32,__zero_reg__
  34               	.LM7:
  35 000c 84BB      		out 52-32,r24
  36               	.LM8:
  37 000e 82BB      		out 50-32,r24
  38               	.LM9:
  39 0010 11BA      		out 49-32,__zero_reg__
  40               	/* epilogue start */
  41               	.LM10:
  42 0012 0895      		ret
  43               	.LFE7:
  45               	.global	pwm1_init
  47               	pwm1_init:
  48               	.LFB8:
  49               	.LM11:
  50               	/* prologue: function */
  51               	/* frame size = 0 */
  52               	.LM12:
  53 0014 8C9A      		sbi 49-32,4
  54               	.LM13:
  55 0016 8D9A      		sbi 49-32,5
  56               	.LM14:
  57 0018 1EBC      		out 78-32,__zero_reg__
  58               	.LM15:
  59 001a 1DBC      		out 77-32,__zero_reg__
  60               	.LM16:
  61 001c 1CBC      		out 76-32,__zero_reg__
  62               	.LM17:
  63 001e 1BBC      		out 75-32,__zero_reg__
  64               	.LM18:
  65 0020 1ABC      		out 74-32,__zero_reg__
  66               	.LM19:
  67 0022 19BC      		out 73-32,__zero_reg__
  68               	.LM20:
  69 0024 18BC      		out 72-32,__zero_reg__
  70               	.LM21:
  71 0026 81E0      		ldi r24,lo8(1)
  72 0028 87BD      		out 71-32,r24
  73               	.LM22:
  74 002a 8FE8      		ldi r24,lo8(-113)
  75 002c 86BD      		out 70-32,r24
  76               	.LM23:
  77 002e 82EA      		ldi r24,lo8(-94)
  78 0030 8FBD      		out 79-32,r24
  79               	.LM24:
  80 0032 89E1      		ldi r24,lo8(25)
  81 0034 8EBD      		out 78-32,r24
  82               	/* epilogue start */
  83               	.LM25:
  84 0036 0895      		ret
  85               	.LFE8:
  87               	.global	adc_init
  89               	adc_init:
  90               	.LFB9:
  91               	.LM26:
  92               	/* prologue: function */
  93               	/* frame size = 0 */
  94               	.LM27:
  95 0038 1ABA      		out 58-32,__zero_reg__
  96               	.LM28:
  97 003a 16B8      		out 38-32,__zero_reg__
  98               	.LM29:
  99 003c 80E6      		ldi r24,lo8(96)
 100 003e 87B9      		out 39-32,r24
 101               	.LM30:
 102 0040 87E8      		ldi r24,lo8(-121)
 103 0042 86B9      		out 38-32,r24
 104               	.LM31:
 105 0044 80E8      		ldi r24,lo8(-128)
 106 0046 88B9      		out 40-32,r24
 107               	/* epilogue start */
 108               	.LM32:
 109 0048 0895      		ret
 110               	.LFE9:
 112               	.global	adc_start
 114               	adc_start:
 115               	.LFB10:
 116               	.LM33:
 117               	.LVL0:
 118               	/* prologue: function */
 119               	/* frame size = 0 */
 120               	.LM34:
 121 004a 15B8      		out 37-32,__zero_reg__
 122               	.LM35:
 123 004c 8770      		andi r24,lo8(7)
 124               	.LVL1:
 125 004e 8066      		ori r24,lo8(96)
 126 0050 87B9      		out 39-32,r24
 127               	.LM36:
 128 0052 369A      		sbi 38-32,6
 129               	.L8:
 130               	.LM37:
 131 0054 3699      		sbic 38-32,6
 132 0056 00C0      		rjmp .L8
 133               	.LM38:
 134 0058 85B1      		in r24,37-32
 135               	.LVL2:
 136               	.LVL3:
 137               	/* epilogue start */
 138               	.LM39:
 139 005a 0895      		ret
 140               	.LFE10:
 142               	.global	delay_sec
 144               	delay_sec:
 145               	.LFB11:
 146               	.LM40:
 147               	.LVL4:
 148               	/* prologue: function */
 149               	/* frame size = 0 */
 150 005c AC01      		movw r20,r24
 151               	.LM41:
 152 005e 30E0      		ldi r19,lo8(0)
 153               	.LVL5:
 154               	.LBB373:
 155               	.LBB374:
 156               	.LBB375:
 157               	.LBB376:
 158               	.LM42:
 159 0060 60E9      		ldi r22,lo8(400)
 160 0062 71E0      		ldi r23,hi8(400)
 161 0064 00C0      		rjmp .L12
 162               	.LVL6:
 163               	.L13:
 164 0066 FB01      		movw r30,r22
 165               	/* #APP */
 166               	 ;  105 "c:/winavr-20100110/lib/gcc/../../avr/include/util/delay_basic.h" 1
 167 0068 3197      		1: sbiw r30,1
 168 006a 01F4      		brne 1b
 169               	 ;  0 "" 2
 170               	/* #NOAPP */
 171               	.LBE376:
 172               	.LBE375:
 173               	.LM43:
 174 006c 0197      		sbiw r24,1
 175               	.LM44:
 176 006e 01F4      		brne .L13
 177               	.LBE374:
 178               	.LBE373:
 179               	.LM45:
 180 0070 2F5F      		subi r18,lo8(-(1))
 181 0072 2430      		cpi r18,lo8(4)
 182 0074 01F0      		breq .L14
 183               	.LVL7:
 184               	.L16:
 185 0076 84EC      		ldi r24,lo8(2500)
 186 0078 99E0      		ldi r25,hi8(2500)
 187 007a 00C0      		rjmp .L13
 188               	.L14:
 189               	.LM46:
 190 007c 3F5F      		subi r19,lo8(-(1))
 191               	.LVL8:
 192               	.L12:
 193 007e 832F      		mov r24,r19
 194               	.LVL9:
 195 0080 90E0      		ldi r25,lo8(0)
 196 0082 8417      		cp r24,r20
 197 0084 9507      		cpc r25,r21
 198 0086 04F4      		brge .L17
 199               	.LVL10:
 200 0088 20E0      		ldi r18,lo8(0)
 201 008a 00C0      		rjmp .L16
 202               	.L17:
 203 008c 0895      		ret
 204               	.LFE11:
 206               	.global	delay_millisec
 208               	delay_millisec:
 209               	.LFB12:
 210               	.LM47:
 211               	.LVL11:
 212 008e AF92      		push r10
 213 0090 BF92      		push r11
 214 0092 CF92      		push r12
 215 0094 DF92      		push r13
 216 0096 EF92      		push r14
 217 0098 FF92      		push r15
 218 009a 0F93      		push r16
 219 009c 1F93      		push r17
 220               	/* prologue: function */
 221               	/* frame size = 0 */
 222               	.LM48:
 223 009e AA27      		clr r26
 224 00a0 97FD      		sbrc r25,7
 225 00a2 A095      		com r26
 226 00a4 BA2F      		mov r27,r26
 227               	.LVL12:
 228 00a6 BC01      		movw r22,r24
 229 00a8 CD01      		movw r24,r26
 230 00aa 0E94 0000 		call __floatsisf
 231               	.LVL13:
 232 00ae 5B01      		movw r10,r22
 233 00b0 6C01      		movw r12,r24
 234               	.LBB377:
 235               	.LBB378:
 236               	.LM49:
 237 00b2 20E0      		ldi r18,lo8(0x457a0000)
 238 00b4 30E0      		ldi r19,hi8(0x457a0000)
 239 00b6 4AE7      		ldi r20,hlo8(0x457a0000)
 240 00b8 55E4      		ldi r21,hhi8(0x457a0000)
 241 00ba 0E94 0000 		call __mulsf3
 242 00be 7B01      		movw r14,r22
 243 00c0 8C01      		movw r16,r24
 244               	.LM50:
 245 00c2 20E0      		ldi r18,lo8(0x3f800000)
 246 00c4 30E0      		ldi r19,hi8(0x3f800000)
 247 00c6 40E8      		ldi r20,hlo8(0x3f800000)
 248 00c8 5FE3      		ldi r21,hhi8(0x3f800000)
 249 00ca 0E94 0000 		call __ltsf2
 250 00ce 8823      		tst r24
 251 00d0 04F4      		brge .L31
 252 00d2 61E0      		ldi r22,lo8(1)
 253 00d4 70E0      		ldi r23,hi8(1)
 254               	.LVL14:
 255 00d6 00C0      		rjmp .L22
 256               	.LVL15:
 257               	.L31:
 258               	.LM51:
 259 00d8 C801      		movw r24,r16
 260 00da B701      		movw r22,r14
 261 00dc 20E0      		ldi r18,lo8(0x477fff00)
 262 00de 3FEF      		ldi r19,hi8(0x477fff00)
 263 00e0 4FE7      		ldi r20,hlo8(0x477fff00)
 264 00e2 57E4      		ldi r21,hhi8(0x477fff00)
 265 00e4 0E94 0000 		call __gtsf2
 266 00e8 1816      		cp __zero_reg__,r24
 267 00ea 04F4      		brge .L32
 268               	.LM52:
 269 00ec C601      		movw r24,r12
 270 00ee B501      		movw r22,r10
 271 00f0 20E0      		ldi r18,lo8(0x41200000)
 272 00f2 30E0      		ldi r19,hi8(0x41200000)
 273 00f4 40E2      		ldi r20,hlo8(0x41200000)
 274 00f6 51E4      		ldi r21,hhi8(0x41200000)
 275 00f8 0E94 0000 		call __mulsf3
 276 00fc 0E94 0000 		call __fixunssfsi
 277               	.LBB379:
 278               	.LBB380:
 279               	.LM53:
 280 0100 80E9      		ldi r24,lo8(400)
 281 0102 91E0      		ldi r25,hi8(400)
 282 0104 00C0      		rjmp .L25
 283               	.LVL16:
 284               	.L26:
 285 0106 FC01      		movw r30,r24
 286               	/* #APP */
 287               	 ;  105 "c:/winavr-20100110/lib/gcc/../../avr/include/util/delay_basic.h" 1
 288 0108 3197      		1: sbiw r30,1
 289 010a 01F4      		brne 1b
 290               	 ;  0 "" 2
 291               	/* #NOAPP */
 292               	.LBE380:
 293               	.LBE379:
 294               	.LM54:
 295 010c 6150      		subi r22,lo8(-(-1))
 296 010e 7040      		sbci r23,hi8(-(-1))
 297               	.L25:
 298               	.LM55:
 299 0110 6115      		cp r22,__zero_reg__
 300 0112 7105      		cpc r23,__zero_reg__
 301 0114 01F4      		brne .L26
 302 0116 00C0      		rjmp .L28
 303               	.LVL17:
 304               	.L32:
 305               	.LM56:
 306 0118 C801      		movw r24,r16
 307 011a B701      		movw r22,r14
 308 011c 0E94 0000 		call __fixunssfsi
 309               	.LVL18:
 310               	.L22:
 311               	.LBB381:
 312               	.LBB382:
 313               	.LM57:
 314 0120 CB01      		movw r24,r22
 315               	.LVL19:
 316               	/* #APP */
 317               	 ;  105 "c:/winavr-20100110/lib/gcc/../../avr/include/util/delay_basic.h" 1
 318 0122 0197      		1: sbiw r24,1
 319 0124 01F4      		brne 1b
 320               	 ;  0 "" 2
 321               	.LVL20:
 322               	/* #NOAPP */
 323               	.L28:
 324               	/* epilogue start */
 325               	.LBE382:
 326               	.LBE381:
 327               	.LBE378:
 328               	.LBE377:
 329               	.LM58:
 330 0126 1F91      		pop r17
 331 0128 0F91      		pop r16
 332 012a FF90      		pop r15
 333 012c EF90      		pop r14
 334 012e DF90      		pop r13
 335 0130 CF90      		pop r12
 336 0132 BF90      		pop r11
 337 0134 AF90      		pop r10
 338 0136 0895      		ret
 339               	.LFE12:
 341               	.global	delay_microsec
 343               	delay_microsec:
 344               	.LFB13:
 345               	.LM59:
 346               	.LVL21:
 347 0138 AF92      		push r10
 348 013a BF92      		push r11
 349 013c CF92      		push r12
 350 013e DF92      		push r13
 351 0140 EF92      		push r14
 352 0142 FF92      		push r15
 353 0144 0F93      		push r16
 354 0146 1F93      		push r17
 355               	/* prologue: function */
 356               	/* frame size = 0 */
 357               	.LM60:
 358 0148 AA27      		clr r26
 359 014a 97FD      		sbrc r25,7
 360 014c A095      		com r26
 361 014e BA2F      		mov r27,r26
 362               	.LVL22:
 363 0150 BC01      		movw r22,r24
 364 0152 CD01      		movw r24,r26
 365 0154 0E94 0000 		call __floatsisf
 366               	.LVL23:
 367 0158 5B01      		movw r10,r22
 368 015a 6C01      		movw r12,r24
 369               	.LBB383:
 370               	.LBB384:
 371               	.LM61:
 372 015c 2BEA      		ldi r18,lo8(0x40aaaaab)
 373 015e 3AEA      		ldi r19,hi8(0x40aaaaab)
 374 0160 4AEA      		ldi r20,hlo8(0x40aaaaab)
 375 0162 50E4      		ldi r21,hhi8(0x40aaaaab)
 376 0164 0E94 0000 		call __mulsf3
 377 0168 7B01      		movw r14,r22
 378 016a 8C01      		movw r16,r24
 379               	.LM62:
 380 016c 20E0      		ldi r18,lo8(0x3f800000)
 381 016e 30E0      		ldi r19,hi8(0x3f800000)
 382 0170 40E8      		ldi r20,hlo8(0x3f800000)
 383 0172 5FE3      		ldi r21,hhi8(0x3f800000)
 384 0174 0E94 0000 		call __ltsf2
 385 0178 8823      		tst r24
 386 017a 04F4      		brge .L52
 387 017c 61E0      		ldi r22,lo8(1)
 388               	.LVL24:
 389 017e 00C0      		rjmp .L36
 390               	.LVL25:
 391               	.L52:
 392               	.LM63:
 393 0180 C801      		movw r24,r16
 394 0182 B701      		movw r22,r14
 395 0184 20E0      		ldi r18,lo8(0x437f0000)
 396 0186 30E0      		ldi r19,hi8(0x437f0000)
 397 0188 4FE7      		ldi r20,hlo8(0x437f0000)
 398 018a 53E4      		ldi r21,hhi8(0x437f0000)
 399 018c 0E94 0000 		call __gtsf2
 400 0190 1816      		cp __zero_reg__,r24
 401 0192 04F0      		brlt .+2
 402 0194 00C0      		rjmp .L53
 403               	.LM64:
 404 0196 C601      		movw r24,r12
 405 0198 B501      		movw r22,r10
 406 019a 20E0      		ldi r18,lo8(0x447a0000)
 407 019c 30E0      		ldi r19,hi8(0x447a0000)
 408 019e 4AE7      		ldi r20,hlo8(0x447a0000)
 409 01a0 54E4      		ldi r21,hhi8(0x447a0000)
 410 01a2 0E94 0000 		call __divsf3
 411 01a6 5B01      		movw r10,r22
 412 01a8 6C01      		movw r12,r24
 413               	.LBB385:
 414               	.LBB386:
 415               	.LM65:
 416 01aa 20E0      		ldi r18,lo8(0x457a0000)
 417 01ac 30E0      		ldi r19,hi8(0x457a0000)
 418 01ae 4AE7      		ldi r20,hlo8(0x457a0000)
 419 01b0 55E4      		ldi r21,hhi8(0x457a0000)
 420 01b2 0E94 0000 		call __mulsf3
 421 01b6 7B01      		movw r14,r22
 422 01b8 8C01      		movw r16,r24
 423               	.LM66:
 424 01ba 20E0      		ldi r18,lo8(0x3f800000)
 425 01bc 30E0      		ldi r19,hi8(0x3f800000)
 426 01be 40E8      		ldi r20,hlo8(0x3f800000)
 427 01c0 5FE3      		ldi r21,hhi8(0x3f800000)
 428 01c2 0E94 0000 		call __ltsf2
 429 01c6 8823      		tst r24
 430 01c8 04F4      		brge .L54
 431 01ca 61E0      		ldi r22,lo8(1)
 432 01cc 70E0      		ldi r23,hi8(1)
 433               	.LVL26:
 434 01ce 00C0      		rjmp .L41
 435               	.LVL27:
 436               	.L54:
 437               	.LM67:
 438 01d0 C801      		movw r24,r16
 439 01d2 B701      		movw r22,r14
 440 01d4 20E0      		ldi r18,lo8(0x477fff00)
 441 01d6 3FEF      		ldi r19,hi8(0x477fff00)
 442 01d8 4FE7      		ldi r20,hlo8(0x477fff00)
 443 01da 57E4      		ldi r21,hhi8(0x477fff00)
 444 01dc 0E94 0000 		call __gtsf2
 445 01e0 1816      		cp __zero_reg__,r24
 446 01e2 04F4      		brge .L55
 447               	.LM68:
 448 01e4 C601      		movw r24,r12
 449 01e6 B501      		movw r22,r10
 450 01e8 20E0      		ldi r18,lo8(0x41200000)
 451 01ea 30E0      		ldi r19,hi8(0x41200000)
 452 01ec 40E2      		ldi r20,hlo8(0x41200000)
 453 01ee 51E4      		ldi r21,hhi8(0x41200000)
 454 01f0 0E94 0000 		call __mulsf3
 455 01f4 0E94 0000 		call __fixunssfsi
 456               	.LBB387:
 457               	.LBB388:
 458               	.LM69:
 459 01f8 80E9      		ldi r24,lo8(400)
 460 01fa 91E0      		ldi r25,hi8(400)
 461 01fc 00C0      		rjmp .L44
 462               	.LVL28:
 463               	.L45:
 464 01fe FC01      		movw r30,r24
 465               	/* #APP */
 466               	 ;  105 "c:/winavr-20100110/lib/gcc/../../avr/include/util/delay_basic.h" 1
 467 0200 3197      		1: sbiw r30,1
 468 0202 01F4      		brne 1b
 469               	 ;  0 "" 2
 470               	/* #NOAPP */
 471               	.LBE388:
 472               	.LBE387:
 473               	.LM70:
 474 0204 6150      		subi r22,lo8(-(-1))
 475 0206 7040      		sbci r23,hi8(-(-1))
 476               	.L44:
 477               	.LM71:
 478 0208 6115      		cp r22,__zero_reg__
 479 020a 7105      		cpc r23,__zero_reg__
 480 020c 01F4      		brne .L45
 481 020e 00C0      		rjmp .L47
 482               	.LVL29:
 483               	.L55:
 484               	.LM72:
 485 0210 C801      		movw r24,r16
 486 0212 B701      		movw r22,r14
 487 0214 0E94 0000 		call __fixunssfsi
 488               	.LVL30:
 489               	.L41:
 490               	.LBB389:
 491               	.LBB390:
 492               	.LM73:
 493 0218 CB01      		movw r24,r22
 494               	.LVL31:
 495               	/* #APP */
 496               	 ;  105 "c:/winavr-20100110/lib/gcc/../../avr/include/util/delay_basic.h" 1
 497 021a 0197      		1: sbiw r24,1
 498 021c 01F4      		brne 1b
 499               	 ;  0 "" 2
 500               	/* #NOAPP */
 501 021e 00C0      		rjmp .L47
 502               	.LVL32:
 503               	.L53:
 504               	.LBE390:
 505               	.LBE389:
 506               	.LBE386:
 507               	.LBE385:
 508               	.LM74:
 509 0220 C801      		movw r24,r16
 510 0222 B701      		movw r22,r14
 511 0224 0E94 0000 		call __fixunssfsi
 512               	.LVL33:
 513               	.L36:
 514               	.LBB391:
 515               	.LBB392:
 516               	.LM75:
 517               	/* #APP */
 518               	 ;  83 "c:/winavr-20100110/lib/gcc/../../avr/include/util/delay_basic.h" 1
 519 0228 6A95      		1: dec r22
 520 022a 01F4      		brne 1b
 521               	 ;  0 "" 2
 522               	.LVL34:
 523               	/* #NOAPP */
 524               	.L47:
 525               	/* epilogue start */
 526               	.LBE392:
 527               	.LBE391:
 528               	.LBE384:
 529               	.LBE383:
 530               	.LM76:
 531 022c 1F91      		pop r17
 532 022e 0F91      		pop r16
 533 0230 FF90      		pop r15
 534 0232 EF90      		pop r14
 535 0234 DF90      		pop r13
 536 0236 CF90      		pop r12
 537 0238 BF90      		pop r11
 538 023a AF90      		pop r10
 539 023c 0895      		ret
 540               	.LFE13:
 542               	.global	check_sensors
 544               	check_sensors:
 545               	.LFB14:
 546               	.LM77:
 547 023e 0F93      		push r16
 548 0240 1F93      		push r17
 549 0242 CF93      		push r28
 550 0244 DF93      		push r29
 551               	/* prologue: function */
 552               	/* frame size = 0 */
 553               	.LM78:
 554 0246 1092 0000 		sts sensorbyte,__zero_reg__
 555 024a C0E0      		ldi r28,lo8(0)
 556 024c D0E0      		ldi r29,hi8(0)
 557               	.LM79:
 558 024e 01E0      		ldi r16,lo8(1)
 559 0250 10E0      		ldi r17,hi8(1)
 560               	.L58:
 561               	.LM80:
 562 0252 8C2F      		mov r24,r28
 563 0254 0E94 0000 		call adc_start
 564               	.LM81:
 565 0258 8634      		cpi r24,lo8(70)
 566 025a 00F4      		brsh .L57
 567               	.LM82:
 568 025c 9801      		movw r18,r16
 569 025e 0C2E      		mov r0,r28
 570 0260 00C0      		rjmp 2f
 571 0262 220F      	1:	lsl r18
 572 0264 331F      		rol r19
 573 0266 0A94      	2:	dec r0
 574 0268 02F4      		brpl 1b
 575 026a 8091 0000 		lds r24,sensorbyte
 576 026e 822B      		or r24,r18
 577 0270 8093 0000 		sts sensorbyte,r24
 578               	.L57:
 579 0274 2196      		adiw r28,1
 580               	.LM83:
 581 0276 C430      		cpi r28,4
 582 0278 D105      		cpc r29,__zero_reg__
 583 027a 01F4      		brne .L58
 584               	/* epilogue start */
 585               	.LM84:
 586 027c DF91      		pop r29
 587 027e CF91      		pop r28
 588 0280 1F91      		pop r17
 589 0282 0F91      		pop r16
 590 0284 0895      		ret
 591               	.LFE14:
 593               	.global	calibrate_white
 595               	calibrate_white:
 596               	.LFB15:
 597               	.LM85:
 598               	/* prologue: function */
 599               	/* frame size = 0 */
 600               	.LM86:
 601 0286 80E0      		ldi r24,lo8(0)
 602 0288 0E94 0000 		call adc_start
 603 028c 8093 0000 		sts max,r24
 604 0290 81E0      		ldi r24,lo8(1)
 605 0292 0E94 0000 		call adc_start
 606 0296 8093 0000 		sts max+1,r24
 607 029a 82E0      		ldi r24,lo8(2)
 608 029c 0E94 0000 		call adc_start
 609 02a0 8093 0000 		sts max+2,r24
 610 02a4 83E0      		ldi r24,lo8(3)
 611 02a6 0E94 0000 		call adc_start
 612 02aa 8093 0000 		sts max+3,r24
 613               	/* epilogue start */
 614               	.LM87:
 615 02ae 0895      		ret
 616               	.LFE15:
 618               	.global	calibrate_black
 620               	calibrate_black:
 621               	.LFB16:
 622               	.LM88:
 623               	/* prologue: function */
 624               	/* frame size = 0 */
 625               	.LM89:
 626 02b0 80E0      		ldi r24,lo8(0)
 627 02b2 0E94 0000 		call adc_start
 628 02b6 8093 0000 		sts min,r24
 629 02ba 81E0      		ldi r24,lo8(1)
 630 02bc 0E94 0000 		call adc_start
 631 02c0 8093 0000 		sts min+1,r24
 632 02c4 82E0      		ldi r24,lo8(2)
 633 02c6 0E94 0000 		call adc_start
 634 02ca 8093 0000 		sts min+2,r24
 635 02ce 83E0      		ldi r24,lo8(3)
 636 02d0 0E94 0000 		call adc_start
 637 02d4 8093 0000 		sts min+3,r24
 638               	/* epilogue start */
 639               	.LM90:
 640 02d8 0895      		ret
 641               	.LFE16:
 643               	.global	flick
 645               	flick:
 646               	.LFB18:
 647               	.LM91:
 648 02da 1F93      		push r17
 649 02dc CF93      		push r28
 650 02de DF93      		push r29
 651               	/* prologue: function */
 652               	/* frame size = 0 */
 653               	.LM92:
 654 02e0 C0E0      		ldi r28,lo8(0)
 655 02e2 D0E0      		ldi r29,hi8(0)
 656               	.LVL35:
 657               	.LM93:
 658 02e4 1FEF      		ldi r17,lo8(-1)
 659               	.L66:
 660 02e6 15BB      		out 53-32,r17
 661               	.LM94:
 662 02e8 84E6      		ldi r24,lo8(100)
 663 02ea 90E0      		ldi r25,hi8(100)
 664 02ec 0E94 0000 		call delay_millisec
 665               	.LM95:
 666 02f0 15BA      		out 53-32,__zero_reg__
 667               	.LM96:
 668 02f2 84E6      		ldi r24,lo8(100)
 669 02f4 90E0      		ldi r25,hi8(100)
 670 02f6 0E94 0000 		call delay_millisec
 671               	.LM97:
 672 02fa 2196      		adiw r28,1
 673 02fc C530      		cpi r28,5
 674 02fe D105      		cpc r29,__zero_reg__
 675 0300 01F4      		brne .L66
 676               	/* epilogue start */
 677               	.LM98:
 678 0302 DF91      		pop r29
 679 0304 CF91      		pop r28
 680               	.LVL36:
 681 0306 1F91      		pop r17
 682 0308 0895      		ret
 683               	.LFE18:
 685               	.global	set_pwm1a
 687               	set_pwm1a:
 688               	.LFB19:
 689               	.LM99:
 690               	.LVL37:
 691               	/* prologue: function */
 692               	/* frame size = 0 */
 693               	.LM100:
 694 030a 9BBD      		out (74)+1-32,r25
 695 030c 8ABD      		out 74-32,r24
 696               	.LVL38:
 697               	/* epilogue start */
 698               	.LM101:
 699 030e 0895      		ret
 700               	.LFE19:
 702               	.global	set_pwm1b
 704               	set_pwm1b:
 705               	.LFB20:
 706               	.LM102:
 707               	.LVL39:
 708               	/* prologue: function */
 709               	/* frame size = 0 */
 710               	.LM103:
 711 0310 99BD      		out (72)+1-32,r25
 712 0312 88BD      		out 72-32,r24
 713               	.LVL40:
 714               	/* epilogue start */
 715               	.LM104:
 716 0314 0895      		ret
 717               	.LFE20:
 719               	.global	lcd_busy_loop
 721               	lcd_busy_loop:
 722               	.LFB22:
 723               	.LM105:
 724               	/* prologue: function */
 725               	/* frame size = 0 */
 726               	.LM106:
 727 0316 87B3      		in r24,55-32
 728 0318 807F      		andi r24,lo8(-16)
 729 031a 87BB      		out 55-32,r24
 730               	.LM107:
 731 031c C69A      		sbi 56-32,6
 732               	.LM108:
 733 031e C598      		cbi 56-32,5
 734               	.LBB393:
 735               	.LBB394:
 736               	.LBB395:
 737               	.LBB396:
 738               	.LM109:
 739 0320 82E0      		ldi r24,lo8(2)
 740               	.LVL41:
 741               	/* #APP */
 742               	 ;  83 "c:/winavr-20100110/lib/gcc/../../avr/include/util/delay_basic.h" 1
 743 0322 8A95      		1: dec r24
 744 0324 01F4      		brne 1b
 745               	 ;  0 "" 2
 746               	/* #NOAPP */
 747               	.LBE396:
 748               	.LBE395:
 749               	.LBE394:
 750               	.LBE393:
 751               	.LBB397:
 752               	.LBB398:
 753               	.LBB399:
 754               	.LBB400:
 755 0326 22E0      		ldi r18,lo8(2)
 756               	.LBE400:
 757               	.LBE399:
 758               	.LBE398:
 759               	.LBE397:
 760               	.LBB404:
 761               	.LBB405:
 762               	.LBB406:
 763               	.LBB407:
 764 0328 35E0      		ldi r19,lo8(5)
 765               	.L74:
 766               	.LBE407:
 767               	.LBE406:
 768               	.LBE405:
 769               	.LBE404:
 770               	.LM110:
 771 032a C79A      		sbi 56-32,7
 772               	.LBB411:
 773               	.LBB403:
 774               	.LBB402:
 775               	.LBB401:
 776               	.LM111:
 777 032c 822F      		mov r24,r18
 778               	.LVL42:
 779               	/* #APP */
 780               	 ;  83 "c:/winavr-20100110/lib/gcc/../../avr/include/util/delay_basic.h" 1
 781 032e 8A95      		1: dec r24
 782 0330 01F4      		brne 1b
 783               	 ;  0 "" 2
 784               	/* #NOAPP */
 785               	.LBE401:
 786               	.LBE402:
 787               	.LBE403:
 788               	.LBE411:
 789               	.LM112:
 790 0332 86B3      		in r24,54-32
 791               	.LVL43:
 792               	.LM113:
 793 0334 8295      		swap r24
 794 0336 807F      		andi r24,lo8(-16)
 795               	.LBB412:
 796               	.LBB413:
 797               	.LBB414:
 798               	.LBB415:
 799               	.LM114:
 800 0338 922F      		mov r25,r18
 801               	.LVL44:
 802               	/* #APP */
 803               	 ;  83 "c:/winavr-20100110/lib/gcc/../../avr/include/util/delay_basic.h" 1
 804 033a 9A95      		1: dec r25
 805 033c 01F4      		brne 1b
 806               	 ;  0 "" 2
 807               	/* #NOAPP */
 808               	.LBE415:
 809               	.LBE414:
 810               	.LBE413:
 811               	.LBE412:
 812               	.LM115:
 813 033e C798      		cbi 56-32,7
 814               	.LBB416:
 815               	.LBB410:
 816               	.LBB409:
 817               	.LBB408:
 818               	.LM116:
 819 0340 932F      		mov r25,r19
 820               	.LVL45:
 821               	/* #APP */
 822               	 ;  83 "c:/winavr-20100110/lib/gcc/../../avr/include/util/delay_basic.h" 1
 823 0342 9A95      		1: dec r25
 824 0344 01F4      		brne 1b
 825               	 ;  0 "" 2
 826               	/* #NOAPP */
 827               	.LBE408:
 828               	.LBE409:
 829               	.LBE410:
 830               	.LBE416:
 831               	.LM117:
 832 0346 C79A      		sbi 56-32,7
 833               	.LBB417:
 834               	.LBB418:
 835               	.LBB419:
 836               	.LBB420:
 837               	.LM118:
 838 0348 922F      		mov r25,r18
 839               	.LVL46:
 840               	/* #APP */
 841               	 ;  83 "c:/winavr-20100110/lib/gcc/../../avr/include/util/delay_basic.h" 1
 842 034a 9A95      		1: dec r25
 843 034c 01F4      		brne 1b
 844               	 ;  0 "" 2
 845               	/* #NOAPP */
 846               	.LBE420:
 847               	.LBE419:
 848               	.LBE418:
 849               	.LBE417:
 850               	.LM119:
 851 034e 96B3      		in r25,54-32
 852               	.LVL47:
 853               	.LBB421:
 854               	.LBB422:
 855               	.LBB423:
 856               	.LBB424:
 857               	.LM120:
 858 0350 922F      		mov r25,r18
 859               	.LVL48:
 860               	/* #APP */
 861               	 ;  83 "c:/winavr-20100110/lib/gcc/../../avr/include/util/delay_basic.h" 1
 862 0352 9A95      		1: dec r25
 863 0354 01F4      		brne 1b
 864               	 ;  0 "" 2
 865               	/* #NOAPP */
 866               	.LBE424:
 867               	.LBE423:
 868               	.LBE422:
 869               	.LBE421:
 870               	.LM121:
 871 0356 C798      		cbi 56-32,7
 872               	.LBB425:
 873               	.LBB426:
 874               	.LBB427:
 875               	.LBB428:
 876               	.LM122:
 877 0358 932F      		mov r25,r19
 878               	.LVL49:
 879               	/* #APP */
 880               	 ;  83 "c:/winavr-20100110/lib/gcc/../../avr/include/util/delay_basic.h" 1
 881 035a 9A95      		1: dec r25
 882 035c 01F4      		brne 1b
 883               	 ;  0 "" 2
 884               	/* #NOAPP */
 885               	.LBE428:
 886               	.LBE427:
 887               	.LBE426:
 888               	.LBE425:
 889               	.LM123:
 890 035e 87FD      		sbrc r24,7
 891 0360 00C0      		rjmp .L74
 892               	.LM124:
 893 0362 C698      		cbi 56-32,6
 894               	.LM125:
 895 0364 87B3      		in r24,55-32
 896               	.LVL50:
 897 0366 8F60      		ori r24,lo8(15)
 898 0368 87BB      		out 55-32,r24
 899               	/* epilogue start */
 900               	.LM126:
 901 036a 0895      		ret
 902               	.LFE22:
 904               	.global	lcd_byte
 906               	lcd_byte:
 907               	.LFB21:
 908               	.LM127:
 909               	.LVL51:
 910               	/* prologue: function */
 911               	/* frame size = 0 */
 912 036c 282F      		mov r18,r24
 913               	.LM128:
 914 036e 6623      		tst r22
 915 0370 01F4      		brne .L78
 916               	.LVL52:
 917               	.LM129:
 918 0372 C598      		cbi 56-32,5
 919 0374 00C0      		rjmp .L79
 920               	.L78:
 921               	.LM130:
 922 0376 C59A      		sbi 56-32,5
 923               	.L79:
 924               	.LBB429:
 925               	.LBB430:
 926               	.LBB431:
 927               	.LBB432:
 928               	.LM131:
 929 0378 82E0      		ldi r24,lo8(2)
 930               	.LVL53:
 931               	/* #APP */
 932               	 ;  83 "c:/winavr-20100110/lib/gcc/../../avr/include/util/delay_basic.h" 1
 933 037a 8A95      		1: dec r24
 934 037c 01F4      		brne 1b
 935               	 ;  0 "" 2
 936               	/* #NOAPP */
 937               	.LBE432:
 938               	.LBE431:
 939               	.LBE430:
 940               	.LBE429:
 941               	.LM132:
 942 037e C79A      		sbi 56-32,7
 943               	.LM133:
 944 0380 88B3      		in r24,56-32
 945               	.LVL54:
 946 0382 922F      		mov r25,r18
 947 0384 9295      		swap r25
 948 0386 9F70      		andi r25,lo8(15)
 949 0388 807F      		andi r24,lo8(-16)
 950 038a 982B      		or r25,r24
 951               	.LM134:
 952 038c 98BB      		out 56-32,r25
 953               	.LBB433:
 954               	.LBB434:
 955               	.LBB435:
 956               	.LBB436:
 957               	.LM135:
 958 038e 95E0      		ldi r25,lo8(5)
 959 0390 892F      		mov r24,r25
 960               	.LVL55:
 961               	/* #APP */
 962               	 ;  83 "c:/winavr-20100110/lib/gcc/../../avr/include/util/delay_basic.h" 1
 963 0392 8A95      		1: dec r24
 964 0394 01F4      		brne 1b
 965               	 ;  0 "" 2
 966               	/* #NOAPP */
 967               	.LBE436:
 968               	.LBE435:
 969               	.LBE434:
 970               	.LBE433:
 971               	.LM136:
 972 0396 C798      		cbi 56-32,7
 973               	.LBB437:
 974               	.LBB438:
 975               	.LBB439:
 976               	.LBB440:
 977               	.LM137:
 978 0398 892F      		mov r24,r25
 979               	.LVL56:
 980               	/* #APP */
 981               	 ;  83 "c:/winavr-20100110/lib/gcc/../../avr/include/util/delay_basic.h" 1
 982 039a 8A95      		1: dec r24
 983 039c 01F4      		brne 1b
 984               	 ;  0 "" 2
 985               	/* #NOAPP */
 986               	.LBE440:
 987               	.LBE439:
 988               	.LBE438:
 989               	.LBE437:
 990               	.LM138:
 991 039e C79A      		sbi 56-32,7
 992               	.LM139:
 993 03a0 88B3      		in r24,56-32
 994               	.LVL57:
 995 03a2 2F70      		andi r18,lo8(15)
 996 03a4 807F      		andi r24,lo8(-16)
 997 03a6 822B      		or r24,r18
 998               	.LM140:
 999 03a8 88BB      		out 56-32,r24
 1000               	.LBB441:
 1001               	.LBB442:
 1002               	.LBB443:
 1003               	.LBB444:
 1004               	.LM141:
 1005 03aa 892F      		mov r24,r25
 1006               	.LVL58:
 1007               	/* #APP */
 1008               	 ;  83 "c:/winavr-20100110/lib/gcc/../../avr/include/util/delay_basic.h" 1
 1009 03ac 8A95      		1: dec r24
 1010 03ae 01F4      		brne 1b
 1011               	 ;  0 "" 2
 1012               	/* #NOAPP */
 1013               	.LBE444:
 1014               	.LBE443:
 1015               	.LBE442:
 1016               	.LBE441:
 1017               	.LM142:
 1018 03b0 C798      		cbi 56-32,7
 1019               	.LBB445:
 1020               	.LBB446:
 1021               	.LBB447:
 1022               	.LBB448:
 1023               	.LM143:
 1024               	/* #APP */
 1025               	 ;  83 "c:/winavr-20100110/lib/gcc/../../avr/include/util/delay_basic.h" 1
 1026 03b2 9A95      		1: dec r25
 1027 03b4 01F4      		brne 1b
 1028               	 ;  0 "" 2
 1029               	.LVL59:
 1030               	/* #NOAPP */
 1031               	.LBE448:
 1032               	.LBE447:
 1033               	.LBE446:
 1034               	.LBE445:
 1035               	.LM144:
 1036 03b6 0E94 0000 		call lcd_busy_loop
 1037               	.LVL60:
 1038               	/* epilogue start */
 1039               	.LM145:
 1040 03ba 0895      		ret
 1041               	.LFE21:
 1043               	.global	lcd_init
 1045               	lcd_init:
 1046               	.LFB23:
 1047               	.LM146:
 1048               	.LVL61:
 1049 03bc 1F93      		push r17
 1050               	/* prologue: function */
 1051               	/* frame size = 0 */
 1052 03be 182F      		mov r17,r24
 1053               	.LM147:
 1054 03c0 8CE2      		ldi r24,lo8(300)
 1055 03c2 91E0      		ldi r25,hi8(300)
 1056               	.LVL62:
 1057               	.LBB449:
 1058               	.LBB450:
 1059               	.LBB451:
 1060               	.LBB452:
 1061               	.LM148:
 1062 03c4 20E9      		ldi r18,lo8(400)
 1063 03c6 31E0      		ldi r19,hi8(400)
 1064               	.L82:
 1065 03c8 F901      		movw r30,r18
 1066               	.LVL63:
 1067               	/* #APP */
 1068               	 ;  105 "c:/winavr-20100110/lib/gcc/../../avr/include/util/delay_basic.h" 1
 1069 03ca 3197      		1: sbiw r30,1
 1070 03cc 01F4      		brne 1b
 1071               	 ;  0 "" 2
 1072               	/* #NOAPP */
 1073               	.LBE452:
 1074               	.LBE451:
 1075               	.LM149:
 1076 03ce 0197      		sbiw r24,1
 1077               	.LM150:
 1078 03d0 01F4      		brne .L82
 1079               	.LBE450:
 1080               	.LBE449:
 1081               	.LM151:
 1082 03d2 87B3      		in r24,55-32
 1083               	.LVL64:
 1084 03d4 8F60      		ori r24,lo8(15)
 1085 03d6 87BB      		out 55-32,r24
 1086               	.LM152:
 1087 03d8 BF9A      		sbi 55-32,7
 1088               	.LM153:
 1089 03da BD9A      		sbi 55-32,5
 1090               	.LM154:
 1091 03dc BE9A      		sbi 55-32,6
 1092               	.LM155:
 1093 03de 88B3      		in r24,56-32
 1094 03e0 807F      		andi r24,lo8(-16)
 1095 03e2 88BB      		out 56-32,r24
 1096               	.LM156:
 1097 03e4 C798      		cbi 56-32,7
 1098               	.LM157:
 1099 03e6 C698      		cbi 56-32,6
 1100               	.LM158:
 1101 03e8 C598      		cbi 56-32,5
 1102               	.LBB453:
 1103               	.LBB454:
 1104               	.LBB455:
 1105               	.LBB456:
 1106               	.LM159:
 1107 03ea 81E0      		ldi r24,lo8(1)
 1108               	.LVL65:
 1109               	/* #APP */
 1110               	 ;  83 "c:/winavr-20100110/lib/gcc/../../avr/include/util/delay_basic.h" 1
 1111 03ec 8A95      		1: dec r24
 1112 03ee 01F4      		brne 1b
 1113               	 ;  0 "" 2
 1114               	/* #NOAPP */
 1115               	.LBE456:
 1116               	.LBE455:
 1117               	.LBE454:
 1118               	.LBE453:
 1119               	.LM160:
 1120 03f0 C79A      		sbi 56-32,7
 1121               	.LM161:
 1122 03f2 C19A      		sbi 56-32,1
 1123               	.LBB457:
 1124               	.LBB458:
 1125               	.LBB459:
 1126               	.LBB460:
 1127               	.LM162:
 1128 03f4 85E0      		ldi r24,lo8(5)
 1129               	.LVL66:
 1130 03f6 982F      		mov r25,r24
 1131               	.LVL67:
 1132               	/* #APP */
 1133               	 ;  83 "c:/winavr-20100110/lib/gcc/../../avr/include/util/delay_basic.h" 1
 1134 03f8 9A95      		1: dec r25
 1135 03fa 01F4      		brne 1b
 1136               	 ;  0 "" 2
 1137               	/* #NOAPP */
 1138               	.LBE460:
 1139               	.LBE459:
 1140               	.LBE458:
 1141               	.LBE457:
 1142               	.LM163:
 1143 03fc C798      		cbi 56-32,7
 1144               	.LBB461:
 1145               	.LBB462:
 1146               	.LBB463:
 1147               	.LBB464:
 1148               	.LM164:
 1149               	/* #APP */
 1150               	 ;  83 "c:/winavr-20100110/lib/gcc/../../avr/include/util/delay_basic.h" 1
 1151 03fe 8A95      		1: dec r24
 1152 0400 01F4      		brne 1b
 1153               	 ;  0 "" 2
 1154               	.LVL68:
 1155               	/* #NOAPP */
 1156               	.LBE464:
 1157               	.LBE463:
 1158               	.LBE462:
 1159               	.LBE461:
 1160               	.LM165:
 1161 0402 0E94 0000 		call lcd_busy_loop
 1162               	.LVL69:
 1163               	.LM166:
 1164 0406 812F      		mov r24,r17
 1165 0408 8C60      		ori r24,lo8(12)
 1166 040a 60E0      		ldi r22,lo8(0)
 1167 040c 0E94 0000 		call lcd_byte
 1168               	.LM167:
 1169 0410 88E2      		ldi r24,lo8(40)
 1170 0412 60E0      		ldi r22,lo8(0)
 1171 0414 0E94 0000 		call lcd_byte
 1172               	/* epilogue start */
 1173               	.LM168:
 1174 0418 1F91      		pop r17
 1175               	.LVL70:
 1176 041a 0895      		ret
 1177               	.LFE23:
 1179               	.global	lcd_write_string
 1181               	lcd_write_string:
 1182               	.LFB24:
 1183               	.LM169:
 1184               	.LVL71:
 1185 041c CF93      		push r28
 1186 041e DF93      		push r29
 1187               	/* prologue: function */
 1188               	/* frame size = 0 */
 1189 0420 EC01      		movw r28,r24
 1190 0422 00C0      		rjmp .L86
 1191               	.LVL72:
 1192               	.L87:
 1193               	.LM170:
 1194 0424 61E0      		ldi r22,lo8(1)
 1195 0426 0E94 0000 		call lcd_byte
 1196               	.LM171:
 1197 042a 2196      		adiw r28,1
 1198               	.LVL73:
 1199               	.L86:
 1200               	.LM172:
 1201 042c 8881      		ld r24,Y
 1202 042e 8823      		tst r24
 1203 0430 01F4      		brne .L87
 1204               	/* epilogue start */
 1205               	.LM173:
 1206 0432 DF91      		pop r29
 1207 0434 CF91      		pop r28
 1208               	.LVL74:
 1209 0436 0895      		ret
 1210               	.LFE24:
 1212               	.global	lcd_write_int
 1214               	lcd_write_int:
 1215               	.LFB25:
 1216               	.LM174:
 1217               	.LVL75:
 1218 0438 EF92      		push r14
 1219 043a FF92      		push r15
 1220 043c 0F93      		push r16
 1221 043e 1F93      		push r17
 1222 0440 DF93      		push r29
 1223 0442 CF93      		push r28
 1224 0444 00D0      		rcall .
 1225 0446 00D0      		rcall .
 1226 0448 0F92      		push __tmp_reg__
 1227 044a CDB7      		in r28,__SP_L__
 1228 044c DEB7      		in r29,__SP_H__
 1229               	/* prologue: function */
 1230               	/* frame size = 5 */
 1231 044e 9C01      		movw r18,r24
 1232 0450 8B01      		movw r16,r22
 1233               	.LM175:
 1234 0452 FE01      		movw r30,r28
 1235 0454 3196      		adiw r30,1
 1236 0456 85E0      		ldi r24,lo8(5)
 1237               	.LVL76:
 1238 0458 DF01      		movw r26,r30
 1239 045a 1D92      		st X+,__zero_reg__
 1240 045c 8A95      	        dec r24
 1241 045e 01F4      		brne .-6
 1242 0460 FE01      		movw r30,r28
 1243 0462 3596      		adiw r30,5
 1244 0464 00C0      		rjmp .L90
 1245               	.LVL77:
 1246               	.L91:
 1247               	.LM176:
 1248 0466 C901      		movw r24,r18
 1249 0468 6AE0      		ldi r22,lo8(10)
 1250 046a 70E0      		ldi r23,hi8(10)
 1251 046c 0E94 0000 		call __divmodhi4
 1252 0470 8083      		st Z,r24
 1253               	.LM177:
 1254 0472 C901      		movw r24,r18
 1255 0474 6AE0      		ldi r22,lo8(10)
 1256 0476 70E0      		ldi r23,hi8(10)
 1257 0478 0E94 0000 		call __divmodhi4
 1258 047c 9B01      		movw r18,r22
 1259 047e 3197      		sbiw r30,1
 1260               	.LVL78:
 1261               	.L90:
 1262               	.LM178:
 1263 0480 2115      		cp r18,__zero_reg__
 1264 0482 3105      		cpc r19,__zero_reg__
 1265 0484 01F4      		brne .L91
 1266               	.LM179:
 1267 0486 BFEF      		ldi r27,hi8(-1)
 1268 0488 0F3F      		cpi r16,lo8(-1)
 1269 048a 1B07      		cpc r17,r27
 1270 048c 01F4      		brne .L92
 1271 048e 20E0      		ldi r18,lo8(0)
 1272 0490 30E0      		ldi r19,hi8(0)
 1273               	.LVL79:
 1274               	.LM180:
 1275 0492 AE01      		movw r20,r28
 1276 0494 4F5F      		subi r20,lo8(-(1))
 1277 0496 5F4F      		sbci r21,hi8(-(1))
 1278 0498 00C0      		rjmp .L93
 1279               	.L94:
 1280 049a 2F5F      		subi r18,lo8(-(1))
 1281 049c 3F4F      		sbci r19,hi8(-(1))
 1282               	.L93:
 1283 049e FA01      		movw r30,r20
 1284 04a0 E20F      		add r30,r18
 1285 04a2 F31F      		adc r31,r19
 1286 04a4 8081      		ld r24,Z
 1287 04a6 8823      		tst r24
 1288 04a8 01F0      		breq .L94
 1289 04aa 00C0      		rjmp .L95
 1290               	.LVL80:
 1291               	.L92:
 1292               	.LM181:
 1293 04ac 25E0      		ldi r18,lo8(5)
 1294 04ae 30E0      		ldi r19,hi8(5)
 1295               	.LVL81:
 1296 04b0 201B      		sub r18,r16
 1297 04b2 310B      		sbc r19,r17
 1298               	.L95:
 1299 04b4 7E01      		movw r14,r28
 1300 04b6 0894      		sec
 1301 04b8 E11C      		adc r14,__zero_reg__
 1302 04ba F11C      		adc r15,__zero_reg__
 1303 04bc E20E      		add r14,r18
 1304 04be F31E      		adc r15,r19
 1305 04c0 8901      		movw r16,r18
 1306               	.LVL82:
 1307 04c2 00C0      		rjmp .L96
 1308               	.L97:
 1309               	.LM182:
 1310 04c4 F701      		movw r30,r14
 1311 04c6 8191      		ld r24,Z+
 1312 04c8 7F01      		movw r14,r30
 1313 04ca 805D      		subi r24,lo8(-(48))
 1314 04cc 61E0      		ldi r22,lo8(1)
 1315               	.LVL83:
 1316 04ce 0E94 0000 		call lcd_byte
 1317               	.LVL84:
 1318               	.LM183:
 1319 04d2 0F5F      		subi r16,lo8(-(1))
 1320 04d4 1F4F      		sbci r17,hi8(-(1))
 1321               	.LVL85:
 1322               	.L96:
 1323 04d6 0530      		cpi r16,5
 1324 04d8 1105      		cpc r17,__zero_reg__
 1325 04da 04F0      		brlt .L97
 1326               	/* epilogue start */
 1327               	.LM184:
 1328 04dc 0F90      		pop __tmp_reg__
 1329 04de 0F90      		pop __tmp_reg__
 1330 04e0 0F90      		pop __tmp_reg__
 1331 04e2 0F90      		pop __tmp_reg__
 1332 04e4 0F90      		pop __tmp_reg__
 1333 04e6 CF91      		pop r28
 1334 04e8 DF91      		pop r29
 1335 04ea 1F91      		pop r17
 1336 04ec 0F91      		pop r16
 1337               	.LVL86:
 1338 04ee FF90      		pop r15
 1339 04f0 EF90      		pop r14
 1340 04f2 0895      		ret
 1341               	.LFE25:
 1343               	.global	lcd_goto_xy
 1345               	lcd_goto_xy:
 1346               	.LFB26:
 1347               	.LM185:
 1348               	.LVL87:
 1349               	/* prologue: function */
 1350               	/* frame size = 0 */
 1351               	.LM186:
 1352 04f4 8832      		cpi r24,lo8(40)
 1353 04f6 00F4      		brsh .L102
 1354               	.LM187:
 1355 04f8 6111      		cpse r22,__zero_reg__
 1356 04fa 8064      		ori r24,lo8(64)
 1357               	.LVL88:
 1358               	.L101:
 1359               	.LM188:
 1360 04fc 8068      		ori r24,lo8(-128)
 1361               	.LVL89:
 1362 04fe 60E0      		ldi r22,lo8(0)
 1363               	.LVL90:
 1364 0500 0E94 0000 		call lcd_byte
 1365               	.LVL91:
 1366               	.L102:
 1367 0504 0895      		ret
 1368               	.LFE26:
 1370               	.global	lcd_write_string_xy
 1372               	lcd_write_string_xy:
 1373               	.LFB27:
 1374               	.LM189:
 1375               	.LVL92:
 1376 0506 0F93      		push r16
 1377 0508 1F93      		push r17
 1378               	/* prologue: function */
 1379               	/* frame size = 0 */
 1380 050a 8A01      		movw r16,r20
 1381               	.LM190:
 1382 050c 0E94 0000 		call lcd_goto_xy
 1383               	.LVL93:
 1384               	.LM191:
 1385 0510 C801      		movw r24,r16
 1386 0512 0E94 0000 		call lcd_write_string
 1387               	/* epilogue start */
 1388               	.LM192:
 1389 0516 1F91      		pop r17
 1390 0518 0F91      		pop r16
 1391               	.LVL94:
 1392 051a 0895      		ret
 1393               	.LFE27:
 1395               	.global	lcd_write_int_xy
 1397               	lcd_write_int_xy:
 1398               	.LFB28:
 1399               	.LM193:
 1400               	.LVL95:
 1401 051c EF92      		push r14
 1402 051e FF92      		push r15
 1403 0520 0F93      		push r16
 1404 0522 1F93      		push r17
 1405               	/* prologue: function */
 1406               	/* frame size = 0 */
 1407 0524 8A01      		movw r16,r20
 1408 0526 7901      		movw r14,r18
 1409               	.LM194:
 1410 0528 0E94 0000 		call lcd_goto_xy
 1411               	.LVL96:
 1412               	.LM195:
 1413 052c C801      		movw r24,r16
 1414 052e B701      		movw r22,r14
 1415 0530 0E94 0000 		call lcd_write_int
 1416               	/* epilogue start */
 1417               	.LM196:
 1418 0534 1F91      		pop r17
 1419 0536 0F91      		pop r16
 1420               	.LVL97:
 1421 0538 FF90      		pop r15
 1422 053a EF90      		pop r14
 1423               	.LVL98:
 1424 053c 0895      		ret
 1425               	.LFE28:
 1427               	.global	usart_init
 1429               	usart_init:
 1430               	.LFB29:
 1431               	.LM197:
 1432               	/* prologue: function */
 1433               	/* frame size = 0 */
 1434               	.LM198:
 1435 053e 1AB8      		out 42-32,__zero_reg__
 1436               	.LM199:
 1437 0540 1BB8      		out 43-32,__zero_reg__
 1438               	.LM200:
 1439 0542 87E0      		ldi r24,lo8(7)
 1440 0544 80BD      		out 64-32,r24
 1441               	.LM201:
 1442 0546 87E6      		ldi r24,lo8(103)
 1443 0548 89B9      		out 41-32,r24
 1444               	.LM202:
 1445 054a 10BC      		out 64-32,__zero_reg__
 1446               	.LM203:
 1447 054c 88E9      		ldi r24,lo8(-104)
 1448 054e 8AB9      		out 42-32,r24
 1449               	/* epilogue start */
 1450               	.LM204:
 1451 0550 0895      		ret
 1452               	.LFE29:
 1454               	.global	usart_transmit_char
 1456               	usart_transmit_char:
 1457               	.LFB30:
 1458               	.LM205:
 1459               	/* prologue: function */
 1460               	/* frame size = 0 */
 1461               	.LVL99:
 1462               	.L110:
 1463               	.LM206:
 1464 0552 5D9B      		sbis 43-32,5
 1465 0554 00C0      		rjmp .L110
 1466               	.LM207:
 1467 0556 8CB9      		out 44-32,r24
 1468               	/* epilogue start */
 1469               	.LM208:
 1470 0558 0895      		ret
 1471               	.LFE30:
 1473               	.global	usart_transmit_string
 1475               	usart_transmit_string:
 1476               	.LFB31:
 1477               	.LM209:
 1478               	.LVL100:
 1479               	/* prologue: function */
 1480               	/* frame size = 0 */
 1481 055a FC01      		movw r30,r24
 1482 055c 00C0      		rjmp .L114
 1483               	.LVL101:
 1484               	.L117:
 1485               	.LBB465:
 1486               	.LBB466:
 1487               	.LM210:
 1488 055e 5D9B      		sbis 43-32,5
 1489 0560 00C0      		rjmp .L117
 1490               	.LM211:
 1491 0562 8CB9      		out 44-32,r24
 1492               	.LBE466:
 1493               	.LBE465:
 1494               	.LM212:
 1495 0564 3196      		adiw r30,1
 1496               	.LVL102:
 1497               	.L114:
 1498               	.LM213:
 1499 0566 8081      		ld r24,Z
 1500 0568 8823      		tst r24
 1501 056a 01F4      		brne .L117
 1502               	/* epilogue start */
 1503               	.LM214:
 1504 056c 0895      		ret
 1505               	.LFE31:
 1507               	.global	usart_transmit_newline
 1509               	usart_transmit_newline:
 1510               	.LFB32:
 1511               	.LM215:
 1512               	/* prologue: function */
 1513               	/* frame size = 0 */
 1514               	.L120:
 1515               	.LBB467:
 1516               	.LBB468:
 1517               	.LM216:
 1518 056e 5D9B      		sbis 43-32,5
 1519 0570 00C0      		rjmp .L120
 1520               	.LM217:
 1521 0572 8AE0      		ldi r24,lo8(10)
 1522 0574 8CB9      		out 44-32,r24
 1523               	.L121:
 1524               	.LBE468:
 1525               	.LBE467:
 1526               	.LBB469:
 1527               	.LBB470:
 1528               	.LM218:
 1529 0576 5D9B      		sbis 43-32,5
 1530 0578 00C0      		rjmp .L121
 1531               	.LM219:
 1532 057a 8DE0      		ldi r24,lo8(13)
 1533 057c 8CB9      		out 44-32,r24
 1534               	/* epilogue start */
 1535               	.LBE470:
 1536               	.LBE469:
 1537               	.LM220:
 1538 057e 0895      		ret
 1539               	.LFE32:
 1541               	.global	usart_receive_char
 1543               	usart_receive_char:
 1544               	.LFB33:
 1545               	.LM221:
 1546               	/* prologue: function */
 1547               	/* frame size = 0 */
 1548               	.L126:
 1549               	.LM222:
 1550 0580 5F9B      		sbis 43-32,7
 1551 0582 00C0      		rjmp .L126
 1552               	.LM223:
 1553 0584 8CB1      		in r24,44-32
 1554               	/* epilogue start */
 1555               	.LM224:
 1556 0586 0895      		ret
 1557               	.LFE33:
 1559               	.global	bot_motion_init
 1561               	bot_motion_init:
 1562               	.LFB34:
 1563               	.LM225:
 1564               	/* prologue: function */
 1565               	/* frame size = 0 */
 1566               	.LM226:
 1567 0588 8FEF      		ldi r24,lo8(-1)
 1568 058a 84BB      		out 52-32,r24
 1569               	/* epilogue start */
 1570               	.LM227:
 1571 058c 0895      		ret
 1572               	.LFE34:
 1574               	.global	bot_left_forward
 1576               	bot_left_forward:
 1577               	.LFB35:
 1578               	.LM228:
 1579               	/* prologue: function */
 1580               	/* frame size = 0 */
 1581               	.LM229:
 1582 058e AC9A      		sbi 53-32,4
 1583               	.LM230:
 1584 0590 AD98      		cbi 53-32,5
 1585               	.LM231:
 1586 0592 AE98      		cbi 53-32,6
 1587               	.LM232:
 1588 0594 AF98      		cbi 53-32,7
 1589               	/* epilogue start */
 1590               	.LM233:
 1591 0596 0895      		ret
 1592               	.LFE35:
 1594               	.global	bot_left_backward
 1596               	bot_left_backward:
 1597               	.LFB36:
 1598               	.LM234:
 1599               	/* prologue: function */
 1600               	/* frame size = 0 */
 1601               	.LM235:
 1602 0598 AC98      		cbi 53-32,4
 1603               	.LM236:
 1604 059a AD9A      		sbi 53-32,5
 1605               	.LM237:
 1606 059c AE98      		cbi 53-32,6
 1607               	.LM238:
 1608 059e AF98      		cbi 53-32,7
 1609               	/* epilogue start */
 1610               	.LM239:
 1611 05a0 0895      		ret
 1612               	.LFE36:
 1614               	.global	bot_right_forward
 1616               	bot_right_forward:
 1617               	.LFB37:
 1618               	.LM240:
 1619               	/* prologue: function */
 1620               	/* frame size = 0 */
 1621               	.LM241:
 1622 05a2 AC98      		cbi 53-32,4
 1623               	.LM242:
 1624 05a4 AD98      		cbi 53-32,5
 1625               	.LM243:
 1626 05a6 AE9A      		sbi 53-32,6
 1627               	.LM244:
 1628 05a8 AF98      		cbi 53-32,7
 1629               	/* epilogue start */
 1630               	.LM245:
 1631 05aa 0895      		ret
 1632               	.LFE37:
 1634               	.global	bot_left
 1636               	bot_left:
 1637               	.LFB38:
 1638               	.LM246:
 1639               	/* prologue: function */
 1640               	/* frame size = 0 */
 1641               	.LBB471:
 1642               	.LBB472:
 1643               	.LM247:
 1644 05ac AC98      		cbi 53-32,4
 1645               	.LM248:
 1646 05ae AD98      		cbi 53-32,5
 1647               	.LM249:
 1648 05b0 AE9A      		sbi 53-32,6
 1649               	.LM250:
 1650 05b2 AF98      		cbi 53-32,7
 1651               	/* epilogue start */
 1652               	.LBE472:
 1653               	.LBE471:
 1654               	.LM251:
 1655 05b4 0895      		ret
 1656               	.LFE38:
 1658               	.global	bot_right
 1660               	bot_right:
 1661               	.LFB39:
 1662               	.LM252:
 1663               	/* prologue: function */
 1664               	/* frame size = 0 */
 1665               	.LBB473:
 1666               	.LBB474:
 1667               	.LM253:
 1668 05b6 AC9A      		sbi 53-32,4
 1669               	.LM254:
 1670 05b8 AD98      		cbi 53-32,5
 1671               	.LM255:
 1672 05ba AE98      		cbi 53-32,6
 1673               	.LM256:
 1674 05bc AF98      		cbi 53-32,7
 1675               	/* epilogue start */
 1676               	.LBE474:
 1677               	.LBE473:
 1678               	.LM257:
 1679 05be 0895      		ret
 1680               	.LFE39:
 1682               	.global	bot_right_backward
 1684               	bot_right_backward:
 1685               	.LFB40:
 1686               	.LM258:
 1687               	/* prologue: function */
 1688               	/* frame size = 0 */
 1689               	.LM259:
 1690 05c0 AC98      		cbi 53-32,4
 1691               	.LM260:
 1692 05c2 AD98      		cbi 53-32,5
 1693               	.LM261:
 1694 05c4 AE98      		cbi 53-32,6
 1695               	.LM262:
 1696 05c6 AF9A      		sbi 53-32,7
 1697               	/* epilogue start */
 1698               	.LM263:
 1699 05c8 0895      		ret
 1700               	.LFE40:
 1702               	.global	bot_forward
 1704               	bot_forward:
 1705               	.LFB41:
 1706               	.LM264:
 1707               	/* prologue: function */
 1708               	/* frame size = 0 */
 1709               	.LM265:
 1710 05ca AC9A      		sbi 53-32,4
 1711               	.LM266:
 1712 05cc AD98      		cbi 53-32,5
 1713               	.LM267:
 1714 05ce AE9A      		sbi 53-32,6
 1715               	.LM268:
 1716 05d0 AF98      		cbi 53-32,7
 1717               	/* epilogue start */
 1718               	.LM269:
 1719 05d2 0895      		ret
 1720               	.LFE41:
 1722               	.global	bot_backward
 1724               	bot_backward:
 1725               	.LFB42:
 1726               	.LM270:
 1727               	/* prologue: function */
 1728               	/* frame size = 0 */
 1729               	.LM271:
 1730 05d4 AC98      		cbi 53-32,4
 1731               	.LM272:
 1732 05d6 AD9A      		sbi 53-32,5
 1733               	.LM273:
 1734 05d8 AE98      		cbi 53-32,6
 1735               	.LM274:
 1736 05da AF9A      		sbi 53-32,7
 1737               	/* epilogue start */
 1738               	.LM275:
 1739 05dc 0895      		ret
 1740               	.LFE42:
 1742               	.global	bot_spot_left
 1744               	bot_spot_left:
 1745               	.LFB43:
 1746               	.LM276:
 1747               	/* prologue: function */
 1748               	/* frame size = 0 */
 1749               	.LM277:
 1750 05de AC98      		cbi 53-32,4
 1751               	.LM278:
 1752 05e0 AD9A      		sbi 53-32,5
 1753               	.LM279:
 1754 05e2 AE9A      		sbi 53-32,6
 1755               	.LM280:
 1756 05e4 AF98      		cbi 53-32,7
 1757               	/* epilogue start */
 1758               	.LM281:
 1759 05e6 0895      		ret
 1760               	.LFE43:
 1762               	.global	bot_spot_right
 1764               	bot_spot_right:
 1765               	.LFB44:
 1766               	.LM282:
 1767               	/* prologue: function */
 1768               	/* frame size = 0 */
 1769               	.LM283:
 1770 05e8 AC9A      		sbi 53-32,4
 1771               	.LM284:
 1772 05ea AD98      		cbi 53-32,5
 1773               	.LM285:
 1774 05ec AE98      		cbi 53-32,6
 1775               	.LM286:
 1776 05ee AF9A      		sbi 53-32,7
 1777               	/* epilogue start */
 1778               	.LM287:
 1779 05f0 0895      		ret
 1780               	.LFE44:
 1782               	.global	bot_stop
 1784               	bot_stop:
 1785               	.LFB45:
 1786               	.LM288:
 1787               	/* prologue: function */
 1788               	/* frame size = 0 */
 1789               	.LM289:
 1790 05f2 AC98      		cbi 53-32,4
 1791               	.LM290:
 1792 05f4 AD98      		cbi 53-32,5
 1793               	.LM291:
 1794 05f6 AE98      		cbi 53-32,6
 1795               	.LM292:
 1796 05f8 AF98      		cbi 53-32,7
 1797               	/* epilogue start */
 1798               	.LM293:
 1799 05fa 0895      		ret
 1800               	.LFE45:
 1802               	.global	bot_brake
 1804               	bot_brake:
 1805               	.LFB46:
 1806               	.LM294:
 1807               	/* prologue: function */
 1808               	/* frame size = 0 */
 1809               	.LM295:
 1810 05fc AC9A      		sbi 53-32,4
 1811               	.LM296:
 1812 05fe AD9A      		sbi 53-32,5
 1813               	.LM297:
 1814 0600 AE9A      		sbi 53-32,6
 1815               	.LM298:
 1816 0602 AF9A      		sbi 53-32,7
 1817               	/* epilogue start */
 1818               	.LM299:
 1819 0604 0895      		ret
 1820               	.LFE46:
 1822               	.global	switch_init
 1824               	switch_init:
 1825               	.LFB47:
 1826               	.LM300:
 1827               	/* prologue: function */
 1828               	/* frame size = 0 */
 1829               	.LM301:
 1830 0606 82B3      		in r24,50-32
 1831 0608 8F60      		ori r24,lo8(15)
 1832 060a 82BB      		out 50-32,r24
 1833               	.LM302:
 1834 060c 81B3      		in r24,49-32
 1835 060e 807F      		andi r24,lo8(-16)
 1836 0610 81BB      		out 49-32,r24
 1837               	/* epilogue start */
 1838               	.LM303:
 1839 0612 0895      		ret
 1840               	.LFE47:
 1842               	.global	pressed_switch0
 1844               	pressed_switch0:
 1845               	.LFB48:
 1846               	.LM304:
 1847               	/* prologue: function */
 1848               	/* frame size = 0 */
 1849               	.LM305:
 1850 0614 20B3      		in r18,48-32
 1851 0616 30E0      		ldi r19,lo8(0)
 1852 0618 2095      		com r18
 1853 061a 3095      		com r19
 1854 061c 2170      		andi r18,lo8(1)
 1855 061e 3070      		andi r19,hi8(1)
 1856               	.LM306:
 1857 0620 C901      		movw r24,r18
 1858               	/* epilogue start */
 1859 0622 0895      		ret
 1860               	.LFE48:
 1862               	.global	pressed_switch1
 1864               	pressed_switch1:
 1865               	.LFB49:
 1866               	.LM307:
 1867               	/* prologue: function */
 1868               	/* frame size = 0 */
 1869               	.LM308:
 1870 0624 20B3      		in r18,48-32
 1871 0626 30E0      		ldi r19,lo8(0)
 1872 0628 3695      		lsr r19
 1873 062a 2795      		ror r18
 1874 062c 2095      		com r18
 1875 062e 3095      		com r19
 1876 0630 2170      		andi r18,lo8(1)
 1877 0632 3070      		andi r19,hi8(1)
 1878               	.LM309:
 1879 0634 C901      		movw r24,r18
 1880               	/* epilogue start */
 1881 0636 0895      		ret
 1882               	.LFE49:
 1884               	.global	pressed_switch2
 1886               	pressed_switch2:
 1887               	.LFB50:
 1888               	.LM310:
 1889               	/* prologue: function */
 1890               	/* frame size = 0 */
 1891               	.LM311:
 1892 0638 20B3      		in r18,48-32
 1893 063a 30E0      		ldi r19,lo8(0)
 1894 063c 3695      		lsr r19
 1895 063e 2795      		ror r18
 1896 0640 3695      		lsr r19
 1897 0642 2795      		ror r18
 1898 0644 2095      		com r18
 1899 0646 3095      		com r19
 1900 0648 2170      		andi r18,lo8(1)
 1901 064a 3070      		andi r19,hi8(1)
 1902               	.LM312:
 1903 064c C901      		movw r24,r18
 1904               	/* epilogue start */
 1905 064e 0895      		ret
 1906               	.LFE50:
 1908               	.global	pressed_switch3
 1910               	pressed_switch3:
 1911               	.LFB51:
 1912               	.LM313:
 1913               	/* prologue: function */
 1914               	/* frame size = 0 */
 1915               	.LM314:
 1916 0650 20B3      		in r18,48-32
 1917 0652 30E0      		ldi r19,lo8(0)
 1918 0654 43E0      		ldi r20,3
 1919 0656 3695      	1:	lsr r19
 1920 0658 2795      		ror r18
 1921 065a 4A95      		dec r20
 1922 065c 01F4      		brne 1b
 1923 065e 2095      		com r18
 1924 0660 3095      		com r19
 1925 0662 2170      		andi r18,lo8(1)
 1926 0664 3070      		andi r19,hi8(1)
 1927               	.LM315:
 1928 0666 C901      		movw r24,r18
 1929               	/* epilogue start */
 1930 0668 0895      		ret
 1931               	.LFE51:
 1933               	.global	line_track
 1935               	line_track:
 1936               	.LFB53:
 1937               	.LM316:
 1938 066a 6F92      		push r6
 1939 066c 7F92      		push r7
 1940 066e 8F92      		push r8
 1941 0670 9F92      		push r9
 1942 0672 AF92      		push r10
 1943 0674 BF92      		push r11
 1944 0676 CF92      		push r12
 1945 0678 DF92      		push r13
 1946 067a EF92      		push r14
 1947 067c FF92      		push r15
 1948 067e 0F93      		push r16
 1949 0680 1F93      		push r17
 1950               	/* prologue: function */
 1951               	/* frame size = 0 */
 1952               	.LBB475:
 1953               	.LBB476:
 1954               	.LM317:
 1955 0682 AC9A      		sbi 53-32,4
 1956               	.LM318:
 1957 0684 AD98      		cbi 53-32,5
 1958               	.LM319:
 1959 0686 AE9A      		sbi 53-32,6
 1960               	.LM320:
 1961 0688 AF98      		cbi 53-32,7
 1962               	.LBE476:
 1963               	.LBE475:
 1964               	.LM321:
 1965 068a 8091 0000 		lds r24,sensorbyte
 1966 068e 8630      		cpi r24,lo8(6)
 1967 0690 01F0      		breq .L181
 1968 0692 8730      		cpi r24,lo8(7)
 1969 0694 00F4      		brsh .L176
 1970 0696 8230      		cpi r24,lo8(2)
 1971 0698 01F0      		breq .L168
 1972 069a 8330      		cpi r24,lo8(3)
 1973 069c 00F4      		brsh .L177
 1974 069e 8130      		cpi r24,lo8(1)
 1975 06a0 01F4      		brne .L166
 1976 06a2 00C0      		rjmp .L184
 1977               	.L177:
 1978 06a4 8330      		cpi r24,lo8(3)
 1979 06a6 01F0      		breq .L169
 1980 06a8 8430      		cpi r24,lo8(4)
 1981 06aa 01F4      		brne .L166
 1982 06ac 00C0      		rjmp .L185
 1983               	.L176:
 1984 06ae 8830      		cpi r24,lo8(8)
 1985 06b0 01F0      		breq .L173
 1986 06b2 8830      		cpi r24,lo8(8)
 1987 06b4 00F0      		brlo .L172
 1988 06b6 8C30      		cpi r24,lo8(12)
 1989 06b8 01F0      		breq .L174
 1990 06ba 8E30      		cpi r24,lo8(14)
 1991 06bc 01F4      		brne .L166
 1992 06be 00C0      		rjmp .L186
 1993               	.L185:
 1994               	.LM322:
 1995 06c0 81E0      		ldi r24,lo8(1)
 1996 06c2 90E0      		ldi r25,hi8(1)
 1997 06c4 00C0      		rjmp .L180
 1998               	.L168:
 1999               	.LM323:
 2000 06c6 8FEF      		ldi r24,lo8(-1)
 2001 06c8 9FEF      		ldi r25,hi8(-1)
 2002 06ca 00C0      		rjmp .L180
 2003               	.L174:
 2004               	.LM324:
 2005 06cc 83E0      		ldi r24,lo8(3)
 2006 06ce 90E0      		ldi r25,hi8(3)
 2007 06d0 00C0      		rjmp .L180
 2008               	.L169:
 2009               	.LM325:
 2010 06d2 8DEF      		ldi r24,lo8(-3)
 2011 06d4 9FEF      		ldi r25,hi8(-3)
 2012 06d6 00C0      		rjmp .L183
 2013               	.L186:
 2014               	.LM326:
 2015 06d8 84E0      		ldi r24,lo8(4)
 2016 06da 90E0      		ldi r25,hi8(4)
 2017 06dc 00C0      		rjmp .L180
 2018               	.L172:
 2019               	.LM327:
 2020 06de 8CEF      		ldi r24,lo8(-4)
 2021 06e0 9FEF      		ldi r25,hi8(-4)
 2022               	.L183:
 2023 06e2 9093 0000 		sts (mpos)+1,r25
 2024 06e6 8093 0000 		sts mpos,r24
 2025               	.LM328:
 2026 06ea 8091 0000 		lds r24,flag1
 2027 06ee 9091 0000 		lds r25,(flag1)+1
 2028 06f2 0197      		sbiw r24,1
 2029 06f4 01F4      		brne .L166
 2030               	.L181:
 2031               	.LM329:
 2032 06f6 1092 0000 		sts (mpos)+1,__zero_reg__
 2033 06fa 1092 0000 		sts mpos,__zero_reg__
 2034 06fe 00C0      		rjmp .L166
 2035               	.L173:
 2036               	.LM330:
 2037 0700 86E0      		ldi r24,lo8(6)
 2038 0702 90E0      		ldi r25,hi8(6)
 2039 0704 00C0      		rjmp .L180
 2040               	.L184:
 2041               	.LM331:
 2042 0706 8AEF      		ldi r24,lo8(-6)
 2043 0708 9FEF      		ldi r25,hi8(-6)
 2044               	.L180:
 2045 070a 9093 0000 		sts (mpos)+1,r25
 2046 070e 8093 0000 		sts mpos,r24
 2047               	.L166:
 2048               	.LM332:
 2049 0712 6091 0000 		lds r22,mpos
 2050 0716 7091 0000 		lds r23,(mpos)+1
 2051 071a 8827      		clr r24
 2052 071c 77FD      		sbrc r23,7
 2053 071e 8095      		com r24
 2054 0720 982F      		mov r25,r24
 2055 0722 0E94 0000 		call __floatsisf
 2056 0726 5B01      		movw r10,r22
 2057 0728 6C01      		movw r12,r24
 2058 072a 6091 0000 		lds r22,prev_error
 2059 072e 7091 0000 		lds r23,(prev_error)+1
 2060 0732 8091 0000 		lds r24,(prev_error)+2
 2061 0736 9091 0000 		lds r25,(prev_error)+3
 2062 073a A601      		movw r20,r12
 2063 073c 9501      		movw r18,r10
 2064 073e 0E94 0000 		call __subsf3
 2065 0742 7B01      		movw r14,r22
 2066 0744 8C01      		movw r16,r24
 2067 0746 6093 0000 		sts act_error,r22
 2068 074a 7093 0000 		sts (act_error)+1,r23
 2069 074e 8093 0000 		sts (act_error)+2,r24
 2070 0752 9093 0000 		sts (act_error)+3,r25
 2071               	.LM333:
 2072 0756 C601      		movw r24,r12
 2073 0758 B501      		movw r22,r10
 2074 075a 2091 0000 		lds r18,kp
 2075 075e 3091 0000 		lds r19,(kp)+1
 2076 0762 4091 0000 		lds r20,(kp)+2
 2077 0766 5091 0000 		lds r21,(kp)+3
 2078 076a 0E94 0000 		call __mulsf3
 2079 076e 3B01      		movw r6,r22
 2080 0770 4C01      		movw r8,r24
 2081 0772 C801      		movw r24,r16
 2082 0774 B701      		movw r22,r14
 2083 0776 2091 0000 		lds r18,kd
 2084 077a 3091 0000 		lds r19,(kd)+1
 2085 077e 4091 0000 		lds r20,(kd)+2
 2086 0782 5091 0000 		lds r21,(kd)+3
 2087 0786 0E94 0000 		call __mulsf3
 2088 078a 9B01      		movw r18,r22
 2089 078c AC01      		movw r20,r24
 2090 078e C401      		movw r24,r8
 2091 0790 B301      		movw r22,r6
 2092 0792 0E94 0000 		call __subsf3
 2093 0796 7B01      		movw r14,r22
 2094 0798 8C01      		movw r16,r24
 2095 079a 6093 0000 		sts control,r22
 2096 079e 7093 0000 		sts (control)+1,r23
 2097 07a2 8093 0000 		sts (control)+2,r24
 2098 07a6 9093 0000 		sts (control)+3,r25
 2099               	.LM334:
 2100 07aa A092 0000 		sts prev_error,r10
 2101 07ae B092 0000 		sts (prev_error)+1,r11
 2102 07b2 C092 0000 		sts (prev_error)+2,r12
 2103 07b6 D092 0000 		sts (prev_error)+3,r13
 2104               	.LM335:
 2105 07ba 6091 0000 		lds r22,opt
 2106 07be 7091 0000 		lds r23,(opt)+1
 2107 07c2 80E0      		ldi r24,lo8(0)
 2108 07c4 90E0      		ldi r25,hi8(0)
 2109 07c6 0E94 0000 		call __floatunsisf
 2110 07ca 5B01      		movw r10,r22
 2111 07cc 6C01      		movw r12,r24
 2112               	.LBB477:
 2113               	.LBB478:
 2114               	.LM336:
 2115 07ce A801      		movw r20,r16
 2116 07d0 9701      		movw r18,r14
 2117 07d2 0E94 0000 		call __subsf3
 2118 07d6 0E94 0000 		call __fixsfsi
 2119 07da 7BBD      		out (74)+1-32,r23
 2120 07dc 6ABD      		out 74-32,r22
 2121               	.LBE478:
 2122               	.LBE477:
 2123               	.LBB479:
 2124               	.LBB480:
 2125               	.LM337:
 2126 07de C601      		movw r24,r12
 2127 07e0 B501      		movw r22,r10
 2128 07e2 A801      		movw r20,r16
 2129 07e4 9701      		movw r18,r14
 2130 07e6 0E94 0000 		call __addsf3
 2131 07ea 0E94 0000 		call __fixsfsi
 2132 07ee 79BD      		out (72)+1-32,r23
 2133 07f0 68BD      		out 72-32,r22
 2134               	/* epilogue start */
 2135               	.LBE480:
 2136               	.LBE479:
 2137               	.LM338:
 2138 07f2 1F91      		pop r17
 2139 07f4 0F91      		pop r16
 2140 07f6 FF90      		pop r15
 2141 07f8 EF90      		pop r14
 2142 07fa DF90      		pop r13
 2143 07fc CF90      		pop r12
 2144 07fe BF90      		pop r11
 2145 0800 AF90      		pop r10
 2146 0802 9F90      		pop r9
 2147 0804 8F90      		pop r8
 2148 0806 7F90      		pop r7
 2149 0808 6F90      		pop r6
 2150 080a 0895      		ret
 2151               	.LFE53:
 2153               	.global	init_devices
 2155               	init_devices:
 2156               	.LFB54:
 2157               	.LM339:
 2158               	/* prologue: function */
 2159               	/* frame size = 0 */
 2160               	.LM340:
 2161 080c 0E94 0000 		call port_init
 2162               	.LBB481:
 2163               	.LBB482:
 2164               	.LM341:
 2165 0810 1ABA      		out 58-32,__zero_reg__
 2166               	.LM342:
 2167 0812 16B8      		out 38-32,__zero_reg__
 2168               	.LM343:
 2169 0814 80E6      		ldi r24,lo8(96)
 2170 0816 87B9      		out 39-32,r24
 2171               	.LM344:
 2172 0818 87E8      		ldi r24,lo8(-121)
 2173 081a 86B9      		out 38-32,r24
 2174               	.LM345:
 2175 081c 80E8      		ldi r24,lo8(-128)
 2176 081e 88B9      		out 40-32,r24
 2177               	.LBE482:
 2178               	.LBE481:
 2179               	.LBB483:
 2180               	.LBB484:
 2181               	.LM346:
 2182 0820 8FEF      		ldi r24,lo8(-1)
 2183 0822 84BB      		out 52-32,r24
 2184               	.LBE484:
 2185               	.LBE483:
 2186               	.LM347:
 2187 0824 82E0      		ldi r24,lo8(2)
 2188 0826 0E94 0000 		call lcd_init
 2189               	.LBB485:
 2190               	.LBB486:
 2191               	.LM348:
 2192 082a 82B3      		in r24,50-32
 2193 082c 8F60      		ori r24,lo8(15)
 2194 082e 82BB      		out 50-32,r24
 2195               	.LM349:
 2196 0830 81B3      		in r24,49-32
 2197 0832 807F      		andi r24,lo8(-16)
 2198 0834 81BB      		out 49-32,r24
 2199               	.LBE486:
 2200               	.LBE485:
 2201               	.LM350:
 2202 0836 0E94 0000 		call pwm1_init
 2203               	/* epilogue start */
 2204               	.LM351:
 2205 083a 0895      		ret
 2206               	.LFE54:
 2208               	.global	Uturn
 2210               	Uturn:
 2211               	.LFB55:
 2212               	.LM352:
 2213               	/* prologue: function */
 2214               	/* frame size = 0 */
 2215               	.LM353:
 2216 083c 85E7      		ldi r24,lo8(117)
 2217 083e 8093 0000 		sts turn,r24
 2218               	.LBB487:
 2219               	.LBB488:
 2220               	.LM354:
 2221 0842 20EF      		ldi r18,lo8(240)
 2222 0844 30E0      		ldi r19,hi8(240)
 2223               	.LBE488:
 2224               	.LBE487:
 2225               	.LBB490:
 2226               	.LBB491:
 2227               	.LM355:
 2228 0846 82E2      		ldi r24,lo8(290)
 2229 0848 91E0      		ldi r25,hi8(290)
 2230 084a 00C0      		rjmp .L190
 2231               	.L191:
 2232               	.LBE491:
 2233               	.LBE490:
 2234               	.LBB493:
 2235               	.LBB489:
 2236               	.LM356:
 2237 084c 3BBD      		out (74)+1-32,r19
 2238 084e 2ABD      		out 74-32,r18
 2239               	.LBE489:
 2240               	.LBE493:
 2241               	.LBB494:
 2242               	.LBB492:
 2243               	.LM357:
 2244 0850 99BD      		out (72)+1-32,r25
 2245 0852 88BD      		out 72-32,r24
 2246               	.LBE492:
 2247               	.LBE494:
 2248               	.LBB495:
 2249               	.LBB496:
 2250               	.LM358:
 2251 0854 AC98      		cbi 53-32,4
 2252               	.LM359:
 2253 0856 AD9A      		sbi 53-32,5
 2254               	.LM360:
 2255 0858 AE9A      		sbi 53-32,6
 2256               	.LM361:
 2257 085a AF98      		cbi 53-32,7
 2258               	.L190:
 2259               	.LBE496:
 2260               	.LBE495:
 2261               	.LM362:
 2262 085c CD99      		sbic 57-32,5
 2263 085e 00C0      		rjmp .L191
 2264 0860 00C0      		rjmp .L198
 2265               	.L194:
 2266               	.LBB497:
 2267               	.LBB498:
 2268               	.LM363:
 2269 0862 3BBD      		out (74)+1-32,r19
 2270 0864 2ABD      		out 74-32,r18
 2271               	.LBE498:
 2272               	.LBE497:
 2273               	.LBB500:
 2274               	.LBB501:
 2275               	.LM364:
 2276 0866 99BD      		out (72)+1-32,r25
 2277 0868 88BD      		out 72-32,r24
 2278               	.LBE501:
 2279               	.LBE500:
 2280               	.LBB503:
 2281               	.LBB504:
 2282               	.LM365:
 2283 086a AC98      		cbi 53-32,4
 2284               	.LM366:
 2285 086c AD9A      		sbi 53-32,5
 2286               	.LM367:
 2287 086e AE9A      		sbi 53-32,6
 2288               	.LM368:
 2289 0870 AF98      		cbi 53-32,7
 2290 0872 00C0      		rjmp .L197
 2291               	.L198:
 2292               	.LBE504:
 2293               	.LBE503:
 2294               	.LBB505:
 2295               	.LBB499:
 2296               	.LM369:
 2297 0874 29EB      		ldi r18,lo8(185)
 2298 0876 30E0      		ldi r19,hi8(185)
 2299               	.LBE499:
 2300               	.LBE505:
 2301               	.LBB506:
 2302               	.LBB502:
 2303               	.LM370:
 2304 0878 87ED      		ldi r24,lo8(215)
 2305 087a 90E0      		ldi r25,hi8(215)
 2306               	.L197:
 2307               	.LBE502:
 2308               	.LBE506:
 2309               	.LM371:
 2310 087c CE9B      		sbis 57-32,6
 2311 087e 00C0      		rjmp .L193
 2312 0880 8699      		sbic 48-32,6
 2313 0882 00C0      		rjmp .L194
 2314               	.L193:
 2315               	.LBB507:
 2316               	.LBB508:
 2317               	.LM372:
 2318 0884 8FE8      		ldi r24,lo8(399)
 2319 0886 91E0      		ldi r25,hi8(399)
 2320 0888 9BBD      		out (74)+1-32,r25
 2321 088a 8ABD      		out 74-32,r24
 2322               	.LBE508:
 2323               	.LBE507:
 2324               	.LBB509:
 2325               	.LBB510:
 2326               	.LM373:
 2327 088c 99BD      		out (72)+1-32,r25
 2328 088e 88BD      		out 72-32,r24
 2329               	.LBE510:
 2330               	.LBE509:
 2331               	.LBB511:
 2332               	.LBB512:
 2333               	.LM374:
 2334 0890 AC9A      		sbi 53-32,4
 2335               	.LM375:
 2336 0892 AD9A      		sbi 53-32,5
 2337               	.LM376:
 2338 0894 AE9A      		sbi 53-32,6
 2339               	.LM377:
 2340 0896 AF9A      		sbi 53-32,7
 2341               	/* epilogue start */
 2342               	.LBE512:
 2343               	.LBE511:
 2344               	.LM378:
 2345 0898 0895      		ret
 2346               	.LFE55:
 2348               	.global	left_count
 2350               	left_count:
 2351               	.LFB58:
 2352               	.LM379:
 2353               	/* prologue: function */
 2354               	/* frame size = 0 */
 2355               	.LM380:
 2356 089a CC99      		sbic 57-32,4
 2357 089c 00C0      		rjmp .L200
 2358               	.LM381:
 2359 089e 8091 0000 		lds r24,l
 2360 08a2 9091 0000 		lds r25,(l)+1
 2361 08a6 892B      		or r24,r25
 2362 08a8 01F4      		brne .L202
 2363               	.LM382:
 2364 08aa 8091 0000 		lds r24,lcount
 2365 08ae 9091 0000 		lds r25,(lcount)+1
 2366 08b2 0196      		adiw r24,1
 2367 08b4 9093 0000 		sts (lcount)+1,r25
 2368 08b8 8093 0000 		sts lcount,r24
 2369               	.LM383:
 2370 08bc 81E0      		ldi r24,lo8(1)
 2371 08be 90E0      		ldi r25,hi8(1)
 2372 08c0 9093 0000 		sts (l)+1,r25
 2373 08c4 8093 0000 		sts l,r24
 2374 08c8 0895      		ret
 2375               	.L200:
 2376               	.LM384:
 2377 08ca 1092 0000 		sts (l)+1,__zero_reg__
 2378 08ce 1092 0000 		sts l,__zero_reg__
 2379               	.L202:
 2380 08d2 0895      		ret
 2381               	.LFE58:
 2383               	.global	special_case_check
 2385               	special_case_check:
 2386               	.LFB60:
 2387               	.LM385:
 2388               	/* prologue: function */
 2389               	/* frame size = 0 */
 2390               	.LM386:
 2391 08d4 CD9B      		sbis 57-32,5
 2392 08d6 00C0      		rjmp .L204
 2393 08d8 8091 0000 		lds r24,flag1
 2394 08dc 9091 0000 		lds r25,(flag1)+1
 2395 08e0 0197      		sbiw r24,1
 2396 08e2 01F4      		brne .L210
 2397               	.L204:
 2398               	.LM387:
 2399 08e4 81E0      		ldi r24,lo8(1)
 2400 08e6 90E0      		ldi r25,hi8(1)
 2401 08e8 9093 0000 		sts (flag1)+1,r25
 2402 08ec 8093 0000 		sts flag1,r24
 2403               	.LM388:
 2404 08f0 CC99      		sbic 57-32,4
 2405 08f2 00C0      		rjmp .L210
 2406 08f4 869B      		sbis 48-32,6
 2407 08f6 00C0      		rjmp .L206
 2408 08f8 CE9B      		sbis 57-32,6
 2409 08fa 00C0      		rjmp .L206
 2410 08fc 0895      		ret
 2411               	.L209:
 2412               	.LBB513:
 2413               	.LBB514:
 2414               	.LM389:
 2415 08fe 3BBD      		out (74)+1-32,r19
 2416 0900 2ABD      		out 74-32,r18
 2417               	.LBE514:
 2418               	.LBE513:
 2419               	.LBB516:
 2420               	.LBB517:
 2421               	.LM390:
 2422 0902 39BD      		out (72)+1-32,r19
 2423 0904 28BD      		out 72-32,r18
 2424               	.LBE517:
 2425               	.LBE516:
 2426               	.LBB518:
 2427               	.LBB519:
 2428               	.LM391:
 2429 0906 AC9A      		sbi 53-32,4
 2430               	.LM392:
 2431 0908 AD98      		cbi 53-32,5
 2432               	.LM393:
 2433 090a AE9A      		sbi 53-32,6
 2434               	.LM394:
 2435 090c AF98      		cbi 53-32,7
 2436               	.LBE519:
 2437               	.LBE518:
 2438               	.LM395:
 2439 090e 80E0      		ldi r24,lo8(0)
 2440 0910 90E0      		ldi r25,hi8(0)
 2441 0912 8799      		sbic 48-32,7
 2442 0914 00C0      		rjmp .L213
 2443               	.LBB520:
 2444               	.LBB521:
 2445               	.LM396:
 2446 0916 AC9A      		sbi 53-32,4
 2447               	.LM397:
 2448 0918 AD9A      		sbi 53-32,5
 2449               	.LM398:
 2450 091a AE9A      		sbi 53-32,6
 2451               	.LM399:
 2452 091c AF9A      		sbi 53-32,7
 2453 091e 00C0      		rjmp .L213
 2454               	.L206:
 2455 0920 81E0      		ldi r24,lo8(1)
 2456 0922 90E0      		ldi r25,hi8(1)
 2457               	.LBE521:
 2458               	.LBE520:
 2459               	.LBB522:
 2460               	.LBB515:
 2461               	.LM400:
 2462 0924 20EF      		ldi r18,lo8(240)
 2463 0926 30E0      		ldi r19,hi8(240)
 2464               	.L213:
 2465               	.LBE515:
 2466               	.LBE522:
 2467               	.LM401:
 2468 0928 CC9B      		sbis 57-32,4
 2469 092a 00C0      		rjmp .L208
 2470 092c 9093 0000 		sts (flag1)+1,r25
 2471 0930 8093 0000 		sts flag1,r24
 2472 0934 0895      		ret
 2473               	.L208:
 2474 0936 8799      		sbic 48-32,7
 2475 0938 00C0      		rjmp .L209
 2476 093a 9093 0000 		sts (flag1)+1,r25
 2477 093e 8093 0000 		sts flag1,r24
 2478               	.L210:
 2479 0942 0895      		ret
 2480               	.LFE60:
 2482               	.global	line_track_new
 2484               	line_track_new:
 2485               	.LFB63:
 2486               	.LM402:
 2487               	/* prologue: function */
 2488               	/* frame size = 0 */
 2489               	.LM403:
 2490 0944 0E94 0000 		call check_sensors
 2491               	.LBB523:
 2492               	.LBB524:
 2493               	.LM404:
 2494 0948 AC9A      		sbi 53-32,4
 2495               	.LM405:
 2496 094a AD98      		cbi 53-32,5
 2497               	.LM406:
 2498 094c AE9A      		sbi 53-32,6
 2499               	.LM407:
 2500 094e AF98      		cbi 53-32,7
 2501               	.LBE524:
 2502               	.LBE523:
 2503               	.LM408:
 2504 0950 CE9B      		sbis 57-32,6
 2505 0952 00C0      		rjmp .L215
 2506 0954 8699      		sbic 48-32,6
 2507 0956 00C0      		rjmp .L215
 2508               	.LM409:
 2509 0958 8091 0000 		lds r24,opt
 2510 095c 9091 0000 		lds r25,(opt)+1
 2511 0960 4E97      		sbiw r24,30
 2512               	.LBB525:
 2513               	.LBB526:
 2514               	.LM410:
 2515 0962 9BBD      		out (74)+1-32,r25
 2516 0964 8ABD      		out 74-32,r24
 2517               	.LBE526:
 2518               	.LBE525:
 2519               	.LM411:
 2520 0966 CC96      		adiw r24,60
 2521 0968 00C0      		rjmp .L220
 2522               	.L215:
 2523               	.LM412:
 2524 096a 869B      		sbis 48-32,6
 2525 096c 00C0      		rjmp .L217
 2526 096e CE99      		sbic 57-32,6
 2527 0970 00C0      		rjmp .L217
 2528               	.LM413:
 2529 0972 8091 0000 		lds r24,opt
 2530 0976 9091 0000 		lds r25,(opt)+1
 2531 097a 4E96      		adiw r24,30
 2532               	.LBB527:
 2533               	.LBB528:
 2534               	.LM414:
 2535 097c 9BBD      		out (74)+1-32,r25
 2536 097e 8ABD      		out 74-32,r24
 2537               	.LBE528:
 2538               	.LBE527:
 2539               	.LM415:
 2540 0980 CC97      		sbiw r24,60
 2541 0982 00C0      		rjmp .L220
 2542               	.L217:
 2543               	.LM416:
 2544 0984 869B      		sbis 48-32,6
 2545 0986 00C0      		rjmp .L218
 2546 0988 CE9B      		sbis 57-32,6
 2547 098a 00C0      		rjmp .L218
 2548               	.LM417:
 2549 098c 0E94 0000 		call line_track
 2550 0990 00C0      		rjmp .L216
 2551               	.L218:
 2552               	.LM418:
 2553 0992 8699      		sbic 48-32,6
 2554 0994 00C0      		rjmp .L216
 2555 0996 CE99      		sbic 57-32,6
 2556 0998 00C0      		rjmp .L216
 2557               	.LM419:
 2558 099a 8091 0000 		lds r24,opt
 2559 099e 9091 0000 		lds r25,(opt)+1
 2560               	.LBB529:
 2561               	.LBB530:
 2562               	.LM420:
 2563 09a2 9BBD      		out (74)+1-32,r25
 2564 09a4 8ABD      		out 74-32,r24
 2565               	.L220:
 2566               	.LBE530:
 2567               	.LBE529:
 2568               	.LBB531:
 2569               	.LBB532:
 2570               	.LM421:
 2571 09a6 99BD      		out (72)+1-32,r25
 2572 09a8 88BD      		out 72-32,r24
 2573               	.L216:
 2574               	.LBE532:
 2575               	.LBE531:
 2576               	.LM422:
 2577 09aa 8AE0      		ldi r24,lo8(10)
 2578 09ac 90E0      		ldi r25,hi8(10)
 2579 09ae 0E94 0000 		call delay_microsec
 2580               	/* epilogue start */
 2581               	.LM423:
 2582 09b2 0895      		ret
 2583               	.LFE63:
 2585               	.global	end_zone_uturn
 2587               	end_zone_uturn:
 2588               	.LFB59:
 2589               	.LM424:
 2590               	/* prologue: function */
 2591               	/* frame size = 0 */
 2592               	.LM425:
 2593 09b4 85E7      		ldi r24,lo8(117)
 2594 09b6 8093 0000 		sts turn,r24
 2595               	.LBB533:
 2596               	.LBB534:
 2597               	.LM426:
 2598 09ba 24E0      		ldi r18,lo8(260)
 2599 09bc 31E0      		ldi r19,hi8(260)
 2600               	.LBE534:
 2601               	.LBE533:
 2602               	.LBB536:
 2603               	.LBB537:
 2604               	.LM427:
 2605 09be 88E1      		ldi r24,lo8(280)
 2606 09c0 91E0      		ldi r25,hi8(280)
 2607 09c2 00C0      		rjmp .L222
 2608               	.L223:
 2609               	.LBE537:
 2610               	.LBE536:
 2611               	.LBB539:
 2612               	.LBB535:
 2613               	.LM428:
 2614 09c4 3BBD      		out (74)+1-32,r19
 2615 09c6 2ABD      		out 74-32,r18
 2616               	.LBE535:
 2617               	.LBE539:
 2618               	.LBB540:
 2619               	.LBB538:
 2620               	.LM429:
 2621 09c8 99BD      		out (72)+1-32,r25
 2622 09ca 88BD      		out 72-32,r24
 2623               	.LBE538:
 2624               	.LBE540:
 2625               	.LBB541:
 2626               	.LBB542:
 2627               	.LM430:
 2628 09cc AC98      		cbi 53-32,4
 2629               	.LM431:
 2630 09ce AD9A      		sbi 53-32,5
 2631               	.LM432:
 2632 09d0 AE9A      		sbi 53-32,6
 2633               	.LM433:
 2634 09d2 AF98      		cbi 53-32,7
 2635               	.L222:
 2636               	.LBE542:
 2637               	.LBE541:
 2638               	.LM434:
 2639 09d4 CD9B      		sbis 57-32,5
 2640 09d6 00C0      		rjmp .L223
 2641               	.L236:
 2642               	.LM435:
 2643 09d8 CE9B      		sbis 57-32,6
 2644 09da 00C0      		rjmp .L236
 2645 09dc 869B      		sbis 48-32,6
 2646 09de 00C0      		rjmp .L236
 2647               	.L232:
 2648               	.LM436:
 2649 09e0 CD99      		sbic 57-32,5
 2650 09e2 00C0      		rjmp .L232
 2651 09e4 00C0      		rjmp .L239
 2652               	.L228:
 2653               	.LBB543:
 2654               	.LBB544:
 2655               	.LM437:
 2656 09e6 9BBD      		out (74)+1-32,r25
 2657 09e8 8ABD      		out 74-32,r24
 2658               	.LBE544:
 2659               	.LBE543:
 2660               	.LBB546:
 2661               	.LBB547:
 2662               	.LM438:
 2663 09ea 99BD      		out (72)+1-32,r25
 2664 09ec 88BD      		out 72-32,r24
 2665               	.LBE547:
 2666               	.LBE546:
 2667               	.LBB548:
 2668               	.LBB549:
 2669               	.LM439:
 2670 09ee AC98      		cbi 53-32,4
 2671               	.LM440:
 2672 09f0 AD9A      		sbi 53-32,5
 2673               	.LM441:
 2674 09f2 AE9A      		sbi 53-32,6
 2675               	.LM442:
 2676 09f4 AF98      		cbi 53-32,7
 2677 09f6 00C0      		rjmp .L238
 2678               	.L239:
 2679               	.LBE549:
 2680               	.LBE548:
 2681               	.LBB550:
 2682               	.LBB545:
 2683               	.LM443:
 2684 09f8 82ED      		ldi r24,lo8(210)
 2685 09fa 90E0      		ldi r25,hi8(210)
 2686               	.L238:
 2687               	.LBE545:
 2688               	.LBE550:
 2689               	.LM444:
 2690 09fc CE9B      		sbis 57-32,6
 2691 09fe 00C0      		rjmp .L235
 2692 0a00 8699      		sbic 48-32,6
 2693 0a02 00C0      		rjmp .L228
 2694 0a04 00C0      		rjmp .L235
 2695               	.L229:
 2696               	.LM445:
 2697 0a06 0E94 0000 		call line_track_new
 2698               	.L235:
 2699               	.LM446:
 2700 0a0a CC9B      		sbis 57-32,4
 2701 0a0c 00C0      		rjmp .L229
 2702 0a0e 879B      		sbis 48-32,7
 2703 0a10 00C0      		rjmp .L229
 2704               	.LBB551:
 2705               	.LBB552:
 2706               	.LM447:
 2707 0a12 8FE8      		ldi r24,lo8(399)
 2708 0a14 91E0      		ldi r25,hi8(399)
 2709 0a16 9BBD      		out (74)+1-32,r25
 2710 0a18 8ABD      		out 74-32,r24
 2711               	.LBE552:
 2712               	.LBE551:
 2713               	.LBB553:
 2714               	.LBB554:
 2715               	.LM448:
 2716 0a1a 99BD      		out (72)+1-32,r25
 2717 0a1c 88BD      		out 72-32,r24
 2718               	.LBE554:
 2719               	.LBE553:
 2720               	.LBB555:
 2721               	.LBB556:
 2722               	.LM449:
 2723 0a1e AC9A      		sbi 53-32,4
 2724               	.LM450:
 2725 0a20 AD9A      		sbi 53-32,5
 2726               	.LM451:
 2727 0a22 AE9A      		sbi 53-32,6
 2728               	.LM452:
 2729 0a24 AF9A      		sbi 53-32,7
 2730               	.LBE556:
 2731               	.LBE555:
 2732               	.LM453:
 2733 0a26 82E0      		ldi r24,lo8(2)
 2734 0a28 90E0      		ldi r25,hi8(2)
 2735 0a2a 0E94 0000 		call delay_sec
 2736               	/* epilogue start */
 2737               	.LM454:
 2738 0a2e 0895      		ret
 2739               	.LFE59:
 2741               	.global	turn_left
 2743               	turn_left:
 2744               	.LFB57:
 2745               	.LM455:
 2746               	/* prologue: function */
 2747               	/* frame size = 0 */
 2748               	.LM456:
 2749 0a30 8CE6      		ldi r24,lo8(108)
 2750 0a32 8093 0000 		sts turn,r24
 2751               	.LBB557:
 2752               	.LBB558:
 2753               	.LM457:
 2754 0a36 85EF      		ldi r24,lo8(245)
 2755 0a38 90E0      		ldi r25,hi8(245)
 2756 0a3a 00C0      		rjmp .L241
 2757               	.L242:
 2758 0a3c 9BBD      		out (74)+1-32,r25
 2759 0a3e 8ABD      		out 74-32,r24
 2760               	.LBE558:
 2761               	.LBE557:
 2762               	.LBB559:
 2763               	.LBB560:
 2764               	.LM458:
 2765 0a40 99BD      		out (72)+1-32,r25
 2766 0a42 88BD      		out 72-32,r24
 2767               	.LBE560:
 2768               	.LBE559:
 2769               	.LBB561:
 2770               	.LBB562:
 2771               	.LM459:
 2772 0a44 AC98      		cbi 53-32,4
 2773               	.LM460:
 2774 0a46 AD9A      		sbi 53-32,5
 2775               	.LM461:
 2776 0a48 AE9A      		sbi 53-32,6
 2777               	.LM462:
 2778 0a4a AF98      		cbi 53-32,7
 2779               	.L241:
 2780               	.LBE562:
 2781               	.LBE561:
 2782               	.LM463:
 2783 0a4c CD99      		sbic 57-32,5
 2784 0a4e 00C0      		rjmp .L242
 2785 0a50 00C0      		rjmp .L251
 2786               	.L245:
 2787               	.LBB563:
 2788               	.LBB564:
 2789               	.LM464:
 2790 0a52 9BBD      		out (74)+1-32,r25
 2791 0a54 8ABD      		out 74-32,r24
 2792               	.LBE564:
 2793               	.LBE563:
 2794               	.LBB566:
 2795               	.LBB567:
 2796               	.LM465:
 2797 0a56 99BD      		out (72)+1-32,r25
 2798 0a58 88BD      		out 72-32,r24
 2799               	.LBE567:
 2800               	.LBE566:
 2801               	.LBB568:
 2802               	.LBB569:
 2803               	.LM466:
 2804 0a5a AC98      		cbi 53-32,4
 2805               	.LM467:
 2806 0a5c AD9A      		sbi 53-32,5
 2807               	.LM468:
 2808 0a5e AE9A      		sbi 53-32,6
 2809               	.LM469:
 2810 0a60 AF98      		cbi 53-32,7
 2811 0a62 00C0      		rjmp .L250
 2812               	.L251:
 2813               	.LBE569:
 2814               	.LBE568:
 2815               	.LBB570:
 2816               	.LBB565:
 2817               	.LM470:
 2818 0a64 80EF      		ldi r24,lo8(240)
 2819 0a66 90E0      		ldi r25,hi8(240)
 2820               	.L250:
 2821               	.LBE565:
 2822               	.LBE570:
 2823               	.LM471:
 2824 0a68 CE9B      		sbis 57-32,6
 2825 0a6a 00C0      		rjmp .L248
 2826 0a6c 8699      		sbic 48-32,6
 2827 0a6e 00C0      		rjmp .L245
 2828 0a70 00C0      		rjmp .L248
 2829               	.L246:
 2830               	.LM472:
 2831 0a72 0E94 0000 		call line_track_new
 2832               	.L248:
 2833               	.LM473:
 2834 0a76 CC9B      		sbis 57-32,4
 2835 0a78 00C0      		rjmp .L246
 2836 0a7a 879B      		sbis 48-32,7
 2837 0a7c 00C0      		rjmp .L246
 2838               	.LBB571:
 2839               	.LBB572:
 2840               	.LM474:
 2841 0a7e 8FE8      		ldi r24,lo8(399)
 2842 0a80 91E0      		ldi r25,hi8(399)
 2843 0a82 9BBD      		out (74)+1-32,r25
 2844 0a84 8ABD      		out 74-32,r24
 2845               	.LBE572:
 2846               	.LBE571:
 2847               	.LBB573:
 2848               	.LBB574:
 2849               	.LM475:
 2850 0a86 99BD      		out (72)+1-32,r25
 2851 0a88 88BD      		out 72-32,r24
 2852               	.LBE574:
 2853               	.LBE573:
 2854               	.LBB575:
 2855               	.LBB576:
 2856               	.LM476:
 2857 0a8a AC9A      		sbi 53-32,4
 2858               	.LM477:
 2859 0a8c AD9A      		sbi 53-32,5
 2860               	.LM478:
 2861 0a8e AE9A      		sbi 53-32,6
 2862               	.LM479:
 2863 0a90 AF9A      		sbi 53-32,7
 2864               	.LBE576:
 2865               	.LBE575:
 2866               	.LM480:
 2867 0a92 82E3      		ldi r24,lo8(50)
 2868 0a94 90E0      		ldi r25,hi8(50)
 2869 0a96 0E94 0000 		call delay_millisec
 2870               	/* epilogue start */
 2871               	.LM481:
 2872 0a9a 0895      		ret
 2873               	.LFE57:
 2875               	.global	turn_right
 2877               	turn_right:
 2878               	.LFB56:
 2879               	.LM482:
 2880 0a9c CF93      		push r28
 2881 0a9e DF93      		push r29
 2882               	/* prologue: function */
 2883               	/* frame size = 0 */
 2884               	.LM483:
 2885 0aa0 82E7      		ldi r24,lo8(114)
 2886 0aa2 8093 0000 		sts turn,r24
 2887               	.LBB577:
 2888               	.LBB578:
 2889               	.LM484:
 2890 0aa6 C5EF      		ldi r28,lo8(245)
 2891 0aa8 D0E0      		ldi r29,hi8(245)
 2892 0aaa 00C0      		rjmp .L253
 2893               	.L254:
 2894 0aac DBBD      		out (74)+1-32,r29
 2895 0aae CABD      		out 74-32,r28
 2896               	.LBE578:
 2897               	.LBE577:
 2898               	.LBB579:
 2899               	.LBB580:
 2900               	.LM485:
 2901 0ab0 D9BD      		out (72)+1-32,r29
 2902 0ab2 C8BD      		out 72-32,r28
 2903               	.LBE580:
 2904               	.LBE579:
 2905               	.LBB581:
 2906               	.LBB582:
 2907               	.LM486:
 2908 0ab4 AC9A      		sbi 53-32,4
 2909               	.LM487:
 2910 0ab6 AD98      		cbi 53-32,5
 2911               	.LM488:
 2912 0ab8 AE98      		cbi 53-32,6
 2913               	.LM489:
 2914 0aba AF9A      		sbi 53-32,7
 2915               	.LBE582:
 2916               	.LBE581:
 2917               	.LM490:
 2918 0abc 0E94 0000 		call left_count
 2919               	.L253:
 2920               	.LM491:
 2921 0ac0 CF99      		sbic 57-32,7
 2922 0ac2 00C0      		rjmp .L254
 2923 0ac4 00C0      		rjmp .L263
 2924               	.L257:
 2925               	.LBB583:
 2926               	.LBB584:
 2927               	.LM492:
 2928 0ac6 DBBD      		out (74)+1-32,r29
 2929 0ac8 CABD      		out 74-32,r28
 2930               	.LBE584:
 2931               	.LBE583:
 2932               	.LBB586:
 2933               	.LBB587:
 2934               	.LM493:
 2935 0aca D9BD      		out (72)+1-32,r29
 2936 0acc C8BD      		out 72-32,r28
 2937               	.LBE587:
 2938               	.LBE586:
 2939               	.LBB588:
 2940               	.LBB589:
 2941               	.LM494:
 2942 0ace AC9A      		sbi 53-32,4
 2943               	.LM495:
 2944 0ad0 AD98      		cbi 53-32,5
 2945               	.LM496:
 2946 0ad2 AE98      		cbi 53-32,6
 2947               	.LM497:
 2948 0ad4 AF9A      		sbi 53-32,7
 2949               	.LBE589:
 2950               	.LBE588:
 2951               	.LM498:
 2952 0ad6 0E94 0000 		call left_count
 2953 0ada 00C0      		rjmp .L262
 2954               	.L263:
 2955               	.LBB590:
 2956               	.LBB585:
 2957               	.LM499:
 2958 0adc C0EF      		ldi r28,lo8(240)
 2959 0ade D0E0      		ldi r29,hi8(240)
 2960               	.L262:
 2961               	.LBE585:
 2962               	.LBE590:
 2963               	.LM500:
 2964 0ae0 CE9B      		sbis 57-32,6
 2965 0ae2 00C0      		rjmp .L260
 2966 0ae4 8699      		sbic 48-32,6
 2967 0ae6 00C0      		rjmp .L257
 2968 0ae8 00C0      		rjmp .L260
 2969               	.L258:
 2970               	.LM501:
 2971 0aea 0E94 0000 		call line_track_new
 2972               	.L260:
 2973               	.LM502:
 2974 0aee CC9B      		sbis 57-32,4
 2975 0af0 00C0      		rjmp .L258
 2976 0af2 879B      		sbis 48-32,7
 2977 0af4 00C0      		rjmp .L258
 2978               	.LBB591:
 2979               	.LBB592:
 2980               	.LM503:
 2981 0af6 8FE8      		ldi r24,lo8(399)
 2982 0af8 91E0      		ldi r25,hi8(399)
 2983 0afa 9BBD      		out (74)+1-32,r25
 2984 0afc 8ABD      		out 74-32,r24
 2985               	.LBE592:
 2986               	.LBE591:
 2987               	.LBB593:
 2988               	.LBB594:
 2989               	.LM504:
 2990 0afe 99BD      		out (72)+1-32,r25
 2991 0b00 88BD      		out 72-32,r24
 2992               	.LBE594:
 2993               	.LBE593:
 2994               	.LBB595:
 2995               	.LBB596:
 2996               	.LM505:
 2997 0b02 AC9A      		sbi 53-32,4
 2998               	.LM506:
 2999 0b04 AD9A      		sbi 53-32,5
 3000               	.LM507:
 3001 0b06 AE9A      		sbi 53-32,6
 3002               	.LM508:
 3003 0b08 AF9A      		sbi 53-32,7
 3004               	.LBE596:
 3005               	.LBE595:
 3006               	.LM509:
 3007 0b0a 82E3      		ldi r24,lo8(50)
 3008 0b0c 90E0      		ldi r25,hi8(50)
 3009 0b0e 0E94 0000 		call delay_millisec
 3010               	/* epilogue start */
 3011               	.LM510:
 3012 0b12 DF91      		pop r29
 3013 0b14 CF91      		pop r28
 3014 0b16 0895      		ret
 3015               	.LFE56:
 3017               	.global	sense_of_directon
 3019               	sense_of_directon:
 3020               	.LFB66:
 3021               	.LM511:
 3022               	/* prologue: function */
 3023               	/* frame size = 0 */
 3024               	.LM512:
 3025 0b18 8091 0000 		lds r24,turn
 3026 0b1c 8237      		cpi r24,lo8(114)
 3027 0b1e 01F4      		brne .L265
 3028               	.LM513:
 3029 0b20 8091 0000 		lds r24,dir
 3030 0b24 9091 0000 		lds r25,(dir)+1
 3031 0b28 2FEF      		ldi r18,hi8(-1)
 3032 0b2a 8F3F      		cpi r24,lo8(-1)
 3033 0b2c 9207      		cpc r25,r18
 3034 0b2e 01F0      		breq .L275
 3035 0b30 2FEF      		ldi r18,hi8(-1)
 3036 0b32 8F3F      		cpi r24,lo8(-1)
 3037 0b34 9207      		cpc r25,r18
 3038 0b36 01F0      		breq .+2
 3039 0b38 04F4      		brge .L271
 3040 0b3a 8E5F      		subi r24,lo8(-2)
 3041 0b3c 9F4F      		sbci r25,hi8(-2)
 3042 0b3e 01F0      		breq .+2
 3043 0b40 00C0      		rjmp .L283
 3044 0b42 00C0      		rjmp .L280
 3045               	.L271:
 3046 0b44 8130      		cpi r24,1
 3047 0b46 9105      		cpc r25,__zero_reg__
 3048 0b48 01F4      		brne .+2
 3049 0b4a 00C0      		rjmp .L281
 3050 0b4c 0297      		sbiw r24,2
 3051 0b4e 01F0      		breq .+2
 3052 0b50 00C0      		rjmp .L283
 3053 0b52 00C0      		rjmp .L279
 3054               	.L265:
 3055               	.LM514:
 3056 0b54 8C36      		cpi r24,lo8(108)
 3057 0b56 01F4      		brne .L272
 3058               	.LM515:
 3059 0b58 8091 0000 		lds r24,dir
 3060 0b5c 9091 0000 		lds r25,(dir)+1
 3061 0b60 2FEF      		ldi r18,hi8(-1)
 3062 0b62 8F3F      		cpi r24,lo8(-1)
 3063 0b64 9207      		cpc r25,r18
 3064 0b66 01F0      		breq .L281
 3065 0b68 2FEF      		ldi r18,hi8(-1)
 3066 0b6a 8F3F      		cpi r24,lo8(-1)
 3067 0b6c 9207      		cpc r25,r18
 3068 0b6e 01F0      		breq .+2
 3069 0b70 04F4      		brge .L277
 3070 0b72 8E5F      		subi r24,lo8(-2)
 3071 0b74 9F4F      		sbci r25,hi8(-2)
 3072 0b76 01F4      		brne .L283
 3073 0b78 00C0      		rjmp .L279
 3074               	.L277:
 3075 0b7a 8130      		cpi r24,1
 3076 0b7c 9105      		cpc r25,__zero_reg__
 3077 0b7e 01F0      		breq .L275
 3078 0b80 0297      		sbiw r24,2
 3079 0b82 01F4      		brne .L283
 3080 0b84 00C0      		rjmp .L280
 3081               	.L275:
 3082               	.LM516:
 3083 0b86 82E0      		ldi r24,lo8(2)
 3084 0b88 90E0      		ldi r25,hi8(2)
 3085 0b8a 00C0      		rjmp .L284
 3086               	.L272:
 3087               	.LM517:
 3088 0b8c 8537      		cpi r24,lo8(117)
 3089 0b8e 01F4      		brne .L283
 3090               	.LM518:
 3091 0b90 8091 0000 		lds r24,dir
 3092 0b94 9091 0000 		lds r25,(dir)+1
 3093 0b98 2FEF      		ldi r18,hi8(-1)
 3094 0b9a 8F3F      		cpi r24,lo8(-1)
 3095 0b9c 9207      		cpc r25,r18
 3096 0b9e 01F0      		breq .L279
 3097 0ba0 2FEF      		ldi r18,hi8(-1)
 3098 0ba2 8F3F      		cpi r24,lo8(-1)
 3099 0ba4 9207      		cpc r25,r18
 3100 0ba6 01F0      		breq .+2
 3101 0ba8 04F4      		brge .L282
 3102 0baa 8E5F      		subi r24,lo8(-2)
 3103 0bac 9F4F      		sbci r25,hi8(-2)
 3104 0bae 01F4      		brne .L283
 3105 0bb0 00C0      		rjmp .L285
 3106               	.L282:
 3107 0bb2 8130      		cpi r24,1
 3108 0bb4 9105      		cpc r25,__zero_reg__
 3109 0bb6 01F0      		breq .L280
 3110 0bb8 0297      		sbiw r24,2
 3111 0bba 01F4      		brne .L283
 3112 0bbc 00C0      		rjmp .L281
 3113               	.L280:
 3114               	.LM519:
 3115 0bbe 8FEF      		ldi r24,lo8(-1)
 3116 0bc0 9FEF      		ldi r25,hi8(-1)
 3117 0bc2 00C0      		rjmp .L284
 3118               	.L279:
 3119               	.LM520:
 3120 0bc4 81E0      		ldi r24,lo8(1)
 3121 0bc6 90E0      		ldi r25,hi8(1)
 3122 0bc8 00C0      		rjmp .L284
 3123               	.L281:
 3124               	.LM521:
 3125 0bca 8EEF      		ldi r24,lo8(-2)
 3126 0bcc 9FEF      		ldi r25,hi8(-2)
 3127               	.L284:
 3128 0bce 9093 0000 		sts (dir)+1,r25
 3129 0bd2 8093 0000 		sts dir,r24
 3130 0bd6 0895      		ret
 3131               	.L285:
 3132               	.LM522:
 3133 0bd8 82E0      		ldi r24,lo8(2)
 3134 0bda 90E0      		ldi r25,hi8(2)
 3135 0bdc 9093 0000 		sts (dir)+1,r25
 3136 0be0 8093 0000 		sts dir,r24
 3137               	.L283:
 3138 0be4 0895      		ret
 3139               	.LFE66:
 3141               	.global	is_coordinate_null
 3143               	is_coordinate_null:
 3144               	.LFB68:
 3145               	.LM523:
 3146               	.LVL103:
 3147               	/* prologue: function */
 3148               	/* frame size = 0 */
 3149 0be6 382F      		mov r19,r24
 3150 0be8 492F      		mov r20,r25
 3151               	.LVL104:
 3152               	.LM524:
 3153 0bea FC01      		movw r30,r24
 3154 0bec B3E0      		ldi r27,3
 3155 0bee EE0F      	1:	lsl r30
 3156 0bf0 FF1F      		rol r31
 3157 0bf2 BA95      		dec r27
 3158 0bf4 01F4      		brne 1b
 3159 0bf6 880F      		lsl r24
 3160 0bf8 991F      		rol r25
 3161 0bfa E80F      		add r30,r24
 3162 0bfc F91F      		adc r31,r25
 3163 0bfe E60F      		add r30,r22
 3164 0c00 F71F      		adc r31,r23
 3165 0c02 53E0      		ldi r21,3
 3166 0c04 EE0F      	1:	lsl r30
 3167 0c06 FF1F      		rol r31
 3168 0c08 5A95      		dec r21
 3169 0c0a 01F4      		brne 1b
 3170 0c0c E050      		subi r30,lo8(-(dir_array))
 3171 0c0e F040      		sbci r31,hi8(-(dir_array))
 3172 0c10 8081      		ld r24,Z
 3173 0c12 9181      		ldd r25,Z+1
 3174               	.LVL105:
 3175 0c14 892B      		or r24,r25
 3176 0c16 01F0      		breq .+2
 3177 0c18 00C0      		rjmp .L287
 3178               	.LVL106:
 3179 0c1a 832F      		mov r24,r19
 3180               	.LVL107:
 3181 0c1c 942F      		mov r25,r20
 3182 0c1e FC01      		movw r30,r24
 3183 0c20 23E0      		ldi r18,3
 3184 0c22 EE0F      	1:	lsl r30
 3185 0c24 FF1F      		rol r31
 3186 0c26 2A95      		dec r18
 3187 0c28 01F4      		brne 1b
 3188 0c2a 880F      		lsl r24
 3189 0c2c 991F      		rol r25
 3190               	.LVL108:
 3191 0c2e E80F      		add r30,r24
 3192 0c30 F91F      		adc r31,r25
 3193 0c32 E60F      		add r30,r22
 3194 0c34 F71F      		adc r31,r23
 3195 0c36 A3E0      		ldi r26,3
 3196 0c38 EE0F      	1:	lsl r30
 3197 0c3a FF1F      		rol r31
 3198 0c3c AA95      		dec r26
 3199 0c3e 01F4      		brne 1b
 3200 0c40 E050      		subi r30,lo8(-(dir_array+2))
 3201 0c42 F040      		sbci r31,hi8(-(dir_array+2))
 3202 0c44 8081      		ld r24,Z
 3203 0c46 9181      		ldd r25,Z+1
 3204               	.LVL109:
 3205 0c48 892B      		or r24,r25
 3206 0c4a 01F4      		brne .L287
 3207               	.LVL110:
 3208 0c4c 832F      		mov r24,r19
 3209               	.LVL111:
 3210 0c4e 942F      		mov r25,r20
 3211 0c50 FC01      		movw r30,r24
 3212 0c52 53E0      		ldi r21,3
 3213 0c54 EE0F      	1:	lsl r30
 3214 0c56 FF1F      		rol r31
 3215 0c58 5A95      		dec r21
 3216 0c5a 01F4      		brne 1b
 3217 0c5c 880F      		lsl r24
 3218 0c5e 991F      		rol r25
 3219               	.LVL112:
 3220 0c60 E80F      		add r30,r24
 3221 0c62 F91F      		adc r31,r25
 3222 0c64 E60F      		add r30,r22
 3223 0c66 F71F      		adc r31,r23
 3224 0c68 83E0      		ldi r24,3
 3225 0c6a EE0F      	1:	lsl r30
 3226 0c6c FF1F      		rol r31
 3227 0c6e 8A95      		dec r24
 3228 0c70 01F4      		brne 1b
 3229               	.LVL113:
 3230 0c72 E050      		subi r30,lo8(-(dir_array+4))
 3231 0c74 F040      		sbci r31,hi8(-(dir_array+4))
 3232 0c76 8081      		ld r24,Z
 3233 0c78 9181      		ldd r25,Z+1
 3234 0c7a 892B      		or r24,r25
 3235 0c7c 01F4      		brne .L287
 3236 0c7e 20E0      		ldi r18,lo8(0)
 3237 0c80 832F      		mov r24,r19
 3238               	.LVL114:
 3239 0c82 942F      		mov r25,r20
 3240 0c84 FC01      		movw r30,r24
 3241 0c86 B3E0      		ldi r27,3
 3242 0c88 EE0F      	1:	lsl r30
 3243 0c8a FF1F      		rol r31
 3244 0c8c BA95      		dec r27
 3245 0c8e 01F4      		brne 1b
 3246 0c90 880F      		lsl r24
 3247 0c92 991F      		rol r25
 3248               	.LVL115:
 3249 0c94 E80F      		add r30,r24
 3250 0c96 F91F      		adc r31,r25
 3251 0c98 E60F      		add r30,r22
 3252 0c9a F71F      		adc r31,r23
 3253 0c9c 53E0      		ldi r21,3
 3254 0c9e EE0F      	1:	lsl r30
 3255 0ca0 FF1F      		rol r31
 3256 0ca2 5A95      		dec r21
 3257 0ca4 01F4      		brne 1b
 3258 0ca6 E050      		subi r30,lo8(-(dir_array))
 3259 0ca8 F040      		sbci r31,hi8(-(dir_array))
 3260 0caa 8681      		ldd r24,Z+6
 3261 0cac 9781      		ldd r25,Z+7
 3262               	.LVL116:
 3263 0cae 892B      		or r24,r25
 3264 0cb0 01F0      		breq .L288
 3265 0cb2 21E0      		ldi r18,lo8(1)
 3266               	.L288:
 3267 0cb4 81E0      		ldi r24,lo8(1)
 3268 0cb6 2827      		eor r18,r24
 3269 0cb8 30E0      		ldi r19,lo8(0)
 3270 0cba 00C0      		rjmp .L289
 3271               	.L287:
 3272 0cbc 20E0      		ldi r18,lo8(0)
 3273 0cbe 30E0      		ldi r19,hi8(0)
 3274               	.L289:
 3275               	.LM525:
 3276 0cc0 C901      		movw r24,r18
 3277               	/* epilogue start */
 3278 0cc2 0895      		ret
 3279               	.LFE68:
 3281               	.global	update_array
 3283               	update_array:
 3284               	.LFB67:
 3285               	.LM526:
 3286               	.LVL117:
 3287 0cc4 8F92      		push r8
 3288 0cc6 9F92      		push r9
 3289 0cc8 AF92      		push r10
 3290 0cca BF92      		push r11
 3291 0ccc CF92      		push r12
 3292 0cce DF92      		push r13
 3293 0cd0 EF92      		push r14
 3294 0cd2 FF92      		push r15
 3295 0cd4 0F93      		push r16
 3296 0cd6 1F93      		push r17
 3297 0cd8 CF93      		push r28
 3298 0cda DF93      		push r29
 3299               	/* prologue: function */
 3300               	/* frame size = 0 */
 3301 0cdc 7C01      		movw r14,r24
 3302 0cde 6B01      		movw r12,r22
 3303 0ce0 5A01      		movw r10,r20
 3304 0ce2 4901      		movw r8,r18
 3305               	.LM527:
 3306 0ce4 1091 0000 		lds r17,x_coordinate
 3307 0ce8 0091 0000 		lds r16,x_coordinate+1
 3308 0cec C091 0000 		lds r28,y_coordinate
 3309 0cf0 D091 0000 		lds r29,(y_coordinate)+1
 3310 0cf4 812F      		mov r24,r17
 3311               	.LVL118:
 3312 0cf6 902F      		mov r25,r16
 3313 0cf8 BE01      		movw r22,r28
 3314               	.LVL119:
 3315 0cfa 0E94 0000 		call is_coordinate_null
 3316               	.LVL120:
 3317 0cfe 892B      		or r24,r25
 3318 0d00 01F4      		brne .+2
 3319 0d02 00C0      		rjmp .L292
 3320               	.LM528:
 3321 0d04 1092 0000 		sts (repeat)+1,__zero_reg__
 3322 0d08 1092 0000 		sts repeat,__zero_reg__
 3323               	.LM529:
 3324 0d0c 8091 0000 		lds r24,dir
 3325 0d10 9091 0000 		lds r25,(dir)+1
 3326 0d14 2FEF      		ldi r18,hi8(-1)
 3327 0d16 8F3F      		cpi r24,lo8(-1)
 3328 0d18 9207      		cpc r25,r18
 3329 0d1a 01F4      		brne .+2
 3330 0d1c 00C0      		rjmp .L295
 3331 0d1e 2FEF      		ldi r18,hi8(-1)
 3332 0d20 8F3F      		cpi r24,lo8(-1)
 3333 0d22 9207      		cpc r25,r18
 3334 0d24 01F0      		breq .+2
 3335 0d26 04F4      		brge .L298
 3336 0d28 8E5F      		subi r24,lo8(-2)
 3337 0d2a 9F4F      		sbci r25,hi8(-2)
 3338 0d2c 01F0      		breq .+2
 3339 0d2e 00C0      		rjmp .L299
 3340 0d30 00C0      		rjmp .L301
 3341               	.L298:
 3342 0d32 8130      		cpi r24,1
 3343 0d34 9105      		cpc r25,__zero_reg__
 3344 0d36 01F4      		brne .+2
 3345 0d38 00C0      		rjmp .L296
 3346 0d3a 0297      		sbiw r24,2
 3347 0d3c 01F0      		breq .+2
 3348 0d3e 00C0      		rjmp .L299
 3349               	.LM530:
 3350 0d40 812F      		mov r24,r17
 3351 0d42 902F      		mov r25,r16
 3352 0d44 FC01      		movw r30,r24
 3353 0d46 33E0      		ldi r19,3
 3354 0d48 EE0F      	1:	lsl r30
 3355 0d4a FF1F      		rol r31
 3356 0d4c 3A95      		dec r19
 3357 0d4e 01F4      		brne 1b
 3358 0d50 880F      		lsl r24
 3359 0d52 991F      		rol r25
 3360 0d54 E80F      		add r30,r24
 3361 0d56 F91F      		adc r31,r25
 3362 0d58 EC0F      		add r30,r28
 3363 0d5a FD1F      		adc r31,r29
 3364 0d5c B3E0      		ldi r27,3
 3365 0d5e EE0F      	1:	lsl r30
 3366 0d60 FF1F      		rol r31
 3367 0d62 BA95      		dec r27
 3368 0d64 01F4      		brne 1b
 3369 0d66 E050      		subi r30,lo8(-(dir_array))
 3370 0d68 F040      		sbci r31,hi8(-(dir_array))
 3371 0d6a F182      		std Z+1,r15
 3372 0d6c E082      		st Z,r14
 3373               	.LM531:
 3374 0d6e 812F      		mov r24,r17
 3375 0d70 902F      		mov r25,r16
 3376 0d72 FC01      		movw r30,r24
 3377 0d74 A3E0      		ldi r26,3
 3378 0d76 EE0F      	1:	lsl r30
 3379 0d78 FF1F      		rol r31
 3380 0d7a AA95      		dec r26
 3381 0d7c 01F4      		brne 1b
 3382 0d7e 880F      		lsl r24
 3383 0d80 991F      		rol r25
 3384 0d82 E80F      		add r30,r24
 3385 0d84 F91F      		adc r31,r25
 3386 0d86 EC0F      		add r30,r28
 3387 0d88 FD1F      		adc r31,r29
 3388 0d8a 63E0      		ldi r22,3
 3389 0d8c EE0F      	1:	lsl r30
 3390 0d8e FF1F      		rol r31
 3391 0d90 6A95      		dec r22
 3392 0d92 01F4      		brne 1b
 3393 0d94 E050      		subi r30,lo8(-(dir_array+2))
 3394 0d96 F040      		sbci r31,hi8(-(dir_array+2))
 3395 0d98 D182      		std Z+1,r13
 3396 0d9a C082      		st Z,r12
 3397               	.LM532:
 3398 0d9c 812F      		mov r24,r17
 3399 0d9e 902F      		mov r25,r16
 3400 0da0 FC01      		movw r30,r24
 3401 0da2 53E0      		ldi r21,3
 3402 0da4 EE0F      	1:	lsl r30
 3403 0da6 FF1F      		rol r31
 3404 0da8 5A95      		dec r21
 3405 0daa 01F4      		brne 1b
 3406 0dac 880F      		lsl r24
 3407 0dae 991F      		rol r25
 3408 0db0 E80F      		add r30,r24
 3409 0db2 F91F      		adc r31,r25
 3410 0db4 EC0F      		add r30,r28
 3411 0db6 FD1F      		adc r31,r29
 3412 0db8 33E0      		ldi r19,3
 3413 0dba EE0F      	1:	lsl r30
 3414 0dbc FF1F      		rol r31
 3415 0dbe 3A95      		dec r19
 3416 0dc0 01F4      		brne 1b
 3417 0dc2 E050      		subi r30,lo8(-(dir_array+4))
 3418 0dc4 F040      		sbci r31,hi8(-(dir_array+4))
 3419 0dc6 B182      		std Z+1,r11
 3420 0dc8 A082      		st Z,r10
 3421               	.LM533:
 3422 0dca 812F      		mov r24,r17
 3423 0dcc 902F      		mov r25,r16
 3424 0dce FC01      		movw r30,r24
 3425 0dd0 23E0      		ldi r18,3
 3426 0dd2 EE0F      	1:	lsl r30
 3427 0dd4 FF1F      		rol r31
 3428 0dd6 2A95      		dec r18
 3429 0dd8 01F4      		brne 1b
 3430 0dda 880F      		lsl r24
 3431 0ddc 991F      		rol r25
 3432 0dde E80F      		add r30,r24
 3433 0de0 F91F      		adc r31,r25
 3434 0de2 EC0F      		add r30,r28
 3435 0de4 FD1F      		adc r31,r29
 3436 0de6 13E0      		ldi r17,3
 3437 0de8 EE0F      	1:	lsl r30
 3438 0dea FF1F      		rol r31
 3439 0dec 1A95      		dec r17
 3440 0dee 01F4      		brne 1b
 3441 0df0 E050      		subi r30,lo8(-(dir_array))
 3442 0df2 F040      		sbci r31,hi8(-(dir_array))
 3443 0df4 9782      		std Z+7,r9
 3444 0df6 8682      		std Z+6,r8
 3445 0df8 00C0      		rjmp .L299
 3446               	.L296:
 3447               	.LM534:
 3448 0dfa 812F      		mov r24,r17
 3449 0dfc 902F      		mov r25,r16
 3450 0dfe FC01      		movw r30,r24
 3451 0e00 B3E0      		ldi r27,3
 3452 0e02 EE0F      	1:	lsl r30
 3453 0e04 FF1F      		rol r31
 3454 0e06 BA95      		dec r27
 3455 0e08 01F4      		brne 1b
 3456 0e0a 880F      		lsl r24
 3457 0e0c 991F      		rol r25
 3458 0e0e E80F      		add r30,r24
 3459 0e10 F91F      		adc r31,r25
 3460 0e12 EC0F      		add r30,r28
 3461 0e14 FD1F      		adc r31,r29
 3462 0e16 73E0      		ldi r23,3
 3463 0e18 EE0F      	1:	lsl r30
 3464 0e1a FF1F      		rol r31
 3465 0e1c 7A95      		dec r23
 3466 0e1e 01F4      		brne 1b
 3467 0e20 E050      		subi r30,lo8(-(dir_array+2))
 3468 0e22 F040      		sbci r31,hi8(-(dir_array+2))
 3469 0e24 F182      		std Z+1,r15
 3470 0e26 E082      		st Z,r14
 3471               	.LM535:
 3472 0e28 812F      		mov r24,r17
 3473 0e2a 902F      		mov r25,r16
 3474 0e2c FC01      		movw r30,r24
 3475 0e2e 63E0      		ldi r22,3
 3476 0e30 EE0F      	1:	lsl r30
 3477 0e32 FF1F      		rol r31
 3478 0e34 6A95      		dec r22
 3479 0e36 01F4      		brne 1b
 3480 0e38 880F      		lsl r24
 3481 0e3a 991F      		rol r25
 3482 0e3c E80F      		add r30,r24
 3483 0e3e F91F      		adc r31,r25
 3484 0e40 EC0F      		add r30,r28
 3485 0e42 FD1F      		adc r31,r29
 3486 0e44 43E0      		ldi r20,3
 3487 0e46 EE0F      	1:	lsl r30
 3488 0e48 FF1F      		rol r31
 3489 0e4a 4A95      		dec r20
 3490 0e4c 01F4      		brne 1b
 3491 0e4e E050      		subi r30,lo8(-(dir_array+4))
 3492 0e50 F040      		sbci r31,hi8(-(dir_array+4))
 3493 0e52 D182      		std Z+1,r13
 3494 0e54 C082      		st Z,r12
 3495               	.LM536:
 3496 0e56 812F      		mov r24,r17
 3497 0e58 902F      		mov r25,r16
 3498 0e5a FC01      		movw r30,r24
 3499 0e5c 33E0      		ldi r19,3
 3500 0e5e EE0F      	1:	lsl r30
 3501 0e60 FF1F      		rol r31
 3502 0e62 3A95      		dec r19
 3503 0e64 01F4      		brne 1b
 3504 0e66 880F      		lsl r24
 3505 0e68 991F      		rol r25
 3506 0e6a E80F      		add r30,r24
 3507 0e6c F91F      		adc r31,r25
 3508 0e6e EC0F      		add r30,r28
 3509 0e70 FD1F      		adc r31,r29
 3510 0e72 83E0      		ldi r24,3
 3511 0e74 EE0F      	1:	lsl r30
 3512 0e76 FF1F      		rol r31
 3513 0e78 8A95      		dec r24
 3514 0e7a 01F4      		brne 1b
 3515 0e7c E050      		subi r30,lo8(-(dir_array))
 3516 0e7e F040      		sbci r31,hi8(-(dir_array))
 3517 0e80 B782      		std Z+7,r11
 3518 0e82 A682      		std Z+6,r10
 3519               	.LM537:
 3520 0e84 812F      		mov r24,r17
 3521 0e86 902F      		mov r25,r16
 3522 0e88 FC01      		movw r30,r24
 3523 0e8a B3E0      		ldi r27,3
 3524 0e8c EE0F      	1:	lsl r30
 3525 0e8e FF1F      		rol r31
 3526 0e90 BA95      		dec r27
 3527 0e92 01F4      		brne 1b
 3528 0e94 880F      		lsl r24
 3529 0e96 991F      		rol r25
 3530 0e98 E80F      		add r30,r24
 3531 0e9a F91F      		adc r31,r25
 3532 0e9c EC0F      		add r30,r28
 3533 0e9e FD1F      		adc r31,r29
 3534 0ea0 73E0      		ldi r23,3
 3535 0ea2 EE0F      	1:	lsl r30
 3536 0ea4 FF1F      		rol r31
 3537 0ea6 7A95      		dec r23
 3538 0ea8 01F4      		brne 1b
 3539 0eaa E050      		subi r30,lo8(-(dir_array))
 3540 0eac F040      		sbci r31,hi8(-(dir_array))
 3541 0eae 00C0      		rjmp .L300
 3542               	.L301:
 3543               	.LM538:
 3544 0eb0 812F      		mov r24,r17
 3545 0eb2 902F      		mov r25,r16
 3546 0eb4 FC01      		movw r30,r24
 3547 0eb6 63E0      		ldi r22,3
 3548 0eb8 EE0F      	1:	lsl r30
 3549 0eba FF1F      		rol r31
 3550 0ebc 6A95      		dec r22
 3551 0ebe 01F4      		brne 1b
 3552 0ec0 880F      		lsl r24
 3553 0ec2 991F      		rol r25
 3554 0ec4 E80F      		add r30,r24
 3555 0ec6 F91F      		adc r31,r25
 3556 0ec8 EC0F      		add r30,r28
 3557 0eca FD1F      		adc r31,r29
 3558 0ecc 43E0      		ldi r20,3
 3559 0ece EE0F      	1:	lsl r30
 3560 0ed0 FF1F      		rol r31
 3561 0ed2 4A95      		dec r20
 3562 0ed4 01F4      		brne 1b
 3563 0ed6 E050      		subi r30,lo8(-(dir_array+4))
 3564 0ed8 F040      		sbci r31,hi8(-(dir_array+4))
 3565 0eda F182      		std Z+1,r15
 3566 0edc E082      		st Z,r14
 3567               	.LM539:
 3568 0ede 812F      		mov r24,r17
 3569 0ee0 902F      		mov r25,r16
 3570 0ee2 FC01      		movw r30,r24
 3571 0ee4 33E0      		ldi r19,3
 3572 0ee6 EE0F      	1:	lsl r30
 3573 0ee8 FF1F      		rol r31
 3574 0eea 3A95      		dec r19
 3575 0eec 01F4      		brne 1b
 3576 0eee 880F      		lsl r24
 3577 0ef0 991F      		rol r25
 3578 0ef2 E80F      		add r30,r24
 3579 0ef4 F91F      		adc r31,r25
 3580 0ef6 EC0F      		add r30,r28
 3581 0ef8 FD1F      		adc r31,r29
 3582 0efa 83E0      		ldi r24,3
 3583 0efc EE0F      	1:	lsl r30
 3584 0efe FF1F      		rol r31
 3585 0f00 8A95      		dec r24
 3586 0f02 01F4      		brne 1b
 3587 0f04 E050      		subi r30,lo8(-(dir_array))
 3588 0f06 F040      		sbci r31,hi8(-(dir_array))
 3589 0f08 D782      		std Z+7,r13
 3590 0f0a C682      		std Z+6,r12
 3591               	.LM540:
 3592 0f0c 812F      		mov r24,r17
 3593 0f0e 902F      		mov r25,r16
 3594 0f10 FC01      		movw r30,r24
 3595 0f12 B3E0      		ldi r27,3
 3596 0f14 EE0F      	1:	lsl r30
 3597 0f16 FF1F      		rol r31
 3598 0f18 BA95      		dec r27
 3599 0f1a 01F4      		brne 1b
 3600 0f1c 880F      		lsl r24
 3601 0f1e 991F      		rol r25
 3602 0f20 E80F      		add r30,r24
 3603 0f22 F91F      		adc r31,r25
 3604 0f24 EC0F      		add r30,r28
 3605 0f26 FD1F      		adc r31,r29
 3606 0f28 73E0      		ldi r23,3
 3607 0f2a EE0F      	1:	lsl r30
 3608 0f2c FF1F      		rol r31
 3609 0f2e 7A95      		dec r23
 3610 0f30 01F4      		brne 1b
 3611 0f32 E050      		subi r30,lo8(-(dir_array))
 3612 0f34 F040      		sbci r31,hi8(-(dir_array))
 3613 0f36 B182      		std Z+1,r11
 3614 0f38 A082      		st Z,r10
 3615               	.LM541:
 3616 0f3a 812F      		mov r24,r17
 3617 0f3c 902F      		mov r25,r16
 3618 0f3e FC01      		movw r30,r24
 3619 0f40 63E0      		ldi r22,3
 3620 0f42 EE0F      	1:	lsl r30
 3621 0f44 FF1F      		rol r31
 3622 0f46 6A95      		dec r22
 3623 0f48 01F4      		brne 1b
 3624 0f4a 880F      		lsl r24
 3625 0f4c 991F      		rol r25
 3626 0f4e E80F      		add r30,r24
 3627 0f50 F91F      		adc r31,r25
 3628 0f52 EC0F      		add r30,r28
 3629 0f54 FD1F      		adc r31,r29
 3630 0f56 43E0      		ldi r20,3
 3631 0f58 EE0F      	1:	lsl r30
 3632 0f5a FF1F      		rol r31
 3633 0f5c 4A95      		dec r20
 3634 0f5e 01F4      		brne 1b
 3635 0f60 E050      		subi r30,lo8(-(dir_array+2))
 3636 0f62 F040      		sbci r31,hi8(-(dir_array+2))
 3637 0f64 00C0      		rjmp .L300
 3638               	.L295:
 3639               	.LM542:
 3640 0f66 812F      		mov r24,r17
 3641 0f68 902F      		mov r25,r16
 3642 0f6a FC01      		movw r30,r24
 3643 0f6c 33E0      		ldi r19,3
 3644 0f6e EE0F      	1:	lsl r30
 3645 0f70 FF1F      		rol r31
 3646 0f72 3A95      		dec r19
 3647 0f74 01F4      		brne 1b
 3648 0f76 880F      		lsl r24
 3649 0f78 991F      		rol r25
 3650 0f7a E80F      		add r30,r24
 3651 0f7c F91F      		adc r31,r25
 3652 0f7e EC0F      		add r30,r28
 3653 0f80 FD1F      		adc r31,r29
 3654 0f82 B3E0      		ldi r27,3
 3655 0f84 EE0F      	1:	lsl r30
 3656 0f86 FF1F      		rol r31
 3657 0f88 BA95      		dec r27
 3658 0f8a 01F4      		brne 1b
 3659 0f8c E050      		subi r30,lo8(-(dir_array))
 3660 0f8e F040      		sbci r31,hi8(-(dir_array))
 3661 0f90 F782      		std Z+7,r15
 3662 0f92 E682      		std Z+6,r14
 3663               	.LM543:
 3664 0f94 812F      		mov r24,r17
 3665 0f96 902F      		mov r25,r16
 3666 0f98 FC01      		movw r30,r24
 3667 0f9a A3E0      		ldi r26,3
 3668 0f9c EE0F      	1:	lsl r30
 3669 0f9e FF1F      		rol r31
 3670 0fa0 AA95      		dec r26
 3671 0fa2 01F4      		brne 1b
 3672 0fa4 880F      		lsl r24
 3673 0fa6 991F      		rol r25
 3674 0fa8 E80F      		add r30,r24
 3675 0faa F91F      		adc r31,r25
 3676 0fac EC0F      		add r30,r28
 3677 0fae FD1F      		adc r31,r29
 3678 0fb0 63E0      		ldi r22,3
 3679 0fb2 EE0F      	1:	lsl r30
 3680 0fb4 FF1F      		rol r31
 3681 0fb6 6A95      		dec r22
 3682 0fb8 01F4      		brne 1b
 3683 0fba E050      		subi r30,lo8(-(dir_array))
 3684 0fbc F040      		sbci r31,hi8(-(dir_array))
 3685 0fbe D182      		std Z+1,r13
 3686 0fc0 C082      		st Z,r12
 3687               	.LM544:
 3688 0fc2 812F      		mov r24,r17
 3689 0fc4 902F      		mov r25,r16
 3690 0fc6 FC01      		movw r30,r24
 3691 0fc8 53E0      		ldi r21,3
 3692 0fca EE0F      	1:	lsl r30
 3693 0fcc FF1F      		rol r31
 3694 0fce 5A95      		dec r21
 3695 0fd0 01F4      		brne 1b
 3696 0fd2 880F      		lsl r24
 3697 0fd4 991F      		rol r25
 3698 0fd6 E80F      		add r30,r24
 3699 0fd8 F91F      		adc r31,r25
 3700 0fda EC0F      		add r30,r28
 3701 0fdc FD1F      		adc r31,r29
 3702 0fde 33E0      		ldi r19,3
 3703 0fe0 EE0F      	1:	lsl r30
 3704 0fe2 FF1F      		rol r31
 3705 0fe4 3A95      		dec r19
 3706 0fe6 01F4      		brne 1b
 3707 0fe8 E050      		subi r30,lo8(-(dir_array+2))
 3708 0fea F040      		sbci r31,hi8(-(dir_array+2))
 3709 0fec B182      		std Z+1,r11
 3710 0fee A082      		st Z,r10
 3711               	.LM545:
 3712 0ff0 812F      		mov r24,r17
 3713 0ff2 902F      		mov r25,r16
 3714 0ff4 FC01      		movw r30,r24
 3715 0ff6 23E0      		ldi r18,3
 3716 0ff8 EE0F      	1:	lsl r30
 3717 0ffa FF1F      		rol r31
 3718 0ffc 2A95      		dec r18
 3719 0ffe 01F4      		brne 1b
 3720 1000 880F      		lsl r24
 3721 1002 991F      		rol r25
 3722 1004 E80F      		add r30,r24
 3723 1006 F91F      		adc r31,r25
 3724 1008 EC0F      		add r30,r28
 3725 100a FD1F      		adc r31,r29
 3726 100c 13E0      		ldi r17,3
 3727 100e EE0F      	1:	lsl r30
 3728 1010 FF1F      		rol r31
 3729 1012 1A95      		dec r17
 3730 1014 01F4      		brne 1b
 3731 1016 E050      		subi r30,lo8(-(dir_array+4))
 3732 1018 F040      		sbci r31,hi8(-(dir_array+4))
 3733               	.L300:
 3734 101a 9182      		std Z+1,r9
 3735 101c 8082      		st Z,r8
 3736 101e 00C0      		rjmp .L299
 3737               	.L292:
 3738               	.LM546:
 3739 1020 81E0      		ldi r24,lo8(1)
 3740 1022 90E0      		ldi r25,hi8(1)
 3741 1024 9093 0000 		sts (repeat)+1,r25
 3742 1028 8093 0000 		sts repeat,r24
 3743               	.L299:
 3744               	/* epilogue start */
 3745               	.LM547:
 3746 102c DF91      		pop r29
 3747 102e CF91      		pop r28
 3748 1030 1F91      		pop r17
 3749 1032 0F91      		pop r16
 3750 1034 FF90      		pop r15
 3751 1036 EF90      		pop r14
 3752               	.LVL121:
 3753 1038 DF90      		pop r13
 3754 103a CF90      		pop r12
 3755               	.LVL122:
 3756 103c BF90      		pop r11
 3757 103e AF90      		pop r10
 3758               	.LVL123:
 3759 1040 9F90      		pop r9
 3760 1042 8F90      		pop r8
 3761               	.LVL124:
 3762 1044 0895      		ret
 3763               	.LFE67:
 3765               	.global	update_coordinates
 3767               	update_coordinates:
 3768               	.LFB65:
 3769               	.LM548:
 3770               	/* prologue: function */
 3771               	/* frame size = 0 */
 3772               	.LM549:
 3773 1046 2091 0000 		lds r18,Coordinates_changed_by
 3774 104a 3091 0000 		lds r19,(Coordinates_changed_by)+1
 3775               	.LVL125:
 3776 104e 8091 0000 		lds r24,dir
 3777 1052 9091 0000 		lds r25,(dir)+1
 3778               	.LM550:
 3779 1056 2230      		cpi r18,2
 3780 1058 3105      		cpc r19,__zero_reg__
 3781 105a 01F0      		breq .+2
 3782 105c 00C0      		rjmp .L303
 3783               	.LM551:
 3784 105e 2FEF      		ldi r18,hi8(-1)
 3785 1060 8F3F      		cpi r24,lo8(-1)
 3786 1062 9207      		cpc r25,r18
 3787               	.LVL126:
 3788 1064 01F0      		breq .L306
 3789 1066 4FEF      		ldi r20,hi8(-1)
 3790 1068 8F3F      		cpi r24,lo8(-1)
 3791 106a 9407      		cpc r25,r20
 3792 106c 01F0      		breq .+2
 3793 106e 04F4      		brge .L309
 3794 1070 8E5F      		subi r24,lo8(-2)
 3795 1072 9F4F      		sbci r25,hi8(-2)
 3796 1074 01F0      		breq .+2
 3797 1076 00C0      		rjmp .L304
 3798 1078 00C0      		rjmp .L318
 3799               	.L309:
 3800 107a 8130      		cpi r24,1
 3801 107c 9105      		cpc r25,__zero_reg__
 3802 107e 01F0      		breq .L307
 3803 1080 0297      		sbiw r24,2
 3804 1082 01F0      		breq .+2
 3805 1084 00C0      		rjmp .L304
 3806 1086 00C0      		rjmp .L319
 3807               	.L307:
 3808               	.LM552:
 3809 1088 8091 0000 		lds r24,x_coordinate
 3810 108c 9091 0000 		lds r25,(x_coordinate)+1
 3811 1090 0196      		adiw r24,1
 3812 1092 9093 0000 		sts (x_coordinate)+1,r25
 3813 1096 8093 0000 		sts x_coordinate,r24
 3814               	.LM553:
 3815 109a 81E0      		ldi r24,lo8(1)
 3816 109c 90E0      		ldi r25,hi8(1)
 3817 109e 60E0      		ldi r22,lo8(0)
 3818 10a0 70E0      		ldi r23,hi8(0)
 3819 10a2 41E0      		ldi r20,lo8(1)
 3820 10a4 50E0      		ldi r21,hi8(1)
 3821 10a6 20E0      		ldi r18,lo8(0)
 3822 10a8 30E0      		ldi r19,hi8(0)
 3823 10aa 0E94 0000 		call update_array
 3824               	.LM554:
 3825 10ae 8091 0000 		lds r24,x_coordinate
 3826 10b2 9091 0000 		lds r25,(x_coordinate)+1
 3827 10b6 0196      		adiw r24,1
 3828 10b8 00C0      		rjmp .L317
 3829               	.L306:
 3830               	.LM555:
 3831 10ba 8091 0000 		lds r24,x_coordinate
 3832 10be 9091 0000 		lds r25,(x_coordinate)+1
 3833 10c2 0197      		sbiw r24,1
 3834 10c4 9093 0000 		sts (x_coordinate)+1,r25
 3835 10c8 8093 0000 		sts x_coordinate,r24
 3836               	.LM556:
 3837 10cc 81E0      		ldi r24,lo8(1)
 3838 10ce 90E0      		ldi r25,hi8(1)
 3839 10d0 60E0      		ldi r22,lo8(0)
 3840 10d2 70E0      		ldi r23,hi8(0)
 3841 10d4 41E0      		ldi r20,lo8(1)
 3842 10d6 50E0      		ldi r21,hi8(1)
 3843 10d8 20E0      		ldi r18,lo8(0)
 3844 10da 30E0      		ldi r19,hi8(0)
 3845 10dc 0E94 0000 		call update_array
 3846               	.LM557:
 3847 10e0 8091 0000 		lds r24,x_coordinate
 3848 10e4 9091 0000 		lds r25,(x_coordinate)+1
 3849 10e8 0197      		sbiw r24,1
 3850 10ea 00C0      		rjmp .L317
 3851               	.L319:
 3852               	.LM558:
 3853 10ec 8091 0000 		lds r24,y_coordinate
 3854 10f0 9091 0000 		lds r25,(y_coordinate)+1
 3855 10f4 0196      		adiw r24,1
 3856 10f6 9093 0000 		sts (y_coordinate)+1,r25
 3857 10fa 8093 0000 		sts y_coordinate,r24
 3858               	.LM559:
 3859 10fe 81E0      		ldi r24,lo8(1)
 3860 1100 90E0      		ldi r25,hi8(1)
 3861 1102 60E0      		ldi r22,lo8(0)
 3862 1104 70E0      		ldi r23,hi8(0)
 3863 1106 41E0      		ldi r20,lo8(1)
 3864 1108 50E0      		ldi r21,hi8(1)
 3865 110a 20E0      		ldi r18,lo8(0)
 3866 110c 30E0      		ldi r19,hi8(0)
 3867 110e 0E94 0000 		call update_array
 3868               	.LM560:
 3869 1112 8091 0000 		lds r24,y_coordinate
 3870 1116 9091 0000 		lds r25,(y_coordinate)+1
 3871 111a 0196      		adiw r24,1
 3872 111c 00C0      		rjmp .L316
 3873               	.L318:
 3874               	.LM561:
 3875 111e 8091 0000 		lds r24,y_coordinate
 3876 1122 9091 0000 		lds r25,(y_coordinate)+1
 3877 1126 0197      		sbiw r24,1
 3878 1128 9093 0000 		sts (y_coordinate)+1,r25
 3879 112c 8093 0000 		sts y_coordinate,r24
 3880               	.LM562:
 3881 1130 81E0      		ldi r24,lo8(1)
 3882 1132 90E0      		ldi r25,hi8(1)
 3883 1134 60E0      		ldi r22,lo8(0)
 3884 1136 70E0      		ldi r23,hi8(0)
 3885 1138 41E0      		ldi r20,lo8(1)
 3886 113a 50E0      		ldi r21,hi8(1)
 3887 113c 20E0      		ldi r18,lo8(0)
 3888 113e 30E0      		ldi r19,hi8(0)
 3889 1140 0E94 0000 		call update_array
 3890               	.LM563:
 3891 1144 8091 0000 		lds r24,y_coordinate
 3892 1148 9091 0000 		lds r25,(y_coordinate)+1
 3893 114c 0197      		sbiw r24,1
 3894 114e 00C0      		rjmp .L316
 3895               	.LVL127:
 3896               	.L303:
 3897               	.LM564:
 3898 1150 4FEF      		ldi r20,hi8(-1)
 3899 1152 8F3F      		cpi r24,lo8(-1)
 3900 1154 9407      		cpc r25,r20
 3901 1156 01F0      		breq .L311
 3902 1158 4FEF      		ldi r20,hi8(-1)
 3903 115a 8F3F      		cpi r24,lo8(-1)
 3904 115c 9407      		cpc r25,r20
 3905 115e 01F0      		breq .+2
 3906 1160 04F4      		brge .L314
 3907 1162 8E5F      		subi r24,lo8(-2)
 3908 1164 9F4F      		sbci r25,hi8(-2)
 3909 1166 01F4      		brne .L304
 3910 1168 00C0      		rjmp .L320
 3911               	.L314:
 3912 116a 8130      		cpi r24,1
 3913 116c 9105      		cpc r25,__zero_reg__
 3914 116e 01F0      		breq .L312
 3915 1170 0297      		sbiw r24,2
 3916 1172 01F4      		brne .L304
 3917 1174 00C0      		rjmp .L321
 3918               	.L312:
 3919               	.LM565:
 3920 1176 8091 0000 		lds r24,x_coordinate
 3921 117a 9091 0000 		lds r25,(x_coordinate)+1
 3922 117e 820F      		add r24,r18
 3923 1180 931F      		adc r25,r19
 3924 1182 00C0      		rjmp .L317
 3925               	.L311:
 3926               	.LM566:
 3927 1184 8091 0000 		lds r24,x_coordinate
 3928 1188 9091 0000 		lds r25,(x_coordinate)+1
 3929 118c 821B      		sub r24,r18
 3930 118e 930B      		sbc r25,r19
 3931               	.L317:
 3932 1190 9093 0000 		sts (x_coordinate)+1,r25
 3933 1194 8093 0000 		sts x_coordinate,r24
 3934 1198 00C0      		rjmp .L304
 3935               	.L321:
 3936               	.LM567:
 3937 119a 8091 0000 		lds r24,y_coordinate
 3938 119e 9091 0000 		lds r25,(y_coordinate)+1
 3939 11a2 820F      		add r24,r18
 3940 11a4 931F      		adc r25,r19
 3941 11a6 00C0      		rjmp .L316
 3942               	.L320:
 3943               	.LM568:
 3944 11a8 8091 0000 		lds r24,y_coordinate
 3945 11ac 9091 0000 		lds r25,(y_coordinate)+1
 3946 11b0 821B      		sub r24,r18
 3947 11b2 930B      		sbc r25,r19
 3948               	.L316:
 3949 11b4 9093 0000 		sts (y_coordinate)+1,r25
 3950 11b8 8093 0000 		sts y_coordinate,r24
 3951               	.L304:
 3952               	.LM569:
 3953 11bc 81E0      		ldi r24,lo8(1)
 3954 11be 60E0      		ldi r22,lo8(0)
 3955 11c0 0E94 0000 		call lcd_byte
 3956               	.LVL128:
 3957               	.LM570:
 3958 11c4 4091 0000 		lds r20,x_coordinate
 3959 11c8 5091 0000 		lds r21,(x_coordinate)+1
 3960 11cc 84E0      		ldi r24,lo8(4)
 3961 11ce 90E0      		ldi r25,hi8(4)
 3962 11d0 60E0      		ldi r22,lo8(0)
 3963 11d2 70E0      		ldi r23,hi8(0)
 3964 11d4 22E0      		ldi r18,lo8(2)
 3965 11d6 30E0      		ldi r19,hi8(2)
 3966 11d8 0E94 0000 		call lcd_write_int_xy
 3967               	.LM571:
 3968 11dc 4091 0000 		lds r20,y_coordinate
 3969 11e0 5091 0000 		lds r21,(y_coordinate)+1
 3970 11e4 88E0      		ldi r24,lo8(8)
 3971 11e6 90E0      		ldi r25,hi8(8)
 3972 11e8 60E0      		ldi r22,lo8(0)
 3973 11ea 70E0      		ldi r23,hi8(0)
 3974 11ec 22E0      		ldi r18,lo8(2)
 3975 11ee 30E0      		ldi r19,hi8(2)
 3976 11f0 0E94 0000 		call lcd_write_int_xy
 3977               	.LM572:
 3978 11f4 1092 0000 		sts (Coordinates_changed_by)+1,__zero_reg__
 3979 11f8 1092 0000 		sts Coordinates_changed_by,__zero_reg__
 3980               	/* epilogue start */
 3981               	.LM573:
 3982 11fc 0895      		ret
 3983               	.LFE65:
 3985               	.global	left_junc_check
 3987               	left_junc_check:
 3988               	.LFB64:
 3989               	.LM574:
 3990 11fe CF93      		push r28
 3991 1200 DF93      		push r29
 3992               	/* prologue: function */
 3993               	/* frame size = 0 */
 3994               	.LM575:
 3995 1202 CD99      		sbic 57-32,5
 3996 1204 00C0      		rjmp .L323
 3997               	.LM576:
 3998 1206 C1E0      		ldi r28,lo8(1)
 3999 1208 D0E0      		ldi r29,hi8(1)
 4000 120a D093 0000 		sts (flag1)+1,r29
 4001 120e C093 0000 		sts flag1,r28
 4002               	.LM577:
 4003 1212 8091 0000 		lds r24,irc
 4004 1216 9091 0000 		lds r25,(irc)+1
 4005 121a 815D      		subi r24,lo8(2001)
 4006 121c 9740      		sbci r25,hi8(2001)
 4007 121e 04F0      		brlt .L324
 4008               	.LM578:
 4009 1220 81E0      		ldi r24,lo8(1)
 4010 1222 60E0      		ldi r22,lo8(0)
 4011 1224 0E94 0000 		call lcd_byte
 4012               	.LM579:
 4013 1228 82E0      		ldi r24,lo8(2)
 4014 122a 90E0      		ldi r25,hi8(2)
 4015 122c 9093 0000 		sts (Coordinates_changed_by)+1,r25
 4016 1230 8093 0000 		sts Coordinates_changed_by,r24
 4017 1234 00C0      		rjmp .L325
 4018               	.L324:
 4019               	.LM580:
 4020 1236 81E0      		ldi r24,lo8(1)
 4021 1238 60E0      		ldi r22,lo8(0)
 4022 123a 0E94 0000 		call lcd_byte
 4023               	.LM581:
 4024 123e D093 0000 		sts (Coordinates_changed_by)+1,r29
 4025 1242 C093 0000 		sts Coordinates_changed_by,r28
 4026               	.L325:
 4027               	.LM582:
 4028 1246 8091 0000 		lds r24,irc
 4029 124a 9091 0000 		lds r25,(irc)+1
 4030 124e 892B      		or r24,r25
 4031 1250 01F4      		brne .L323
 4032               	.LM583:
 4033 1252 1092 0000 		sts (Coordinates_changed_by)+1,__zero_reg__
 4034 1256 1092 0000 		sts Coordinates_changed_by,__zero_reg__
 4035               	.L323:
 4036               	.LM584:
 4037 125a CE9B      		sbis 57-32,6
 4038 125c 00C0      		rjmp .L326
 4039 125e 8699      		sbic 48-32,6
 4040 1260 00C0      		rjmp .L327
 4041               	.L326:
 4042 1262 CC9B      		sbis 57-32,4
 4043 1264 00C0      		rjmp .L328
 4044 1266 8091 0000 		lds r24,special_flag
 4045 126a 9091 0000 		lds r25,(special_flag)+1
 4046 126e 0197      		sbiw r24,1
 4047 1270 01F4      		brne .L327
 4048               	.L328:
 4049               	.LBB597:
 4050               	.LBB598:
 4051               	.LM585:
 4052 1272 AC9A      		sbi 53-32,4
 4053               	.LM586:
 4054 1274 AD9A      		sbi 53-32,5
 4055               	.LM587:
 4056 1276 AE9A      		sbi 53-32,6
 4057               	.LM588:
 4058 1278 AF9A      		sbi 53-32,7
 4059               	.LBE598:
 4060               	.LBE597:
 4061               	.LM589:
 4062 127a 0E94 0000 		call update_coordinates
 4063               	.LM590:
 4064 127e 81E0      		ldi r24,lo8(1)
 4065 1280 90E0      		ldi r25,hi8(1)
 4066 1282 60E0      		ldi r22,lo8(0)
 4067 1284 70E0      		ldi r23,hi8(0)
 4068 1286 41E0      		ldi r20,lo8(1)
 4069 1288 50E0      		ldi r21,hi8(1)
 4070 128a 21E0      		ldi r18,lo8(1)
 4071 128c 30E0      		ldi r19,hi8(1)
 4072 128e 0E94 0000 		call update_array
 4073               	.LM591:
 4074 1292 1092 0000 		sts (irc)+1,__zero_reg__
 4075 1296 1092 0000 		sts irc,__zero_reg__
 4076 129a 00C0      		rjmp .L332
 4077               	.L327:
 4078               	.LM592:
 4079 129c CC9B      		sbis 57-32,4
 4080 129e 00C0      		rjmp .L330
 4081 12a0 8091 0000 		lds r24,special_flag
 4082 12a4 9091 0000 		lds r25,(special_flag)+1
 4083 12a8 0197      		sbiw r24,1
 4084 12aa 01F4      		brne .L329
 4085               	.L330:
 4086 12ac CE9B      		sbis 57-32,6
 4087 12ae 00C0      		rjmp .L329
 4088 12b0 869B      		sbis 48-32,6
 4089 12b2 00C0      		rjmp .L329
 4090               	.LM593:
 4091 12b4 0E94 0000 		call update_coordinates
 4092               	.LM594:
 4093 12b8 1092 0000 		sts (irc)+1,__zero_reg__
 4094 12bc 1092 0000 		sts irc,__zero_reg__
 4095               	.LM595:
 4096 12c0 0E94 0000 		call turn_left
 4097               	.LM596:
 4098 12c4 80E0      		ldi r24,lo8(0)
 4099 12c6 90E0      		ldi r25,hi8(0)
 4100 12c8 60E0      		ldi r22,lo8(0)
 4101 12ca 70E0      		ldi r23,hi8(0)
 4102 12cc 41E0      		ldi r20,lo8(1)
 4103 12ce 50E0      		ldi r21,hi8(1)
 4104 12d0 21E0      		ldi r18,lo8(1)
 4105 12d2 30E0      		ldi r19,hi8(1)
 4106 12d4 0E94 0000 		call update_array
 4107               	.LBB599:
 4108               	.LBB600:
 4109               	.LM597:
 4110 12d8 AC9A      		sbi 53-32,4
 4111               	.LM598:
 4112 12da AD9A      		sbi 53-32,5
 4113               	.LM599:
 4114 12dc AE9A      		sbi 53-32,6
 4115               	.LM600:
 4116 12de AF9A      		sbi 53-32,7
 4117               	.LBE600:
 4118               	.LBE599:
 4119               	.LM601:
 4120 12e0 0E94 0000 		call sense_of_directon
 4121               	.LM602:
 4122 12e4 1092 0000 		sts (flag1)+1,__zero_reg__
 4123 12e8 1092 0000 		sts flag1,__zero_reg__
 4124               	.L332:
 4125               	.LM603:
 4126 12ec 1092 0000 		sts (special_flag)+1,__zero_reg__
 4127 12f0 1092 0000 		sts special_flag,__zero_reg__
 4128               	.L329:
 4129               	.LM604:
 4130 12f4 0E94 0000 		call special_case_check
 4131               	/* epilogue start */
 4132               	.LM605:
 4133 12f8 DF91      		pop r29
 4134 12fa CF91      		pop r28
 4135 12fc 0895      		ret
 4136               	.LFE64:
 4138               		.data
 4139               	.LC0:
 4140 0000 4552 524F 		.string	"ERROR Fr Snsr"
 4140      5220 4672 
 4140      2053 6E73 
 4140      7200 
 4141               		.text
 4142               	.global	frSensorCheck
 4144               	frSensorCheck:
 4145               	.LFB62:
 4146               	.LM606:
 4147               	/* prologue: function */
 4148               	/* frame size = 0 */
 4149               	.LM607:
 4150 12fe CE9B      		sbis 57-32,6
 4151 1300 00C0      		rjmp .L334
 4152 1302 869B      		sbis 48-32,6
 4153 1304 00C0      		rjmp .L334
 4154               	.LM608:
 4155 1306 8091 0000 		lds r24,sensorbyte
 4156 130a 8330      		cpi r24,lo8(3)
 4157 130c 01F0      		breq .L335
 4158 130e 8C30      		cpi r24,lo8(12)
 4159 1310 01F0      		breq .L335
 4160 1312 8430      		cpi r24,lo8(4)
 4161 1314 01F0      		breq .L335
 4162 1316 8230      		cpi r24,lo8(2)
 4163 1318 01F0      		breq .L335
 4164 131a 8630      		cpi r24,lo8(6)
 4165 131c 01F4      		brne .L336
 4166               	.L335:
 4167               	.LM609:
 4168 131e 8091 0000 		lds r24,flag1
 4169 1322 9091 0000 		lds r25,(flag1)+1
 4170 1326 892B      		or r24,r25
 4171 1328 01F4      		brne .L334
 4172               	.LM610:
 4173 132a 8091 0000 		lds r24,irc
 4174 132e 9091 0000 		lds r25,(irc)+1
 4175 1332 2091 0000 		lds r18,Coordinates_changed_by
 4176 1336 3091 0000 		lds r19,(Coordinates_changed_by)+1
 4177 133a 815D      		subi r24,lo8(2001)
 4178 133c 9740      		sbci r25,hi8(2001)
 4179 133e 04F0      		brlt .L337
 4180               	.LM611:
 4181 1340 232B      		or r18,r19
 4182 1342 01F4      		brne .L334
 4183               	.LM612:
 4184 1344 82E0      		ldi r24,lo8(2)
 4185 1346 90E0      		ldi r25,hi8(2)
 4186 1348 00C0      		rjmp .L340
 4187               	.L337:
 4188               	.LM613:
 4189 134a 232B      		or r18,r19
 4190 134c 01F4      		brne .L334
 4191               	.LM614:
 4192 134e 81E0      		ldi r24,lo8(1)
 4193 1350 90E0      		ldi r25,hi8(1)
 4194               	.L340:
 4195 1352 9093 0000 		sts (Coordinates_changed_by)+1,r25
 4196 1356 8093 0000 		sts Coordinates_changed_by,r24
 4197 135a 00C0      		rjmp .L334
 4198               	.L336:
 4199               	.LM615:
 4200 135c 81E0      		ldi r24,lo8(1)
 4201 135e 60E0      		ldi r22,lo8(0)
 4202 1360 0E94 0000 		call lcd_byte
 4203               	.LM616:
 4204 1364 80E0      		ldi r24,lo8(.LC0)
 4205 1366 90E0      		ldi r25,hi8(.LC0)
 4206 1368 0E94 0000 		call lcd_write_string
 4207               	.L334:
 4208               	.LM617:
 4209 136c 8091 0000 		lds r24,sensorbyte
 4210 1370 8823      		tst r24
 4211 1372 01F4      		brne .L339
 4212 1374 CC9B      		sbis 57-32,4
 4213 1376 00C0      		rjmp .L339
 4214 1378 CD9B      		sbis 57-32,5
 4215 137a 00C0      		rjmp .L339
 4216 137c CE9B      		sbis 57-32,6
 4217 137e 00C0      		rjmp .L339
 4218 1380 CF9B      		sbis 57-32,7
 4219 1382 00C0      		rjmp .L339
 4220 1384 869B      		sbis 48-32,6
 4221 1386 00C0      		rjmp .L339
 4222 1388 879B      		sbis 48-32,7
 4223 138a 00C0      		rjmp .L339
 4224 138c 8091 0000 		lds r24,flag1
 4225 1390 9091 0000 		lds r25,(flag1)+1
 4226 1394 892B      		or r24,r25
 4227 1396 01F4      		brne .L339
 4228               	.LBB601:
 4229               	.LBB602:
 4230               	.LM618:
 4231 1398 AC9A      		sbi 53-32,4
 4232               	.LM619:
 4233 139a AD9A      		sbi 53-32,5
 4234               	.LM620:
 4235 139c AE9A      		sbi 53-32,6
 4236               	.LM621:
 4237 139e AF9A      		sbi 53-32,7
 4238               	.LBE602:
 4239               	.LBE601:
 4240               	.LM622:
 4241 13a0 0E94 0000 		call update_coordinates
 4242               	.LM623:
 4243 13a4 80E0      		ldi r24,lo8(0)
 4244 13a6 90E0      		ldi r25,hi8(0)
 4245 13a8 60E0      		ldi r22,lo8(0)
 4246 13aa 70E0      		ldi r23,hi8(0)
 4247 13ac 41E0      		ldi r20,lo8(1)
 4248 13ae 50E0      		ldi r21,hi8(1)
 4249 13b0 20E0      		ldi r18,lo8(0)
 4250 13b2 30E0      		ldi r19,hi8(0)
 4251 13b4 0E94 0000 		call update_array
 4252               	.LM624:
 4253 13b8 0E94 0000 		call Uturn
 4254               	.LM625:
 4255 13bc 0E94 0000 		call sense_of_directon
 4256               	.LM626:
 4257 13c0 1092 0000 		sts (flag1)+1,__zero_reg__
 4258 13c4 1092 0000 		sts flag1,__zero_reg__
 4259               	.LM627:
 4260 13c8 1092 0000 		sts (irc)+1,__zero_reg__
 4261 13cc 1092 0000 		sts irc,__zero_reg__
 4262               	.L339:
 4263 13d0 0895      		ret
 4264               	.LFE62:
 4266               		.data
 4267               	.LC1:
 4268 000e 4669 6C6C 		.string	"Filliable"
 4268      6961 626C 
 4268      6500 
 4269               		.text
 4270               	.global	fill_missed_array
 4272               	fill_missed_array:
 4273               	.LFB69:
 4274               	.LM628:
 4275 13d2 8F92      		push r8
 4276 13d4 9F92      		push r9
 4277 13d6 AF92      		push r10
 4278 13d8 BF92      		push r11
 4279 13da CF92      		push r12
 4280 13dc DF92      		push r13
 4281 13de EF92      		push r14
 4282 13e0 FF92      		push r15
 4283 13e2 0F93      		push r16
 4284 13e4 1F93      		push r17
 4285 13e6 CF93      		push r28
 4286 13e8 DF93      		push r29
 4287               	/* prologue: function */
 4288               	/* frame size = 0 */
 4289               	.LM629:
 4290 13ea E1E0      		ldi r30,lo8(1)
 4291 13ec EE2E      		mov r14,r30
 4292 13ee F12C      		mov r15,__zero_reg__
 4293               	.LVL129:
 4294 13f0 00C0      		rjmp .L342
 4295               	.LVL130:
 4296               	.L351:
 4297               	.LBB603:
 4298               	.LBB604:
 4299               	.LM630:
 4300 13f2 C701      		movw r24,r14
 4301 13f4 B601      		movw r22,r12
 4302 13f6 0E94 0000 		call is_coordinate_null
 4303 13fa 892B      		or r24,r25
 4304 13fc 01F4      		brne .+2
 4305 13fe 00C0      		rjmp .L343
 4306               	.LM631:
 4307 1400 81E0      		ldi r24,lo8(1)
 4308 1402 60E0      		ldi r22,lo8(0)
 4309 1404 0E94 0000 		call lcd_byte
 4310               	.LM632:
 4311 1408 C401      		movw r24,r8
 4312 140a B601      		movw r22,r12
 4313 140c 0E94 0000 		call is_coordinate_null
 4314 1410 892B      		or r24,r25
 4315 1412 01F0      		breq .+2
 4316 1414 00C0      		rjmp .L343
 4317 1416 C501      		movw r24,r10
 4318 1418 B601      		movw r22,r12
 4319 141a 0E94 0000 		call is_coordinate_null
 4320 141e 892B      		or r24,r25
 4321 1420 01F0      		breq .+2
 4322 1422 00C0      		rjmp .L343
 4323 1424 B601      		movw r22,r12
 4324 1426 6150      		subi r22,lo8(-(-1))
 4325 1428 7040      		sbci r23,hi8(-(-1))
 4326 142a C701      		movw r24,r14
 4327 142c 0E94 0000 		call is_coordinate_null
 4328 1430 892B      		or r24,r25
 4329 1432 01F0      		breq .+2
 4330 1434 00C0      		rjmp .L343
 4331 1436 B601      		movw r22,r12
 4332 1438 6F5F      		subi r22,lo8(-(1))
 4333 143a 7F4F      		sbci r23,hi8(-(1))
 4334 143c C701      		movw r24,r14
 4335 143e 0E94 0000 		call is_coordinate_null
 4336 1442 892B      		or r24,r25
 4337 1444 01F4      		brne .L343
 4338               	.LM633:
 4339 1446 81E0      		ldi r24,lo8(1)
 4340 1448 60E0      		ldi r22,lo8(0)
 4341 144a 0E94 0000 		call lcd_byte
 4342               	.LM634:
 4343 144e 80E0      		ldi r24,lo8(.LC1)
 4344 1450 90E0      		ldi r25,hi8(.LC1)
 4345 1452 0E94 0000 		call lcd_write_string
 4346               	.LM635:
 4347 1456 80ED      		ldi r24,lo8(2000)
 4348 1458 97E0      		ldi r25,hi8(2000)
 4349 145a 0E94 0000 		call delay_millisec
 4350               	.LM636:
 4351 145e CA5A      		subi r28,lo8(-(86))
 4352 1460 DF4F      		sbci r29,hi8(-(86))
 4353 1462 8881      		ld r24,Y
 4354 1464 9981      		ldd r25,Y+1
 4355 1466 C655      		subi r28,lo8(-(-86))
 4356 1468 D040      		sbci r29,hi8(-(-86))
 4357 146a 8130      		cpi r24,1
 4358 146c 9105      		cpc r25,__zero_reg__
 4359 146e 01F4      		brne .L344
 4360               	.LM637:
 4361 1470 9B83      		std Y+3,r25
 4362 1472 8A83      		std Y+2,r24
 4363 1474 00C0      		rjmp .L345
 4364               	.L344:
 4365               	.LM638:
 4366 1476 1B82      		std Y+3,__zero_reg__
 4367 1478 1A82      		std Y+2,__zero_reg__
 4368               	.L345:
 4369               	.LM639:
 4370 147a CE54      		subi r28,lo8(-(-78))
 4371 147c D040      		sbci r29,hi8(-(-78))
 4372 147e 8881      		ld r24,Y
 4373 1480 9981      		ldd r25,Y+1
 4374 1482 C25B      		subi r28,lo8(-(78))
 4375 1484 DF4F      		sbci r29,hi8(-(78))
 4376 1486 8130      		cpi r24,1
 4377 1488 9105      		cpc r25,__zero_reg__
 4378 148a 01F4      		brne .L346
 4379               	.LM640:
 4380 148c 9F83      		std Y+7,r25
 4381 148e 8E83      		std Y+6,r24
 4382 1490 00C0      		rjmp .L347
 4383               	.L346:
 4384               	.LM641:
 4385 1492 1F82      		std Y+7,__zero_reg__
 4386 1494 1E82      		std Y+6,__zero_reg__
 4387               	.L347:
 4388               	.LM642:
 4389 1496 8C85      		ldd r24,Y+12
 4390 1498 9D85      		ldd r25,Y+13
 4391 149a 8130      		cpi r24,1
 4392 149c 9105      		cpc r25,__zero_reg__
 4393 149e 01F4      		brne .L348
 4394               	.LM643:
 4395 14a0 9983      		std Y+1,r25
 4396 14a2 8883      		st Y,r24
 4397 14a4 00C0      		rjmp .L349
 4398               	.L348:
 4399               	.LM644:
 4400 14a6 1982      		std Y+1,__zero_reg__
 4401 14a8 1882      		st Y,__zero_reg__
 4402               	.L349:
 4403               	.LM645:
 4404 14aa F801      		movw r30,r16
 4405 14ac 8081      		ld r24,Z
 4406 14ae 9181      		ldd r25,Z+1
 4407 14b0 8130      		cpi r24,1
 4408 14b2 9105      		cpc r25,__zero_reg__
 4409 14b4 01F4      		brne .L350
 4410               	.LM646:
 4411 14b6 9D83      		std Y+5,r25
 4412 14b8 8C83      		std Y+4,r24
 4413 14ba 00C0      		rjmp .L343
 4414               	.L350:
 4415               	.LM647:
 4416 14bc 1D82      		std Y+5,__zero_reg__
 4417 14be 1C82      		std Y+4,__zero_reg__
 4418               	.L343:
 4419               	.LM648:
 4420 14c0 0894      		sec
 4421 14c2 C11C      		adc r12,__zero_reg__
 4422 14c4 D11C      		adc r13,__zero_reg__
 4423 14c6 065F      		subi r16,lo8(-(10))
 4424 14c8 1F4F      		sbci r17,hi8(-(10))
 4425 14ca 2896      		adiw r28,8
 4426 14cc F9E0      		ldi r31,lo8(9)
 4427 14ce CF16      		cp r12,r31
 4428 14d0 D104      		cpc r13,__zero_reg__
 4429 14d2 01F0      		breq .+2
 4430 14d4 00C0      		rjmp .L351
 4431               	.LBE604:
 4432               	.LM649:
 4433 14d6 0894      		sec
 4434 14d8 E11C      		adc r14,__zero_reg__
 4435 14da F11C      		adc r15,__zero_reg__
 4436 14dc 89E0      		ldi r24,lo8(9)
 4437 14de E816      		cp r14,r24
 4438 14e0 F104      		cpc r15,__zero_reg__
 4439 14e2 01F0      		breq .L353
 4440               	.L342:
 4441 14e4 8701      		movw r16,r14
 4442 14e6 000F      		lsl r16
 4443 14e8 111F      		rol r17
 4444 14ea C701      		movw r24,r14
 4445 14ec 63E0      		ldi r22,3
 4446 14ee 880F      	1:	lsl r24
 4447 14f0 991F      		rol r25
 4448 14f2 6A95      		dec r22
 4449 14f4 01F4      		brne 1b
 4450 14f6 080F      		add r16,r24
 4451 14f8 191F      		adc r17,r25
 4452 14fa 53E0      		ldi r21,3
 4453 14fc 000F      	1:	lsl r16
 4454 14fe 111F      		rol r17
 4455 1500 5A95      		dec r21
 4456 1502 01F4      		brne 1b
 4457 1504 0050      		subi r16,lo8(-(dir_array+8))
 4458 1506 1040      		sbci r17,hi8(-(dir_array+8))
 4459 1508 E801      		movw r28,r16
 4460 150a 41E0      		ldi r20,lo8(1)
 4461 150c C42E      		mov r12,r20
 4462 150e D12C      		mov r13,__zero_reg__
 4463               	.LBB605:
 4464               	.LM650:
 4465 1510 4701      		movw r8,r14
 4466 1512 0894      		sec
 4467 1514 811C      		adc r8,__zero_reg__
 4468 1516 911C      		adc r9,__zero_reg__
 4469 1518 5701      		movw r10,r14
 4470 151a 0894      		sec
 4471 151c A108      		sbc r10,__zero_reg__
 4472 151e B108      		sbc r11,__zero_reg__
 4473 1520 00C0      		rjmp .L351
 4474               	.L353:
 4475               	/* epilogue start */
 4476               	.LBE605:
 4477               	.LBE603:
 4478               	.LM651:
 4479 1522 DF91      		pop r29
 4480 1524 CF91      		pop r28
 4481 1526 1F91      		pop r17
 4482 1528 0F91      		pop r16
 4483 152a FF90      		pop r15
 4484 152c EF90      		pop r14
 4485               	.LVL131:
 4486 152e DF90      		pop r13
 4487 1530 CF90      		pop r12
 4488               	.LVL132:
 4489 1532 BF90      		pop r11
 4490 1534 AF90      		pop r10
 4491 1536 9F90      		pop r9
 4492 1538 8F90      		pop r8
 4493 153a 0895      		ret
 4494               	.LFE69:
 4496               	.global	coordinates_tobe_reached
 4498               	coordinates_tobe_reached:
 4499               	.LFB70:
 4500               	.LM652:
 4501 153c 2F92      		push r2
 4502 153e 3F92      		push r3
 4503 1540 4F92      		push r4
 4504 1542 5F92      		push r5
 4505 1544 6F92      		push r6
 4506 1546 7F92      		push r7
 4507 1548 8F92      		push r8
 4508 154a 9F92      		push r9
 4509 154c AF92      		push r10
 4510 154e BF92      		push r11
 4511 1550 CF92      		push r12
 4512 1552 DF92      		push r13
 4513 1554 EF92      		push r14
 4514 1556 FF92      		push r15
 4515 1558 0F93      		push r16
 4516 155a 1F93      		push r17
 4517 155c DF93      		push r29
 4518 155e CF93      		push r28
 4519 1560 CDB7      		in r28,__SP_L__
 4520 1562 DEB7      		in r29,__SP_H__
 4521 1564 6897      		sbiw r28,24
 4522 1566 0FB6      		in __tmp_reg__,__SREG__
 4523 1568 F894      		cli
 4524 156a DEBF      		out __SP_H__,r29
 4525 156c 0FBE      		out __SREG__,__tmp_reg__
 4526 156e CDBF      		out __SP_L__,r28
 4527               	/* prologue: function */
 4528               	/* frame size = 24 */
 4529               	.LM653:
 4530 1570 1092 0000 		sts (mx)+1,__zero_reg__
 4531 1574 1092 0000 		sts mx,__zero_reg__
 4532               	.LM654:
 4533 1578 1092 0000 		sts (my)+1,__zero_reg__
 4534 157c 1092 0000 		sts my,__zero_reg__
 4535               	.LBB606:
 4536               	.LBB607:
 4537               	.LM655:
 4538 1580 8090 0000 		lds r8,x_coordinate
 4539 1584 9090 0000 		lds r9,(x_coordinate)+1
 4540 1588 A090 0000 		lds r10,y_coordinate
 4541 158c B090 0000 		lds r11,(y_coordinate)+1
 4542 1590 CC24      		clr r12
 4543 1592 DD24      		clr r13
 4544 1594 C818      		sub r12,r8
 4545 1596 D908      		sbc r13,r9
 4546 1598 DE82      		std Y+6,r13
 4547 159a CD82      		std Y+5,r12
 4548 159c DC82      		std Y+4,r13
 4549 159e CB82      		std Y+3,r12
 4550 15a0 DA82      		std Y+2,r13
 4551 15a2 C982      		std Y+1,r12
 4552 15a4 00E0      		ldi r16,lo8(0)
 4553 15a6 10E0      		ldi r17,hi8(0)
 4554               	.LVL133:
 4555               	.LM656:
 4556 15a8 2227      		clr r18
 4557 15aa 3327      		clr r19
 4558 15ac 2A19      		sub r18,r10
 4559 15ae 3B09      		sbc r19,r11
 4560 15b0 3E8B      		std Y+22,r19
 4561 15b2 2D8B      		std Y+21,r18
 4562 15b4 00C0      		rjmp .L356
 4563               	.LVL134:
 4564               	.L365:
 4565               	.LM657:
 4566 15b6 C801      		movw r24,r16
 4567 15b8 6F89      		ldd r22,Y+23
 4568 15ba 788D      		ldd r23,Y+24
 4569 15bc 0E94 0000 		call is_coordinate_null
 4570 15c0 892B      		or r24,r25
 4571 15c2 01F0      		breq .+2
 4572 15c4 00C0      		rjmp .L357
 4573               	.LM658:
 4574 15c6 F701      		movw r30,r14
 4575 15c8 8081      		ld r24,Z
 4576 15ca 9181      		ldd r25,Z+1
 4577 15cc 0197      		sbiw r24,1
 4578 15ce 01F0      		breq .+2
 4579 15d0 00C0      		rjmp .L358
 4580               	.LM659:
 4581 15d2 6F89      		ldd r22,Y+23
 4582 15d4 788D      		ldd r23,Y+24
 4583 15d6 6F5F      		subi r22,lo8(-(1))
 4584 15d8 7F4F      		sbci r23,hi8(-(1))
 4585 15da C801      		movw r24,r16
 4586 15dc 0E94 0000 		call is_coordinate_null
 4587 15e0 892B      		or r24,r25
 4588 15e2 01F4      		brne .+2
 4589 15e4 00C0      		rjmp .L358
 4590               	.LM660:
 4591 15e6 6091 0000 		lds r22,mx
 4592 15ea 7091 0000 		lds r23,(mx)+1
 4593 15ee 6115      		cp r22,__zero_reg__
 4594 15f0 7105      		cpc r23,__zero_reg__
 4595 15f2 01F4      		brne .L359
 4596 15f4 8091 0000 		lds r24,my
 4597 15f8 9091 0000 		lds r25,(my)+1
 4598 15fc 892B      		or r24,r25
 4599 15fe 01F0      		breq .L369
 4600               	.L359:
 4601               	.LM661:
 4602 1600 6819      		sub r22,r8
 4603 1602 7909      		sbc r23,r9
 4604 1604 8091 0000 		lds r24,my
 4605 1608 9091 0000 		lds r25,(my)+1
 4606 160c 8A19      		sub r24,r10
 4607 160e 9B09      		sbc r25,r11
 4608               	.LM662:
 4609 1610 ED85      		ldd r30,Y+13
 4610 1612 FE85      		ldd r31,Y+14
 4611 1614 EE9F      		mul r30,r30
 4612 1616 A001      		movw r20,r0
 4613 1618 EF9F      		mul r30,r31
 4614 161a 500D      		add r21,r0
 4615 161c FE9F      		mul r31,r30
 4616 161e 500D      		add r21,r0
 4617 1620 1124      		clr r1
 4618 1622 2F85      		ldd r18,Y+15
 4619 1624 3889      		ldd r19,Y+16
 4620 1626 420F      		add r20,r18
 4621 1628 531F      		adc r21,r19
 4622 162a FC01      		movw r30,r24
 4623 162c EE9F      		mul r30,r30
 4624 162e C001      		movw r24,r0
 4625 1630 EF9F      		mul r30,r31
 4626 1632 900D      		add r25,r0
 4627 1634 FE9F      		mul r31,r30
 4628 1636 900D      		add r25,r0
 4629 1638 1124      		clr r1
 4630 163a 669F      		mul r22,r22
 4631 163c 9001      		movw r18,r0
 4632 163e 679F      		mul r22,r23
 4633 1640 300D      		add r19,r0
 4634 1642 769F      		mul r23,r22
 4635 1644 300D      		add r19,r0
 4636 1646 1124      		clr r1
 4637 1648 820F      		add r24,r18
 4638 164a 931F      		adc r25,r19
 4639 164c 4817      		cp r20,r24
 4640 164e 5907      		cpc r21,r25
 4641 1650 04F4      		brge .L358
 4642               	.L369:
 4643               	.LM663:
 4644 1652 1093 0000 		sts (mx)+1,r17
 4645 1656 0093 0000 		sts mx,r16
 4646               	.LM664:
 4647 165a 2F89      		ldd r18,Y+23
 4648 165c 388D      		ldd r19,Y+24
 4649 165e 3093 0000 		sts (my)+1,r19
 4650 1662 2093 0000 		sts my,r18
 4651               	.L358:
 4652               	.LM665:
 4653 1666 F701      		movw r30,r14
 4654 1668 8281      		ldd r24,Z+2
 4655 166a 9381      		ldd r25,Z+3
 4656 166c 0197      		sbiw r24,1
 4657 166e 01F0      		breq .+2
 4658 1670 00C0      		rjmp .L360
 4659               	.LM666:
 4660 1672 8B89      		ldd r24,Y+19
 4661 1674 9C89      		ldd r25,Y+20
 4662 1676 6F89      		ldd r22,Y+23
 4663 1678 788D      		ldd r23,Y+24
 4664 167a 0E94 0000 		call is_coordinate_null
 4665 167e 892B      		or r24,r25
 4666 1680 01F4      		brne .+2
 4667 1682 00C0      		rjmp .L360
 4668               	.LM667:
 4669 1684 6091 0000 		lds r22,mx
 4670 1688 7091 0000 		lds r23,(mx)+1
 4671 168c 6115      		cp r22,__zero_reg__
 4672 168e 7105      		cpc r23,__zero_reg__
 4673 1690 01F4      		brne .L361
 4674 1692 8091 0000 		lds r24,my
 4675 1696 9091 0000 		lds r25,(my)+1
 4676 169a 892B      		or r24,r25
 4677 169c 01F4      		brne .L361
 4678               	.LM668:
 4679 169e 1093 0000 		sts (mx)+1,r17
 4680 16a2 0093 0000 		sts mx,r16
 4681               	.LM669:
 4682 16a6 2F89      		ldd r18,Y+23
 4683 16a8 388D      		ldd r19,Y+24
 4684 16aa 3093 0000 		sts (my)+1,r19
 4685 16ae 2093 0000 		sts my,r18
 4686 16b2 00C0      		rjmp .L360
 4687               	.L361:
 4688               	.LM670:
 4689 16b4 6819      		sub r22,r8
 4690 16b6 7909      		sbc r23,r9
 4691 16b8 8091 0000 		lds r24,my
 4692 16bc 9091 0000 		lds r25,(my)+1
 4693 16c0 8A19      		sub r24,r10
 4694 16c2 9B09      		sbc r25,r11
 4695               	.LM671:
 4696 16c4 669C      		mul r6,r6
 4697 16c6 A001      		movw r20,r0
 4698 16c8 679C      		mul r6,r7
 4699 16ca 500D      		add r21,r0
 4700 16cc 769C      		mul r7,r6
 4701 16ce 500D      		add r21,r0
 4702 16d0 1124      		clr r1
 4703 16d2 EB85      		ldd r30,Y+11
 4704 16d4 FC85      		ldd r31,Y+12
 4705 16d6 4E0F      		add r20,r30
 4706 16d8 5F1F      		adc r21,r31
 4707 16da 9C01      		movw r18,r24
 4708 16dc 229F      		mul r18,r18
 4709 16de C001      		movw r24,r0
 4710 16e0 239F      		mul r18,r19
 4711 16e2 900D      		add r25,r0
 4712 16e4 329F      		mul r19,r18
 4713 16e6 900D      		add r25,r0
 4714 16e8 1124      		clr r1
 4715 16ea 669F      		mul r22,r22
 4716 16ec 9001      		movw r18,r0
 4717 16ee 679F      		mul r22,r23
 4718 16f0 300D      		add r19,r0
 4719 16f2 769F      		mul r23,r22
 4720 16f4 300D      		add r19,r0
 4721 16f6 1124      		clr r1
 4722 16f8 820F      		add r24,r18
 4723 16fa 931F      		adc r25,r19
 4724 16fc 4817      		cp r20,r24
 4725 16fe 5907      		cpc r21,r25
 4726 1700 04F4      		brge .L360
 4727               	.LM672:
 4728 1702 1093 0000 		sts (mx)+1,r17
 4729 1706 0093 0000 		sts mx,r16
 4730               	.LM673:
 4731 170a 8F89      		ldd r24,Y+23
 4732 170c 988D      		ldd r25,Y+24
 4733 170e 9093 0000 		sts (my)+1,r25
 4734 1712 8093 0000 		sts my,r24
 4735               	.L360:
 4736               	.LM674:
 4737 1716 F701      		movw r30,r14
 4738 1718 8481      		ldd r24,Z+4
 4739 171a 9581      		ldd r25,Z+5
 4740 171c 0197      		sbiw r24,1
 4741 171e 01F0      		breq .+2
 4742 1720 00C0      		rjmp .L362
 4743               	.LM675:
 4744 1722 6F89      		ldd r22,Y+23
 4745 1724 788D      		ldd r23,Y+24
 4746 1726 6150      		subi r22,lo8(-(-1))
 4747 1728 7040      		sbci r23,hi8(-(-1))
 4748 172a C801      		movw r24,r16
 4749 172c 0E94 0000 		call is_coordinate_null
 4750 1730 892B      		or r24,r25
 4751 1732 01F4      		brne .+2
 4752 1734 00C0      		rjmp .L362
 4753               	.LM676:
 4754 1736 6091 0000 		lds r22,mx
 4755 173a 7091 0000 		lds r23,(mx)+1
 4756 173e 6115      		cp r22,__zero_reg__
 4757 1740 7105      		cpc r23,__zero_reg__
 4758 1742 01F4      		brne .L363
 4759 1744 8091 0000 		lds r24,my
 4760 1748 9091 0000 		lds r25,(my)+1
 4761 174c 892B      		or r24,r25
 4762 174e 01F4      		brne .L363
 4763               	.LM677:
 4764 1750 1093 0000 		sts (mx)+1,r17
 4765 1754 0093 0000 		sts mx,r16
 4766               	.LM678:
 4767 1758 2F89      		ldd r18,Y+23
 4768 175a 388D      		ldd r19,Y+24
 4769 175c 3093 0000 		sts (my)+1,r19
 4770 1760 2093 0000 		sts my,r18
 4771 1764 00C0      		rjmp .L362
 4772               	.L363:
 4773               	.LM679:
 4774 1766 6819      		sub r22,r8
 4775 1768 7909      		sbc r23,r9
 4776 176a 8091 0000 		lds r24,my
 4777 176e 9091 0000 		lds r25,(my)+1
 4778 1772 8A19      		sub r24,r10
 4779 1774 9B09      		sbc r25,r11
 4780               	.LM680:
 4781 1776 449C      		mul r4,r4
 4782 1778 A001      		movw r20,r0
 4783 177a 459C      		mul r4,r5
 4784 177c 500D      		add r21,r0
 4785 177e 549C      		mul r5,r4
 4786 1780 500D      		add r21,r0
 4787 1782 1124      		clr r1
 4788 1784 E985      		ldd r30,Y+9
 4789 1786 FA85      		ldd r31,Y+10
 4790 1788 4E0F      		add r20,r30
 4791 178a 5F1F      		adc r21,r31
 4792 178c 9C01      		movw r18,r24
 4793 178e 229F      		mul r18,r18
 4794 1790 C001      		movw r24,r0
 4795 1792 239F      		mul r18,r19
 4796 1794 900D      		add r25,r0
 4797 1796 329F      		mul r19,r18
 4798 1798 900D      		add r25,r0
 4799 179a 1124      		clr r1
 4800 179c 669F      		mul r22,r22
 4801 179e 9001      		movw r18,r0
 4802 17a0 679F      		mul r22,r23
 4803 17a2 300D      		add r19,r0
 4804 17a4 769F      		mul r23,r22
 4805 17a6 300D      		add r19,r0
 4806 17a8 1124      		clr r1
 4807 17aa 820F      		add r24,r18
 4808 17ac 931F      		adc r25,r19
 4809 17ae 4817      		cp r20,r24
 4810 17b0 5907      		cpc r21,r25
 4811 17b2 04F4      		brge .L362
 4812               	.LM681:
 4813 17b4 1093 0000 		sts (mx)+1,r17
 4814 17b8 0093 0000 		sts mx,r16
 4815               	.LM682:
 4816 17bc 8F89      		ldd r24,Y+23
 4817 17be 988D      		ldd r25,Y+24
 4818 17c0 9093 0000 		sts (my)+1,r25
 4819 17c4 8093 0000 		sts my,r24
 4820               	.L362:
 4821               	.LM683:
 4822 17c8 F701      		movw r30,r14
 4823 17ca 8681      		ldd r24,Z+6
 4824 17cc 9781      		ldd r25,Z+7
 4825 17ce 0197      		sbiw r24,1
 4826 17d0 01F0      		breq .+2
 4827 17d2 00C0      		rjmp .L357
 4828               	.LM684:
 4829 17d4 8989      		ldd r24,Y+17
 4830 17d6 9A89      		ldd r25,Y+18
 4831 17d8 6F89      		ldd r22,Y+23
 4832 17da 788D      		ldd r23,Y+24
 4833 17dc 0E94 0000 		call is_coordinate_null
 4834 17e0 892B      		or r24,r25
 4835 17e2 01F4      		brne .+2
 4836 17e4 00C0      		rjmp .L357
 4837               	.LM685:
 4838 17e6 6091 0000 		lds r22,mx
 4839 17ea 7091 0000 		lds r23,(mx)+1
 4840 17ee 6115      		cp r22,__zero_reg__
 4841 17f0 7105      		cpc r23,__zero_reg__
 4842 17f2 01F4      		brne .L364
 4843 17f4 8091 0000 		lds r24,my
 4844 17f8 9091 0000 		lds r25,(my)+1
 4845 17fc 892B      		or r24,r25
 4846 17fe 01F4      		brne .L364
 4847               	.LM686:
 4848 1800 1093 0000 		sts (mx)+1,r17
 4849 1804 0093 0000 		sts mx,r16
 4850               	.LM687:
 4851 1808 2F89      		ldd r18,Y+23
 4852 180a 388D      		ldd r19,Y+24
 4853 180c 3093 0000 		sts (my)+1,r19
 4854 1810 2093 0000 		sts my,r18
 4855 1814 00C0      		rjmp .L357
 4856               	.L364:
 4857               	.LM688:
 4858 1816 6819      		sub r22,r8
 4859 1818 7909      		sbc r23,r9
 4860 181a 8091 0000 		lds r24,my
 4861 181e 9091 0000 		lds r25,(my)+1
 4862 1822 8A19      		sub r24,r10
 4863 1824 9B09      		sbc r25,r11
 4864               	.LM689:
 4865 1826 229C      		mul r2,r2
 4866 1828 A001      		movw r20,r0
 4867 182a 239C      		mul r2,r3
 4868 182c 500D      		add r21,r0
 4869 182e 329C      		mul r3,r2
 4870 1830 500D      		add r21,r0
 4871 1832 1124      		clr r1
 4872 1834 EF81      		ldd r30,Y+7
 4873 1836 F885      		ldd r31,Y+8
 4874 1838 4E0F      		add r20,r30
 4875 183a 5F1F      		adc r21,r31
 4876 183c 9C01      		movw r18,r24
 4877 183e 229F      		mul r18,r18
 4878 1840 C001      		movw r24,r0
 4879 1842 239F      		mul r18,r19
 4880 1844 900D      		add r25,r0
 4881 1846 329F      		mul r19,r18
 4882 1848 900D      		add r25,r0
 4883 184a 1124      		clr r1
 4884 184c 669F      		mul r22,r22
 4885 184e 9001      		movw r18,r0
 4886 1850 679F      		mul r22,r23
 4887 1852 300D      		add r19,r0
 4888 1854 769F      		mul r23,r22
 4889 1856 300D      		add r19,r0
 4890 1858 1124      		clr r1
 4891 185a 820F      		add r24,r18
 4892 185c 931F      		adc r25,r19
 4893 185e 4817      		cp r20,r24
 4894 1860 5907      		cpc r21,r25
 4895 1862 04F4      		brge .L357
 4896               	.LM690:
 4897 1864 1093 0000 		sts (mx)+1,r17
 4898 1868 0093 0000 		sts mx,r16
 4899               	.LM691:
 4900 186c 8F89      		ldd r24,Y+23
 4901 186e 988D      		ldd r25,Y+24
 4902 1870 9093 0000 		sts (my)+1,r25
 4903 1874 8093 0000 		sts my,r24
 4904               	.L357:
 4905               	.LM692:
 4906 1878 EF89      		ldd r30,Y+23
 4907 187a F88D      		ldd r31,Y+24
 4908 187c 3196      		adiw r30,1
 4909 187e F88F      		std Y+24,r31
 4910 1880 EF8B      		std Y+23,r30
 4911               	.LVL135:
 4912 1882 28E0      		ldi r18,lo8(8)
 4913 1884 30E0      		ldi r19,hi8(8)
 4914 1886 E20E      		add r14,r18
 4915 1888 F31E      		adc r15,r19
 4916 188a 0894      		sec
 4917 188c 211C      		adc r2,__zero_reg__
 4918 188e 311C      		adc r3,__zero_reg__
 4919 1890 0894      		sec
 4920 1892 411C      		adc r4,__zero_reg__
 4921 1894 511C      		adc r5,__zero_reg__
 4922 1896 0894      		sec
 4923 1898 611C      		adc r6,__zero_reg__
 4924 189a 711C      		adc r7,__zero_reg__
 4925 189c 8D85      		ldd r24,Y+13
 4926 189e 9E85      		ldd r25,Y+14
 4927 18a0 0196      		adiw r24,1
 4928 18a2 9E87      		std Y+14,r25
 4929 18a4 8D87      		std Y+13,r24
 4930 18a6 3A97      		sbiw r30,10
 4931 18a8 01F0      		breq .+2
 4932 18aa 00C0      		rjmp .L365
 4933               	.LBE607:
 4934               	.LM693:
 4935 18ac 0F5F      		subi r16,lo8(-(1))
 4936 18ae 1F4F      		sbci r17,hi8(-(1))
 4937 18b0 0894      		sec
 4938 18b2 C11C      		adc r12,__zero_reg__
 4939 18b4 D11C      		adc r13,__zero_reg__
 4940 18b6 ED81      		ldd r30,Y+5
 4941 18b8 FE81      		ldd r31,Y+6
 4942 18ba 3196      		adiw r30,1
 4943 18bc FE83      		std Y+6,r31
 4944 18be ED83      		std Y+5,r30
 4945 18c0 2B81      		ldd r18,Y+3
 4946 18c2 3C81      		ldd r19,Y+4
 4947 18c4 2F5F      		subi r18,lo8(-(1))
 4948 18c6 3F4F      		sbci r19,hi8(-(1))
 4949 18c8 3C83      		std Y+4,r19
 4950 18ca 2B83      		std Y+3,r18
 4951 18cc 8981      		ldd r24,Y+1
 4952 18ce 9A81      		ldd r25,Y+2
 4953 18d0 0196      		adiw r24,1
 4954 18d2 9A83      		std Y+2,r25
 4955 18d4 8983      		std Y+1,r24
 4956 18d6 0A30      		cpi r16,10
 4957 18d8 1105      		cpc r17,__zero_reg__
 4958 18da 01F4      		brne .+2
 4959 18dc 00C0      		rjmp .L367
 4960               	.L356:
 4961               	.LBB608:
 4962               	.LM694:
 4963 18de CC9C      		mul r12,r12
 4964 18e0 F001      		movw r30,r0
 4965 18e2 CD9C      		mul r12,r13
 4966 18e4 F00D      		add r31,r0
 4967 18e6 DC9C      		mul r13,r12
 4968 18e8 F00D      		add r31,r0
 4969 18ea 1124      		clr r1
 4970 18ec F88B      		std Y+16,r31
 4971 18ee EF87      		std Y+15,r30
 4972               	.LM695:
 4973 18f0 8D81      		ldd r24,Y+5
 4974 18f2 9E81      		ldd r25,Y+6
 4975 18f4 889F      		mul r24,r24
 4976 18f6 9001      		movw r18,r0
 4977 18f8 899F      		mul r24,r25
 4978 18fa 300D      		add r19,r0
 4979 18fc 989F      		mul r25,r24
 4980 18fe 300D      		add r19,r0
 4981 1900 1124      		clr r1
 4982 1902 3C87      		std Y+12,r19
 4983 1904 2B87      		std Y+11,r18
 4984               	.LM696:
 4985 1906 2B81      		ldd r18,Y+3
 4986 1908 3C81      		ldd r19,Y+4
 4987 190a 229F      		mul r18,r18
 4988 190c F001      		movw r30,r0
 4989 190e 239F      		mul r18,r19
 4990 1910 F00D      		add r31,r0
 4991 1912 329F      		mul r19,r18
 4992 1914 F00D      		add r31,r0
 4993 1916 1124      		clr r1
 4994 1918 FA87      		std Y+10,r31
 4995 191a E987      		std Y+9,r30
 4996               	.LM697:
 4997 191c E981      		ldd r30,Y+1
 4998 191e FA81      		ldd r31,Y+2
 4999 1920 EE9F      		mul r30,r30
 5000 1922 C001      		movw r24,r0
 5001 1924 EF9F      		mul r30,r31
 5002 1926 900D      		add r25,r0
 5003 1928 FE9F      		mul r31,r30
 5004 192a 900D      		add r25,r0
 5005 192c 1124      		clr r1
 5006 192e 9887      		std Y+8,r25
 5007 1930 8F83      		std Y+7,r24
 5008 1932 20E5      		ldi r18,lo8(80)
 5009 1934 30E0      		ldi r19,hi8(80)
 5010 1936 029F      		mul r16,r18
 5011 1938 7001      		movw r14,r0
 5012 193a 039F      		mul r16,r19
 5013 193c F00C      		add r15,r0
 5014 193e 129F      		mul r17,r18
 5015 1940 F00C      		add r15,r0
 5016 1942 1124      		clr r1
 5017 1944 80E0      		ldi r24,lo8(dir_array)
 5018 1946 90E0      		ldi r25,hi8(dir_array)
 5019 1948 E80E      		add r14,r24
 5020 194a F91E      		adc r15,r25
 5021 194c ED89      		ldd r30,Y+21
 5022 194e FE89      		ldd r31,Y+22
 5023 1950 FE87      		std Y+14,r31
 5024 1952 ED87      		std Y+13,r30
 5025 1954 1F01      		movw r2,r30
 5026 1956 2F01      		movw r4,r30
 5027 1958 3F01      		movw r6,r30
 5028 195a 188E      		std Y+24,__zero_reg__
 5029 195c 1F8A      		std Y+23,__zero_reg__
 5030               	.LVL136:
 5031               	.LM698:
 5032 195e 9801      		movw r18,r16
 5033 1960 2150      		subi r18,lo8(-(-1))
 5034 1962 3040      		sbci r19,hi8(-(-1))
 5035 1964 3A8B      		std Y+18,r19
 5036 1966 298B      		std Y+17,r18
 5037               	.LM699:
 5038 1968 C801      		movw r24,r16
 5039 196a 0196      		adiw r24,1
 5040 196c 9C8B      		std Y+20,r25
 5041 196e 8B8B      		std Y+19,r24
 5042 1970 00C0      		rjmp .L365
 5043               	.L367:
 5044               	/* epilogue start */
 5045               	.LBE608:
 5046               	.LBE606:
 5047               	.LM700:
 5048 1972 6896      		adiw r28,24
 5049 1974 0FB6      		in __tmp_reg__,__SREG__
 5050 1976 F894      		cli
 5051 1978 DEBF      		out __SP_H__,r29
 5052 197a 0FBE      		out __SREG__,__tmp_reg__
 5053 197c CDBF      		out __SP_L__,r28
 5054 197e CF91      		pop r28
 5055 1980 DF91      		pop r29
 5056 1982 1F91      		pop r17
 5057 1984 0F91      		pop r16
 5058               	.LVL137:
 5059 1986 FF90      		pop r15
 5060 1988 EF90      		pop r14
 5061 198a DF90      		pop r13
 5062 198c CF90      		pop r12
 5063 198e BF90      		pop r11
 5064 1990 AF90      		pop r10
 5065 1992 9F90      		pop r9
 5066 1994 8F90      		pop r8
 5067 1996 7F90      		pop r7
 5068 1998 6F90      		pop r6
 5069 199a 5F90      		pop r5
 5070 199c 4F90      		pop r4
 5071 199e 3F90      		pop r3
 5072 19a0 2F90      		pop r2
 5073 19a2 0895      		ret
 5074               	.LFE70:
 5076               		.data
 5077               	.LC2:
 5078 0018 4272 6F6B 		.string	"Broke path "
 5078      6520 7061 
 5078      7468 2000 
 5079               		.text
 5080               	.global	get_path
 5082               	get_path:
 5083               	.LFB71:
 5084               	.LM701:
 5085 19a4 6F92      		push r6
 5086 19a6 7F92      		push r7
 5087 19a8 8F92      		push r8
 5088 19aa 9F92      		push r9
 5089 19ac AF92      		push r10
 5090 19ae BF92      		push r11
 5091 19b0 CF92      		push r12
 5092 19b2 DF92      		push r13
 5093 19b4 EF92      		push r14
 5094 19b6 FF92      		push r15
 5095 19b8 0F93      		push r16
 5096 19ba 1F93      		push r17
 5097 19bc CF93      		push r28
 5098 19be DF93      		push r29
 5099               	/* prologue: function */
 5100               	/* frame size = 0 */
 5101               	.LM702:
 5102 19c0 6091 0000 		lds r22,y_coordinate
 5103 19c4 7091 0000 		lds r23,(y_coordinate)+1
 5104               	.LVL138:
 5105               	.LM703:
 5106 19c8 4091 0000 		lds r20,x_coordinate
 5107 19cc 5091 0000 		lds r21,(x_coordinate)+1
 5108               	.LVL139:
 5109 19d0 00E0      		ldi r16,lo8(path_array)
 5110 19d2 10E0      		ldi r17,hi8(path_array)
 5111 19d4 F801      		movw r30,r16
 5112               	.L371:
 5113               	.LBB609:
 5114               	.LM704:
 5115 19d6 1182      		std Z+1,__zero_reg__
 5116 19d8 1082      		st Z,__zero_reg__
 5117               	.LM705:
 5118 19da 1382      		std Z+3,__zero_reg__
 5119 19dc 1282      		std Z+2,__zero_reg__
 5120 19de 3496      		adiw r30,4
 5121               	.LM706:
 5122 19e0 80E0      		ldi r24,hi8(path_array+60)
 5123 19e2 E030      		cpi r30,lo8(path_array+60)
 5124 19e4 F807      		cpc r31,r24
 5125 19e6 01F4      		brne .L371
 5126 19e8 00C0      		rjmp .L384
 5127               	.LVL140:
 5128               	.L382:
 5129               	.LBE609:
 5130               	.LM707:
 5131 19ea 6A01      		movw r12,r20
 5132 19ec 0894      		sec
 5133 19ee C11C      		adc r12,__zero_reg__
 5134 19f0 D11C      		adc r13,__zero_reg__
 5135               	.LVL141:
 5136 19f2 E601      		movw r28,r12
 5137 19f4 CC0F      		lsl r28
 5138 19f6 DD1F      		rol r29
 5139 19f8 C601      		movw r24,r12
 5140 19fa 23E0      		ldi r18,3
 5141 19fc 880F      	1:	lsl r24
 5142 19fe 991F      		rol r25
 5143 1a00 2A95      		dec r18
 5144 1a02 01F4      		brne 1b
 5145 1a04 C80F      		add r28,r24
 5146 1a06 D91F      		adc r29,r25
 5147 1a08 C60F      		add r28,r22
 5148 1a0a D71F      		adc r29,r23
 5149 1a0c 7E01      		movw r14,r28
 5150 1a0e EE0C      		lsl r14
 5151 1a10 FF1C      		rol r15
 5152 1a12 F701      		movw r30,r14
 5153 1a14 E050      		subi r30,lo8(-(map_array))
 5154 1a16 F040      		sbci r31,hi8(-(map_array))
 5155 1a18 A080      		ld r10,Z
 5156 1a1a B180      		ldd r11,Z+1
 5157 1a1c A814      		cp r10,r8
 5158 1a1e B904      		cpc r11,r9
 5159 1a20 04F0      		brlt .+2
 5160 1a22 00C0      		rjmp .L373
 5161 1a24 83E0      		ldi r24,3
 5162 1a26 AA0F      	1:	lsl r26
 5163 1a28 BB1F      		rol r27
 5164 1a2a 8A95      		dec r24
 5165 1a2c 01F4      		brne 1b
 5166 1a2e A050      		subi r26,lo8(-(dir_array+2))
 5167 1a30 B040      		sbci r27,hi8(-(dir_array+2))
 5168 1a32 8D91      		ld r24,X+
 5169 1a34 9C91      		ld r25,X
 5170 1a36 0197      		sbiw r24,1
 5171 1a38 01F0      		breq .+2
 5172 1a3a 00C0      		rjmp .L373
 5173 1a3c 9E01      		movw r18,r28
 5174 1a3e A3E0      		ldi r26,3
 5175 1a40 220F      	1:	lsl r18
 5176 1a42 331F      		rol r19
 5177 1a44 AA95      		dec r26
 5178 1a46 01F4      		brne 1b
 5179 1a48 2050      		subi r18,lo8(-(dir_array))
 5180 1a4a 3040      		sbci r19,hi8(-(dir_array))
 5181 1a4c F901      		movw r30,r18
 5182 1a4e 8681      		ldd r24,Z+6
 5183 1a50 9781      		ldd r25,Z+7
 5184 1a52 0197      		sbiw r24,1
 5185 1a54 01F0      		breq .+2
 5186 1a56 00C0      		rjmp .L373
 5187 1a58 4930      		cpi r20,9
 5188 1a5a 5105      		cpc r21,__zero_reg__
 5189 1a5c 04F0      		brlt .+2
 5190 1a5e 00C0      		rjmp .L373
 5191               	.LVL142:
 5192               	.LM708:
 5193 1a60 F801      		movw r30,r16
 5194 1a62 D182      		std Z+1,r13
 5195 1a64 C082      		st Z,r12
 5196               	.LM709:
 5197 1a66 7383      		std Z+3,r23
 5198 1a68 6283      		std Z+2,r22
 5199               	.LM710:
 5200 1a6a A601      		movw r20,r12
 5201 1a6c 4F5F      		subi r20,lo8(-(1))
 5202 1a6e 5F4F      		sbci r21,hi8(-(1))
 5203 1a70 DA01      		movw r26,r20
 5204 1a72 AA0F      		lsl r26
 5205 1a74 BB1F      		rol r27
 5206 1a76 CA01      		movw r24,r20
 5207 1a78 E3E0      		ldi r30,3
 5208 1a7a 880F      	1:	lsl r24
 5209 1a7c 991F      		rol r25
 5210 1a7e EA95      		dec r30
 5211 1a80 01F4      		brne 1b
 5212 1a82 A80F      		add r26,r24
 5213 1a84 B91F      		adc r27,r25
 5214 1a86 A60F      		add r26,r22
 5215 1a88 B71F      		adc r27,r23
 5216 1a8a FD01      		movw r30,r26
 5217 1a8c EE0F      		lsl r30
 5218 1a8e FF1F      		rol r31
 5219 1a90 E050      		subi r30,lo8(-(map_array))
 5220 1a92 F040      		sbci r31,hi8(-(map_array))
 5221 1a94 8081      		ld r24,Z
 5222 1a96 9181      		ldd r25,Z+1
 5223 1a98 8A15      		cp r24,r10
 5224 1a9a 9B05      		cpc r25,r11
 5225 1a9c 04F0      		brlt .+2
 5226 1a9e 00C0      		rjmp .L374
 5227 1aa0 83E0      		ldi r24,3
 5228 1aa2 AA0F      	1:	lsl r26
 5229 1aa4 BB1F      		rol r27
 5230 1aa6 8A95      		dec r24
 5231 1aa8 01F4      		brne 1b
 5232 1aaa A050      		subi r26,lo8(-(dir_array))
 5233 1aac B040      		sbci r27,hi8(-(dir_array))
 5234 1aae 1696      		adiw r26,6
 5235 1ab0 8D91      		ld r24,X+
 5236 1ab2 9C91      		ld r25,X
 5237 1ab4 1797      		sbiw r26,6+1
 5238 1ab6 0197      		sbiw r24,1
 5239 1ab8 01F0      		breq .+2
 5240 1aba 00C0      		rjmp .L374
 5241 1abc F901      		movw r30,r18
 5242 1abe 8081      		ld r24,Z
 5243 1ac0 9181      		ldd r25,Z+1
 5244 1ac2 892B      		or r24,r25
 5245 1ac4 01F0      		breq .+2
 5246 1ac6 00C0      		rjmp .L374
 5247 1ac8 B3E0      		ldi r27,3
 5248 1aca CC0F      	1:	lsl r28
 5249 1acc DD1F      		rol r29
 5250 1ace BA95      		dec r27
 5251 1ad0 01F4      		brne 1b
 5252 1ad2 C050      		subi r28,lo8(-(dir_array+2))
 5253 1ad4 D040      		sbci r29,hi8(-(dir_array+2))
 5254 1ad6 8881      		ld r24,Y
 5255 1ad8 9981      		ldd r25,Y+1
 5256 1ada 0197      		sbiw r24,1
 5257 1adc 01F0      		breq .+2
 5258 1ade 00C0      		rjmp .L374
 5259 1ae0 EE0C      		lsl r14
 5260 1ae2 FF1C      		rol r15
 5261 1ae4 EE0C      		lsl r14
 5262 1ae6 FF1C      		rol r15
 5263 1ae8 80E0      		ldi r24,lo8(dir_array+4)
 5264 1aea 90E0      		ldi r25,hi8(dir_array+4)
 5265 1aec E80E      		add r14,r24
 5266 1aee F91E      		adc r15,r25
 5267 1af0 F701      		movw r30,r14
 5268 1af2 8081      		ld r24,Z
 5269 1af4 9181      		ldd r25,Z+1
 5270 1af6 892B      		or r24,r25
 5271 1af8 01F0      		breq .+2
 5272 1afa 00C0      		rjmp .L374
 5273 1afc F9E0      		ldi r31,lo8(9)
 5274 1afe CF16      		cp r12,r31
 5275 1b00 D104      		cpc r13,__zero_reg__
 5276 1b02 04F0      		brlt .+2
 5277 1b04 00C0      		rjmp .L374
 5278               	.LVL143:
 5279 1b06 00C0      		rjmp .L388
 5280               	.L373:
 5281               	.LM711:
 5282 1b08 7A01      		movw r14,r20
 5283 1b0a 0894      		sec
 5284 1b0c E108      		sbc r14,__zero_reg__
 5285 1b0e F108      		sbc r15,__zero_reg__
 5286               	.LVL144:
 5287 1b10 9701      		movw r18,r14
 5288 1b12 220F      		lsl r18
 5289 1b14 331F      		rol r19
 5290 1b16 C701      		movw r24,r14
 5291 1b18 E3E0      		ldi r30,3
 5292 1b1a 880F      	1:	lsl r24
 5293 1b1c 991F      		rol r25
 5294 1b1e EA95      		dec r30
 5295 1b20 01F4      		brne 1b
 5296 1b22 280F      		add r18,r24
 5297 1b24 391F      		adc r19,r25
 5298 1b26 260F      		add r18,r22
 5299 1b28 371F      		adc r19,r23
 5300 1b2a E901      		movw r28,r18
 5301 1b2c CC0F      		lsl r28
 5302 1b2e DD1F      		rol r29
 5303 1b30 FE01      		movw r30,r28
 5304 1b32 E050      		subi r30,lo8(-(map_array))
 5305 1b34 F040      		sbci r31,hi8(-(map_array))
 5306 1b36 C080      		ld r12,Z
 5307 1b38 D180      		ldd r13,Z+1
 5308 1b3a C814      		cp r12,r8
 5309 1b3c D904      		cpc r13,r9
 5310 1b3e 04F0      		brlt .+2
 5311 1b40 00C0      		rjmp .L376
 5312 1b42 FA01      		movw r30,r20
 5313 1b44 EE0F      		lsl r30
 5314 1b46 FF1F      		rol r31
 5315 1b48 CA01      		movw r24,r20
 5316 1b4a A3E0      		ldi r26,3
 5317 1b4c 880F      	1:	lsl r24
 5318 1b4e 991F      		rol r25
 5319 1b50 AA95      		dec r26
 5320 1b52 01F4      		brne 1b
 5321 1b54 E80F      		add r30,r24
 5322 1b56 F91F      		adc r31,r25
 5323 1b58 E60F      		add r30,r22
 5324 1b5a F71F      		adc r31,r23
 5325 1b5c B3E0      		ldi r27,3
 5326 1b5e EE0F      	1:	lsl r30
 5327 1b60 FF1F      		rol r31
 5328 1b62 BA95      		dec r27
 5329 1b64 01F4      		brne 1b
 5330 1b66 E050      		subi r30,lo8(-(dir_array))
 5331 1b68 F040      		sbci r31,hi8(-(dir_array))
 5332 1b6a 8681      		ldd r24,Z+6
 5333 1b6c 9781      		ldd r25,Z+7
 5334 1b6e 0197      		sbiw r24,1
 5335 1b70 01F0      		breq .+2
 5336 1b72 00C0      		rjmp .L376
 5337               	.LVL145:
 5338 1b74 F901      		movw r30,r18
 5339 1b76 A3E0      		ldi r26,3
 5340 1b78 EE0F      	1:	lsl r30
 5341 1b7a FF1F      		rol r31
 5342 1b7c AA95      		dec r26
 5343 1b7e 01F4      		brne 1b
 5344 1b80 E050      		subi r30,lo8(-(dir_array+2))
 5345 1b82 F040      		sbci r31,hi8(-(dir_array+2))
 5346 1b84 8081      		ld r24,Z
 5347 1b86 9181      		ldd r25,Z+1
 5348 1b88 0197      		sbiw r24,1
 5349 1b8a 01F0      		breq .+2
 5350 1b8c 00C0      		rjmp .L376
 5351 1b8e 1416      		cp __zero_reg__,r20
 5352 1b90 1506      		cpc __zero_reg__,r21
 5353 1b92 04F0      		brlt .+2
 5354 1b94 00C0      		rjmp .L376
 5355               	.LM712:
 5356 1b96 F801      		movw r30,r16
 5357 1b98 F182      		std Z+1,r15
 5358 1b9a E082      		st Z,r14
 5359               	.LM713:
 5360 1b9c 7383      		std Z+3,r23
 5361 1b9e 6283      		std Z+2,r22
 5362               	.LM714:
 5363 1ba0 A701      		movw r20,r14
 5364 1ba2 4150      		subi r20,lo8(-(-1))
 5365 1ba4 5040      		sbci r21,hi8(-(-1))
 5366 1ba6 DA01      		movw r26,r20
 5367 1ba8 AA0F      		lsl r26
 5368 1baa BB1F      		rol r27
 5369 1bac CA01      		movw r24,r20
 5370 1bae E3E0      		ldi r30,3
 5371 1bb0 880F      	1:	lsl r24
 5372 1bb2 991F      		rol r25
 5373 1bb4 EA95      		dec r30
 5374 1bb6 01F4      		brne 1b
 5375 1bb8 A80F      		add r26,r24
 5376 1bba B91F      		adc r27,r25
 5377 1bbc A60F      		add r26,r22
 5378 1bbe B71F      		adc r27,r23
 5379 1bc0 FD01      		movw r30,r26
 5380 1bc2 EE0F      		lsl r30
 5381 1bc4 FF1F      		rol r31
 5382 1bc6 E050      		subi r30,lo8(-(map_array))
 5383 1bc8 F040      		sbci r31,hi8(-(map_array))
 5384 1bca 8081      		ld r24,Z
 5385 1bcc 9181      		ldd r25,Z+1
 5386 1bce 8C15      		cp r24,r12
 5387 1bd0 9D05      		cpc r25,r13
 5388 1bd2 04F0      		brlt .+2
 5389 1bd4 00C0      		rjmp .L377
 5390 1bd6 83E0      		ldi r24,3
 5391 1bd8 AA0F      	1:	lsl r26
 5392 1bda BB1F      		rol r27
 5393 1bdc 8A95      		dec r24
 5394 1bde 01F4      		brne 1b
 5395 1be0 A050      		subi r26,lo8(-(dir_array+2))
 5396 1be2 B040      		sbci r27,hi8(-(dir_array+2))
 5397 1be4 8D91      		ld r24,X+
 5398 1be6 9C91      		ld r25,X
 5399 1be8 0197      		sbiw r24,1
 5400 1bea 01F0      		breq .+2
 5401 1bec 00C0      		rjmp .L377
 5402 1bee F901      		movw r30,r18
 5403 1bf0 B3E0      		ldi r27,3
 5404 1bf2 EE0F      	1:	lsl r30
 5405 1bf4 FF1F      		rol r31
 5406 1bf6 BA95      		dec r27
 5407 1bf8 01F4      		brne 1b
 5408 1bfa E050      		subi r30,lo8(-(dir_array))
 5409 1bfc F040      		sbci r31,hi8(-(dir_array))
 5410 1bfe 8081      		ld r24,Z
 5411 1c00 9181      		ldd r25,Z+1
 5412 1c02 892B      		or r24,r25
 5413 1c04 01F0      		breq .+2
 5414 1c06 00C0      		rjmp .L377
 5415 1c08 CC0F      		lsl r28
 5416 1c0a DD1F      		rol r29
 5417 1c0c CC0F      		lsl r28
 5418 1c0e DD1F      		rol r29
 5419 1c10 C050      		subi r28,lo8(-(dir_array+4))
 5420 1c12 D040      		sbci r29,hi8(-(dir_array+4))
 5421 1c14 8881      		ld r24,Y
 5422 1c16 9981      		ldd r25,Y+1
 5423 1c18 892B      		or r24,r25
 5424 1c1a 01F0      		breq .+2
 5425 1c1c 00C0      		rjmp .L377
 5426 1c1e 8681      		ldd r24,Z+6
 5427 1c20 9781      		ldd r25,Z+7
 5428 1c22 0197      		sbiw r24,1
 5429 1c24 01F0      		breq .+2
 5430 1c26 00C0      		rjmp .L377
 5431 1c28 1E14      		cp __zero_reg__,r14
 5432 1c2a 1F04      		cpc __zero_reg__,r15
 5433 1c2c 04F0      		brlt .+2
 5434 1c2e 00C0      		rjmp .L377
 5435               	.LVL146:
 5436               	.L388:
 5437               	.LM715:
 5438 1c30 F801      		movw r30,r16
 5439 1c32 5183      		std Z+1,r21
 5440 1c34 4083      		st Z,r20
 5441 1c36 00C0      		rjmp .L375
 5442               	.LVL147:
 5443               	.L376:
 5444               	.LM716:
 5445 1c38 7B01      		movw r14,r22
 5446               	.LVL148:
 5447 1c3a 0894      		sec
 5448 1c3c E11C      		adc r14,__zero_reg__
 5449 1c3e F11C      		adc r15,__zero_reg__
 5450               	.LVL149:
 5451 1c40 9A01      		movw r18,r20
 5452 1c42 220F      		lsl r18
 5453 1c44 331F      		rol r19
 5454 1c46 CA01      		movw r24,r20
 5455 1c48 E3E0      		ldi r30,3
 5456 1c4a 880F      	1:	lsl r24
 5457 1c4c 991F      		rol r25
 5458 1c4e EA95      		dec r30
 5459 1c50 01F4      		brne 1b
 5460 1c52 280F      		add r18,r24
 5461 1c54 391F      		adc r19,r25
 5462 1c56 E901      		movw r28,r18
 5463 1c58 CE0D      		add r28,r14
 5464 1c5a DF1D      		adc r29,r15
 5465 1c5c DE01      		movw r26,r28
 5466 1c5e AA0F      		lsl r26
 5467 1c60 BB1F      		rol r27
 5468 1c62 FD01      		movw r30,r26
 5469 1c64 E050      		subi r30,lo8(-(map_array))
 5470 1c66 F040      		sbci r31,hi8(-(map_array))
 5471 1c68 C080      		ld r12,Z
 5472 1c6a D180      		ldd r13,Z+1
 5473 1c6c C814      		cp r12,r8
 5474 1c6e D904      		cpc r13,r9
 5475 1c70 04F0      		brlt .+2
 5476 1c72 00C0      		rjmp .L378
 5477 1c74 F901      		movw r30,r18
 5478 1c76 E60F      		add r30,r22
 5479 1c78 F71F      		adc r31,r23
 5480 1c7a 83E0      		ldi r24,3
 5481 1c7c EE0F      	1:	lsl r30
 5482 1c7e FF1F      		rol r31
 5483 1c80 8A95      		dec r24
 5484 1c82 01F4      		brne 1b
 5485 1c84 E050      		subi r30,lo8(-(dir_array))
 5486 1c86 F040      		sbci r31,hi8(-(dir_array))
 5487 1c88 8081      		ld r24,Z
 5488 1c8a 9181      		ldd r25,Z+1
 5489 1c8c 0197      		sbiw r24,1
 5490 1c8e 01F0      		breq .+2
 5491 1c90 00C0      		rjmp .L378
 5492               	.LVL150:
 5493 1c92 AA0F      		lsl r26
 5494 1c94 BB1F      		rol r27
 5495 1c96 AA0F      		lsl r26
 5496 1c98 BB1F      		rol r27
 5497 1c9a A050      		subi r26,lo8(-(dir_array+4))
 5498 1c9c B040      		sbci r27,hi8(-(dir_array+4))
 5499 1c9e 8D91      		ld r24,X+
 5500 1ca0 9C91      		ld r25,X
 5501 1ca2 0197      		sbiw r24,1
 5502 1ca4 01F0      		breq .+2
 5503 1ca6 00C0      		rjmp .L378
 5504 1ca8 6930      		cpi r22,9
 5505 1caa 7105      		cpc r23,__zero_reg__
 5506 1cac 04F0      		brlt .+2
 5507 1cae 00C0      		rjmp .L378
 5508               	.LM717:
 5509 1cb0 F801      		movw r30,r16
 5510 1cb2 5183      		std Z+1,r21
 5511 1cb4 4083      		st Z,r20
 5512               	.LM718:
 5513 1cb6 F382      		std Z+3,r15
 5514 1cb8 E282      		std Z+2,r14
 5515               	.LM719:
 5516 1cba B701      		movw r22,r14
 5517 1cbc 6F5F      		subi r22,lo8(-(1))
 5518 1cbe 7F4F      		sbci r23,hi8(-(1))
 5519 1cc0 D901      		movw r26,r18
 5520 1cc2 A60F      		add r26,r22
 5521 1cc4 B71F      		adc r27,r23
 5522 1cc6 AA0F      		lsl r26
 5523 1cc8 BB1F      		rol r27
 5524 1cca FD01      		movw r30,r26
 5525 1ccc E050      		subi r30,lo8(-(map_array))
 5526 1cce F040      		sbci r31,hi8(-(map_array))
 5527 1cd0 8081      		ld r24,Z
 5528 1cd2 9181      		ldd r25,Z+1
 5529 1cd4 8C15      		cp r24,r12
 5530 1cd6 9D05      		cpc r25,r13
 5531 1cd8 04F0      		brlt .+2
 5532 1cda 00C0      		rjmp .L379
 5533 1cdc AA0F      		lsl r26
 5534 1cde BB1F      		rol r27
 5535 1ce0 AA0F      		lsl r26
 5536 1ce2 BB1F      		rol r27
 5537 1ce4 A050      		subi r26,lo8(-(dir_array+4))
 5538 1ce6 B040      		sbci r27,hi8(-(dir_array+4))
 5539 1ce8 8D91      		ld r24,X+
 5540 1cea 9C91      		ld r25,X
 5541 1cec 0197      		sbiw r24,1
 5542 1cee 01F0      		breq .+2
 5543 1cf0 00C0      		rjmp .L379
 5544 1cf2 FE01      		movw r30,r28
 5545 1cf4 B3E0      		ldi r27,3
 5546 1cf6 EE0F      	1:	lsl r30
 5547 1cf8 FF1F      		rol r31
 5548 1cfa BA95      		dec r27
 5549 1cfc 01F4      		brne 1b
 5550 1cfe E050      		subi r30,lo8(-(dir_array))
 5551 1d00 F040      		sbci r31,hi8(-(dir_array))
 5552 1d02 8081      		ld r24,Z
 5553 1d04 9181      		ldd r25,Z+1
 5554 1d06 0197      		sbiw r24,1
 5555 1d08 01F0      		breq .+2
 5556 1d0a 00C0      		rjmp .L379
 5557 1d0c A3E0      		ldi r26,3
 5558 1d0e CC0F      	1:	lsl r28
 5559 1d10 DD1F      		rol r29
 5560 1d12 AA95      		dec r26
 5561 1d14 01F4      		brne 1b
 5562 1d16 C050      		subi r28,lo8(-(dir_array+2))
 5563 1d18 D040      		sbci r29,hi8(-(dir_array+2))
 5564 1d1a 8881      		ld r24,Y
 5565 1d1c 9981      		ldd r25,Y+1
 5566 1d1e 892B      		or r24,r25
 5567 1d20 01F0      		breq .+2
 5568 1d22 00C0      		rjmp .L379
 5569 1d24 8681      		ldd r24,Z+6
 5570 1d26 9781      		ldd r25,Z+7
 5571 1d28 892B      		or r24,r25
 5572 1d2a 01F0      		breq .+2
 5573 1d2c 00C0      		rjmp .L379
 5574 1d2e F9E0      		ldi r31,lo8(9)
 5575 1d30 EF16      		cp r14,r31
 5576 1d32 F104      		cpc r15,__zero_reg__
 5577 1d34 04F0      		brlt .+2
 5578 1d36 00C0      		rjmp .L379
 5579               	.LVL151:
 5580 1d38 00C0      		rjmp .L387
 5581               	.L378:
 5582               	.LM720:
 5583 1d3a 5B01      		movw r10,r22
 5584 1d3c 0894      		sec
 5585 1d3e A108      		sbc r10,__zero_reg__
 5586 1d40 B108      		sbc r11,__zero_reg__
 5587               	.LVL152:
 5588 1d42 9A01      		movw r18,r20
 5589 1d44 220F      		lsl r18
 5590 1d46 331F      		rol r19
 5591 1d48 CA01      		movw r24,r20
 5592 1d4a E3E0      		ldi r30,3
 5593 1d4c 880F      	1:	lsl r24
 5594 1d4e 991F      		rol r25
 5595 1d50 EA95      		dec r30
 5596 1d52 01F4      		brne 1b
 5597 1d54 280F      		add r18,r24
 5598 1d56 391F      		adc r19,r25
 5599 1d58 E901      		movw r28,r18
 5600 1d5a CA0D      		add r28,r10
 5601 1d5c DB1D      		adc r29,r11
 5602 1d5e 7E01      		movw r14,r28
 5603 1d60 EE0C      		lsl r14
 5604 1d62 FF1C      		rol r15
 5605 1d64 F701      		movw r30,r14
 5606 1d66 E050      		subi r30,lo8(-(map_array))
 5607 1d68 F040      		sbci r31,hi8(-(map_array))
 5608 1d6a 6080      		ld r6,Z
 5609 1d6c 7180      		ldd r7,Z+1
 5610 1d6e 6814      		cp r6,r8
 5611 1d70 7904      		cpc r7,r9
 5612 1d72 04F0      		brlt .+2
 5613 1d74 00C0      		rjmp .L375
 5614 1d76 F901      		movw r30,r18
 5615 1d78 E60F      		add r30,r22
 5616 1d7a F71F      		adc r31,r23
 5617 1d7c A3E0      		ldi r26,3
 5618 1d7e EE0F      	1:	lsl r30
 5619 1d80 FF1F      		rol r31
 5620 1d82 AA95      		dec r26
 5621 1d84 01F4      		brne 1b
 5622 1d86 E050      		subi r30,lo8(-(dir_array+4))
 5623 1d88 F040      		sbci r31,hi8(-(dir_array+4))
 5624 1d8a 8081      		ld r24,Z
 5625 1d8c 9181      		ldd r25,Z+1
 5626 1d8e 0197      		sbiw r24,1
 5627 1d90 01F0      		breq .+2
 5628 1d92 00C0      		rjmp .L375
 5629               	.LVL153:
 5630 1d94 6E01      		movw r12,r28
 5631 1d96 E3E0      		ldi r30,3
 5632 1d98 CC0C      	1:	lsl r12
 5633 1d9a DD1C      		rol r13
 5634 1d9c EA95      		dec r30
 5635 1d9e 01F4      		brne 1b
 5636 1da0 80E0      		ldi r24,lo8(dir_array)
 5637 1da2 90E0      		ldi r25,hi8(dir_array)
 5638 1da4 C80E      		add r12,r24
 5639 1da6 D91E      		adc r13,r25
 5640 1da8 F601      		movw r30,r12
 5641 1daa 8081      		ld r24,Z
 5642 1dac 9181      		ldd r25,Z+1
 5643 1dae 0197      		sbiw r24,1
 5644 1db0 01F0      		breq .+2
 5645 1db2 00C0      		rjmp .L375
 5646 1db4 1616      		cp __zero_reg__,r22
 5647 1db6 1706      		cpc __zero_reg__,r23
 5648 1db8 04F0      		brlt .+2
 5649 1dba 00C0      		rjmp .L375
 5650               	.LM721:
 5651 1dbc F801      		movw r30,r16
 5652 1dbe 5183      		std Z+1,r21
 5653 1dc0 4083      		st Z,r20
 5654               	.LM722:
 5655 1dc2 B382      		std Z+3,r11
 5656 1dc4 A282      		std Z+2,r10
 5657               	.LM723:
 5658 1dc6 B501      		movw r22,r10
 5659 1dc8 6150      		subi r22,lo8(-(-1))
 5660 1dca 7040      		sbci r23,hi8(-(-1))
 5661 1dcc D901      		movw r26,r18
 5662 1dce A60F      		add r26,r22
 5663 1dd0 B71F      		adc r27,r23
 5664 1dd2 FD01      		movw r30,r26
 5665 1dd4 EE0F      		lsl r30
 5666 1dd6 FF1F      		rol r31
 5667 1dd8 E050      		subi r30,lo8(-(map_array))
 5668 1dda F040      		sbci r31,hi8(-(map_array))
 5669 1ddc 8081      		ld r24,Z
 5670 1dde 9181      		ldd r25,Z+1
 5671 1de0 8615      		cp r24,r6
 5672 1de2 9705      		cpc r25,r7
 5673 1de4 04F4      		brge .L380
 5674 1de6 83E0      		ldi r24,3
 5675 1de8 AA0F      	1:	lsl r26
 5676 1dea BB1F      		rol r27
 5677 1dec 8A95      		dec r24
 5678 1dee 01F4      		brne 1b
 5679 1df0 A050      		subi r26,lo8(-(dir_array))
 5680 1df2 B040      		sbci r27,hi8(-(dir_array))
 5681 1df4 8D91      		ld r24,X+
 5682 1df6 9C91      		ld r25,X
 5683 1df8 0197      		sbiw r24,1
 5684 1dfa 01F4      		brne .L380
 5685 1dfc F3E0      		ldi r31,3
 5686 1dfe CC0F      	1:	lsl r28
 5687 1e00 DD1F      		rol r29
 5688 1e02 FA95      		dec r31
 5689 1e04 01F4      		brne 1b
 5690 1e06 C050      		subi r28,lo8(-(dir_array+2))
 5691 1e08 D040      		sbci r29,hi8(-(dir_array+2))
 5692 1e0a 8881      		ld r24,Y
 5693 1e0c 9981      		ldd r25,Y+1
 5694 1e0e 892B      		or r24,r25
 5695 1e10 01F4      		brne .L380
 5696 1e12 EE0C      		lsl r14
 5697 1e14 FF1C      		rol r15
 5698 1e16 EE0C      		lsl r14
 5699 1e18 FF1C      		rol r15
 5700 1e1a 80E0      		ldi r24,lo8(dir_array+4)
 5701 1e1c 90E0      		ldi r25,hi8(dir_array+4)
 5702 1e1e E80E      		add r14,r24
 5703 1e20 F91E      		adc r15,r25
 5704 1e22 F701      		movw r30,r14
 5705 1e24 8081      		ld r24,Z
 5706 1e26 9181      		ldd r25,Z+1
 5707 1e28 0197      		sbiw r24,1
 5708 1e2a 01F4      		brne .L380
 5709 1e2c F601      		movw r30,r12
 5710 1e2e 8681      		ldd r24,Z+6
 5711 1e30 9781      		ldd r25,Z+7
 5712 1e32 892B      		or r24,r25
 5713 1e34 01F4      		brne .L380
 5714 1e36 1A14      		cp __zero_reg__,r10
 5715 1e38 1B04      		cpc __zero_reg__,r11
 5716 1e3a 04F4      		brge .L380
 5717               	.LVL154:
 5718               	.L387:
 5719               	.LM724:
 5720 1e3c F801      		movw r30,r16
 5721               	.LM725:
 5722 1e3e 7383      		std Z+3,r23
 5723 1e40 6283      		std Z+2,r22
 5724 1e42 00C0      		rjmp .L375
 5725               	.LVL155:
 5726               	.L374:
 5727 1e44 A601      		movw r20,r12
 5728 1e46 00C0      		rjmp .L375
 5729               	.LVL156:
 5730               	.L377:
 5731 1e48 A701      		movw r20,r14
 5732 1e4a 00C0      		rjmp .L375
 5733               	.LVL157:
 5734               	.L379:
 5735 1e4c B701      		movw r22,r14
 5736 1e4e 00C0      		rjmp .L375
 5737               	.LVL158:
 5738               	.L380:
 5739 1e50 B501      		movw r22,r10
 5740               	.LVL159:
 5741               	.L375:
 5742 1e52 0C5F      		subi r16,lo8(-(4))
 5743 1e54 1F4F      		sbci r17,hi8(-(4))
 5744               	.LM726:
 5745 1e56 F0E0      		ldi r31,hi8(path_array+64)
 5746 1e58 0030      		cpi r16,lo8(path_array+64)
 5747 1e5a 1F07      		cpc r17,r31
 5748 1e5c 01F4      		brne .L384
 5749               	.LM727:
 5750 1e5e 81E0      		ldi r24,lo8(1)
 5751 1e60 60E0      		ldi r22,lo8(0)
 5752               	.LVL160:
 5753 1e62 0E94 0000 		call lcd_byte
 5754               	.LVL161:
 5755               	.LM728:
 5756 1e66 80E0      		ldi r24,lo8(.LC2)
 5757 1e68 90E0      		ldi r25,hi8(.LC2)
 5758 1e6a 0E94 0000 		call lcd_write_string
 5759               	.LM729:
 5760 1e6e 82E0      		ldi r24,lo8(2)
 5761 1e70 90E0      		ldi r25,hi8(2)
 5762 1e72 0E94 0000 		call delay_sec
 5763 1e76 00C0      		rjmp .L383
 5764               	.LVL162:
 5765               	.L384:
 5766               	.LM730:
 5767 1e78 DA01      		movw r26,r20
 5768 1e7a AA0F      		lsl r26
 5769 1e7c BB1F      		rol r27
 5770 1e7e CA01      		movw r24,r20
 5771 1e80 23E0      		ldi r18,3
 5772 1e82 880F      	1:	lsl r24
 5773 1e84 991F      		rol r25
 5774 1e86 2A95      		dec r18
 5775 1e88 01F4      		brne 1b
 5776 1e8a A80F      		add r26,r24
 5777 1e8c B91F      		adc r27,r25
 5778 1e8e A60F      		add r26,r22
 5779 1e90 B71F      		adc r27,r23
 5780 1e92 FD01      		movw r30,r26
 5781 1e94 EE0F      		lsl r30
 5782 1e96 FF1F      		rol r31
 5783 1e98 E050      		subi r30,lo8(-(map_array))
 5784 1e9a F040      		sbci r31,hi8(-(map_array))
 5785 1e9c 8080      		ld r8,Z
 5786 1e9e 9180      		ldd r9,Z+1
 5787 1ea0 8114      		cp r8,__zero_reg__
 5788 1ea2 9104      		cpc r9,__zero_reg__
 5789 1ea4 01F0      		breq .+2
 5790 1ea6 00C0      		rjmp .L382
 5791               	.LVL163:
 5792               	.L383:
 5793               	/* epilogue start */
 5794               	.LM731:
 5795 1ea8 DF91      		pop r29
 5796 1eaa CF91      		pop r28
 5797 1eac 1F91      		pop r17
 5798 1eae 0F91      		pop r16
 5799 1eb0 FF90      		pop r15
 5800 1eb2 EF90      		pop r14
 5801               	.LVL164:
 5802 1eb4 DF90      		pop r13
 5803 1eb6 CF90      		pop r12
 5804               	.LVL165:
 5805 1eb8 BF90      		pop r11
 5806 1eba AF90      		pop r10
 5807               	.LVL166:
 5808 1ebc 9F90      		pop r9
 5809 1ebe 8F90      		pop r8
 5810 1ec0 7F90      		pop r7
 5811 1ec2 6F90      		pop r6
 5812 1ec4 0895      		ret
 5813               	.LFE71:
 5815               		.data
 5816               	.LC3:
 5817 0024 4272 6F6B 		.string	"Broke build"
 5817      6520 6275 
 5817      696C 6400 
 5818               		.text
 5819               	.global	build_map
 5821               	build_map:
 5822               	.LFB72:
 5823               	.LM732:
 5824               	.LVL167:
 5825 1ec6 6F92      		push r6
 5826 1ec8 7F92      		push r7
 5827 1eca 8F92      		push r8
 5828 1ecc 9F92      		push r9
 5829 1ece AF92      		push r10
 5830 1ed0 BF92      		push r11
 5831 1ed2 CF92      		push r12
 5832 1ed4 DF92      		push r13
 5833 1ed6 EF92      		push r14
 5834 1ed8 FF92      		push r15
 5835 1eda 0F93      		push r16
 5836 1edc 1F93      		push r17
 5837 1ede CF93      		push r28
 5838 1ee0 DF93      		push r29
 5839               	/* prologue: function */
 5840               	/* frame size = 0 */
 5841 1ee2 3C01      		movw r6,r24
 5842               	.LVL168:
 5843 1ee4 6B01      		movw r12,r22
 5844               	.LM733:
 5845 1ee6 A0E0      		ldi r26,lo8(0)
 5846 1ee8 B0E0      		ldi r27,hi8(0)
 5847               	.LVL169:
 5848               	.LBB610:
 5849               	.LM734:
 5850 1eea 04E1      		ldi r16,lo8(20)
 5851 1eec 10E0      		ldi r17,hi8(20)
 5852               	.LBB611:
 5853               	.LM735:
 5854 1eee C4E6      		ldi r28,lo8(100)
 5855 1ef0 D0E0      		ldi r29,hi8(100)
 5856 1ef2 00C0      		rjmp .L390
 5857               	.LVL170:
 5858               	.L391:
 5859 1ef4 C193      		st Z+,r28
 5860 1ef6 D193      		st Z+,r29
 5861               	.LM736:
 5862 1ef8 0196      		adiw r24,1
 5863 1efa 8A30      		cpi r24,10
 5864 1efc 9105      		cpc r25,__zero_reg__
 5865 1efe 01F4      		brne .L391
 5866               	.LBE611:
 5867               	.LM737:
 5868 1f00 1196      		adiw r26,1
 5869 1f02 AA30      		cpi r26,10
 5870 1f04 B105      		cpc r27,__zero_reg__
 5871 1f06 01F0      		breq .L392
 5872               	.L390:
 5873 1f08 A09F      		mul r26,r16
 5874 1f0a F001      		movw r30,r0
 5875 1f0c A19F      		mul r26,r17
 5876 1f0e F00D      		add r31,r0
 5877 1f10 B09F      		mul r27,r16
 5878 1f12 F00D      		add r31,r0
 5879 1f14 1124      		clr r1
 5880 1f16 E050      		subi r30,lo8(-(map_array))
 5881 1f18 F040      		sbci r31,hi8(-(map_array))
 5882 1f1a 80E0      		ldi r24,lo8(0)
 5883 1f1c 90E0      		ldi r25,hi8(0)
 5884 1f1e 00C0      		rjmp .L391
 5885               	.L392:
 5886               	.LBE610:
 5887               	.LM738:
 5888 1f20 CA01      		movw r24,r20
 5889               	.LVL171:
 5890 1f22 FA01      		movw r30,r20
 5891               	.LVL172:
 5892 1f24 43E0      		ldi r20,3
 5893 1f26 EE0F      	1:	lsl r30
 5894 1f28 FF1F      		rol r31
 5895 1f2a 4A95      		dec r20
 5896 1f2c 01F4      		brne 1b
 5897               	.LVL173:
 5898 1f2e 880F      		lsl r24
 5899 1f30 991F      		rol r25
 5900               	.LVL174:
 5901 1f32 E80F      		add r30,r24
 5902 1f34 F91F      		adc r31,r25
 5903 1f36 E20F      		add r30,r18
 5904 1f38 F31F      		adc r31,r19
 5905 1f3a EE0F      		lsl r30
 5906 1f3c FF1F      		rol r31
 5907 1f3e E050      		subi r30,lo8(-(map_array))
 5908 1f40 F040      		sbci r31,hi8(-(map_array))
 5909 1f42 1182      		std Z+1,__zero_reg__
 5910 1f44 1082      		st Z,__zero_reg__
 5911 1f46 00E0      		ldi r16,lo8(0)
 5912 1f48 10E0      		ldi r17,hi8(0)
 5913               	.LVL175:
 5914               	.LBB612:
 5915               	.LM739:
 5916 1f4a B4E1      		ldi r27,lo8(20)
 5917 1f4c 8B2E      		mov r8,r27
 5918 1f4e 912C      		mov r9,__zero_reg__
 5919 1f50 A6EF      		ldi r26,lo8(-10)
 5920 1f52 AA2E      		mov r10,r26
 5921 1f54 AFEF      		ldi r26,hi8(-10)
 5922 1f56 BA2E      		mov r11,r26
 5923               	.LVL176:
 5924 1f58 00C0      		rjmp .L393
 5925               	.LVL177:
 5926               	.L398:
 5927               	.LBB613:
 5928               	.LM740:
 5929 1f5a 5496      		adiw r26,20
 5930 1f5c 8D91      		ld r24,X+
 5931 1f5e 9C91      		ld r25,X
 5932 1f60 5597      		sbiw r26,20+1
 5933 1f62 8017      		cp r24,r16
 5934 1f64 9107      		cpc r25,r17
 5935 1f66 01F0      		breq .+2
 5936 1f68 00C0      		rjmp .L394
 5937               	.LM741:
 5938 1f6a 8085      		ldd r24,Z+8
 5939 1f6c 9185      		ldd r25,Z+9
 5940 1f6e 0197      		sbiw r24,1
 5941 1f70 01F4      		brne .L395
 5942 1f72 8489      		ldd r24,Z+20
 5943 1f74 9589      		ldd r25,Z+21
 5944 1f76 0197      		sbiw r24,1
 5945 1f78 01F4      		brne .L395
 5946               	.LM742:
 5947 1f7a 5696      		adiw r26,22
 5948 1f7c 8D91      		ld r24,X+
 5949 1f7e 9C91      		ld r25,X
 5950 1f80 5797      		sbiw r26,22+1
 5951 1f82 8436      		cpi r24,100
 5952 1f84 9105      		cpc r25,__zero_reg__
 5953 1f86 01F4      		brne .L395
 5954               	.LM743:
 5955 1f88 5796      		adiw r26,22+1
 5956 1f8a 7C93      		st X,r23
 5957 1f8c 6E93      		st -X,r22
 5958 1f8e 5697      		sbiw r26,22
 5959               	.L395:
 5960               	.LM744:
 5961 1f90 8285      		ldd r24,Z+10
 5962 1f92 9385      		ldd r25,Z+11
 5963 1f94 0197      		sbiw r24,1
 5964 1f96 01F4      		brne .L396
 5965 1f98 E25A      		subi r30,lo8(-(94))
 5966 1f9a FF4F      		sbci r31,hi8(-(94))
 5967 1f9c 8081      		ld r24,Z
 5968 1f9e 9181      		ldd r25,Z+1
 5969 1fa0 EE55      		subi r30,lo8(-(-94))
 5970 1fa2 F040      		sbci r31,hi8(-(-94))
 5971 1fa4 0197      		sbiw r24,1
 5972 1fa6 01F4      		brne .L396
 5973               	.LM745:
 5974 1fa8 8E89      		ldd r24,Y+22
 5975 1faa 9F89      		ldd r25,Y+23
 5976 1fac 8436      		cpi r24,100
 5977 1fae 9105      		cpc r25,__zero_reg__
 5978 1fb0 01F4      		brne .L396
 5979               	.LM746:
 5980 1fb2 7F8B      		std Y+23,r23
 5981 1fb4 6E8B      		std Y+22,r22
 5982               	.L396:
 5983               	.LM747:
 5984 1fb6 8485      		ldd r24,Z+12
 5985 1fb8 9585      		ldd r25,Z+13
 5986 1fba 0197      		sbiw r24,1
 5987 1fbc 01F4      		brne .L397
 5988 1fbe 8081      		ld r24,Z
 5989 1fc0 9181      		ldd r25,Z+1
 5990 1fc2 0197      		sbiw r24,1
 5991 1fc4 01F4      		brne .L397
 5992               	.LM748:
 5993 1fc6 8881      		ld r24,Y
 5994 1fc8 9981      		ldd r25,Y+1
 5995 1fca 8436      		cpi r24,100
 5996 1fcc 9105      		cpc r25,__zero_reg__
 5997 1fce 01F4      		brne .L397
 5998               	.LM749:
 5999 1fd0 7983      		std Y+1,r23
 6000 1fd2 6883      		st Y,r22
 6001               	.L397:
 6002               	.LM750:
 6003 1fd4 8685      		ldd r24,Z+14
 6004 1fd6 9785      		ldd r25,Z+15
 6005 1fd8 0197      		sbiw r24,1
 6006 1fda 01F4      		brne .L394
 6007 1fdc E654      		subi r30,lo8(-(-70))
 6008 1fde F040      		sbci r31,hi8(-(-70))
 6009 1fe0 8081      		ld r24,Z
 6010 1fe2 9181      		ldd r25,Z+1
 6011 1fe4 EA5B      		subi r30,lo8(-(70))
 6012 1fe6 FF4F      		sbci r31,hi8(-(70))
 6013 1fe8 0197      		sbiw r24,1
 6014 1fea 01F4      		brne .L394
 6015               	.LM751:
 6016 1fec 8D91      		ld r24,X+
 6017 1fee 9C91      		ld r25,X
 6018 1ff0 1197      		sbiw r26,1
 6019 1ff2 8436      		cpi r24,100
 6020 1ff4 9105      		cpc r25,__zero_reg__
 6021 1ff6 01F4      		brne .L394
 6022               	.LM752:
 6023 1ff8 1196      		adiw r26,1
 6024 1ffa 7C93      		st X,r23
 6025 1ffc 6E93      		st -X,r22
 6026               	.L394:
 6027 1ffe 1296      		adiw r26,2
 6028 2000 3896      		adiw r30,8
 6029 2002 2296      		adiw r28,2
 6030               	.LM753:
 6031 2004 AE15      		cp r26,r14
 6032 2006 BF05      		cpc r27,r15
 6033 2008 01F0      		breq .+2
 6034 200a 00C0      		rjmp .L398
 6035               	.LBE613:
 6036               	.LM754:
 6037 200c 4F5F      		subi r20,lo8(-(1))
 6038 200e 5F4F      		sbci r21,hi8(-(1))
 6039 2010 F4E1      		ldi r31,lo8(20)
 6040 2012 EF2E      		mov r14,r31
 6041 2014 F12C      		mov r15,__zero_reg__
 6042 2016 EA0E      		add r14,r26
 6043 2018 FB1E      		adc r15,r27
 6044 201a 4A30      		cpi r20,10
 6045 201c 5105      		cpc r21,__zero_reg__
 6046 201e 01F0      		breq .L399
 6047               	.LVL178:
 6048               	.L401:
 6049 2020 489D      		mul r20,r8
 6050 2022 D001      		movw r26,r0
 6051 2024 499D      		mul r20,r9
 6052 2026 B00D      		add r27,r0
 6053 2028 589D      		mul r21,r8
 6054 202a B00D      		add r27,r0
 6055 202c 1124      		clr r1
 6056 202e A050      		subi r26,lo8(-(map_array-20))
 6057 2030 B040      		sbci r27,hi8(-(map_array-20))
 6058 2032 4A9D      		mul r20,r10
 6059 2034 C001      		movw r24,r0
 6060 2036 4B9D      		mul r20,r11
 6061 2038 900D      		add r25,r0
 6062 203a 5A9D      		mul r21,r10
 6063 203c 900D      		add r25,r0
 6064 203e 1124      		clr r1
 6065 2040 0196      		adiw r24,1
 6066 2042 9C01      		movw r18,r24
 6067               	.LVL179:
 6068 2044 E3E0      		ldi r30,3
 6069 2046 220F      	1:	lsl r18
 6070 2048 331F      		rol r19
 6071 204a EA95      		dec r30
 6072 204c 01F4      		brne 1b
 6073 204e EE27      		clr r30
 6074 2050 FF27      		clr r31
 6075 2052 E21B      		sub r30,r18
 6076 2054 F30B      		sbc r31,r19
 6077 2056 E050      		subi r30,lo8(-(dir_array))
 6078 2058 F040      		sbci r31,hi8(-(dir_array))
 6079 205a 880F      		lsl r24
 6080 205c 991F      		rol r25
 6081 205e CC27      		clr r28
 6082 2060 DD27      		clr r29
 6083 2062 C81B      		sub r28,r24
 6084 2064 D90B      		sbc r29,r25
 6085 2066 C050      		subi r28,lo8(-(map_array))
 6086 2068 D040      		sbci r29,hi8(-(map_array))
 6087 206a 00C0      		rjmp .L398
 6088               	.L399:
 6089               	.LBE612:
 6090               	.LM755:
 6091 206c 0F5F      		subi r16,lo8(-(1))
 6092 206e 1F4F      		sbci r17,hi8(-(1))
 6093               	.LM756:
 6094 2070 0333      		cpi r16,51
 6095 2072 1105      		cpc r17,__zero_reg__
 6096 2074 01F4      		brne .L393
 6097               	.LM757:
 6098 2076 81E0      		ldi r24,lo8(1)
 6099 2078 60E0      		ldi r22,lo8(0)
 6100 207a 0E94 0000 		call lcd_byte
 6101               	.LVL180:
 6102               	.LM758:
 6103 207e 80E0      		ldi r24,lo8(.LC3)
 6104 2080 90E0      		ldi r25,hi8(.LC3)
 6105 2082 0E94 0000 		call lcd_write_string
 6106               	.LM759:
 6107 2086 82E0      		ldi r24,lo8(2)
 6108 2088 90E0      		ldi r25,hi8(2)
 6109 208a 0E94 0000 		call delay_sec
 6110 208e 00C0      		rjmp .L402
 6111               	.LVL181:
 6112               	.L393:
 6113               	.LM760:
 6114 2090 C301      		movw r24,r6
 6115               	.LVL182:
 6116 2092 F301      		movw r30,r6
 6117               	.LVL183:
 6118 2094 73E0      		ldi r23,3
 6119 2096 EE0F      	1:	lsl r30
 6120 2098 FF1F      		rol r31
 6121 209a 7A95      		dec r23
 6122 209c 01F4      		brne 1b
 6123 209e 880F      		lsl r24
 6124 20a0 991F      		rol r25
 6125               	.LVL184:
 6126 20a2 E80F      		add r30,r24
 6127 20a4 F91F      		adc r31,r25
 6128 20a6 EC0D      		add r30,r12
 6129 20a8 FD1D      		adc r31,r13
 6130 20aa EE0F      		lsl r30
 6131 20ac FF1F      		rol r31
 6132 20ae E050      		subi r30,lo8(-(map_array))
 6133 20b0 F040      		sbci r31,hi8(-(map_array))
 6134 20b2 8081      		ld r24,Z
 6135 20b4 9181      		ldd r25,Z+1
 6136               	.LVL185:
 6137 20b6 8436      		cpi r24,100
 6138 20b8 9105      		cpc r25,__zero_reg__
 6139 20ba 01F4      		brne .L402
 6140 20bc 40E0      		ldi r20,lo8(map_array)
 6141 20be E42E      		mov r14,r20
 6142 20c0 40E0      		ldi r20,hi8(map_array)
 6143 20c2 F42E      		mov r15,r20
 6144               	.LVL186:
 6145 20c4 40E0      		ldi r20,lo8(0)
 6146 20c6 50E0      		ldi r21,hi8(0)
 6147               	.LVL187:
 6148               	.LBB615:
 6149               	.LBB614:
 6150               	.LM761:
 6151 20c8 B801      		movw r22,r16
 6152 20ca 6F5F      		subi r22,lo8(-(1))
 6153 20cc 7F4F      		sbci r23,hi8(-(1))
 6154 20ce 00C0      		rjmp .L401
 6155               	.L402:
 6156               	/* epilogue start */
 6157               	.LBE614:
 6158               	.LBE615:
 6159               	.LM762:
 6160 20d0 DF91      		pop r29
 6161 20d2 CF91      		pop r28
 6162 20d4 1F91      		pop r17
 6163 20d6 0F91      		pop r16
 6164               	.LVL188:
 6165 20d8 FF90      		pop r15
 6166 20da EF90      		pop r14
 6167 20dc DF90      		pop r13
 6168 20de CF90      		pop r12
 6169               	.LVL189:
 6170 20e0 BF90      		pop r11
 6171 20e2 AF90      		pop r10
 6172 20e4 9F90      		pop r9
 6173 20e6 8F90      		pop r8
 6174 20e8 7F90      		pop r7
 6175 20ea 6F90      		pop r6
 6176 20ec 0895      		ret
 6177               	.LFE72:
 6179               	.global	checkAndCorrectDirection
 6181               	checkAndCorrectDirection:
 6182               	.LFB74:
 6183               	.LM763:
 6184               	.LVL190:
 6185 20ee CF93      		push r28
 6186 20f0 DF93      		push r29
 6187               	/* prologue: function */
 6188               	/* frame size = 0 */
 6189 20f2 EC01      		movw r28,r24
 6190               	.LM764:
 6191 20f4 8130      		cpi r24,1
 6192 20f6 9105      		cpc r25,__zero_reg__
 6193 20f8 01F4      		brne .L407
 6194               	.LM765:
 6195 20fa 8091 0000 		lds r24,dir
 6196 20fe 9091 0000 		lds r25,(dir)+1
 6197               	.LVL191:
 6198 2102 2FEF      		ldi r18,hi8(-1)
 6199 2104 8F3F      		cpi r24,lo8(-1)
 6200 2106 9207      		cpc r25,r18
 6201 2108 01F0      		breq .L408
 6202 210a 0297      		sbiw r24,2
 6203 210c 01F4      		brne .L407
 6204 210e 00C0      		rjmp .L421
 6205               	.L408:
 6206               	.LM766:
 6207 2110 0E94 0000 		call turn_left
 6208 2114 0E94 0000 		call sense_of_directon
 6209               	.LVL192:
 6210               	.L407:
 6211               	.LM767:
 6212 2118 C230      		cpi r28,2
 6213 211a D105      		cpc r29,__zero_reg__
 6214 211c 01F4      		brne .L411
 6215               	.LM768:
 6216 211e 8091 0000 		lds r24,dir
 6217 2122 9091 0000 		lds r25,(dir)+1
 6218 2126 2FEF      		ldi r18,hi8(-1)
 6219 2128 8F3F      		cpi r24,lo8(-1)
 6220 212a 9207      		cpc r25,r18
 6221 212c 01F0      		breq .L412
 6222 212e 0197      		sbiw r24,1
 6223 2130 01F4      		brne .L411
 6224 2132 00C0      		rjmp .L417
 6225               	.L412:
 6226               	.LM769:
 6227 2134 0E94 0000 		call turn_right
 6228 2138 0E94 0000 		call sense_of_directon
 6229 213c 00C0      		rjmp .L414
 6230               	.LVL193:
 6231               	.L411:
 6232               	.LM770:
 6233 213e 8FEF      		ldi r24,hi8(-1)
 6234 2140 CF3F      		cpi r28,lo8(-1)
 6235 2142 D807      		cpc r29,r24
 6236 2144 01F4      		brne .L414
 6237               	.LM771:
 6238 2146 8091 0000 		lds r24,dir
 6239 214a 9091 0000 		lds r25,(dir)+1
 6240 214e 2FEF      		ldi r18,hi8(-2)
 6241 2150 8E3F      		cpi r24,lo8(-2)
 6242 2152 9207      		cpc r25,r18
 6243 2154 01F0      		breq .L421
 6244 2156 0297      		sbiw r24,2
 6245 2158 01F0      		breq .L417
 6246               	.L414:
 6247               	.LM772:
 6248 215a CE5F      		subi r28,lo8(-2)
 6249 215c DF4F      		sbci r29,hi8(-2)
 6250 215e 01F4      		brne .L410
 6251               	.LM773:
 6252 2160 8091 0000 		lds r24,dir
 6253 2164 9091 0000 		lds r25,(dir)+1
 6254 2168 2FEF      		ldi r18,hi8(-1)
 6255 216a 8F3F      		cpi r24,lo8(-1)
 6256 216c 9207      		cpc r25,r18
 6257 216e 01F0      		breq .L417
 6258 2170 0197      		sbiw r24,1
 6259 2172 01F4      		brne .L410
 6260               	.L421:
 6261               	.LM774:
 6262 2174 0E94 0000 		call turn_right
 6263 2178 00C0      		rjmp .L420
 6264               	.L417:
 6265               	.LM775:
 6266 217a 0E94 0000 		call turn_left
 6267               	.L420:
 6268 217e 0E94 0000 		call sense_of_directon
 6269               	.L410:
 6270               	.LBB616:
 6271               	.LBB617:
 6272               	.LM776:
 6273 2182 AC9A      		sbi 53-32,4
 6274               	.LM777:
 6275 2184 AD9A      		sbi 53-32,5
 6276               	.LM778:
 6277 2186 AE9A      		sbi 53-32,6
 6278               	.LM779:
 6279 2188 AF9A      		sbi 53-32,7
 6280               	.LBE617:
 6281               	.LBE616:
 6282               	.LM780:
 6283 218a 81E0      		ldi r24,lo8(1)
 6284 218c 90E0      		ldi r25,hi8(1)
 6285 218e 0E94 0000 		call delay_sec
 6286               	/* epilogue start */
 6287               	.LM781:
 6288 2192 DF91      		pop r29
 6289 2194 CF91      		pop r28
 6290               	.LVL194:
 6291 2196 0895      		ret
 6292               	.LFE74:
 6294               	.global	go_to_coordinate
 6296               	go_to_coordinate:
 6297               	.LFB73:
 6298               	.LM782:
 6299               	.LVL195:
 6300 2198 0F93      		push r16
 6301 219a 1F93      		push r17
 6302 219c CF93      		push r28
 6303 219e DF93      		push r29
 6304               	/* prologue: function */
 6305               	/* frame size = 0 */
 6306 21a0 EC01      		movw r28,r24
 6307 21a2 8B01      		movw r16,r22
 6308               	.LM783:
 6309 21a4 8091 0000 		lds r24,x_coordinate
 6310 21a8 9091 0000 		lds r25,(x_coordinate)+1
 6311               	.LVL196:
 6312 21ac 8C17      		cp r24,r28
 6313 21ae 9D07      		cpc r25,r29
 6314 21b0 04F4      		brge .L423
 6315               	.LVL197:
 6316               	.LM784:
 6317 21b2 1092 0000 		sts (right)+1,__zero_reg__
 6318 21b6 1092 0000 		sts right,__zero_reg__
 6319               	.LM785:
 6320 21ba 81E0      		ldi r24,lo8(1)
 6321 21bc 90E0      		ldi r25,hi8(1)
 6322 21be 0E94 0000 		call checkAndCorrectDirection
 6323 21c2 00C0      		rjmp .L424
 6324               	.L426:
 6325               	.LM786:
 6326 21c4 0E94 0000 		call line_track_new
 6327               	.LM787:
 6328 21c8 CF99      		sbic 57-32,7
 6329 21ca 00C0      		rjmp .L424
 6330               	.LM788:
 6331 21cc 81E0      		ldi r24,lo8(1)
 6332 21ce 90E0      		ldi r25,hi8(1)
 6333 21d0 9093 0000 		sts (right)+1,r25
 6334 21d4 8093 0000 		sts right,r24
 6335 21d8 00C0      		rjmp .L425
 6336               	.L424:
 6337               	.LM789:
 6338 21da CC99      		sbic 57-32,4
 6339 21dc 00C0      		rjmp .L426
 6340               	.L425:
 6341               	.LBB618:
 6342               	.LBB619:
 6343               	.LM790:
 6344 21de 8FE8      		ldi r24,lo8(399)
 6345 21e0 91E0      		ldi r25,hi8(399)
 6346 21e2 99BD      		out (72)+1-32,r25
 6347 21e4 88BD      		out 72-32,r24
 6348               	.LBE619:
 6349               	.LBE618:
 6350               	.LBB620:
 6351               	.LBB621:
 6352               	.LM791:
 6353 21e6 9BBD      		out (74)+1-32,r25
 6354 21e8 8ABD      		out 74-32,r24
 6355 21ea 00C0      		rjmp .L437
 6356               	.LVL198:
 6357               	.L423:
 6358               	.LBE621:
 6359               	.LBE620:
 6360               	.LM792:
 6361 21ec C817      		cp r28,r24
 6362 21ee D907      		cpc r29,r25
 6363 21f0 04F4      		brge .L428
 6364               	.LM793:
 6365 21f2 1092 0000 		sts (right)+1,__zero_reg__
 6366 21f6 1092 0000 		sts right,__zero_reg__
 6367               	.LM794:
 6368 21fa 8FEF      		ldi r24,lo8(-1)
 6369 21fc 9FEF      		ldi r25,hi8(-1)
 6370 21fe 0E94 0000 		call checkAndCorrectDirection
 6371 2202 00C0      		rjmp .L429
 6372               	.L431:
 6373               	.LM795:
 6374 2204 0E94 0000 		call line_track_new
 6375               	.LM796:
 6376 2208 CF9B      		sbis 57-32,7
 6377 220a 00C0      		rjmp .L444
 6378               	.L429:
 6379               	.LM797:
 6380 220c CC99      		sbic 57-32,4
 6381 220e 00C0      		rjmp .L431
 6382 2210 00C0      		rjmp .L437
 6383               	.LVL199:
 6384               	.L428:
 6385               	.LM798:
 6386 2212 8091 0000 		lds r24,y_coordinate
 6387 2216 9091 0000 		lds r25,(y_coordinate)+1
 6388 221a 8617      		cp r24,r22
 6389 221c 9707      		cpc r25,r23
 6390 221e 04F4      		brge .L432
 6391               	.LVL200:
 6392               	.LM799:
 6393 2220 1092 0000 		sts (right)+1,__zero_reg__
 6394 2224 1092 0000 		sts right,__zero_reg__
 6395               	.LM800:
 6396 2228 82E0      		ldi r24,lo8(2)
 6397 222a 90E0      		ldi r25,hi8(2)
 6398 222c 0E94 0000 		call checkAndCorrectDirection
 6399               	.LVL201:
 6400 2230 00C0      		rjmp .L433
 6401               	.L435:
 6402               	.LM801:
 6403 2232 0E94 0000 		call line_track_new
 6404               	.LM802:
 6405 2236 CF9B      		sbis 57-32,7
 6406 2238 00C0      		rjmp .L444
 6407               	.L433:
 6408               	.LM803:
 6409 223a CC99      		sbic 57-32,4
 6410 223c 00C0      		rjmp .L435
 6411 223e 00C0      		rjmp .L437
 6412               	.LVL202:
 6413               	.L432:
 6414               	.LM804:
 6415 2240 6817      		cp r22,r24
 6416 2242 7907      		cpc r23,r25
 6417 2244 04F4      		brge .L427
 6418               	.LM805:
 6419 2246 1092 0000 		sts (right)+1,__zero_reg__
 6420 224a 1092 0000 		sts right,__zero_reg__
 6421               	.LM806:
 6422 224e 8EEF      		ldi r24,lo8(-2)
 6423 2250 9FEF      		ldi r25,hi8(-2)
 6424 2252 0E94 0000 		call checkAndCorrectDirection
 6425               	.LVL203:
 6426 2256 00C0      		rjmp .L436
 6427               	.L438:
 6428               	.LM807:
 6429 2258 0E94 0000 		call line_track_new
 6430               	.LM808:
 6431 225c CF99      		sbic 57-32,7
 6432 225e 00C0      		rjmp .L436
 6433               	.L444:
 6434               	.LM809:
 6435 2260 81E0      		ldi r24,lo8(1)
 6436 2262 90E0      		ldi r25,hi8(1)
 6437 2264 9093 0000 		sts (right)+1,r25
 6438 2268 8093 0000 		sts right,r24
 6439 226c 00C0      		rjmp .L437
 6440               	.L436:
 6441               	.LM810:
 6442 226e CC99      		sbic 57-32,4
 6443 2270 00C0      		rjmp .L438
 6444               	.L437:
 6445               	.LBB622:
 6446               	.LBB623:
 6447               	.LM811:
 6448 2272 AC9A      		sbi 53-32,4
 6449               	.LM812:
 6450 2274 AD9A      		sbi 53-32,5
 6451               	.LM813:
 6452 2276 AE9A      		sbi 53-32,6
 6453               	.LM814:
 6454 2278 AF9A      		sbi 53-32,7
 6455               	.LVL204:
 6456               	.L427:
 6457               	.LBE623:
 6458               	.LBE622:
 6459               	.LM815:
 6460 227a D093 0000 		sts (x_coordinate)+1,r29
 6461 227e C093 0000 		sts x_coordinate,r28
 6462               	.LM816:
 6463 2282 1093 0000 		sts (y_coordinate)+1,r17
 6464 2286 0093 0000 		sts y_coordinate,r16
 6465               	.LM817:
 6466 228a 81E0      		ldi r24,lo8(1)
 6467 228c 60E0      		ldi r22,lo8(0)
 6468 228e 0E94 0000 		call lcd_byte
 6469               	.LM818:
 6470 2292 4091 0000 		lds r20,x_coordinate
 6471 2296 5091 0000 		lds r21,(x_coordinate)+1
 6472 229a 80E0      		ldi r24,lo8(0)
 6473 229c 90E0      		ldi r25,hi8(0)
 6474 229e 61E0      		ldi r22,lo8(1)
 6475 22a0 70E0      		ldi r23,hi8(1)
 6476 22a2 22E0      		ldi r18,lo8(2)
 6477 22a4 30E0      		ldi r19,hi8(2)
 6478 22a6 0E94 0000 		call lcd_write_int_xy
 6479               	.LM819:
 6480 22aa 4091 0000 		lds r20,y_coordinate
 6481 22ae 5091 0000 		lds r21,(y_coordinate)+1
 6482 22b2 85E0      		ldi r24,lo8(5)
 6483 22b4 90E0      		ldi r25,hi8(5)
 6484 22b6 61E0      		ldi r22,lo8(1)
 6485 22b8 70E0      		ldi r23,hi8(1)
 6486 22ba 22E0      		ldi r18,lo8(2)
 6487 22bc 30E0      		ldi r19,hi8(2)
 6488 22be 0E94 0000 		call lcd_write_int_xy
 6489               	.LM820:
 6490 22c2 4091 0000 		lds r20,irc
 6491 22c6 5091 0000 		lds r21,(irc)+1
 6492 22ca 83E0      		ldi r24,lo8(3)
 6493 22cc 90E0      		ldi r25,hi8(3)
 6494 22ce 60E0      		ldi r22,lo8(0)
 6495 22d0 70E0      		ldi r23,hi8(0)
 6496 22d2 25E0      		ldi r18,lo8(5)
 6497 22d4 30E0      		ldi r19,hi8(5)
 6498 22d6 0E94 0000 		call lcd_write_int_xy
 6499               	.LBB624:
 6500               	.LBB625:
 6501               	.LM821:
 6502 22da AC9A      		sbi 53-32,4
 6503               	.LM822:
 6504 22dc AD9A      		sbi 53-32,5
 6505               	.LM823:
 6506 22de AE9A      		sbi 53-32,6
 6507               	.LM824:
 6508 22e0 AF9A      		sbi 53-32,7
 6509               	.LBE625:
 6510               	.LBE624:
 6511               	.LM825:
 6512 22e2 84EF      		ldi r24,lo8(500)
 6513 22e4 91E0      		ldi r25,hi8(500)
 6514 22e6 0E94 0000 		call delay_millisec
 6515               	/* epilogue start */
 6516               	.LM826:
 6517 22ea DF91      		pop r29
 6518 22ec CF91      		pop r28
 6519               	.LVL205:
 6520 22ee 1F91      		pop r17
 6521 22f0 0F91      		pop r16
 6522               	.LVL206:
 6523 22f2 0895      		ret
 6524               	.LFE73:
 6526               	.global	map_all
 6528               	map_all:
 6529               	.LFB75:
 6530               	.LM827:
 6531 22f4 0F93      		push r16
 6532 22f6 1F93      		push r17
 6533 22f8 CF93      		push r28
 6534 22fa DF93      		push r29
 6535               	/* prologue: function */
 6536               	/* frame size = 0 */
 6537               	.LM828:
 6538 22fc 01E0      		ldi r16,lo8(1)
 6539 22fe 10E0      		ldi r17,hi8(1)
 6540               	.L463:
 6541               	.LM829:
 6542 2300 6091 0000 		lds r22,y_coordinate
 6543 2304 7091 0000 		lds r23,(y_coordinate)+1
 6544 2308 4091 0000 		lds r20,mx
 6545 230c 5091 0000 		lds r21,(mx)+1
 6546 2310 2091 0000 		lds r18,my
 6547 2314 3091 0000 		lds r19,(my)+1
 6548 2318 8091 0000 		lds r24,x_coordinate
 6549 231c 9091 0000 		lds r25,(x_coordinate)+1
 6550 2320 0E94 0000 		call build_map
 6551               	.LM830:
 6552 2324 0E94 0000 		call get_path
 6553               	.LM831:
 6554 2328 1092 0000 		sts (right)+1,__zero_reg__
 6555 232c 1092 0000 		sts right,__zero_reg__
 6556               	.LM832:
 6557 2330 81E0      		ldi r24,lo8(1)
 6558 2332 60E0      		ldi r22,lo8(0)
 6559 2334 0E94 0000 		call lcd_byte
 6560               	.LM833:
 6561 2338 4091 0000 		lds r20,path_array
 6562 233c 5091 0000 		lds r21,(path_array)+1
 6563 2340 80E0      		ldi r24,lo8(0)
 6564 2342 90E0      		ldi r25,hi8(0)
 6565 2344 60E0      		ldi r22,lo8(0)
 6566 2346 70E0      		ldi r23,hi8(0)
 6567 2348 22E0      		ldi r18,lo8(2)
 6568 234a 30E0      		ldi r19,hi8(2)
 6569 234c 0E94 0000 		call lcd_write_int_xy
 6570               	.LM834:
 6571 2350 4091 0000 		lds r20,path_array+2
 6572 2354 5091 0000 		lds r21,(path_array+2)+1
 6573 2358 83E0      		ldi r24,lo8(3)
 6574 235a 90E0      		ldi r25,hi8(3)
 6575 235c 60E0      		ldi r22,lo8(0)
 6576 235e 70E0      		ldi r23,hi8(0)
 6577 2360 22E0      		ldi r18,lo8(2)
 6578 2362 30E0      		ldi r19,hi8(2)
 6579 2364 0E94 0000 		call lcd_write_int_xy
 6580               	.LM835:
 6581 2368 4091 0000 		lds r20,path_array+4
 6582 236c 5091 0000 		lds r21,(path_array+4)+1
 6583 2370 86E0      		ldi r24,lo8(6)
 6584 2372 90E0      		ldi r25,hi8(6)
 6585 2374 60E0      		ldi r22,lo8(0)
 6586 2376 70E0      		ldi r23,hi8(0)
 6587 2378 22E0      		ldi r18,lo8(2)
 6588 237a 30E0      		ldi r19,hi8(2)
 6589 237c 0E94 0000 		call lcd_write_int_xy
 6590               	.LM836:
 6591 2380 4091 0000 		lds r20,path_array+6
 6592 2384 5091 0000 		lds r21,(path_array+6)+1
 6593 2388 89E0      		ldi r24,lo8(9)
 6594 238a 90E0      		ldi r25,hi8(9)
 6595 238c 60E0      		ldi r22,lo8(0)
 6596 238e 70E0      		ldi r23,hi8(0)
 6597 2390 22E0      		ldi r18,lo8(2)
 6598 2392 30E0      		ldi r19,hi8(2)
 6599 2394 0E94 0000 		call lcd_write_int_xy
 6600               	.LM837:
 6601 2398 84E0      		ldi r24,lo8(4)
 6602 239a 90E0      		ldi r25,hi8(4)
 6603 239c 0E94 0000 		call delay_sec
 6604 23a0 C0E0      		ldi r28,lo8(path_array)
 6605 23a2 D0E0      		ldi r29,hi8(path_array)
 6606               	.L451:
 6607               	.LBB626:
 6608               	.LM838:
 6609 23a4 8881      		ld r24,Y
 6610 23a6 9981      		ldd r25,Y+1
 6611 23a8 892B      		or r24,r25
 6612 23aa 01F4      		brne .L446
 6613 23ac 8A81      		ldd r24,Y+2
 6614 23ae 9B81      		ldd r25,Y+3
 6615 23b0 892B      		or r24,r25
 6616 23b2 01F0      		breq .L447
 6617               	.L446:
 6618               	.LM839:
 6619 23b4 8091 0000 		lds r24,right
 6620 23b8 9091 0000 		lds r25,(right)+1
 6621 23bc 0197      		sbiw r24,1
 6622 23be 01F4      		brne .L449
 6623 23c0 00C0      		rjmp .L461
 6624               	.L450:
 6625               	.LM840:
 6626 23c2 0E94 0000 		call line_track_new
 6627               	.L461:
 6628               	.LM841:
 6629 23c6 8799      		sbic 48-32,7
 6630 23c8 00C0      		rjmp .L450
 6631               	.L449:
 6632               	.LM842:
 6633 23ca 6A81      		ldd r22,Y+2
 6634 23cc 7B81      		ldd r23,Y+3
 6635 23ce 8881      		ld r24,Y
 6636 23d0 9981      		ldd r25,Y+1
 6637 23d2 0E94 0000 		call go_to_coordinate
 6638 23d6 2496      		adiw r28,4
 6639               	.LM843:
 6640 23d8 80E0      		ldi r24,hi8(path_array+60)
 6641 23da C030      		cpi r28,lo8(path_array+60)
 6642 23dc D807      		cpc r29,r24
 6643 23de 01F4      		brne .L451
 6644               	.L447:
 6645               	.LBE626:
 6646               	.LBB627:
 6647               	.LBB628:
 6648               	.LM844:
 6649 23e0 AC9A      		sbi 53-32,4
 6650               	.LM845:
 6651 23e2 AD9A      		sbi 53-32,5
 6652               	.LM846:
 6653 23e4 AE9A      		sbi 53-32,6
 6654               	.LM847:
 6655 23e6 AF9A      		sbi 53-32,7
 6656               	.LBE628:
 6657               	.LBE627:
 6658               	.LM848:
 6659 23e8 82E0      		ldi r24,lo8(2)
 6660 23ea 90E0      		ldi r25,hi8(2)
 6661 23ec 0E94 0000 		call delay_sec
 6662               	.LM849:
 6663 23f0 1092 0000 		sts (irc)+1,__zero_reg__
 6664 23f4 1092 0000 		sts irc,__zero_reg__
 6665               	.LM850:
 6666 23f8 1092 0000 		sts (Coordinates_changed_by)+1,__zero_reg__
 6667 23fc 1092 0000 		sts Coordinates_changed_by,__zero_reg__
 6668               	.LM851:
 6669 2400 8091 0000 		lds r24,right
 6670 2404 9091 0000 		lds r25,(right)+1
 6671 2408 0197      		sbiw r24,1
 6672 240a 01F4      		brne .L452
 6673               	.LM852:
 6674 240c 0E94 0000 		call right_junc_check
 6675 2410 00C0      		rjmp .L453
 6676               	.L452:
 6677               	.LM853:
 6678 2412 1093 0000 		sts (special_flag)+1,r17
 6679 2416 0093 0000 		sts special_flag,r16
 6680               	.LM854:
 6681 241a 0E94 0000 		call left_junc_check
 6682               	.L453:
 6683               	.LM855:
 6684 241e 1092 0000 		sts (irc)+1,__zero_reg__
 6685 2422 1092 0000 		sts irc,__zero_reg__
 6686               	.LM856:
 6687 2426 1092 0000 		sts (special_flag)+1,__zero_reg__
 6688 242a 1092 0000 		sts special_flag,__zero_reg__
 6689               	.LM857:
 6690 242e 1092 0000 		sts (repeat)+1,__zero_reg__
 6691 2432 1092 0000 		sts repeat,__zero_reg__
 6692 2436 00C0      		rjmp .L454
 6693               	.L456:
 6694               	.LM858:
 6695 2438 0E94 0000 		call line_track_new
 6696               	.LM859:
 6697 243c 85B3      		in r24,53-32
 6698 243e 807F      		andi r24,lo8(-16)
 6699 2440 85BB      		out 53-32,r24
 6700               	.LM860:
 6701 2442 85B3      		in r24,53-32
 6702 2444 9091 0000 		lds r25,sensorbyte
 6703 2448 892B      		or r24,r25
 6704 244a 85BB      		out 53-32,r24
 6705               	.LM861:
 6706 244c CF99      		sbic 57-32,7
 6707 244e 00C0      		rjmp .L455
 6708               	.LM862:
 6709 2450 0E94 0000 		call right_junc_check
 6710               	.L455:
 6711               	.LM863:
 6712 2454 0E94 0000 		call left_junc_check
 6713               	.LM864:
 6714 2458 0E94 0000 		call frSensorCheck
 6715               	.LM865:
 6716 245c 8091 0000 		lds r24,irc
 6717 2460 9091 0000 		lds r25,(irc)+1
 6718 2464 0196      		adiw r24,1
 6719 2466 9093 0000 		sts (irc)+1,r25
 6720 246a 8093 0000 		sts irc,r24
 6721               	.L454:
 6722               	.LM866:
 6723 246e 8091 0000 		lds r24,repeat
 6724 2472 9091 0000 		lds r25,(repeat)+1
 6725 2476 892B      		or r24,r25
 6726 2478 01F0      		breq .L456
 6727               	.LM867:
 6728 247a 0E94 0000 		call fill_missed_array
 6729               	.LM868:
 6730 247e 1092 0000 		sts (mx)+1,__zero_reg__
 6731 2482 1092 0000 		sts mx,__zero_reg__
 6732               	.LM869:
 6733 2486 1092 0000 		sts (my)+1,__zero_reg__
 6734 248a 1092 0000 		sts my,__zero_reg__
 6735               	.LM870:
 6736 248e 0E94 0000 		call coordinates_tobe_reached
 6737               	.LM871:
 6738 2492 8091 0000 		lds r24,mx
 6739 2496 9091 0000 		lds r25,(mx)+1
 6740 249a 892B      		or r24,r25
 6741 249c 01F0      		breq .+2
 6742 249e 00C0      		rjmp .L463
 6743 24a0 8091 0000 		lds r24,my
 6744 24a4 9091 0000 		lds r25,(my)+1
 6745 24a8 892B      		or r24,r25
 6746 24aa 01F0      		breq .+2
 6747 24ac 00C0      		rjmp .L463
 6748               	/* epilogue start */
 6749               	.LM872:
 6750 24ae DF91      		pop r29
 6751 24b0 CF91      		pop r28
 6752 24b2 1F91      		pop r17
 6753 24b4 0F91      		pop r16
 6754 24b6 0895      		ret
 6755               	.LFE75:
 6757               		.data
 6758               	.LC4:
 6759 0030 6D78 3A20 		.string	"mx: "
 6759      00
 6760               	.LC5:
 6761 0035 6D79 3A20 		.string	"my: "
 6761      00
 6762               	.LC6:
 6763 003a 783A 2000 		.string	"x: "
 6764               	.LC7:
 6765 003e 793A 2000 		.string	"y: "
 6766               	.LC8:
 6767 0042 5072 6573 		.string	"Press Any Key"
 6767      7320 416E 
 6767      7920 4B65 
 6767      7900 
 6768               	.LC9:
 6769 0050 3100      		.string	"1"
 6770               	.LC10:
 6771 0052 3000      		.string	"0"
 6772               		.text
 6773               	.global	right_junc_check
 6775               	right_junc_check:
 6776               	.LFB61:
 6777               	.LM873:
 6778 24b8 0F93      		push r16
 6779 24ba 1F93      		push r17
 6780 24bc CF93      		push r28
 6781 24be DF93      		push r29
 6782               	/* prologue: function */
 6783               	/* frame size = 0 */
 6784               	.LBB629:
 6785               	.LBB630:
 6786               	.LM874:
 6787 24c0 8FE8      		ldi r24,lo8(399)
 6788 24c2 91E0      		ldi r25,hi8(399)
 6789 24c4 9BBD      		out (74)+1-32,r25
 6790 24c6 8ABD      		out 74-32,r24
 6791               	.LBE630:
 6792               	.LBE629:
 6793               	.LBB631:
 6794               	.LBB632:
 6795               	.LM875:
 6796 24c8 99BD      		out (72)+1-32,r25
 6797 24ca 88BD      		out 72-32,r24
 6798               	.LBE632:
 6799               	.LBE631:
 6800               	.LBB633:
 6801               	.LBB634:
 6802               	.LM876:
 6803 24cc AC9A      		sbi 53-32,4
 6804               	.LM877:
 6805 24ce AD9A      		sbi 53-32,5
 6806               	.LM878:
 6807 24d0 AE9A      		sbi 53-32,6
 6808               	.LM879:
 6809 24d2 AF9A      		sbi 53-32,7
 6810               	.LBE634:
 6811               	.LBE633:
 6812               	.LM880:
 6813 24d4 81E0      		ldi r24,lo8(1)
 6814 24d6 60E0      		ldi r22,lo8(0)
 6815 24d8 0E94 0000 		call lcd_byte
 6816               	.LM881:
 6817 24dc 2091 0000 		lds r18,irc
 6818 24e0 3091 0000 		lds r19,(irc)+1
 6819 24e4 87E0      		ldi r24,hi8(2001)
 6820 24e6 213D      		cpi r18,lo8(2001)
 6821 24e8 3807      		cpc r19,r24
 6822 24ea 04F0      		brlt .L465
 6823               	.LM882:
 6824 24ec 82E0      		ldi r24,lo8(2)
 6825 24ee 90E0      		ldi r25,hi8(2)
 6826 24f0 00C0      		rjmp .L495
 6827               	.L465:
 6828               	.LM883:
 6829 24f2 81E0      		ldi r24,lo8(1)
 6830 24f4 90E0      		ldi r25,hi8(1)
 6831               	.L495:
 6832 24f6 9093 0000 		sts (Coordinates_changed_by)+1,r25
 6833 24fa 8093 0000 		sts Coordinates_changed_by,r24
 6834               	.LM884:
 6835 24fe 232B      		or r18,r19
 6836 2500 01F4      		brne .L467
 6837               	.LM885:
 6838 2502 1092 0000 		sts (Coordinates_changed_by)+1,__zero_reg__
 6839 2506 1092 0000 		sts Coordinates_changed_by,__zero_reg__
 6840               	.L467:
 6841               	.LM886:
 6842 250a 0E94 0000 		call update_coordinates
 6843               	.LM887:
 6844 250e 8091 0000 		lds r24,lcount
 6845 2512 9091 0000 		lds r25,(lcount)+1
 6846 2516 9093 0000 		sts (lcountPrev)+1,r25
 6847 251a 8093 0000 		sts lcountPrev,r24
 6848 251e 00C0      		rjmp .L468
 6849               	.L469:
 6850               	.LM888:
 6851 2520 0E94 0000 		call line_track_new
 6852               	.LM889:
 6853 2524 0E94 0000 		call left_count
 6854               	.L468:
 6855               	.LM890:
 6856 2528 8799      		sbic 48-32,7
 6857 252a 00C0      		rjmp .L469
 6858               	.LM891:
 6859 252c CE99      		sbic 57-32,6
 6860 252e 00C0      		rjmp .L470
 6861 2530 8699      		sbic 48-32,6
 6862 2532 00C0      		rjmp .L470
 6863 2534 CD99      		sbic 57-32,5
 6864 2536 00C0      		rjmp .L470
 6865 2538 CF99      		sbic 57-32,7
 6866 253a 00C0      		rjmp .L470
 6867               	.LBB635:
 6868               	.LM892:
 6869 253c C091 0000 		lds r28,x_coordinate
 6870 2540 D091 0000 		lds r29,(x_coordinate)+1
 6871               	.LVL207:
 6872 2544 0091 0000 		lds r16,y_coordinate
 6873 2548 1091 0000 		lds r17,(y_coordinate)+1
 6874               	.LVL208:
 6875               	.LM893:
 6876 254c 80E0      		ldi r24,lo8(0)
 6877 254e 90E0      		ldi r25,hi8(0)
 6878 2550 60E0      		ldi r22,lo8(0)
 6879 2552 70E0      		ldi r23,hi8(0)
 6880 2554 41E0      		ldi r20,lo8(1)
 6881 2556 50E0      		ldi r21,hi8(1)
 6882 2558 20E0      		ldi r18,lo8(0)
 6883 255a 30E0      		ldi r19,hi8(0)
 6884 255c 0E94 0000 		call update_array
 6885               	.LM894:
 6886 2560 81E0      		ldi r24,lo8(1)
 6887 2562 60E0      		ldi r22,lo8(0)
 6888 2564 0E94 0000 		call lcd_byte
 6889               	.LBB645:
 6890               	.LBB646:
 6891               	.LM895:
 6892 2568 AC9A      		sbi 53-32,4
 6893               	.LM896:
 6894 256a AD9A      		sbi 53-32,5
 6895               	.LM897:
 6896 256c AE9A      		sbi 53-32,6
 6897               	.LM898:
 6898 256e AF9A      		sbi 53-32,7
 6899               	.LBE646:
 6900               	.LBE645:
 6901               	.LM899:
 6902 2570 81E0      		ldi r24,lo8(1)
 6903 2572 90E0      		ldi r25,hi8(1)
 6904 2574 0E94 0000 		call delay_sec
 6905               	.LM900:
 6906 2578 0E94 0000 		call end_zone_uturn
 6907               	.LM901:
 6908 257c 0E94 0000 		call sense_of_directon
 6909               	.LM902:
 6910 2580 0E94 0000 		call fill_missed_array
 6911               	.LM903:
 6912 2584 0E94 0000 		call coordinates_tobe_reached
 6913               	.LM904:
 6914 2588 0E94 0000 		call flick
 6915               	.LM905:
 6916 258c 81E0      		ldi r24,lo8(1)
 6917 258e 60E0      		ldi r22,lo8(0)
 6918 2590 0E94 0000 		call lcd_byte
 6919               	.LM906:
 6920 2594 80E0      		ldi r24,lo8(0)
 6921 2596 90E0      		ldi r25,hi8(0)
 6922 2598 60E0      		ldi r22,lo8(0)
 6923 259a 70E0      		ldi r23,hi8(0)
 6924 259c 40E0      		ldi r20,lo8(.LC4)
 6925 259e 50E0      		ldi r21,hi8(.LC4)
 6926 25a0 0E94 0000 		call lcd_write_string_xy
 6927               	.LM907:
 6928 25a4 4091 0000 		lds r20,mx
 6929 25a8 5091 0000 		lds r21,(mx)+1
 6930 25ac 84E0      		ldi r24,lo8(4)
 6931 25ae 90E0      		ldi r25,hi8(4)
 6932 25b0 60E0      		ldi r22,lo8(0)
 6933 25b2 70E0      		ldi r23,hi8(0)
 6934 25b4 22E0      		ldi r18,lo8(2)
 6935 25b6 30E0      		ldi r19,hi8(2)
 6936 25b8 0E94 0000 		call lcd_write_int_xy
 6937               	.LM908:
 6938 25bc 87E0      		ldi r24,lo8(7)
 6939 25be 90E0      		ldi r25,hi8(7)
 6940 25c0 60E0      		ldi r22,lo8(0)
 6941 25c2 70E0      		ldi r23,hi8(0)
 6942 25c4 40E0      		ldi r20,lo8(.LC5)
 6943 25c6 50E0      		ldi r21,hi8(.LC5)
 6944 25c8 0E94 0000 		call lcd_write_string_xy
 6945               	.LM909:
 6946 25cc 4091 0000 		lds r20,my
 6947 25d0 5091 0000 		lds r21,(my)+1
 6948 25d4 8BE0      		ldi r24,lo8(11)
 6949 25d6 90E0      		ldi r25,hi8(11)
 6950 25d8 60E0      		ldi r22,lo8(0)
 6951 25da 70E0      		ldi r23,hi8(0)
 6952 25dc 22E0      		ldi r18,lo8(2)
 6953 25de 30E0      		ldi r19,hi8(2)
 6954 25e0 0E94 0000 		call lcd_write_int_xy
 6955               	.LM910:
 6956 25e4 80E0      		ldi r24,lo8(0)
 6957 25e6 90E0      		ldi r25,hi8(0)
 6958 25e8 61E0      		ldi r22,lo8(1)
 6959 25ea 70E0      		ldi r23,hi8(1)
 6960 25ec 40E0      		ldi r20,lo8(.LC6)
 6961 25ee 50E0      		ldi r21,hi8(.LC6)
 6962 25f0 0E94 0000 		call lcd_write_string_xy
 6963               	.LM911:
 6964 25f4 4091 0000 		lds r20,x_coordinate
 6965 25f8 5091 0000 		lds r21,(x_coordinate)+1
 6966 25fc 84E0      		ldi r24,lo8(4)
 6967 25fe 90E0      		ldi r25,hi8(4)
 6968 2600 61E0      		ldi r22,lo8(1)
 6969 2602 70E0      		ldi r23,hi8(1)
 6970 2604 22E0      		ldi r18,lo8(2)
 6971 2606 30E0      		ldi r19,hi8(2)
 6972 2608 0E94 0000 		call lcd_write_int_xy
 6973               	.LM912:
 6974 260c 87E0      		ldi r24,lo8(7)
 6975 260e 90E0      		ldi r25,hi8(7)
 6976 2610 61E0      		ldi r22,lo8(1)
 6977 2612 70E0      		ldi r23,hi8(1)
 6978 2614 40E0      		ldi r20,lo8(.LC7)
 6979 2616 50E0      		ldi r21,hi8(.LC7)
 6980 2618 0E94 0000 		call lcd_write_string_xy
 6981               	.LM913:
 6982 261c 4091 0000 		lds r20,y_coordinate
 6983 2620 5091 0000 		lds r21,(y_coordinate)+1
 6984 2624 8BE0      		ldi r24,lo8(11)
 6985 2626 90E0      		ldi r25,hi8(11)
 6986 2628 61E0      		ldi r22,lo8(1)
 6987 262a 70E0      		ldi r23,hi8(1)
 6988 262c 22E0      		ldi r18,lo8(2)
 6989 262e 30E0      		ldi r19,hi8(2)
 6990 2630 0E94 0000 		call lcd_write_int_xy
 6991               	.LM914:
 6992 2634 85E0      		ldi r24,lo8(5)
 6993 2636 90E0      		ldi r25,hi8(5)
 6994 2638 0E94 0000 		call delay_sec
 6995               	.LM915:
 6996 263c 8091 0000 		lds r24,mx
 6997 2640 9091 0000 		lds r25,(mx)+1
 6998 2644 892B      		or r24,r25
 6999 2646 01F0      		breq .L471
 7000 2648 8091 0000 		lds r24,my
 7001 264c 9091 0000 		lds r25,(my)+1
 7002 2650 892B      		or r24,r25
 7003 2652 01F0      		breq .L471
 7004               	.LM916:
 7005 2654 0E94 0000 		call map_all
 7006               	.L471:
 7007               	.LM917:
 7008 2658 84E0      		ldi r24,lo8(4)
 7009 265a 90E0      		ldi r25,hi8(4)
 7010 265c 9093 0000 		sts (x_coordinate)+1,r25
 7011 2660 8093 0000 		sts x_coordinate,r24
 7012               	.LM918:
 7013 2664 9093 0000 		sts (y_coordinate)+1,r25
 7014 2668 8093 0000 		sts y_coordinate,r24
 7015               	.LM919:
 7016 266c 82E0      		ldi r24,lo8(2)
 7017 266e 90E0      		ldi r25,hi8(2)
 7018 2670 9093 0000 		sts (dir)+1,r25
 7019 2674 8093 0000 		sts dir,r24
 7020               	.LM920:
 7021 2678 80E0      		ldi r24,lo8(.LC8)
 7022 267a 90E0      		ldi r25,hi8(.LC8)
 7023 267c 0E94 0000 		call lcd_write_string
 7024               	.L488:
 7025               	.LBB643:
 7026               	.LBB644:
 7027               	.LM921:
 7028 2680 8299      		sbic 48-32,2
 7029 2682 00C0      		rjmp .L472
 7030               	.L487:
 7031               	.LBE644:
 7032               	.LBE643:
 7033               	.LM922:
 7034 2684 84E0      		ldi r24,lo8(4)
 7035 2686 90E0      		ldi r25,hi8(4)
 7036 2688 64E0      		ldi r22,lo8(4)
 7037 268a 70E0      		ldi r23,hi8(4)
 7038 268c AE01      		movw r20,r28
 7039 268e 9801      		movw r18,r16
 7040 2690 0E94 0000 		call build_map
 7041               	.LM923:
 7042 2694 0E94 0000 		call get_path
 7043               	.LM924:
 7044 2698 1092 0000 		sts (right)+1,__zero_reg__
 7045 269c 1092 0000 		sts right,__zero_reg__
 7046               	.LM925:
 7047 26a0 81E0      		ldi r24,lo8(1)
 7048 26a2 60E0      		ldi r22,lo8(0)
 7049 26a4 0E94 0000 		call lcd_byte
 7050               	.LM926:
 7051 26a8 80E0      		ldi r24,lo8(0)
 7052 26aa 90E0      		ldi r25,hi8(0)
 7053 26ac 60E0      		ldi r22,lo8(0)
 7054 26ae 70E0      		ldi r23,hi8(0)
 7055 26b0 AE01      		movw r20,r28
 7056 26b2 22E0      		ldi r18,lo8(2)
 7057 26b4 30E0      		ldi r19,hi8(2)
 7058 26b6 0E94 0000 		call lcd_write_int_xy
 7059               	.LM927:
 7060 26ba 85E0      		ldi r24,lo8(5)
 7061 26bc 90E0      		ldi r25,hi8(5)
 7062 26be 60E0      		ldi r22,lo8(0)
 7063 26c0 70E0      		ldi r23,hi8(0)
 7064 26c2 A801      		movw r20,r16
 7065 26c4 22E0      		ldi r18,lo8(2)
 7066 26c6 30E0      		ldi r19,hi8(2)
 7067 26c8 0E94 0000 		call lcd_write_int_xy
 7068               	.LM928:
 7069 26cc 85E0      		ldi r24,lo8(5)
 7070 26ce 90E0      		ldi r25,hi8(5)
 7071 26d0 0E94 0000 		call delay_sec
 7072               	.LM929:
 7073 26d4 4091 0000 		lds r20,path_array
 7074 26d8 5091 0000 		lds r21,(path_array)+1
 7075 26dc 80E0      		ldi r24,lo8(0)
 7076 26de 90E0      		ldi r25,hi8(0)
 7077 26e0 60E0      		ldi r22,lo8(0)
 7078 26e2 70E0      		ldi r23,hi8(0)
 7079 26e4 21E0      		ldi r18,lo8(1)
 7080 26e6 30E0      		ldi r19,hi8(1)
 7081 26e8 0E94 0000 		call lcd_write_int_xy
 7082               	.LM930:
 7083 26ec 4091 0000 		lds r20,path_array+2
 7084 26f0 5091 0000 		lds r21,(path_array+2)+1
 7085 26f4 81E0      		ldi r24,lo8(1)
 7086 26f6 90E0      		ldi r25,hi8(1)
 7087 26f8 60E0      		ldi r22,lo8(0)
 7088 26fa 70E0      		ldi r23,hi8(0)
 7089 26fc 21E0      		ldi r18,lo8(1)
 7090 26fe 30E0      		ldi r19,hi8(1)
 7091 2700 0E94 0000 		call lcd_write_int_xy
 7092               	.LM931:
 7093 2704 4091 0000 		lds r20,path_array+4
 7094 2708 5091 0000 		lds r21,(path_array+4)+1
 7095 270c 83E0      		ldi r24,lo8(3)
 7096 270e 90E0      		ldi r25,hi8(3)
 7097 2710 60E0      		ldi r22,lo8(0)
 7098 2712 70E0      		ldi r23,hi8(0)
 7099 2714 21E0      		ldi r18,lo8(1)
 7100 2716 30E0      		ldi r19,hi8(1)
 7101 2718 0E94 0000 		call lcd_write_int_xy
 7102               	.LM932:
 7103 271c 4091 0000 		lds r20,path_array+6
 7104 2720 5091 0000 		lds r21,(path_array+6)+1
 7105 2724 84E0      		ldi r24,lo8(4)
 7106 2726 90E0      		ldi r25,hi8(4)
 7107 2728 60E0      		ldi r22,lo8(0)
 7108 272a 70E0      		ldi r23,hi8(0)
 7109 272c 21E0      		ldi r18,lo8(1)
 7110 272e 30E0      		ldi r19,hi8(1)
 7111 2730 0E94 0000 		call lcd_write_int_xy
 7112               	.LM933:
 7113 2734 4091 0000 		lds r20,path_array+8
 7114 2738 5091 0000 		lds r21,(path_array+8)+1
 7115 273c 86E0      		ldi r24,lo8(6)
 7116 273e 90E0      		ldi r25,hi8(6)
 7117 2740 60E0      		ldi r22,lo8(0)
 7118 2742 70E0      		ldi r23,hi8(0)
 7119 2744 21E0      		ldi r18,lo8(1)
 7120 2746 30E0      		ldi r19,hi8(1)
 7121 2748 0E94 0000 		call lcd_write_int_xy
 7122               	.LM934:
 7123 274c 4091 0000 		lds r20,path_array+10
 7124 2750 5091 0000 		lds r21,(path_array+10)+1
 7125 2754 87E0      		ldi r24,lo8(7)
 7126 2756 90E0      		ldi r25,hi8(7)
 7127 2758 60E0      		ldi r22,lo8(0)
 7128 275a 70E0      		ldi r23,hi8(0)
 7129 275c 21E0      		ldi r18,lo8(1)
 7130 275e 30E0      		ldi r19,hi8(1)
 7131 2760 0E94 0000 		call lcd_write_int_xy
 7132               	.LM935:
 7133 2764 4091 0000 		lds r20,path_array+12
 7134 2768 5091 0000 		lds r21,(path_array+12)+1
 7135 276c 89E0      		ldi r24,lo8(9)
 7136 276e 90E0      		ldi r25,hi8(9)
 7137 2770 60E0      		ldi r22,lo8(0)
 7138 2772 70E0      		ldi r23,hi8(0)
 7139 2774 21E0      		ldi r18,lo8(1)
 7140 2776 30E0      		ldi r19,hi8(1)
 7141 2778 0E94 0000 		call lcd_write_int_xy
 7142               	.LM936:
 7143 277c 4091 0000 		lds r20,path_array+14
 7144 2780 5091 0000 		lds r21,(path_array+14)+1
 7145 2784 8AE0      		ldi r24,lo8(10)
 7146 2786 90E0      		ldi r25,hi8(10)
 7147 2788 60E0      		ldi r22,lo8(0)
 7148 278a 70E0      		ldi r23,hi8(0)
 7149 278c 21E0      		ldi r18,lo8(1)
 7150 278e 30E0      		ldi r19,hi8(1)
 7151 2790 0E94 0000 		call lcd_write_int_xy
 7152               	.LM937:
 7153 2794 4091 0000 		lds r20,path_array+16
 7154 2798 5091 0000 		lds r21,(path_array+16)+1
 7155 279c 8CE0      		ldi r24,lo8(12)
 7156 279e 90E0      		ldi r25,hi8(12)
 7157 27a0 60E0      		ldi r22,lo8(0)
 7158 27a2 70E0      		ldi r23,hi8(0)
 7159 27a4 21E0      		ldi r18,lo8(1)
 7160 27a6 30E0      		ldi r19,hi8(1)
 7161 27a8 0E94 0000 		call lcd_write_int_xy
 7162               	.LM938:
 7163 27ac 4091 0000 		lds r20,path_array+18
 7164 27b0 5091 0000 		lds r21,(path_array+18)+1
 7165 27b4 8DE0      		ldi r24,lo8(13)
 7166 27b6 90E0      		ldi r25,hi8(13)
 7167 27b8 60E0      		ldi r22,lo8(0)
 7168 27ba 70E0      		ldi r23,hi8(0)
 7169 27bc 21E0      		ldi r18,lo8(1)
 7170 27be 30E0      		ldi r19,hi8(1)
 7171 27c0 0E94 0000 		call lcd_write_int_xy
 7172               	.LM939:
 7173 27c4 4091 0000 		lds r20,path_array+20
 7174 27c8 5091 0000 		lds r21,(path_array+20)+1
 7175 27cc 80E0      		ldi r24,lo8(0)
 7176 27ce 90E0      		ldi r25,hi8(0)
 7177 27d0 61E0      		ldi r22,lo8(1)
 7178 27d2 70E0      		ldi r23,hi8(1)
 7179 27d4 21E0      		ldi r18,lo8(1)
 7180 27d6 30E0      		ldi r19,hi8(1)
 7181 27d8 0E94 0000 		call lcd_write_int_xy
 7182               	.LM940:
 7183 27dc 4091 0000 		lds r20,path_array+22
 7184 27e0 5091 0000 		lds r21,(path_array+22)+1
 7185 27e4 81E0      		ldi r24,lo8(1)
 7186 27e6 90E0      		ldi r25,hi8(1)
 7187 27e8 61E0      		ldi r22,lo8(1)
 7188 27ea 70E0      		ldi r23,hi8(1)
 7189 27ec 21E0      		ldi r18,lo8(1)
 7190 27ee 30E0      		ldi r19,hi8(1)
 7191 27f0 0E94 0000 		call lcd_write_int_xy
 7192               	.LBB641:
 7193               	.LBB642:
 7194               	.LM941:
 7195 27f4 AC9A      		sbi 53-32,4
 7196               	.LM942:
 7197 27f6 AD9A      		sbi 53-32,5
 7198               	.LM943:
 7199 27f8 AE9A      		sbi 53-32,6
 7200               	.LM944:
 7201 27fa AF9A      		sbi 53-32,7
 7202               	.L490:
 7203               	.LBE642:
 7204               	.LBE641:
 7205               	.LBB639:
 7206               	.LBB640:
 7207               	.LM945:
 7208 27fc 8299      		sbic 48-32,2
 7209 27fe 00C0      		rjmp .L473
 7210               	.L489:
 7211               	.LBE640:
 7212               	.LBE639:
 7213               	.LM946:
 7214 2800 81E0      		ldi r24,lo8(1)
 7215 2802 60E0      		ldi r22,lo8(0)
 7216 2804 0E94 0000 		call lcd_byte
 7217               	.LM947:
 7218 2808 81E0      		ldi r24,lo8(1)
 7219 280a 90E0      		ldi r25,hi8(1)
 7220 280c 0E94 0000 		call delay_sec
 7221 2810 C0E0      		ldi r28,lo8(path_array)
 7222 2812 D0E0      		ldi r29,hi8(path_array)
 7223               	.LVL209:
 7224               	.L479:
 7225               	.LBB638:
 7226               	.LM948:
 7227 2814 8881      		ld r24,Y
 7228 2816 9981      		ldd r25,Y+1
 7229 2818 892B      		or r24,r25
 7230 281a 01F4      		brne .L474
 7231 281c 8A81      		ldd r24,Y+2
 7232 281e 9B81      		ldd r25,Y+3
 7233 2820 892B      		or r24,r25
 7234 2822 01F0      		breq .L493
 7235               	.L474:
 7236               	.LM949:
 7237 2824 8091 0000 		lds r24,right
 7238 2828 9091 0000 		lds r25,(right)+1
 7239 282c 0197      		sbiw r24,1
 7240 282e 01F4      		brne .L477
 7241 2830 00C0      		rjmp .L494
 7242               	.L478:
 7243               	.LM950:
 7244 2832 0E94 0000 		call line_track_new
 7245               	.L494:
 7246               	.LM951:
 7247 2836 8799      		sbic 48-32,7
 7248 2838 00C0      		rjmp .L478
 7249               	.L477:
 7250               	.LM952:
 7251 283a 6A81      		ldd r22,Y+2
 7252 283c 7B81      		ldd r23,Y+3
 7253 283e 8881      		ld r24,Y
 7254 2840 9981      		ldd r25,Y+1
 7255 2842 0E94 0000 		call go_to_coordinate
 7256 2846 2496      		adiw r28,4
 7257               	.LM953:
 7258 2848 80E0      		ldi r24,hi8(path_array+60)
 7259 284a C030      		cpi r28,lo8(path_array+60)
 7260 284c D807      		cpc r29,r24
 7261 284e 01F4      		brne .L479
 7262               	.L493:
 7263               	.LBE638:
 7264               	.LBB636:
 7265               	.LBB637:
 7266               	.LM954:
 7267 2850 AC98      		cbi 53-32,4
 7268               	.LM955:
 7269 2852 AD98      		cbi 53-32,5
 7270               	.LM956:
 7271 2854 AE98      		cbi 53-32,6
 7272               	.LM957:
 7273 2856 AF98      		cbi 53-32,7
 7274 2858 00C0      		rjmp .L493
 7275               	.LVL210:
 7276               	.L470:
 7277               	.LBE637:
 7278               	.LBE636:
 7279               	.LBE635:
 7280               	.LM958:
 7281 285a CE9B      		sbis 57-32,6
 7282 285c 00C0      		rjmp .L480
 7283 285e 8699      		sbic 48-32,6
 7284 2860 00C0      		rjmp .L481
 7285               	.L480:
 7286               	.LM959:
 7287 2862 81E0      		ldi r24,lo8(1)
 7288 2864 90E0      		ldi r25,hi8(1)
 7289 2866 9093 0000 		sts (straight)+1,r25
 7290 286a 8093 0000 		sts straight,r24
 7291 286e 00C0      		rjmp .L482
 7292               	.L481:
 7293               	.LM960:
 7294 2870 1092 0000 		sts (straight)+1,__zero_reg__
 7295 2874 1092 0000 		sts straight,__zero_reg__
 7296               	.L482:
 7297               	.LM961:
 7298 2878 0E94 0000 		call turn_right
 7299               	.LM962:
 7300 287c 1092 0000 		sts (l)+1,__zero_reg__
 7301 2880 1092 0000 		sts l,__zero_reg__
 7302               	.LBB659:
 7303               	.LBB660:
 7304               	.LM963:
 7305 2884 AC9A      		sbi 53-32,4
 7306               	.LM964:
 7307 2886 AD9A      		sbi 53-32,5
 7308               	.LM965:
 7309 2888 AE9A      		sbi 53-32,6
 7310               	.LM966:
 7311 288a AF9A      		sbi 53-32,7
 7312               	.LBE660:
 7313               	.LBE659:
 7314               	.LM967:
 7315 288c 1092 0000 		sts (flag1)+1,__zero_reg__
 7316 2890 1092 0000 		sts flag1,__zero_reg__
 7317               	.LM968:
 7318 2894 1092 0000 		sts (irc)+1,__zero_reg__
 7319 2898 1092 0000 		sts irc,__zero_reg__
 7320               	.LM969:
 7321 289c 2091 0000 		lds r18,lcount
 7322 28a0 3091 0000 		lds r19,(lcount)+1
 7323 28a4 8091 0000 		lds r24,lcountPrev
 7324 28a8 9091 0000 		lds r25,(lcountPrev)+1
 7325 28ac 281B      		sub r18,r24
 7326 28ae 390B      		sbc r19,r25
 7327 28b0 3093 0000 		sts (temp)+1,r19
 7328 28b4 2093 0000 		sts temp,r18
 7329               	.LM970:
 7330 28b8 8091 0000 		lds r24,straight
 7331 28bc 9091 0000 		lds r25,(straight)+1
 7332 28c0 8130      		cpi r24,1
 7333 28c2 9105      		cpc r25,__zero_reg__
 7334 28c4 01F4      		brne .L483
 7335 28c6 2130      		cpi r18,1
 7336 28c8 3105      		cpc r19,__zero_reg__
 7337 28ca 01F0      		breq .+2
 7338 28cc 00C0      		rjmp .L484
 7339               	.LM971:
 7340 28ce 81E0      		ldi r24,lo8(1)
 7341 28d0 90E0      		ldi r25,hi8(1)
 7342 28d2 61E0      		ldi r22,lo8(1)
 7343 28d4 70E0      		ldi r23,hi8(1)
 7344 28d6 41E0      		ldi r20,lo8(1)
 7345 28d8 50E0      		ldi r21,hi8(1)
 7346 28da 20E0      		ldi r18,lo8(0)
 7347 28dc 30E0      		ldi r19,hi8(0)
 7348 28de 0E94 0000 		call update_array
 7349               	.LM972:
 7350 28e2 80E0      		ldi r24,lo8(0)
 7351 28e4 90E0      		ldi r25,hi8(0)
 7352 28e6 61E0      		ldi r22,lo8(1)
 7353 28e8 70E0      		ldi r23,hi8(1)
 7354 28ea 40E0      		ldi r20,lo8(.LC9)
 7355 28ec 50E0      		ldi r21,hi8(.LC9)
 7356 28ee 00C0      		rjmp .L497
 7357               	.L483:
 7358               	.LM973:
 7359 28f0 892B      		or r24,r25
 7360 28f2 01F0      		breq .+2
 7361 28f4 00C0      		rjmp .L485
 7362 28f6 2130      		cpi r18,1
 7363 28f8 3105      		cpc r19,__zero_reg__
 7364 28fa 01F4      		brne .L486
 7365               	.LM974:
 7366 28fc 80E0      		ldi r24,lo8(0)
 7367 28fe 90E0      		ldi r25,hi8(0)
 7368 2900 61E0      		ldi r22,lo8(1)
 7369 2902 70E0      		ldi r23,hi8(1)
 7370 2904 41E0      		ldi r20,lo8(1)
 7371 2906 50E0      		ldi r21,hi8(1)
 7372 2908 21E0      		ldi r18,lo8(1)
 7373 290a 30E0      		ldi r19,hi8(1)
 7374 290c 0E94 0000 		call update_array
 7375               	.LM975:
 7376 2910 80E0      		ldi r24,lo8(0)
 7377 2912 90E0      		ldi r25,hi8(0)
 7378 2914 61E0      		ldi r22,lo8(1)
 7379 2916 70E0      		ldi r23,hi8(1)
 7380 2918 40E0      		ldi r20,lo8(.LC10)
 7381 291a 50E0      		ldi r21,hi8(.LC10)
 7382 291c 00C0      		rjmp .L498
 7383               	.L486:
 7384               	.LM976:
 7385 291e 232B      		or r18,r19
 7386 2920 01F0      		breq .+2
 7387 2922 00C0      		rjmp .L485
 7388               	.LM977:
 7389 2924 80E0      		ldi r24,lo8(0)
 7390 2926 90E0      		ldi r25,hi8(0)
 7391 2928 61E0      		ldi r22,lo8(1)
 7392 292a 70E0      		ldi r23,hi8(1)
 7393 292c 41E0      		ldi r20,lo8(1)
 7394 292e 50E0      		ldi r21,hi8(1)
 7395 2930 20E0      		ldi r18,lo8(0)
 7396 2932 30E0      		ldi r19,hi8(0)
 7397 2934 0E94 0000 		call update_array
 7398               	.LM978:
 7399 2938 80E0      		ldi r24,lo8(0)
 7400 293a 90E0      		ldi r25,hi8(0)
 7401 293c 61E0      		ldi r22,lo8(1)
 7402 293e 70E0      		ldi r23,hi8(1)
 7403 2940 40E0      		ldi r20,lo8(.LC10)
 7404 2942 50E0      		ldi r21,hi8(.LC10)
 7405               	.L497:
 7406 2944 0E94 0000 		call lcd_write_string_xy
 7407               	.LM979:
 7408 2948 82E0      		ldi r24,lo8(2)
 7409 294a 90E0      		ldi r25,hi8(2)
 7410 294c 61E0      		ldi r22,lo8(1)
 7411 294e 70E0      		ldi r23,hi8(1)
 7412 2950 40E0      		ldi r20,lo8(.LC9)
 7413 2952 50E0      		ldi r21,hi8(.LC9)
 7414 2954 0E94 0000 		call lcd_write_string_xy
 7415               	.LM980:
 7416 2958 84E0      		ldi r24,lo8(4)
 7417 295a 90E0      		ldi r25,hi8(4)
 7418 295c 61E0      		ldi r22,lo8(1)
 7419 295e 70E0      		ldi r23,hi8(1)
 7420 2960 40E0      		ldi r20,lo8(.LC9)
 7421 2962 50E0      		ldi r21,hi8(.LC9)
 7422 2964 0E94 0000 		call lcd_write_string_xy
 7423               	.LM981:
 7424 2968 86E0      		ldi r24,lo8(6)
 7425 296a 90E0      		ldi r25,hi8(6)
 7426 296c 61E0      		ldi r22,lo8(1)
 7427 296e 70E0      		ldi r23,hi8(1)
 7428 2970 40E0      		ldi r20,lo8(.LC10)
 7429 2972 50E0      		ldi r21,hi8(.LC10)
 7430 2974 00C0      		rjmp .L496
 7431               	.L484:
 7432               	.LM982:
 7433 2976 2230      		cpi r18,2
 7434 2978 3105      		cpc r19,__zero_reg__
 7435 297a 01F4      		brne .L485
 7436               	.LM983:
 7437 297c 81E0      		ldi r24,lo8(1)
 7438 297e 90E0      		ldi r25,hi8(1)
 7439 2980 61E0      		ldi r22,lo8(1)
 7440 2982 70E0      		ldi r23,hi8(1)
 7441 2984 41E0      		ldi r20,lo8(1)
 7442 2986 50E0      		ldi r21,hi8(1)
 7443 2988 21E0      		ldi r18,lo8(1)
 7444 298a 30E0      		ldi r19,hi8(1)
 7445 298c 0E94 0000 		call update_array
 7446               	.LM984:
 7447 2990 80E0      		ldi r24,lo8(0)
 7448 2992 90E0      		ldi r25,hi8(0)
 7449 2994 61E0      		ldi r22,lo8(1)
 7450 2996 70E0      		ldi r23,hi8(1)
 7451 2998 40E0      		ldi r20,lo8(.LC9)
 7452 299a 50E0      		ldi r21,hi8(.LC9)
 7453               	.L498:
 7454 299c 0E94 0000 		call lcd_write_string_xy
 7455               	.LM985:
 7456 29a0 82E0      		ldi r24,lo8(2)
 7457 29a2 90E0      		ldi r25,hi8(2)
 7458 29a4 61E0      		ldi r22,lo8(1)
 7459 29a6 70E0      		ldi r23,hi8(1)
 7460 29a8 40E0      		ldi r20,lo8(.LC9)
 7461 29aa 50E0      		ldi r21,hi8(.LC9)
 7462 29ac 0E94 0000 		call lcd_write_string_xy
 7463               	.LM986:
 7464 29b0 84E0      		ldi r24,lo8(4)
 7465 29b2 90E0      		ldi r25,hi8(4)
 7466 29b4 61E0      		ldi r22,lo8(1)
 7467 29b6 70E0      		ldi r23,hi8(1)
 7468 29b8 40E0      		ldi r20,lo8(.LC9)
 7469 29ba 50E0      		ldi r21,hi8(.LC9)
 7470 29bc 0E94 0000 		call lcd_write_string_xy
 7471               	.LM987:
 7472 29c0 86E0      		ldi r24,lo8(6)
 7473 29c2 90E0      		ldi r25,hi8(6)
 7474 29c4 61E0      		ldi r22,lo8(1)
 7475 29c6 70E0      		ldi r23,hi8(1)
 7476 29c8 40E0      		ldi r20,lo8(.LC9)
 7477 29ca 50E0      		ldi r21,hi8(.LC9)
 7478               	.L496:
 7479 29cc 0E94 0000 		call lcd_write_string_xy
 7480               	.L485:
 7481               	.LM988:
 7482 29d0 1092 0000 		sts (temp)+1,__zero_reg__
 7483 29d4 1092 0000 		sts temp,__zero_reg__
 7484               	.LM989:
 7485 29d8 0E94 0000 		call sense_of_directon
 7486               	/* epilogue start */
 7487               	.LM990:
 7488 29dc DF91      		pop r29
 7489 29de CF91      		pop r28
 7490 29e0 1F91      		pop r17
 7491 29e2 0F91      		pop r16
 7492 29e4 0895      		ret
 7493               	.LVL211:
 7494               	.L472:
 7495               	.LBB661:
 7496               	.LBB647:
 7497               	.LBB648:
 7498               	.LM991:
 7499 29e6 809B      		sbis 48-32,0
 7500 29e8 00C0      		rjmp .L487
 7501               	.LBE648:
 7502               	.LBE647:
 7503               	.LBB649:
 7504               	.LBB650:
 7505               	.LM992:
 7506 29ea 819B      		sbis 48-32,1
 7507 29ec 00C0      		rjmp .L487
 7508               	.LBE650:
 7509               	.LBE649:
 7510               	.LBB651:
 7511               	.LBB652:
 7512               	.LM993:
 7513 29ee 839B      		sbis 48-32,3
 7514 29f0 00C0      		rjmp .L487
 7515 29f2 00C0      		rjmp .L488
 7516               	.L473:
 7517               	.LBE652:
 7518               	.LBE651:
 7519               	.LBB653:
 7520               	.LBB654:
 7521               	.LM994:
 7522 29f4 809B      		sbis 48-32,0
 7523 29f6 00C0      		rjmp .L489
 7524               	.LBE654:
 7525               	.LBE653:
 7526               	.LBB655:
 7527               	.LBB656:
 7528               	.LM995:
 7529 29f8 819B      		sbis 48-32,1
 7530 29fa 00C0      		rjmp .L489
 7531               	.LBE656:
 7532               	.LBE655:
 7533               	.LBB657:
 7534               	.LBB658:
 7535               	.LM996:
 7536 29fc 839B      		sbis 48-32,3
 7537 29fe 00C0      		rjmp .L489
 7538 2a00 00C0      		rjmp .L490
 7539               	.LBE658:
 7540               	.LBE657:
 7541               	.LBE661:
 7542               	.LFE61:
 7544               		.data
 7545               	.LC11:
 7546 0054 4C43 4420 		.string	"LCD Working"
 7546      576F 726B 
 7546      696E 6700 
 7547               		.text
 7548               	.global	main
 7550               	main:
 7551               	.LFB76:
 7552               	.LM997:
 7553               	/* prologue: function */
 7554               	/* frame size = 0 */
 7555               	.LM998:
 7556 2a02 0E94 0000 		call init_devices
 7557               	.LM999:
 7558 2a06 81E0      		ldi r24,lo8(1)
 7559 2a08 60E0      		ldi r22,lo8(0)
 7560 2a0a 0E94 0000 		call lcd_byte
 7561               	.LM1000:
 7562 2a0e 80E0      		ldi r24,lo8(.LC11)
 7563 2a10 90E0      		ldi r25,hi8(.LC11)
 7564 2a12 0E94 0000 		call lcd_write_string
 7565 2a16 20E0      		ldi r18,lo8(0)
 7566 2a18 30E0      		ldi r19,hi8(0)
 7567               	.LVL212:
 7568               	.LM1001:
 7569 2a1a 40E5      		ldi r20,lo8(80)
 7570 2a1c 50E0      		ldi r21,hi8(80)
 7571 2a1e 00C0      		rjmp .L500
 7572               	.LVL213:
 7573               	.L501:
 7574               	.LM1002:
 7575 2a20 1182      		std Z+1,__zero_reg__
 7576 2a22 1082      		st Z,__zero_reg__
 7577 2a24 1382      		std Z+3,__zero_reg__
 7578 2a26 1282      		std Z+2,__zero_reg__
 7579 2a28 1582      		std Z+5,__zero_reg__
 7580 2a2a 1482      		std Z+4,__zero_reg__
 7581 2a2c 1782      		std Z+7,__zero_reg__
 7582 2a2e 1682      		std Z+6,__zero_reg__
 7583               	.LM1003:
 7584 2a30 0196      		adiw r24,1
 7585 2a32 3896      		adiw r30,8
 7586 2a34 8A30      		cpi r24,10
 7587 2a36 9105      		cpc r25,__zero_reg__
 7588 2a38 01F4      		brne .L501
 7589               	.LM1004:
 7590 2a3a 2F5F      		subi r18,lo8(-(1))
 7591 2a3c 3F4F      		sbci r19,hi8(-(1))
 7592 2a3e 2A30      		cpi r18,10
 7593 2a40 3105      		cpc r19,__zero_reg__
 7594 2a42 01F0      		breq .L502
 7595               	.L500:
 7596 2a44 249F      		mul r18,r20
 7597 2a46 F001      		movw r30,r0
 7598 2a48 259F      		mul r18,r21
 7599 2a4a F00D      		add r31,r0
 7600 2a4c 349F      		mul r19,r20
 7601 2a4e F00D      		add r31,r0
 7602 2a50 1124      		clr r1
 7603 2a52 E050      		subi r30,lo8(-(dir_array))
 7604 2a54 F040      		sbci r31,hi8(-(dir_array))
 7605 2a56 80E0      		ldi r24,lo8(0)
 7606 2a58 90E0      		ldi r25,hi8(0)
 7607 2a5a 00C0      		rjmp .L501
 7608               	.L502:
 7609               	.LM1005:
 7610 2a5c 81E0      		ldi r24,lo8(1)
 7611               	.LVL214:
 7612 2a5e 60E0      		ldi r22,lo8(0)
 7613 2a60 0E94 0000 		call lcd_byte
 7614               	.LVL215:
 7615               	.LM1006:
 7616 2a64 80E0      		ldi r24,lo8(.LC8)
 7617 2a66 90E0      		ldi r25,hi8(.LC8)
 7618 2a68 0E94 0000 		call lcd_write_string
 7619               	.LM1007:
 7620 2a6c 81E0      		ldi r24,lo8(1)
 7621 2a6e 90E0      		ldi r25,hi8(1)
 7622 2a70 60E0      		ldi r22,lo8(0)
 7623 2a72 70E0      		ldi r23,hi8(0)
 7624 2a74 40E0      		ldi r20,lo8(0)
 7625 2a76 50E0      		ldi r21,hi8(0)
 7626 2a78 20E0      		ldi r18,lo8(0)
 7627 2a7a 30E0      		ldi r19,hi8(0)
 7628 2a7c 0E94 0000 		call update_array
 7629               	.L506:
 7630               	.LBB662:
 7631               	.LBB663:
 7632               	.LM1008:
 7633 2a80 8299      		sbic 48-32,2
 7634 2a82 00C0      		rjmp .L503
 7635               	.L509:
 7636               	.LBE663:
 7637               	.LBE662:
 7638               	.LM1009:
 7639 2a84 0E94 0000 		call line_track_new
 7640               	.LM1010:
 7641 2a88 85B3      		in r24,53-32
 7642 2a8a 807F      		andi r24,lo8(-16)
 7643 2a8c 85BB      		out 53-32,r24
 7644               	.LM1011:
 7645 2a8e 85B3      		in r24,53-32
 7646 2a90 9091 0000 		lds r25,sensorbyte
 7647 2a94 892B      		or r24,r25
 7648 2a96 85BB      		out 53-32,r24
 7649               	.LM1012:
 7650 2a98 CF99      		sbic 57-32,7
 7651 2a9a 00C0      		rjmp .L504
 7652               	.LM1013:
 7653 2a9c 0E94 0000 		call right_junc_check
 7654               	.L504:
 7655               	.LM1014:
 7656 2aa0 0E94 0000 		call left_junc_check
 7657               	.LM1015:
 7658 2aa4 0E94 0000 		call frSensorCheck
 7659               	.LM1016:
 7660 2aa8 8091 0000 		lds r24,irc
 7661 2aac 9091 0000 		lds r25,(irc)+1
 7662 2ab0 0196      		adiw r24,1
 7663 2ab2 9093 0000 		sts (irc)+1,r25
 7664 2ab6 8093 0000 		sts irc,r24
 7665 2aba 00C0      		rjmp .L509
 7666               	.L503:
 7667               	.LBB664:
 7668               	.LBB665:
 7669               	.LM1017:
 7670 2abc 809B      		sbis 48-32,0
 7671 2abe 00C0      		rjmp .L509
 7672               	.LBE665:
 7673               	.LBE664:
 7674               	.LBB666:
 7675               	.LBB667:
 7676               	.LM1018:
 7677 2ac0 819B      		sbis 48-32,1
 7678 2ac2 00C0      		rjmp .L509
 7679               	.LBE667:
 7680               	.LBE666:
 7681               	.LBB668:
 7682               	.LBB669:
 7683               	.LM1019:
 7684 2ac4 839B      		sbis 48-32,3
 7685 2ac6 00C0      		rjmp .L509
 7686 2ac8 00C0      		rjmp .L506
 7687               	.LBE669:
 7688               	.LBE668:
 7689               	.LFE76:
 7691               	.global	retrieve_threshold
 7693               	retrieve_threshold:
 7694               	.LFB52:
 7695               	.LM1020:
 7696               	/* prologue: function */
 7697               	/* frame size = 0 */
 7698               	.LBB670:
 7699               	.LM1021:
 7700 2aca 80E0      		ldi r24,lo8(0)
 7701 2acc 90E0      		ldi r25,hi8(0)
 7702 2ace 0E94 0000 		call __eerd_byte_m32
 7703 2ad2 8093 0000 		sts threshold1,r24
 7704 2ad6 81E0      		ldi r24,lo8(1)
 7705 2ad8 90E0      		ldi r25,hi8(1)
 7706 2ada 0E94 0000 		call __eerd_byte_m32
 7707 2ade 8093 0000 		sts threshold1+1,r24
 7708 2ae2 82E0      		ldi r24,lo8(2)
 7709 2ae4 90E0      		ldi r25,hi8(2)
 7710 2ae6 0E94 0000 		call __eerd_byte_m32
 7711 2aea 8093 0000 		sts threshold1+2,r24
 7712 2aee 83E0      		ldi r24,lo8(3)
 7713 2af0 90E0      		ldi r25,hi8(3)
 7714 2af2 0E94 0000 		call __eerd_byte_m32
 7715 2af6 8093 0000 		sts threshold1+3,r24
 7716               	/* epilogue start */
 7717               	.LBE670:
 7718               	.LM1022:
 7719 2afa 0895      		ret
 7720               	.LFE52:
 7722               	.global	set_threshold
 7724               	set_threshold:
 7725               	.LFB17:
 7726               	.LM1023:
 7727 2afc CF93      		push r28
 7728 2afe DF93      		push r29
 7729               	/* prologue: function */
 7730               	/* frame size = 0 */
 7731               	.LM1024:
 7732 2b00 2091 0000 		lds r18,min
 7733 2b04 8091 0000 		lds r24,max
 7734 2b08 90E0      		ldi r25,lo8(0)
 7735 2b0a 820F      		add r24,r18
 7736 2b0c 911D      		adc r25,__zero_reg__
 7737 2b0e 9595      		asr r25
 7738 2b10 8795      		ror r24
 7739 2b12 8093 0000 		sts threshold1,r24
 7740 2b16 2091 0000 		lds r18,min+1
 7741 2b1a 8091 0000 		lds r24,max+1
 7742 2b1e 90E0      		ldi r25,lo8(0)
 7743 2b20 820F      		add r24,r18
 7744 2b22 911D      		adc r25,__zero_reg__
 7745 2b24 9595      		asr r25
 7746 2b26 8795      		ror r24
 7747 2b28 8093 0000 		sts threshold1+1,r24
 7748 2b2c 2091 0000 		lds r18,min+2
 7749 2b30 8091 0000 		lds r24,max+2
 7750 2b34 90E0      		ldi r25,lo8(0)
 7751 2b36 820F      		add r24,r18
 7752 2b38 911D      		adc r25,__zero_reg__
 7753 2b3a 9595      		asr r25
 7754 2b3c 8795      		ror r24
 7755 2b3e 8093 0000 		sts threshold1+2,r24
 7756 2b42 2091 0000 		lds r18,min+3
 7757 2b46 8091 0000 		lds r24,max+3
 7758 2b4a 90E0      		ldi r25,lo8(0)
 7759 2b4c 820F      		add r24,r18
 7760 2b4e 911D      		adc r25,__zero_reg__
 7761 2b50 9595      		asr r25
 7762 2b52 8795      		ror r24
 7763 2b54 8093 0000 		sts threshold1+3,r24
 7764 2b58 C0E0      		ldi r28,lo8(0)
 7765 2b5a D0E0      		ldi r29,hi8(0)
 7766               	.LVL216:
 7767               	.L513:
 7768               	.LBB671:
 7769               	.LM1025:
 7770 2b5c FE01      		movw r30,r28
 7771 2b5e E050      		subi r30,lo8(-(threshold1))
 7772 2b60 F040      		sbci r31,hi8(-(threshold1))
 7773 2b62 CE01      		movw r24,r28
 7774 2b64 6081      		ld r22,Z
 7775 2b66 0E94 0000 		call __eewr_byte_m32
 7776               	.LM1026:
 7777 2b6a 2196      		adiw r28,1
 7778 2b6c C430      		cpi r28,4
 7779 2b6e D105      		cpc r29,__zero_reg__
 7780 2b70 01F4      		brne .L513
 7781               	/* epilogue start */
 7782               	.LBE671:
 7783               	.LM1027:
 7784 2b72 DF91      		pop r29
 7785 2b74 CF91      		pop r28
 7786               	.LVL217:
 7787 2b76 0895      		ret
 7788               	.LFE17:
 7790               	.global	sensorbyte
 7791               	.global	sensorbyte
 7792               		.section .bss
 7795               	sensorbyte:
 7796 0000 00        		.skip 1,0
 7797               	.global	mpos
 7798               	.global	mpos
 7801               	mpos:
 7802 0001 0000      		.skip 2,0
 7803               	.global	opt
 7804               		.data
 7807               	opt:
 7808 0060 FF00      		.word	255
 7809               	.global	kp
 7812               	kp:
 7813 0062 00        		.byte	0
 7814 0063 00        		.byte	0
 7815 0064 70        		.byte	112
 7816 0065 41        		.byte	65
 7817               	.global	kd
 7820               	kd:
 7821 0066 66        		.byte	102
 7822 0067 66        		.byte	102
 7823 0068 46        		.byte	70
 7824 0069 40        		.byte	64
 7825               	.global	flcount
 7826               	.global	flcount
 7827               		.section .bss
 7830               	flcount:
 7831 0003 0000      		.skip 2,0
 7832               	.global	l
 7833               	.global	l
 7836               	l:
 7837 0005 0000      		.skip 2,0
 7838               	.global	lcount
 7839               	.global	lcount
 7842               	lcount:
 7843 0007 0000      		.skip 2,0
 7844               	.global	straight
 7845               	.global	straight
 7848               	straight:
 7849 0009 0000      		.skip 2,0
 7850               	.global	lcountPrev
 7851               	.global	lcountPrev
 7854               	lcountPrev:
 7855 000b 0000      		.skip 2,0
 7856               	.global	flag1
 7857               	.global	flag1
 7860               	flag1:
 7861 000d 0000      		.skip 2,0
 7862               	.global	irc
 7863               	.global	irc
 7866               	irc:
 7867 000f 0000      		.skip 2,0
 7868               	.global	lcount_forStraight_prev
 7869               	.global	lcount_forStraight_prev
 7872               	lcount_forStraight_prev:
 7873 0011 0000      		.skip 2,0
 7874               	.global	temp
 7875               	.global	temp
 7878               	temp:
 7879 0013 0000      		.skip 2,0
 7880               	.global	temp_forStraight
 7881               	.global	temp_forStraight
 7884               	temp_forStraight:
 7885 0015 0000      		.skip 2,0
 7886               	.global	turn
 7887               		.data
 7890               	turn:
 7891 006a 73        		.byte	115
 7892               	.global	dir
 7895               	dir:
 7896 006b 0200      		.word	2
 7897               	.global	Coordinates_changed_by
 7898               	.global	Coordinates_changed_by
 7899               		.section .bss
 7902               	Coordinates_changed_by:
 7903 0017 0000      		.skip 2,0
 7904               	.global	x_coordinate
 7905               		.data
 7908               	x_coordinate:
 7909 006d 0400      		.word	4
 7910               	.global	y_coordinate
 7913               	y_coordinate:
 7914 006f 0400      		.word	4
 7915               	.global	mx
 7916               	.global	mx
 7917               		.section .bss
 7920               	mx:
 7921 0019 0000      		.skip 2,0
 7922               	.global	my
 7923               	.global	my
 7926               	my:
 7927 001b 0000      		.skip 2,0
 7928               	.global	special_flag
 7929               	.global	special_flag
 7932               	special_flag:
 7933 001d 0000      		.skip 2,0
 7934               	.global	repeat
 7935               	.global	repeat
 7938               	repeat:
 7939 001f 0000      		.skip 2,0
 7940               		.comm min,4,1
 7941               		.comm max,4,1
 7942               		.comm threshold1,4,1
 7943               		.comm control,4,1
 7944               		.comm prev_error,4,1
 7945               		.comm act_error,4,1
 7946               		.comm dir_array,800,1
 7947               		.comm map_array,200,1
 7948               		.comm path_array,60,1
 7949               		.comm right,2,1
 8526               	.Letext0:
DEFINED SYMBOLS
                            *ABS*:00000000 main.c
C:\Users\Chirag\AppData\Local\Temp/ccC0ILMD.s:2      *ABS*:0000003f __SREG__
C:\Users\Chirag\AppData\Local\Temp/ccC0ILMD.s:3      *ABS*:0000003e __SP_H__
C:\Users\Chirag\AppData\Local\Temp/ccC0ILMD.s:4      *ABS*:0000003d __SP_L__
C:\Users\Chirag\AppData\Local\Temp/ccC0ILMD.s:5      *ABS*:00000034 __CCP__
C:\Users\Chirag\AppData\Local\Temp/ccC0ILMD.s:6      *ABS*:00000000 __tmp_reg__
C:\Users\Chirag\AppData\Local\Temp/ccC0ILMD.s:7      *ABS*:00000001 __zero_reg__
C:\Users\Chirag\AppData\Local\Temp/ccC0ILMD.s:18     .text:00000000 port_init
C:\Users\Chirag\AppData\Local\Temp/ccC0ILMD.s:47     .text:00000014 pwm1_init
C:\Users\Chirag\AppData\Local\Temp/ccC0ILMD.s:89     .text:00000038 adc_init
C:\Users\Chirag\AppData\Local\Temp/ccC0ILMD.s:114    .text:0000004a adc_start
C:\Users\Chirag\AppData\Local\Temp/ccC0ILMD.s:144    .text:0000005c delay_sec
C:\Users\Chirag\AppData\Local\Temp/ccC0ILMD.s:208    .text:0000008e delay_millisec
C:\Users\Chirag\AppData\Local\Temp/ccC0ILMD.s:343    .text:00000138 delay_microsec
C:\Users\Chirag\AppData\Local\Temp/ccC0ILMD.s:544    .text:0000023e check_sensors
C:\Users\Chirag\AppData\Local\Temp/ccC0ILMD.s:7795   .bss:00000000 sensorbyte
C:\Users\Chirag\AppData\Local\Temp/ccC0ILMD.s:595    .text:00000286 calibrate_white
                            *COM*:00000004 max
C:\Users\Chirag\AppData\Local\Temp/ccC0ILMD.s:620    .text:000002b0 calibrate_black
                            *COM*:00000004 min
C:\Users\Chirag\AppData\Local\Temp/ccC0ILMD.s:645    .text:000002da flick
C:\Users\Chirag\AppData\Local\Temp/ccC0ILMD.s:687    .text:0000030a set_pwm1a
C:\Users\Chirag\AppData\Local\Temp/ccC0ILMD.s:704    .text:00000310 set_pwm1b
C:\Users\Chirag\AppData\Local\Temp/ccC0ILMD.s:721    .text:00000316 lcd_busy_loop
C:\Users\Chirag\AppData\Local\Temp/ccC0ILMD.s:906    .text:0000036c lcd_byte
C:\Users\Chirag\AppData\Local\Temp/ccC0ILMD.s:1045   .text:000003bc lcd_init
C:\Users\Chirag\AppData\Local\Temp/ccC0ILMD.s:1181   .text:0000041c lcd_write_string
C:\Users\Chirag\AppData\Local\Temp/ccC0ILMD.s:1214   .text:00000438 lcd_write_int
C:\Users\Chirag\AppData\Local\Temp/ccC0ILMD.s:1345   .text:000004f4 lcd_goto_xy
C:\Users\Chirag\AppData\Local\Temp/ccC0ILMD.s:1372   .text:00000506 lcd_write_string_xy
C:\Users\Chirag\AppData\Local\Temp/ccC0ILMD.s:1397   .text:0000051c lcd_write_int_xy
C:\Users\Chirag\AppData\Local\Temp/ccC0ILMD.s:1429   .text:0000053e usart_init
C:\Users\Chirag\AppData\Local\Temp/ccC0ILMD.s:1456   .text:00000552 usart_transmit_char
C:\Users\Chirag\AppData\Local\Temp/ccC0ILMD.s:1475   .text:0000055a usart_transmit_string
C:\Users\Chirag\AppData\Local\Temp/ccC0ILMD.s:1509   .text:0000056e usart_transmit_newline
C:\Users\Chirag\AppData\Local\Temp/ccC0ILMD.s:1543   .text:00000580 usart_receive_char
C:\Users\Chirag\AppData\Local\Temp/ccC0ILMD.s:1561   .text:00000588 bot_motion_init
C:\Users\Chirag\AppData\Local\Temp/ccC0ILMD.s:1576   .text:0000058e bot_left_forward
C:\Users\Chirag\AppData\Local\Temp/ccC0ILMD.s:1596   .text:00000598 bot_left_backward
C:\Users\Chirag\AppData\Local\Temp/ccC0ILMD.s:1616   .text:000005a2 bot_right_forward
C:\Users\Chirag\AppData\Local\Temp/ccC0ILMD.s:1636   .text:000005ac bot_left
C:\Users\Chirag\AppData\Local\Temp/ccC0ILMD.s:1660   .text:000005b6 bot_right
C:\Users\Chirag\AppData\Local\Temp/ccC0ILMD.s:1684   .text:000005c0 bot_right_backward
C:\Users\Chirag\AppData\Local\Temp/ccC0ILMD.s:1704   .text:000005ca bot_forward
C:\Users\Chirag\AppData\Local\Temp/ccC0ILMD.s:1724   .text:000005d4 bot_backward
C:\Users\Chirag\AppData\Local\Temp/ccC0ILMD.s:1744   .text:000005de bot_spot_left
C:\Users\Chirag\AppData\Local\Temp/ccC0ILMD.s:1764   .text:000005e8 bot_spot_right
C:\Users\Chirag\AppData\Local\Temp/ccC0ILMD.s:1784   .text:000005f2 bot_stop
C:\Users\Chirag\AppData\Local\Temp/ccC0ILMD.s:1804   .text:000005fc bot_brake
C:\Users\Chirag\AppData\Local\Temp/ccC0ILMD.s:1824   .text:00000606 switch_init
C:\Users\Chirag\AppData\Local\Temp/ccC0ILMD.s:1844   .text:00000614 pressed_switch0
C:\Users\Chirag\AppData\Local\Temp/ccC0ILMD.s:1864   .text:00000624 pressed_switch1
C:\Users\Chirag\AppData\Local\Temp/ccC0ILMD.s:1886   .text:00000638 pressed_switch2
C:\Users\Chirag\AppData\Local\Temp/ccC0ILMD.s:1910   .text:00000650 pressed_switch3
C:\Users\Chirag\AppData\Local\Temp/ccC0ILMD.s:1935   .text:0000066a line_track
C:\Users\Chirag\AppData\Local\Temp/ccC0ILMD.s:7801   .bss:00000001 mpos
C:\Users\Chirag\AppData\Local\Temp/ccC0ILMD.s:7860   .bss:0000000d flag1
                            *COM*:00000004 prev_error
                            *COM*:00000004 act_error
C:\Users\Chirag\AppData\Local\Temp/ccC0ILMD.s:7812   .data:00000062 kp
C:\Users\Chirag\AppData\Local\Temp/ccC0ILMD.s:7820   .data:00000066 kd
                            *COM*:00000004 control
C:\Users\Chirag\AppData\Local\Temp/ccC0ILMD.s:7807   .data:00000060 opt
C:\Users\Chirag\AppData\Local\Temp/ccC0ILMD.s:2155   .text:0000080c init_devices
C:\Users\Chirag\AppData\Local\Temp/ccC0ILMD.s:2210   .text:0000083c Uturn
C:\Users\Chirag\AppData\Local\Temp/ccC0ILMD.s:7890   .data:0000006a turn
C:\Users\Chirag\AppData\Local\Temp/ccC0ILMD.s:2350   .text:0000089a left_count
C:\Users\Chirag\AppData\Local\Temp/ccC0ILMD.s:7836   .bss:00000005 l
C:\Users\Chirag\AppData\Local\Temp/ccC0ILMD.s:7842   .bss:00000007 lcount
C:\Users\Chirag\AppData\Local\Temp/ccC0ILMD.s:2385   .text:000008d4 special_case_check
C:\Users\Chirag\AppData\Local\Temp/ccC0ILMD.s:2484   .text:00000944 line_track_new
C:\Users\Chirag\AppData\Local\Temp/ccC0ILMD.s:2587   .text:000009b4 end_zone_uturn
C:\Users\Chirag\AppData\Local\Temp/ccC0ILMD.s:2743   .text:00000a30 turn_left
C:\Users\Chirag\AppData\Local\Temp/ccC0ILMD.s:2877   .text:00000a9c turn_right
C:\Users\Chirag\AppData\Local\Temp/ccC0ILMD.s:3019   .text:00000b18 sense_of_directon
C:\Users\Chirag\AppData\Local\Temp/ccC0ILMD.s:7895   .data:0000006b dir
C:\Users\Chirag\AppData\Local\Temp/ccC0ILMD.s:3143   .text:00000be6 is_coordinate_null
                            *COM*:00000320 dir_array
C:\Users\Chirag\AppData\Local\Temp/ccC0ILMD.s:3283   .text:00000cc4 update_array
C:\Users\Chirag\AppData\Local\Temp/ccC0ILMD.s:7908   .data:0000006d x_coordinate
C:\Users\Chirag\AppData\Local\Temp/ccC0ILMD.s:7913   .data:0000006f y_coordinate
C:\Users\Chirag\AppData\Local\Temp/ccC0ILMD.s:7938   .bss:0000001f repeat
C:\Users\Chirag\AppData\Local\Temp/ccC0ILMD.s:3767   .text:00001046 update_coordinates
C:\Users\Chirag\AppData\Local\Temp/ccC0ILMD.s:7902   .bss:00000017 Coordinates_changed_by
C:\Users\Chirag\AppData\Local\Temp/ccC0ILMD.s:3987   .text:000011fe left_junc_check
C:\Users\Chirag\AppData\Local\Temp/ccC0ILMD.s:7866   .bss:0000000f irc
C:\Users\Chirag\AppData\Local\Temp/ccC0ILMD.s:7932   .bss:0000001d special_flag
C:\Users\Chirag\AppData\Local\Temp/ccC0ILMD.s:4144   .text:000012fe frSensorCheck
C:\Users\Chirag\AppData\Local\Temp/ccC0ILMD.s:4272   .text:000013d2 fill_missed_array
C:\Users\Chirag\AppData\Local\Temp/ccC0ILMD.s:4498   .text:0000153c coordinates_tobe_reached
C:\Users\Chirag\AppData\Local\Temp/ccC0ILMD.s:7920   .bss:00000019 mx
C:\Users\Chirag\AppData\Local\Temp/ccC0ILMD.s:7926   .bss:0000001b my
C:\Users\Chirag\AppData\Local\Temp/ccC0ILMD.s:5082   .text:000019a4 get_path
                            *COM*:0000003c path_array
                            *COM*:000000c8 map_array
C:\Users\Chirag\AppData\Local\Temp/ccC0ILMD.s:5821   .text:00001ec6 build_map
C:\Users\Chirag\AppData\Local\Temp/ccC0ILMD.s:6181   .text:000020ee checkAndCorrectDirection
C:\Users\Chirag\AppData\Local\Temp/ccC0ILMD.s:6296   .text:00002198 go_to_coordinate
                            *COM*:00000002 right
C:\Users\Chirag\AppData\Local\Temp/ccC0ILMD.s:6528   .text:000022f4 map_all
C:\Users\Chirag\AppData\Local\Temp/ccC0ILMD.s:6775   .text:000024b8 right_junc_check
C:\Users\Chirag\AppData\Local\Temp/ccC0ILMD.s:7854   .bss:0000000b lcountPrev
C:\Users\Chirag\AppData\Local\Temp/ccC0ILMD.s:7848   .bss:00000009 straight
C:\Users\Chirag\AppData\Local\Temp/ccC0ILMD.s:7878   .bss:00000013 temp
C:\Users\Chirag\AppData\Local\Temp/ccC0ILMD.s:7550   .text:00002a02 main
C:\Users\Chirag\AppData\Local\Temp/ccC0ILMD.s:7693   .text:00002aca retrieve_threshold
                            *COM*:00000004 threshold1
C:\Users\Chirag\AppData\Local\Temp/ccC0ILMD.s:7724   .text:00002afc set_threshold
C:\Users\Chirag\AppData\Local\Temp/ccC0ILMD.s:7830   .bss:00000003 flcount
C:\Users\Chirag\AppData\Local\Temp/ccC0ILMD.s:7872   .bss:00000011 lcount_forStraight_prev
C:\Users\Chirag\AppData\Local\Temp/ccC0ILMD.s:7884   .bss:00000015 temp_forStraight

UNDEFINED SYMBOLS
__floatsisf
__mulsf3
__ltsf2
__gtsf2
__fixunssfsi
__divsf3
__divmodhi4
__subsf3
__floatunsisf
__fixsfsi
__addsf3
__eerd_byte_m32
__eewr_byte_m32
__do_copy_data
__do_clear_bss
