   1               		.file	"main.c"
   2               	__SREG__ = 0x3f
   3               	__SP_H__ = 0x3e
   4               	__SP_L__ = 0x3d
   5               	__CCP__  = 0x34
   6               	__tmp_reg__ = 0
   7               	__zero_reg__ = 1
  15               	.Ltext0:
  16               	.global	port_init
  18               	port_init:
  19               	.LFB7:
  20               	.LM1:
  21               	/* prologue: function */
  22               	/* frame size = 0 */
  23               	.LM2:
  24 0000 8FEF      		ldi r24,lo8(-1)
  25 0002 8BBB      		out 59-32,r24
  26               	.LM3:
  27 0004 1ABA      		out 58-32,__zero_reg__
  28               	.LM4:
  29 0006 88BB      		out 56-32,r24
  30               	.LM5:
  31 0008 17BA      		out 55-32,__zero_reg__
  32               	.LM6:
  33 000a 15BA      		out 53-32,__zero_reg__
  34               	.LM7:
  35 000c 84BB      		out 52-32,r24
  36               	.LM8:
  37 000e 82BB      		out 50-32,r24
  38               	.LM9:
  39 0010 11BA      		out 49-32,__zero_reg__
  40               	/* epilogue start */
  41               	.LM10:
  42 0012 0895      		ret
  43               	.LFE7:
  45               	.global	pwm1_init
  47               	pwm1_init:
  48               	.LFB8:
  49               	.LM11:
  50               	/* prologue: function */
  51               	/* frame size = 0 */
  52               	.LM12:
  53 0014 8C9A      		sbi 49-32,4
  54               	.LM13:
  55 0016 8D9A      		sbi 49-32,5
  56               	.LM14:
  57 0018 1EBC      		out 78-32,__zero_reg__
  58               	.LM15:
  59 001a 1DBC      		out 77-32,__zero_reg__
  60               	.LM16:
  61 001c 1CBC      		out 76-32,__zero_reg__
  62               	.LM17:
  63 001e 1BBC      		out 75-32,__zero_reg__
  64               	.LM18:
  65 0020 1ABC      		out 74-32,__zero_reg__
  66               	.LM19:
  67 0022 19BC      		out 73-32,__zero_reg__
  68               	.LM20:
  69 0024 18BC      		out 72-32,__zero_reg__
  70               	.LM21:
  71 0026 81E0      		ldi r24,lo8(1)
  72 0028 87BD      		out 71-32,r24
  73               	.LM22:
  74 002a 8FE8      		ldi r24,lo8(-113)
  75 002c 86BD      		out 70-32,r24
  76               	.LM23:
  77 002e 82EA      		ldi r24,lo8(-94)
  78 0030 8FBD      		out 79-32,r24
  79               	.LM24:
  80 0032 89E1      		ldi r24,lo8(25)
  81 0034 8EBD      		out 78-32,r24
  82               	/* epilogue start */
  83               	.LM25:
  84 0036 0895      		ret
  85               	.LFE8:
  87               	.global	adc_init
  89               	adc_init:
  90               	.LFB9:
  91               	.LM26:
  92               	/* prologue: function */
  93               	/* frame size = 0 */
  94               	.LM27:
  95 0038 1ABA      		out 58-32,__zero_reg__
  96               	.LM28:
  97 003a 16B8      		out 38-32,__zero_reg__
  98               	.LM29:
  99 003c 80E6      		ldi r24,lo8(96)
 100 003e 87B9      		out 39-32,r24
 101               	.LM30:
 102 0040 87E8      		ldi r24,lo8(-121)
 103 0042 86B9      		out 38-32,r24
 104               	.LM31:
 105 0044 80E8      		ldi r24,lo8(-128)
 106 0046 88B9      		out 40-32,r24
 107               	/* epilogue start */
 108               	.LM32:
 109 0048 0895      		ret
 110               	.LFE9:
 112               	.global	adc_start
 114               	adc_start:
 115               	.LFB10:
 116               	.LM33:
 117               	.LVL0:
 118               	/* prologue: function */
 119               	/* frame size = 0 */
 120               	.LM34:
 121 004a 15B8      		out 37-32,__zero_reg__
 122               	.LM35:
 123 004c 8770      		andi r24,lo8(7)
 124               	.LVL1:
 125 004e 8066      		ori r24,lo8(96)
 126 0050 87B9      		out 39-32,r24
 127               	.LM36:
 128 0052 369A      		sbi 38-32,6
 129               	.L8:
 130               	.LM37:
 131 0054 3699      		sbic 38-32,6
 132 0056 00C0      		rjmp .L8
 133               	.LM38:
 134 0058 85B1      		in r24,37-32
 135               	.LVL2:
 136               	.LVL3:
 137               	/* epilogue start */
 138               	.LM39:
 139 005a 0895      		ret
 140               	.LFE10:
 142               	.global	delay_sec
 144               	delay_sec:
 145               	.LFB11:
 146               	.LM40:
 147               	.LVL4:
 148               	/* prologue: function */
 149               	/* frame size = 0 */
 150 005c AC01      		movw r20,r24
 151               	.LM41:
 152 005e 30E0      		ldi r19,lo8(0)
 153               	.LVL5:
 154               	.LBB431:
 155               	.LBB432:
 156               	.LBB433:
 157               	.LBB434:
 158               	.LM42:
 159 0060 60E9      		ldi r22,lo8(400)
 160 0062 71E0      		ldi r23,hi8(400)
 161 0064 00C0      		rjmp .L12
 162               	.LVL6:
 163               	.L13:
 164 0066 FB01      		movw r30,r22
 165               	/* #APP */
 166               	 ;  105 "c:/winavr-20100110/lib/gcc/../../avr/include/util/delay_basic.h" 1
 167 0068 3197      		1: sbiw r30,1
 168 006a 01F4      		brne 1b
 169               	 ;  0 "" 2
 170               	/* #NOAPP */
 171               	.LBE434:
 172               	.LBE433:
 173               	.LM43:
 174 006c 0197      		sbiw r24,1
 175               	.LM44:
 176 006e 01F4      		brne .L13
 177               	.LBE432:
 178               	.LBE431:
 179               	.LM45:
 180 0070 2F5F      		subi r18,lo8(-(1))
 181 0072 2430      		cpi r18,lo8(4)
 182 0074 01F0      		breq .L14
 183               	.LVL7:
 184               	.L16:
 185 0076 84EC      		ldi r24,lo8(2500)
 186 0078 99E0      		ldi r25,hi8(2500)
 187 007a 00C0      		rjmp .L13
 188               	.L14:
 189               	.LM46:
 190 007c 3F5F      		subi r19,lo8(-(1))
 191               	.LVL8:
 192               	.L12:
 193 007e 832F      		mov r24,r19
 194               	.LVL9:
 195 0080 90E0      		ldi r25,lo8(0)
 196 0082 8417      		cp r24,r20
 197 0084 9507      		cpc r25,r21
 198 0086 04F4      		brge .L17
 199               	.LVL10:
 200 0088 20E0      		ldi r18,lo8(0)
 201 008a 00C0      		rjmp .L16
 202               	.L17:
 203 008c 0895      		ret
 204               	.LFE11:
 206               	.global	delay_millisec
 208               	delay_millisec:
 209               	.LFB12:
 210               	.LM47:
 211               	.LVL11:
 212 008e AF92      		push r10
 213 0090 BF92      		push r11
 214 0092 CF92      		push r12
 215 0094 DF92      		push r13
 216 0096 EF92      		push r14
 217 0098 FF92      		push r15
 218 009a 0F93      		push r16
 219 009c 1F93      		push r17
 220               	/* prologue: function */
 221               	/* frame size = 0 */
 222               	.LM48:
 223 009e AA27      		clr r26
 224 00a0 97FD      		sbrc r25,7
 225 00a2 A095      		com r26
 226 00a4 BA2F      		mov r27,r26
 227               	.LVL12:
 228 00a6 BC01      		movw r22,r24
 229 00a8 CD01      		movw r24,r26
 230 00aa 0E94 0000 		call __floatsisf
 231               	.LVL13:
 232 00ae 5B01      		movw r10,r22
 233 00b0 6C01      		movw r12,r24
 234               	.LBB435:
 235               	.LBB436:
 236               	.LM49:
 237 00b2 20E0      		ldi r18,lo8(0x457a0000)
 238 00b4 30E0      		ldi r19,hi8(0x457a0000)
 239 00b6 4AE7      		ldi r20,hlo8(0x457a0000)
 240 00b8 55E4      		ldi r21,hhi8(0x457a0000)
 241 00ba 0E94 0000 		call __mulsf3
 242 00be 7B01      		movw r14,r22
 243 00c0 8C01      		movw r16,r24
 244               	.LM50:
 245 00c2 20E0      		ldi r18,lo8(0x3f800000)
 246 00c4 30E0      		ldi r19,hi8(0x3f800000)
 247 00c6 40E8      		ldi r20,hlo8(0x3f800000)
 248 00c8 5FE3      		ldi r21,hhi8(0x3f800000)
 249 00ca 0E94 0000 		call __ltsf2
 250 00ce 8823      		tst r24
 251 00d0 04F4      		brge .L31
 252 00d2 61E0      		ldi r22,lo8(1)
 253 00d4 70E0      		ldi r23,hi8(1)
 254               	.LVL14:
 255 00d6 00C0      		rjmp .L22
 256               	.LVL15:
 257               	.L31:
 258               	.LM51:
 259 00d8 C801      		movw r24,r16
 260 00da B701      		movw r22,r14
 261 00dc 20E0      		ldi r18,lo8(0x477fff00)
 262 00de 3FEF      		ldi r19,hi8(0x477fff00)
 263 00e0 4FE7      		ldi r20,hlo8(0x477fff00)
 264 00e2 57E4      		ldi r21,hhi8(0x477fff00)
 265 00e4 0E94 0000 		call __gtsf2
 266 00e8 1816      		cp __zero_reg__,r24
 267 00ea 04F4      		brge .L32
 268               	.LM52:
 269 00ec C601      		movw r24,r12
 270 00ee B501      		movw r22,r10
 271 00f0 20E0      		ldi r18,lo8(0x41200000)
 272 00f2 30E0      		ldi r19,hi8(0x41200000)
 273 00f4 40E2      		ldi r20,hlo8(0x41200000)
 274 00f6 51E4      		ldi r21,hhi8(0x41200000)
 275 00f8 0E94 0000 		call __mulsf3
 276 00fc 0E94 0000 		call __fixunssfsi
 277               	.LBB437:
 278               	.LBB438:
 279               	.LM53:
 280 0100 80E9      		ldi r24,lo8(400)
 281 0102 91E0      		ldi r25,hi8(400)
 282 0104 00C0      		rjmp .L25
 283               	.LVL16:
 284               	.L26:
 285 0106 FC01      		movw r30,r24
 286               	/* #APP */
 287               	 ;  105 "c:/winavr-20100110/lib/gcc/../../avr/include/util/delay_basic.h" 1
 288 0108 3197      		1: sbiw r30,1
 289 010a 01F4      		brne 1b
 290               	 ;  0 "" 2
 291               	/* #NOAPP */
 292               	.LBE438:
 293               	.LBE437:
 294               	.LM54:
 295 010c 6150      		subi r22,lo8(-(-1))
 296 010e 7040      		sbci r23,hi8(-(-1))
 297               	.L25:
 298               	.LM55:
 299 0110 6115      		cp r22,__zero_reg__
 300 0112 7105      		cpc r23,__zero_reg__
 301 0114 01F4      		brne .L26
 302 0116 00C0      		rjmp .L28
 303               	.LVL17:
 304               	.L32:
 305               	.LM56:
 306 0118 C801      		movw r24,r16
 307 011a B701      		movw r22,r14
 308 011c 0E94 0000 		call __fixunssfsi
 309               	.LVL18:
 310               	.L22:
 311               	.LBB439:
 312               	.LBB440:
 313               	.LM57:
 314 0120 CB01      		movw r24,r22
 315               	.LVL19:
 316               	/* #APP */
 317               	 ;  105 "c:/winavr-20100110/lib/gcc/../../avr/include/util/delay_basic.h" 1
 318 0122 0197      		1: sbiw r24,1
 319 0124 01F4      		brne 1b
 320               	 ;  0 "" 2
 321               	.LVL20:
 322               	/* #NOAPP */
 323               	.L28:
 324               	/* epilogue start */
 325               	.LBE440:
 326               	.LBE439:
 327               	.LBE436:
 328               	.LBE435:
 329               	.LM58:
 330 0126 1F91      		pop r17
 331 0128 0F91      		pop r16
 332 012a FF90      		pop r15
 333 012c EF90      		pop r14
 334 012e DF90      		pop r13
 335 0130 CF90      		pop r12
 336 0132 BF90      		pop r11
 337 0134 AF90      		pop r10
 338 0136 0895      		ret
 339               	.LFE12:
 341               	.global	delay_microsec
 343               	delay_microsec:
 344               	.LFB13:
 345               	.LM59:
 346               	.LVL21:
 347 0138 AF92      		push r10
 348 013a BF92      		push r11
 349 013c CF92      		push r12
 350 013e DF92      		push r13
 351 0140 EF92      		push r14
 352 0142 FF92      		push r15
 353 0144 0F93      		push r16
 354 0146 1F93      		push r17
 355               	/* prologue: function */
 356               	/* frame size = 0 */
 357               	.LM60:
 358 0148 AA27      		clr r26
 359 014a 97FD      		sbrc r25,7
 360 014c A095      		com r26
 361 014e BA2F      		mov r27,r26
 362               	.LVL22:
 363 0150 BC01      		movw r22,r24
 364 0152 CD01      		movw r24,r26
 365 0154 0E94 0000 		call __floatsisf
 366               	.LVL23:
 367 0158 5B01      		movw r10,r22
 368 015a 6C01      		movw r12,r24
 369               	.LBB441:
 370               	.LBB442:
 371               	.LM61:
 372 015c 2BEA      		ldi r18,lo8(0x40aaaaab)
 373 015e 3AEA      		ldi r19,hi8(0x40aaaaab)
 374 0160 4AEA      		ldi r20,hlo8(0x40aaaaab)
 375 0162 50E4      		ldi r21,hhi8(0x40aaaaab)
 376 0164 0E94 0000 		call __mulsf3
 377 0168 7B01      		movw r14,r22
 378 016a 8C01      		movw r16,r24
 379               	.LM62:
 380 016c 20E0      		ldi r18,lo8(0x3f800000)
 381 016e 30E0      		ldi r19,hi8(0x3f800000)
 382 0170 40E8      		ldi r20,hlo8(0x3f800000)
 383 0172 5FE3      		ldi r21,hhi8(0x3f800000)
 384 0174 0E94 0000 		call __ltsf2
 385 0178 8823      		tst r24
 386 017a 04F4      		brge .L52
 387 017c 61E0      		ldi r22,lo8(1)
 388               	.LVL24:
 389 017e 00C0      		rjmp .L36
 390               	.LVL25:
 391               	.L52:
 392               	.LM63:
 393 0180 C801      		movw r24,r16
 394 0182 B701      		movw r22,r14
 395 0184 20E0      		ldi r18,lo8(0x437f0000)
 396 0186 30E0      		ldi r19,hi8(0x437f0000)
 397 0188 4FE7      		ldi r20,hlo8(0x437f0000)
 398 018a 53E4      		ldi r21,hhi8(0x437f0000)
 399 018c 0E94 0000 		call __gtsf2
 400 0190 1816      		cp __zero_reg__,r24
 401 0192 04F0      		brlt .+2
 402 0194 00C0      		rjmp .L53
 403               	.LM64:
 404 0196 C601      		movw r24,r12
 405 0198 B501      		movw r22,r10
 406 019a 20E0      		ldi r18,lo8(0x447a0000)
 407 019c 30E0      		ldi r19,hi8(0x447a0000)
 408 019e 4AE7      		ldi r20,hlo8(0x447a0000)
 409 01a0 54E4      		ldi r21,hhi8(0x447a0000)
 410 01a2 0E94 0000 		call __divsf3
 411 01a6 5B01      		movw r10,r22
 412 01a8 6C01      		movw r12,r24
 413               	.LBB443:
 414               	.LBB444:
 415               	.LM65:
 416 01aa 20E0      		ldi r18,lo8(0x457a0000)
 417 01ac 30E0      		ldi r19,hi8(0x457a0000)
 418 01ae 4AE7      		ldi r20,hlo8(0x457a0000)
 419 01b0 55E4      		ldi r21,hhi8(0x457a0000)
 420 01b2 0E94 0000 		call __mulsf3
 421 01b6 7B01      		movw r14,r22
 422 01b8 8C01      		movw r16,r24
 423               	.LM66:
 424 01ba 20E0      		ldi r18,lo8(0x3f800000)
 425 01bc 30E0      		ldi r19,hi8(0x3f800000)
 426 01be 40E8      		ldi r20,hlo8(0x3f800000)
 427 01c0 5FE3      		ldi r21,hhi8(0x3f800000)
 428 01c2 0E94 0000 		call __ltsf2
 429 01c6 8823      		tst r24
 430 01c8 04F4      		brge .L54
 431 01ca 61E0      		ldi r22,lo8(1)
 432 01cc 70E0      		ldi r23,hi8(1)
 433               	.LVL26:
 434 01ce 00C0      		rjmp .L41
 435               	.LVL27:
 436               	.L54:
 437               	.LM67:
 438 01d0 C801      		movw r24,r16
 439 01d2 B701      		movw r22,r14
 440 01d4 20E0      		ldi r18,lo8(0x477fff00)
 441 01d6 3FEF      		ldi r19,hi8(0x477fff00)
 442 01d8 4FE7      		ldi r20,hlo8(0x477fff00)
 443 01da 57E4      		ldi r21,hhi8(0x477fff00)
 444 01dc 0E94 0000 		call __gtsf2
 445 01e0 1816      		cp __zero_reg__,r24
 446 01e2 04F4      		brge .L55
 447               	.LM68:
 448 01e4 C601      		movw r24,r12
 449 01e6 B501      		movw r22,r10
 450 01e8 20E0      		ldi r18,lo8(0x41200000)
 451 01ea 30E0      		ldi r19,hi8(0x41200000)
 452 01ec 40E2      		ldi r20,hlo8(0x41200000)
 453 01ee 51E4      		ldi r21,hhi8(0x41200000)
 454 01f0 0E94 0000 		call __mulsf3
 455 01f4 0E94 0000 		call __fixunssfsi
 456               	.LBB445:
 457               	.LBB446:
 458               	.LM69:
 459 01f8 80E9      		ldi r24,lo8(400)
 460 01fa 91E0      		ldi r25,hi8(400)
 461 01fc 00C0      		rjmp .L44
 462               	.LVL28:
 463               	.L45:
 464 01fe FC01      		movw r30,r24
 465               	/* #APP */
 466               	 ;  105 "c:/winavr-20100110/lib/gcc/../../avr/include/util/delay_basic.h" 1
 467 0200 3197      		1: sbiw r30,1
 468 0202 01F4      		brne 1b
 469               	 ;  0 "" 2
 470               	/* #NOAPP */
 471               	.LBE446:
 472               	.LBE445:
 473               	.LM70:
 474 0204 6150      		subi r22,lo8(-(-1))
 475 0206 7040      		sbci r23,hi8(-(-1))
 476               	.L44:
 477               	.LM71:
 478 0208 6115      		cp r22,__zero_reg__
 479 020a 7105      		cpc r23,__zero_reg__
 480 020c 01F4      		brne .L45
 481 020e 00C0      		rjmp .L47
 482               	.LVL29:
 483               	.L55:
 484               	.LM72:
 485 0210 C801      		movw r24,r16
 486 0212 B701      		movw r22,r14
 487 0214 0E94 0000 		call __fixunssfsi
 488               	.LVL30:
 489               	.L41:
 490               	.LBB447:
 491               	.LBB448:
 492               	.LM73:
 493 0218 CB01      		movw r24,r22
 494               	.LVL31:
 495               	/* #APP */
 496               	 ;  105 "c:/winavr-20100110/lib/gcc/../../avr/include/util/delay_basic.h" 1
 497 021a 0197      		1: sbiw r24,1
 498 021c 01F4      		brne 1b
 499               	 ;  0 "" 2
 500               	/* #NOAPP */
 501 021e 00C0      		rjmp .L47
 502               	.LVL32:
 503               	.L53:
 504               	.LBE448:
 505               	.LBE447:
 506               	.LBE444:
 507               	.LBE443:
 508               	.LM74:
 509 0220 C801      		movw r24,r16
 510 0222 B701      		movw r22,r14
 511 0224 0E94 0000 		call __fixunssfsi
 512               	.LVL33:
 513               	.L36:
 514               	.LBB449:
 515               	.LBB450:
 516               	.LM75:
 517               	/* #APP */
 518               	 ;  83 "c:/winavr-20100110/lib/gcc/../../avr/include/util/delay_basic.h" 1
 519 0228 6A95      		1: dec r22
 520 022a 01F4      		brne 1b
 521               	 ;  0 "" 2
 522               	.LVL34:
 523               	/* #NOAPP */
 524               	.L47:
 525               	/* epilogue start */
 526               	.LBE450:
 527               	.LBE449:
 528               	.LBE442:
 529               	.LBE441:
 530               	.LM76:
 531 022c 1F91      		pop r17
 532 022e 0F91      		pop r16
 533 0230 FF90      		pop r15
 534 0232 EF90      		pop r14
 535 0234 DF90      		pop r13
 536 0236 CF90      		pop r12
 537 0238 BF90      		pop r11
 538 023a AF90      		pop r10
 539 023c 0895      		ret
 540               	.LFE13:
 542               	.global	check_sensors
 544               	check_sensors:
 545               	.LFB14:
 546               	.LM77:
 547 023e 0F93      		push r16
 548 0240 1F93      		push r17
 549 0242 CF93      		push r28
 550 0244 DF93      		push r29
 551               	/* prologue: function */
 552               	/* frame size = 0 */
 553               	.LM78:
 554 0246 1092 0000 		sts sensorbyte,__zero_reg__
 555 024a C0E0      		ldi r28,lo8(0)
 556 024c D0E0      		ldi r29,hi8(0)
 557               	.LM79:
 558 024e 01E0      		ldi r16,lo8(1)
 559 0250 10E0      		ldi r17,hi8(1)
 560               	.L58:
 561               	.LM80:
 562 0252 8C2F      		mov r24,r28
 563 0254 0E94 0000 		call adc_start
 564               	.LM81:
 565 0258 8634      		cpi r24,lo8(70)
 566 025a 00F4      		brsh .L57
 567               	.LM82:
 568 025c 9801      		movw r18,r16
 569 025e 0C2E      		mov r0,r28
 570 0260 00C0      		rjmp 2f
 571 0262 220F      	1:	lsl r18
 572 0264 331F      		rol r19
 573 0266 0A94      	2:	dec r0
 574 0268 02F4      		brpl 1b
 575 026a 8091 0000 		lds r24,sensorbyte
 576 026e 822B      		or r24,r18
 577 0270 8093 0000 		sts sensorbyte,r24
 578               	.L57:
 579 0274 2196      		adiw r28,1
 580               	.LM83:
 581 0276 C430      		cpi r28,4
 582 0278 D105      		cpc r29,__zero_reg__
 583 027a 01F4      		brne .L58
 584               	/* epilogue start */
 585               	.LM84:
 586 027c DF91      		pop r29
 587 027e CF91      		pop r28
 588 0280 1F91      		pop r17
 589 0282 0F91      		pop r16
 590 0284 0895      		ret
 591               	.LFE14:
 593               	.global	calibrate_white
 595               	calibrate_white:
 596               	.LFB15:
 597               	.LM85:
 598               	/* prologue: function */
 599               	/* frame size = 0 */
 600               	.LM86:
 601 0286 80E0      		ldi r24,lo8(0)
 602 0288 0E94 0000 		call adc_start
 603 028c 8093 0000 		sts max,r24
 604 0290 81E0      		ldi r24,lo8(1)
 605 0292 0E94 0000 		call adc_start
 606 0296 8093 0000 		sts max+1,r24
 607 029a 82E0      		ldi r24,lo8(2)
 608 029c 0E94 0000 		call adc_start
 609 02a0 8093 0000 		sts max+2,r24
 610 02a4 83E0      		ldi r24,lo8(3)
 611 02a6 0E94 0000 		call adc_start
 612 02aa 8093 0000 		sts max+3,r24
 613               	/* epilogue start */
 614               	.LM87:
 615 02ae 0895      		ret
 616               	.LFE15:
 618               	.global	calibrate_black
 620               	calibrate_black:
 621               	.LFB16:
 622               	.LM88:
 623               	/* prologue: function */
 624               	/* frame size = 0 */
 625               	.LM89:
 626 02b0 80E0      		ldi r24,lo8(0)
 627 02b2 0E94 0000 		call adc_start
 628 02b6 8093 0000 		sts min,r24
 629 02ba 81E0      		ldi r24,lo8(1)
 630 02bc 0E94 0000 		call adc_start
 631 02c0 8093 0000 		sts min+1,r24
 632 02c4 82E0      		ldi r24,lo8(2)
 633 02c6 0E94 0000 		call adc_start
 634 02ca 8093 0000 		sts min+2,r24
 635 02ce 83E0      		ldi r24,lo8(3)
 636 02d0 0E94 0000 		call adc_start
 637 02d4 8093 0000 		sts min+3,r24
 638               	/* epilogue start */
 639               	.LM90:
 640 02d8 0895      		ret
 641               	.LFE16:
 643               	.global	flick
 645               	flick:
 646               	.LFB18:
 647               	.LM91:
 648 02da 1F93      		push r17
 649 02dc CF93      		push r28
 650 02de DF93      		push r29
 651               	/* prologue: function */
 652               	/* frame size = 0 */
 653               	.LM92:
 654 02e0 C0E0      		ldi r28,lo8(0)
 655 02e2 D0E0      		ldi r29,hi8(0)
 656               	.LVL35:
 657               	.LM93:
 658 02e4 1FEF      		ldi r17,lo8(-1)
 659               	.L66:
 660 02e6 15BB      		out 53-32,r17
 661               	.LM94:
 662 02e8 84E6      		ldi r24,lo8(100)
 663 02ea 90E0      		ldi r25,hi8(100)
 664 02ec 0E94 0000 		call delay_millisec
 665               	.LM95:
 666 02f0 15BA      		out 53-32,__zero_reg__
 667               	.LM96:
 668 02f2 84E6      		ldi r24,lo8(100)
 669 02f4 90E0      		ldi r25,hi8(100)
 670 02f6 0E94 0000 		call delay_millisec
 671               	.LM97:
 672 02fa 2196      		adiw r28,1
 673 02fc C530      		cpi r28,5
 674 02fe D105      		cpc r29,__zero_reg__
 675 0300 01F4      		brne .L66
 676               	/* epilogue start */
 677               	.LM98:
 678 0302 DF91      		pop r29
 679 0304 CF91      		pop r28
 680               	.LVL36:
 681 0306 1F91      		pop r17
 682 0308 0895      		ret
 683               	.LFE18:
 685               	.global	set_pwm1a
 687               	set_pwm1a:
 688               	.LFB19:
 689               	.LM99:
 690               	.LVL37:
 691               	/* prologue: function */
 692               	/* frame size = 0 */
 693               	.LM100:
 694 030a 9BBD      		out (74)+1-32,r25
 695 030c 8ABD      		out 74-32,r24
 696               	.LVL38:
 697               	/* epilogue start */
 698               	.LM101:
 699 030e 0895      		ret
 700               	.LFE19:
 702               	.global	set_pwm1b
 704               	set_pwm1b:
 705               	.LFB20:
 706               	.LM102:
 707               	.LVL39:
 708               	/* prologue: function */
 709               	/* frame size = 0 */
 710               	.LM103:
 711 0310 99BD      		out (72)+1-32,r25
 712 0312 88BD      		out 72-32,r24
 713               	.LVL40:
 714               	/* epilogue start */
 715               	.LM104:
 716 0314 0895      		ret
 717               	.LFE20:
 719               	.global	lcd_busy_loop
 721               	lcd_busy_loop:
 722               	.LFB22:
 723               	.LM105:
 724               	/* prologue: function */
 725               	/* frame size = 0 */
 726               	.LM106:
 727 0316 87B3      		in r24,55-32
 728 0318 807F      		andi r24,lo8(-16)
 729 031a 87BB      		out 55-32,r24
 730               	.LM107:
 731 031c C69A      		sbi 56-32,6
 732               	.LM108:
 733 031e C598      		cbi 56-32,5
 734               	.LBB451:
 735               	.LBB452:
 736               	.LBB453:
 737               	.LBB454:
 738               	.LM109:
 739 0320 82E0      		ldi r24,lo8(2)
 740               	.LVL41:
 741               	/* #APP */
 742               	 ;  83 "c:/winavr-20100110/lib/gcc/../../avr/include/util/delay_basic.h" 1
 743 0322 8A95      		1: dec r24
 744 0324 01F4      		brne 1b
 745               	 ;  0 "" 2
 746               	/* #NOAPP */
 747               	.LBE454:
 748               	.LBE453:
 749               	.LBE452:
 750               	.LBE451:
 751               	.LBB455:
 752               	.LBB456:
 753               	.LBB457:
 754               	.LBB458:
 755 0326 22E0      		ldi r18,lo8(2)
 756               	.LBE458:
 757               	.LBE457:
 758               	.LBE456:
 759               	.LBE455:
 760               	.LBB462:
 761               	.LBB463:
 762               	.LBB464:
 763               	.LBB465:
 764 0328 35E0      		ldi r19,lo8(5)
 765               	.L74:
 766               	.LBE465:
 767               	.LBE464:
 768               	.LBE463:
 769               	.LBE462:
 770               	.LM110:
 771 032a C79A      		sbi 56-32,7
 772               	.LBB469:
 773               	.LBB461:
 774               	.LBB460:
 775               	.LBB459:
 776               	.LM111:
 777 032c 822F      		mov r24,r18
 778               	.LVL42:
 779               	/* #APP */
 780               	 ;  83 "c:/winavr-20100110/lib/gcc/../../avr/include/util/delay_basic.h" 1
 781 032e 8A95      		1: dec r24
 782 0330 01F4      		brne 1b
 783               	 ;  0 "" 2
 784               	/* #NOAPP */
 785               	.LBE459:
 786               	.LBE460:
 787               	.LBE461:
 788               	.LBE469:
 789               	.LM112:
 790 0332 86B3      		in r24,54-32
 791               	.LVL43:
 792               	.LM113:
 793 0334 8295      		swap r24
 794 0336 807F      		andi r24,lo8(-16)
 795               	.LBB470:
 796               	.LBB471:
 797               	.LBB472:
 798               	.LBB473:
 799               	.LM114:
 800 0338 922F      		mov r25,r18
 801               	.LVL44:
 802               	/* #APP */
 803               	 ;  83 "c:/winavr-20100110/lib/gcc/../../avr/include/util/delay_basic.h" 1
 804 033a 9A95      		1: dec r25
 805 033c 01F4      		brne 1b
 806               	 ;  0 "" 2
 807               	/* #NOAPP */
 808               	.LBE473:
 809               	.LBE472:
 810               	.LBE471:
 811               	.LBE470:
 812               	.LM115:
 813 033e C798      		cbi 56-32,7
 814               	.LBB474:
 815               	.LBB468:
 816               	.LBB467:
 817               	.LBB466:
 818               	.LM116:
 819 0340 932F      		mov r25,r19
 820               	.LVL45:
 821               	/* #APP */
 822               	 ;  83 "c:/winavr-20100110/lib/gcc/../../avr/include/util/delay_basic.h" 1
 823 0342 9A95      		1: dec r25
 824 0344 01F4      		brne 1b
 825               	 ;  0 "" 2
 826               	/* #NOAPP */
 827               	.LBE466:
 828               	.LBE467:
 829               	.LBE468:
 830               	.LBE474:
 831               	.LM117:
 832 0346 C79A      		sbi 56-32,7
 833               	.LBB475:
 834               	.LBB476:
 835               	.LBB477:
 836               	.LBB478:
 837               	.LM118:
 838 0348 922F      		mov r25,r18
 839               	.LVL46:
 840               	/* #APP */
 841               	 ;  83 "c:/winavr-20100110/lib/gcc/../../avr/include/util/delay_basic.h" 1
 842 034a 9A95      		1: dec r25
 843 034c 01F4      		brne 1b
 844               	 ;  0 "" 2
 845               	/* #NOAPP */
 846               	.LBE478:
 847               	.LBE477:
 848               	.LBE476:
 849               	.LBE475:
 850               	.LM119:
 851 034e 96B3      		in r25,54-32
 852               	.LVL47:
 853               	.LBB479:
 854               	.LBB480:
 855               	.LBB481:
 856               	.LBB482:
 857               	.LM120:
 858 0350 922F      		mov r25,r18
 859               	.LVL48:
 860               	/* #APP */
 861               	 ;  83 "c:/winavr-20100110/lib/gcc/../../avr/include/util/delay_basic.h" 1
 862 0352 9A95      		1: dec r25
 863 0354 01F4      		brne 1b
 864               	 ;  0 "" 2
 865               	/* #NOAPP */
 866               	.LBE482:
 867               	.LBE481:
 868               	.LBE480:
 869               	.LBE479:
 870               	.LM121:
 871 0356 C798      		cbi 56-32,7
 872               	.LBB483:
 873               	.LBB484:
 874               	.LBB485:
 875               	.LBB486:
 876               	.LM122:
 877 0358 932F      		mov r25,r19
 878               	.LVL49:
 879               	/* #APP */
 880               	 ;  83 "c:/winavr-20100110/lib/gcc/../../avr/include/util/delay_basic.h" 1
 881 035a 9A95      		1: dec r25
 882 035c 01F4      		brne 1b
 883               	 ;  0 "" 2
 884               	/* #NOAPP */
 885               	.LBE486:
 886               	.LBE485:
 887               	.LBE484:
 888               	.LBE483:
 889               	.LM123:
 890 035e 87FD      		sbrc r24,7
 891 0360 00C0      		rjmp .L74
 892               	.LM124:
 893 0362 C698      		cbi 56-32,6
 894               	.LM125:
 895 0364 87B3      		in r24,55-32
 896               	.LVL50:
 897 0366 8F60      		ori r24,lo8(15)
 898 0368 87BB      		out 55-32,r24
 899               	/* epilogue start */
 900               	.LM126:
 901 036a 0895      		ret
 902               	.LFE22:
 904               	.global	lcd_byte
 906               	lcd_byte:
 907               	.LFB21:
 908               	.LM127:
 909               	.LVL51:
 910               	/* prologue: function */
 911               	/* frame size = 0 */
 912 036c 282F      		mov r18,r24
 913               	.LM128:
 914 036e 6623      		tst r22
 915 0370 01F4      		brne .L78
 916               	.LVL52:
 917               	.LM129:
 918 0372 C598      		cbi 56-32,5
 919 0374 00C0      		rjmp .L79
 920               	.L78:
 921               	.LM130:
 922 0376 C59A      		sbi 56-32,5
 923               	.L79:
 924               	.LBB487:
 925               	.LBB488:
 926               	.LBB489:
 927               	.LBB490:
 928               	.LM131:
 929 0378 82E0      		ldi r24,lo8(2)
 930               	.LVL53:
 931               	/* #APP */
 932               	 ;  83 "c:/winavr-20100110/lib/gcc/../../avr/include/util/delay_basic.h" 1
 933 037a 8A95      		1: dec r24
 934 037c 01F4      		brne 1b
 935               	 ;  0 "" 2
 936               	/* #NOAPP */
 937               	.LBE490:
 938               	.LBE489:
 939               	.LBE488:
 940               	.LBE487:
 941               	.LM132:
 942 037e C79A      		sbi 56-32,7
 943               	.LM133:
 944 0380 88B3      		in r24,56-32
 945               	.LVL54:
 946 0382 922F      		mov r25,r18
 947 0384 9295      		swap r25
 948 0386 9F70      		andi r25,lo8(15)
 949 0388 807F      		andi r24,lo8(-16)
 950 038a 982B      		or r25,r24
 951               	.LM134:
 952 038c 98BB      		out 56-32,r25
 953               	.LBB491:
 954               	.LBB492:
 955               	.LBB493:
 956               	.LBB494:
 957               	.LM135:
 958 038e 95E0      		ldi r25,lo8(5)
 959 0390 892F      		mov r24,r25
 960               	.LVL55:
 961               	/* #APP */
 962               	 ;  83 "c:/winavr-20100110/lib/gcc/../../avr/include/util/delay_basic.h" 1
 963 0392 8A95      		1: dec r24
 964 0394 01F4      		brne 1b
 965               	 ;  0 "" 2
 966               	/* #NOAPP */
 967               	.LBE494:
 968               	.LBE493:
 969               	.LBE492:
 970               	.LBE491:
 971               	.LM136:
 972 0396 C798      		cbi 56-32,7
 973               	.LBB495:
 974               	.LBB496:
 975               	.LBB497:
 976               	.LBB498:
 977               	.LM137:
 978 0398 892F      		mov r24,r25
 979               	.LVL56:
 980               	/* #APP */
 981               	 ;  83 "c:/winavr-20100110/lib/gcc/../../avr/include/util/delay_basic.h" 1
 982 039a 8A95      		1: dec r24
 983 039c 01F4      		brne 1b
 984               	 ;  0 "" 2
 985               	/* #NOAPP */
 986               	.LBE498:
 987               	.LBE497:
 988               	.LBE496:
 989               	.LBE495:
 990               	.LM138:
 991 039e C79A      		sbi 56-32,7
 992               	.LM139:
 993 03a0 88B3      		in r24,56-32
 994               	.LVL57:
 995 03a2 2F70      		andi r18,lo8(15)
 996 03a4 807F      		andi r24,lo8(-16)
 997 03a6 822B      		or r24,r18
 998               	.LM140:
 999 03a8 88BB      		out 56-32,r24
 1000               	.LBB499:
 1001               	.LBB500:
 1002               	.LBB501:
 1003               	.LBB502:
 1004               	.LM141:
 1005 03aa 892F      		mov r24,r25
 1006               	.LVL58:
 1007               	/* #APP */
 1008               	 ;  83 "c:/winavr-20100110/lib/gcc/../../avr/include/util/delay_basic.h" 1
 1009 03ac 8A95      		1: dec r24
 1010 03ae 01F4      		brne 1b
 1011               	 ;  0 "" 2
 1012               	/* #NOAPP */
 1013               	.LBE502:
 1014               	.LBE501:
 1015               	.LBE500:
 1016               	.LBE499:
 1017               	.LM142:
 1018 03b0 C798      		cbi 56-32,7
 1019               	.LBB503:
 1020               	.LBB504:
 1021               	.LBB505:
 1022               	.LBB506:
 1023               	.LM143:
 1024               	/* #APP */
 1025               	 ;  83 "c:/winavr-20100110/lib/gcc/../../avr/include/util/delay_basic.h" 1
 1026 03b2 9A95      		1: dec r25
 1027 03b4 01F4      		brne 1b
 1028               	 ;  0 "" 2
 1029               	.LVL59:
 1030               	/* #NOAPP */
 1031               	.LBE506:
 1032               	.LBE505:
 1033               	.LBE504:
 1034               	.LBE503:
 1035               	.LM144:
 1036 03b6 0E94 0000 		call lcd_busy_loop
 1037               	.LVL60:
 1038               	/* epilogue start */
 1039               	.LM145:
 1040 03ba 0895      		ret
 1041               	.LFE21:
 1043               	.global	lcd_init
 1045               	lcd_init:
 1046               	.LFB23:
 1047               	.LM146:
 1048               	.LVL61:
 1049 03bc 1F93      		push r17
 1050               	/* prologue: function */
 1051               	/* frame size = 0 */
 1052 03be 182F      		mov r17,r24
 1053               	.LM147:
 1054 03c0 8CE2      		ldi r24,lo8(300)
 1055 03c2 91E0      		ldi r25,hi8(300)
 1056               	.LVL62:
 1057               	.LBB507:
 1058               	.LBB508:
 1059               	.LBB509:
 1060               	.LBB510:
 1061               	.LM148:
 1062 03c4 20E9      		ldi r18,lo8(400)
 1063 03c6 31E0      		ldi r19,hi8(400)
 1064               	.L82:
 1065 03c8 F901      		movw r30,r18
 1066               	.LVL63:
 1067               	/* #APP */
 1068               	 ;  105 "c:/winavr-20100110/lib/gcc/../../avr/include/util/delay_basic.h" 1
 1069 03ca 3197      		1: sbiw r30,1
 1070 03cc 01F4      		brne 1b
 1071               	 ;  0 "" 2
 1072               	/* #NOAPP */
 1073               	.LBE510:
 1074               	.LBE509:
 1075               	.LM149:
 1076 03ce 0197      		sbiw r24,1
 1077               	.LM150:
 1078 03d0 01F4      		brne .L82
 1079               	.LBE508:
 1080               	.LBE507:
 1081               	.LM151:
 1082 03d2 87B3      		in r24,55-32
 1083               	.LVL64:
 1084 03d4 8F60      		ori r24,lo8(15)
 1085 03d6 87BB      		out 55-32,r24
 1086               	.LM152:
 1087 03d8 BF9A      		sbi 55-32,7
 1088               	.LM153:
 1089 03da BD9A      		sbi 55-32,5
 1090               	.LM154:
 1091 03dc BE9A      		sbi 55-32,6
 1092               	.LM155:
 1093 03de 88B3      		in r24,56-32
 1094 03e0 807F      		andi r24,lo8(-16)
 1095 03e2 88BB      		out 56-32,r24
 1096               	.LM156:
 1097 03e4 C798      		cbi 56-32,7
 1098               	.LM157:
 1099 03e6 C698      		cbi 56-32,6
 1100               	.LM158:
 1101 03e8 C598      		cbi 56-32,5
 1102               	.LBB511:
 1103               	.LBB512:
 1104               	.LBB513:
 1105               	.LBB514:
 1106               	.LM159:
 1107 03ea 81E0      		ldi r24,lo8(1)
 1108               	.LVL65:
 1109               	/* #APP */
 1110               	 ;  83 "c:/winavr-20100110/lib/gcc/../../avr/include/util/delay_basic.h" 1
 1111 03ec 8A95      		1: dec r24
 1112 03ee 01F4      		brne 1b
 1113               	 ;  0 "" 2
 1114               	/* #NOAPP */
 1115               	.LBE514:
 1116               	.LBE513:
 1117               	.LBE512:
 1118               	.LBE511:
 1119               	.LM160:
 1120 03f0 C79A      		sbi 56-32,7
 1121               	.LM161:
 1122 03f2 C19A      		sbi 56-32,1
 1123               	.LBB515:
 1124               	.LBB516:
 1125               	.LBB517:
 1126               	.LBB518:
 1127               	.LM162:
 1128 03f4 85E0      		ldi r24,lo8(5)
 1129               	.LVL66:
 1130 03f6 982F      		mov r25,r24
 1131               	.LVL67:
 1132               	/* #APP */
 1133               	 ;  83 "c:/winavr-20100110/lib/gcc/../../avr/include/util/delay_basic.h" 1
 1134 03f8 9A95      		1: dec r25
 1135 03fa 01F4      		brne 1b
 1136               	 ;  0 "" 2
 1137               	/* #NOAPP */
 1138               	.LBE518:
 1139               	.LBE517:
 1140               	.LBE516:
 1141               	.LBE515:
 1142               	.LM163:
 1143 03fc C798      		cbi 56-32,7
 1144               	.LBB519:
 1145               	.LBB520:
 1146               	.LBB521:
 1147               	.LBB522:
 1148               	.LM164:
 1149               	/* #APP */
 1150               	 ;  83 "c:/winavr-20100110/lib/gcc/../../avr/include/util/delay_basic.h" 1
 1151 03fe 8A95      		1: dec r24
 1152 0400 01F4      		brne 1b
 1153               	 ;  0 "" 2
 1154               	.LVL68:
 1155               	/* #NOAPP */
 1156               	.LBE522:
 1157               	.LBE521:
 1158               	.LBE520:
 1159               	.LBE519:
 1160               	.LM165:
 1161 0402 0E94 0000 		call lcd_busy_loop
 1162               	.LVL69:
 1163               	.LM166:
 1164 0406 812F      		mov r24,r17
 1165 0408 8C60      		ori r24,lo8(12)
 1166 040a 60E0      		ldi r22,lo8(0)
 1167 040c 0E94 0000 		call lcd_byte
 1168               	.LM167:
 1169 0410 88E2      		ldi r24,lo8(40)
 1170 0412 60E0      		ldi r22,lo8(0)
 1171 0414 0E94 0000 		call lcd_byte
 1172               	/* epilogue start */
 1173               	.LM168:
 1174 0418 1F91      		pop r17
 1175               	.LVL70:
 1176 041a 0895      		ret
 1177               	.LFE23:
 1179               	.global	lcd_write_string
 1181               	lcd_write_string:
 1182               	.LFB24:
 1183               	.LM169:
 1184               	.LVL71:
 1185 041c CF93      		push r28
 1186 041e DF93      		push r29
 1187               	/* prologue: function */
 1188               	/* frame size = 0 */
 1189 0420 EC01      		movw r28,r24
 1190 0422 00C0      		rjmp .L86
 1191               	.LVL72:
 1192               	.L87:
 1193               	.LM170:
 1194 0424 61E0      		ldi r22,lo8(1)
 1195 0426 0E94 0000 		call lcd_byte
 1196               	.LM171:
 1197 042a 2196      		adiw r28,1
 1198               	.LVL73:
 1199               	.L86:
 1200               	.LM172:
 1201 042c 8881      		ld r24,Y
 1202 042e 8823      		tst r24
 1203 0430 01F4      		brne .L87
 1204               	/* epilogue start */
 1205               	.LM173:
 1206 0432 DF91      		pop r29
 1207 0434 CF91      		pop r28
 1208               	.LVL74:
 1209 0436 0895      		ret
 1210               	.LFE24:
 1212               	.global	lcd_write_int
 1214               	lcd_write_int:
 1215               	.LFB25:
 1216               	.LM174:
 1217               	.LVL75:
 1218 0438 EF92      		push r14
 1219 043a FF92      		push r15
 1220 043c 0F93      		push r16
 1221 043e 1F93      		push r17
 1222 0440 DF93      		push r29
 1223 0442 CF93      		push r28
 1224 0444 00D0      		rcall .
 1225 0446 00D0      		rcall .
 1226 0448 0F92      		push __tmp_reg__
 1227 044a CDB7      		in r28,__SP_L__
 1228 044c DEB7      		in r29,__SP_H__
 1229               	/* prologue: function */
 1230               	/* frame size = 5 */
 1231 044e 9C01      		movw r18,r24
 1232 0450 8B01      		movw r16,r22
 1233               	.LM175:
 1234 0452 FE01      		movw r30,r28
 1235 0454 3196      		adiw r30,1
 1236 0456 85E0      		ldi r24,lo8(5)
 1237               	.LVL76:
 1238 0458 DF01      		movw r26,r30
 1239 045a 1D92      		st X+,__zero_reg__
 1240 045c 8A95      	        dec r24
 1241 045e 01F4      		brne .-6
 1242 0460 FE01      		movw r30,r28
 1243 0462 3596      		adiw r30,5
 1244 0464 00C0      		rjmp .L90
 1245               	.LVL77:
 1246               	.L91:
 1247               	.LM176:
 1248 0466 C901      		movw r24,r18
 1249 0468 6AE0      		ldi r22,lo8(10)
 1250 046a 70E0      		ldi r23,hi8(10)
 1251 046c 0E94 0000 		call __divmodhi4
 1252 0470 8083      		st Z,r24
 1253               	.LM177:
 1254 0472 C901      		movw r24,r18
 1255 0474 6AE0      		ldi r22,lo8(10)
 1256 0476 70E0      		ldi r23,hi8(10)
 1257 0478 0E94 0000 		call __divmodhi4
 1258 047c 9B01      		movw r18,r22
 1259 047e 3197      		sbiw r30,1
 1260               	.LVL78:
 1261               	.L90:
 1262               	.LM178:
 1263 0480 2115      		cp r18,__zero_reg__
 1264 0482 3105      		cpc r19,__zero_reg__
 1265 0484 01F4      		brne .L91
 1266               	.LM179:
 1267 0486 BFEF      		ldi r27,hi8(-1)
 1268 0488 0F3F      		cpi r16,lo8(-1)
 1269 048a 1B07      		cpc r17,r27
 1270 048c 01F4      		brne .L92
 1271 048e 20E0      		ldi r18,lo8(0)
 1272 0490 30E0      		ldi r19,hi8(0)
 1273               	.LVL79:
 1274               	.LM180:
 1275 0492 AE01      		movw r20,r28
 1276 0494 4F5F      		subi r20,lo8(-(1))
 1277 0496 5F4F      		sbci r21,hi8(-(1))
 1278 0498 00C0      		rjmp .L93
 1279               	.L94:
 1280 049a 2F5F      		subi r18,lo8(-(1))
 1281 049c 3F4F      		sbci r19,hi8(-(1))
 1282               	.L93:
 1283 049e FA01      		movw r30,r20
 1284 04a0 E20F      		add r30,r18
 1285 04a2 F31F      		adc r31,r19
 1286 04a4 8081      		ld r24,Z
 1287 04a6 8823      		tst r24
 1288 04a8 01F0      		breq .L94
 1289 04aa 00C0      		rjmp .L95
 1290               	.LVL80:
 1291               	.L92:
 1292               	.LM181:
 1293 04ac 25E0      		ldi r18,lo8(5)
 1294 04ae 30E0      		ldi r19,hi8(5)
 1295               	.LVL81:
 1296 04b0 201B      		sub r18,r16
 1297 04b2 310B      		sbc r19,r17
 1298               	.L95:
 1299 04b4 7E01      		movw r14,r28
 1300 04b6 0894      		sec
 1301 04b8 E11C      		adc r14,__zero_reg__
 1302 04ba F11C      		adc r15,__zero_reg__
 1303 04bc E20E      		add r14,r18
 1304 04be F31E      		adc r15,r19
 1305 04c0 8901      		movw r16,r18
 1306               	.LVL82:
 1307 04c2 00C0      		rjmp .L96
 1308               	.L97:
 1309               	.LM182:
 1310 04c4 F701      		movw r30,r14
 1311 04c6 8191      		ld r24,Z+
 1312 04c8 7F01      		movw r14,r30
 1313 04ca 805D      		subi r24,lo8(-(48))
 1314 04cc 61E0      		ldi r22,lo8(1)
 1315               	.LVL83:
 1316 04ce 0E94 0000 		call lcd_byte
 1317               	.LVL84:
 1318               	.LM183:
 1319 04d2 0F5F      		subi r16,lo8(-(1))
 1320 04d4 1F4F      		sbci r17,hi8(-(1))
 1321               	.LVL85:
 1322               	.L96:
 1323 04d6 0530      		cpi r16,5
 1324 04d8 1105      		cpc r17,__zero_reg__
 1325 04da 04F0      		brlt .L97
 1326               	/* epilogue start */
 1327               	.LM184:
 1328 04dc 0F90      		pop __tmp_reg__
 1329 04de 0F90      		pop __tmp_reg__
 1330 04e0 0F90      		pop __tmp_reg__
 1331 04e2 0F90      		pop __tmp_reg__
 1332 04e4 0F90      		pop __tmp_reg__
 1333 04e6 CF91      		pop r28
 1334 04e8 DF91      		pop r29
 1335 04ea 1F91      		pop r17
 1336 04ec 0F91      		pop r16
 1337               	.LVL86:
 1338 04ee FF90      		pop r15
 1339 04f0 EF90      		pop r14
 1340 04f2 0895      		ret
 1341               	.LFE25:
 1343               	.global	lcd_goto_xy
 1345               	lcd_goto_xy:
 1346               	.LFB26:
 1347               	.LM185:
 1348               	.LVL87:
 1349               	/* prologue: function */
 1350               	/* frame size = 0 */
 1351               	.LM186:
 1352 04f4 8832      		cpi r24,lo8(40)
 1353 04f6 00F4      		brsh .L102
 1354               	.LM187:
 1355 04f8 6111      		cpse r22,__zero_reg__
 1356 04fa 8064      		ori r24,lo8(64)
 1357               	.LVL88:
 1358               	.L101:
 1359               	.LM188:
 1360 04fc 8068      		ori r24,lo8(-128)
 1361               	.LVL89:
 1362 04fe 60E0      		ldi r22,lo8(0)
 1363               	.LVL90:
 1364 0500 0E94 0000 		call lcd_byte
 1365               	.LVL91:
 1366               	.L102:
 1367 0504 0895      		ret
 1368               	.LFE26:
 1370               	.global	lcd_write_string_xy
 1372               	lcd_write_string_xy:
 1373               	.LFB27:
 1374               	.LM189:
 1375               	.LVL92:
 1376 0506 0F93      		push r16
 1377 0508 1F93      		push r17
 1378               	/* prologue: function */
 1379               	/* frame size = 0 */
 1380 050a 8A01      		movw r16,r20
 1381               	.LM190:
 1382 050c 0E94 0000 		call lcd_goto_xy
 1383               	.LVL93:
 1384               	.LM191:
 1385 0510 C801      		movw r24,r16
 1386 0512 0E94 0000 		call lcd_write_string
 1387               	/* epilogue start */
 1388               	.LM192:
 1389 0516 1F91      		pop r17
 1390 0518 0F91      		pop r16
 1391               	.LVL94:
 1392 051a 0895      		ret
 1393               	.LFE27:
 1395               	.global	lcd_write_int_xy
 1397               	lcd_write_int_xy:
 1398               	.LFB28:
 1399               	.LM193:
 1400               	.LVL95:
 1401 051c EF92      		push r14
 1402 051e FF92      		push r15
 1403 0520 0F93      		push r16
 1404 0522 1F93      		push r17
 1405               	/* prologue: function */
 1406               	/* frame size = 0 */
 1407 0524 8A01      		movw r16,r20
 1408 0526 7901      		movw r14,r18
 1409               	.LM194:
 1410 0528 0E94 0000 		call lcd_goto_xy
 1411               	.LVL96:
 1412               	.LM195:
 1413 052c C801      		movw r24,r16
 1414 052e B701      		movw r22,r14
 1415 0530 0E94 0000 		call lcd_write_int
 1416               	/* epilogue start */
 1417               	.LM196:
 1418 0534 1F91      		pop r17
 1419 0536 0F91      		pop r16
 1420               	.LVL97:
 1421 0538 FF90      		pop r15
 1422 053a EF90      		pop r14
 1423               	.LVL98:
 1424 053c 0895      		ret
 1425               	.LFE28:
 1427               	.global	usart_init
 1429               	usart_init:
 1430               	.LFB29:
 1431               	.LM197:
 1432               	/* prologue: function */
 1433               	/* frame size = 0 */
 1434               	.LM198:
 1435 053e 1AB8      		out 42-32,__zero_reg__
 1436               	.LM199:
 1437 0540 1BB8      		out 43-32,__zero_reg__
 1438               	.LM200:
 1439 0542 87E0      		ldi r24,lo8(7)
 1440 0544 80BD      		out 64-32,r24
 1441               	.LM201:
 1442 0546 87E6      		ldi r24,lo8(103)
 1443 0548 89B9      		out 41-32,r24
 1444               	.LM202:
 1445 054a 10BC      		out 64-32,__zero_reg__
 1446               	.LM203:
 1447 054c 88E9      		ldi r24,lo8(-104)
 1448 054e 8AB9      		out 42-32,r24
 1449               	/* epilogue start */
 1450               	.LM204:
 1451 0550 0895      		ret
 1452               	.LFE29:
 1454               	.global	usart_transmit_char
 1456               	usart_transmit_char:
 1457               	.LFB30:
 1458               	.LM205:
 1459               	/* prologue: function */
 1460               	/* frame size = 0 */
 1461               	.LVL99:
 1462               	.L110:
 1463               	.LM206:
 1464 0552 5D9B      		sbis 43-32,5
 1465 0554 00C0      		rjmp .L110
 1466               	.LM207:
 1467 0556 8CB9      		out 44-32,r24
 1468               	/* epilogue start */
 1469               	.LM208:
 1470 0558 0895      		ret
 1471               	.LFE30:
 1473               	.global	usart_transmit_string
 1475               	usart_transmit_string:
 1476               	.LFB31:
 1477               	.LM209:
 1478               	.LVL100:
 1479               	/* prologue: function */
 1480               	/* frame size = 0 */
 1481 055a FC01      		movw r30,r24
 1482 055c 00C0      		rjmp .L114
 1483               	.LVL101:
 1484               	.L117:
 1485               	.LBB523:
 1486               	.LBB524:
 1487               	.LM210:
 1488 055e 5D9B      		sbis 43-32,5
 1489 0560 00C0      		rjmp .L117
 1490               	.LM211:
 1491 0562 8CB9      		out 44-32,r24
 1492               	.LBE524:
 1493               	.LBE523:
 1494               	.LM212:
 1495 0564 3196      		adiw r30,1
 1496               	.LVL102:
 1497               	.L114:
 1498               	.LM213:
 1499 0566 8081      		ld r24,Z
 1500 0568 8823      		tst r24
 1501 056a 01F4      		brne .L117
 1502               	/* epilogue start */
 1503               	.LM214:
 1504 056c 0895      		ret
 1505               	.LFE31:
 1507               	.global	usart_transmit_newline
 1509               	usart_transmit_newline:
 1510               	.LFB32:
 1511               	.LM215:
 1512               	/* prologue: function */
 1513               	/* frame size = 0 */
 1514               	.L120:
 1515               	.LBB525:
 1516               	.LBB526:
 1517               	.LM216:
 1518 056e 5D9B      		sbis 43-32,5
 1519 0570 00C0      		rjmp .L120
 1520               	.LM217:
 1521 0572 8AE0      		ldi r24,lo8(10)
 1522 0574 8CB9      		out 44-32,r24
 1523               	.L121:
 1524               	.LBE526:
 1525               	.LBE525:
 1526               	.LBB527:
 1527               	.LBB528:
 1528               	.LM218:
 1529 0576 5D9B      		sbis 43-32,5
 1530 0578 00C0      		rjmp .L121
 1531               	.LM219:
 1532 057a 8DE0      		ldi r24,lo8(13)
 1533 057c 8CB9      		out 44-32,r24
 1534               	/* epilogue start */
 1535               	.LBE528:
 1536               	.LBE527:
 1537               	.LM220:
 1538 057e 0895      		ret
 1539               	.LFE32:
 1541               	.global	usart_receive_char
 1543               	usart_receive_char:
 1544               	.LFB33:
 1545               	.LM221:
 1546               	/* prologue: function */
 1547               	/* frame size = 0 */
 1548               	.L126:
 1549               	.LM222:
 1550 0580 5F9B      		sbis 43-32,7
 1551 0582 00C0      		rjmp .L126
 1552               	.LM223:
 1553 0584 8CB1      		in r24,44-32
 1554               	/* epilogue start */
 1555               	.LM224:
 1556 0586 0895      		ret
 1557               	.LFE33:
 1559               	.global	bot_motion_init
 1561               	bot_motion_init:
 1562               	.LFB34:
 1563               	.LM225:
 1564               	/* prologue: function */
 1565               	/* frame size = 0 */
 1566               	.LM226:
 1567 0588 8FEF      		ldi r24,lo8(-1)
 1568 058a 84BB      		out 52-32,r24
 1569               	/* epilogue start */
 1570               	.LM227:
 1571 058c 0895      		ret
 1572               	.LFE34:
 1574               	.global	bot_left_forward
 1576               	bot_left_forward:
 1577               	.LFB35:
 1578               	.LM228:
 1579               	/* prologue: function */
 1580               	/* frame size = 0 */
 1581               	.LM229:
 1582 058e AC9A      		sbi 53-32,4
 1583               	.LM230:
 1584 0590 AD98      		cbi 53-32,5
 1585               	.LM231:
 1586 0592 AE98      		cbi 53-32,6
 1587               	.LM232:
 1588 0594 AF98      		cbi 53-32,7
 1589               	/* epilogue start */
 1590               	.LM233:
 1591 0596 0895      		ret
 1592               	.LFE35:
 1594               	.global	bot_left_backward
 1596               	bot_left_backward:
 1597               	.LFB36:
 1598               	.LM234:
 1599               	/* prologue: function */
 1600               	/* frame size = 0 */
 1601               	.LM235:
 1602 0598 AC98      		cbi 53-32,4
 1603               	.LM236:
 1604 059a AD9A      		sbi 53-32,5
 1605               	.LM237:
 1606 059c AE98      		cbi 53-32,6
 1607               	.LM238:
 1608 059e AF98      		cbi 53-32,7
 1609               	/* epilogue start */
 1610               	.LM239:
 1611 05a0 0895      		ret
 1612               	.LFE36:
 1614               	.global	bot_right_forward
 1616               	bot_right_forward:
 1617               	.LFB37:
 1618               	.LM240:
 1619               	/* prologue: function */
 1620               	/* frame size = 0 */
 1621               	.LM241:
 1622 05a2 AC98      		cbi 53-32,4
 1623               	.LM242:
 1624 05a4 AD98      		cbi 53-32,5
 1625               	.LM243:
 1626 05a6 AE9A      		sbi 53-32,6
 1627               	.LM244:
 1628 05a8 AF98      		cbi 53-32,7
 1629               	/* epilogue start */
 1630               	.LM245:
 1631 05aa 0895      		ret
 1632               	.LFE37:
 1634               	.global	bot_left
 1636               	bot_left:
 1637               	.LFB38:
 1638               	.LM246:
 1639               	/* prologue: function */
 1640               	/* frame size = 0 */
 1641               	.LBB529:
 1642               	.LBB530:
 1643               	.LM247:
 1644 05ac AC98      		cbi 53-32,4
 1645               	.LM248:
 1646 05ae AD98      		cbi 53-32,5
 1647               	.LM249:
 1648 05b0 AE9A      		sbi 53-32,6
 1649               	.LM250:
 1650 05b2 AF98      		cbi 53-32,7
 1651               	/* epilogue start */
 1652               	.LBE530:
 1653               	.LBE529:
 1654               	.LM251:
 1655 05b4 0895      		ret
 1656               	.LFE38:
 1658               	.global	bot_right
 1660               	bot_right:
 1661               	.LFB39:
 1662               	.LM252:
 1663               	/* prologue: function */
 1664               	/* frame size = 0 */
 1665               	.LBB531:
 1666               	.LBB532:
 1667               	.LM253:
 1668 05b6 AC9A      		sbi 53-32,4
 1669               	.LM254:
 1670 05b8 AD98      		cbi 53-32,5
 1671               	.LM255:
 1672 05ba AE98      		cbi 53-32,6
 1673               	.LM256:
 1674 05bc AF98      		cbi 53-32,7
 1675               	/* epilogue start */
 1676               	.LBE532:
 1677               	.LBE531:
 1678               	.LM257:
 1679 05be 0895      		ret
 1680               	.LFE39:
 1682               	.global	bot_right_backward
 1684               	bot_right_backward:
 1685               	.LFB40:
 1686               	.LM258:
 1687               	/* prologue: function */
 1688               	/* frame size = 0 */
 1689               	.LM259:
 1690 05c0 AC98      		cbi 53-32,4
 1691               	.LM260:
 1692 05c2 AD98      		cbi 53-32,5
 1693               	.LM261:
 1694 05c4 AE98      		cbi 53-32,6
 1695               	.LM262:
 1696 05c6 AF9A      		sbi 53-32,7
 1697               	/* epilogue start */
 1698               	.LM263:
 1699 05c8 0895      		ret
 1700               	.LFE40:
 1702               	.global	bot_forward
 1704               	bot_forward:
 1705               	.LFB41:
 1706               	.LM264:
 1707               	/* prologue: function */
 1708               	/* frame size = 0 */
 1709               	.LM265:
 1710 05ca AC9A      		sbi 53-32,4
 1711               	.LM266:
 1712 05cc AD98      		cbi 53-32,5
 1713               	.LM267:
 1714 05ce AE9A      		sbi 53-32,6
 1715               	.LM268:
 1716 05d0 AF98      		cbi 53-32,7
 1717               	/* epilogue start */
 1718               	.LM269:
 1719 05d2 0895      		ret
 1720               	.LFE41:
 1722               	.global	bot_backward
 1724               	bot_backward:
 1725               	.LFB42:
 1726               	.LM270:
 1727               	/* prologue: function */
 1728               	/* frame size = 0 */
 1729               	.LM271:
 1730 05d4 AC98      		cbi 53-32,4
 1731               	.LM272:
 1732 05d6 AD9A      		sbi 53-32,5
 1733               	.LM273:
 1734 05d8 AE98      		cbi 53-32,6
 1735               	.LM274:
 1736 05da AF9A      		sbi 53-32,7
 1737               	/* epilogue start */
 1738               	.LM275:
 1739 05dc 0895      		ret
 1740               	.LFE42:
 1742               	.global	bot_spot_left
 1744               	bot_spot_left:
 1745               	.LFB43:
 1746               	.LM276:
 1747               	/* prologue: function */
 1748               	/* frame size = 0 */
 1749               	.LM277:
 1750 05de AC98      		cbi 53-32,4
 1751               	.LM278:
 1752 05e0 AD9A      		sbi 53-32,5
 1753               	.LM279:
 1754 05e2 AE9A      		sbi 53-32,6
 1755               	.LM280:
 1756 05e4 AF98      		cbi 53-32,7
 1757               	/* epilogue start */
 1758               	.LM281:
 1759 05e6 0895      		ret
 1760               	.LFE43:
 1762               	.global	bot_spot_right
 1764               	bot_spot_right:
 1765               	.LFB44:
 1766               	.LM282:
 1767               	/* prologue: function */
 1768               	/* frame size = 0 */
 1769               	.LM283:
 1770 05e8 AC9A      		sbi 53-32,4
 1771               	.LM284:
 1772 05ea AD98      		cbi 53-32,5
 1773               	.LM285:
 1774 05ec AE98      		cbi 53-32,6
 1775               	.LM286:
 1776 05ee AF9A      		sbi 53-32,7
 1777               	/* epilogue start */
 1778               	.LM287:
 1779 05f0 0895      		ret
 1780               	.LFE44:
 1782               	.global	bot_stop
 1784               	bot_stop:
 1785               	.LFB45:
 1786               	.LM288:
 1787               	/* prologue: function */
 1788               	/* frame size = 0 */
 1789               	.LM289:
 1790 05f2 AC98      		cbi 53-32,4
 1791               	.LM290:
 1792 05f4 AD98      		cbi 53-32,5
 1793               	.LM291:
 1794 05f6 AE98      		cbi 53-32,6
 1795               	.LM292:
 1796 05f8 AF98      		cbi 53-32,7
 1797               	/* epilogue start */
 1798               	.LM293:
 1799 05fa 0895      		ret
 1800               	.LFE45:
 1802               	.global	bot_brake
 1804               	bot_brake:
 1805               	.LFB46:
 1806               	.LM294:
 1807               	/* prologue: function */
 1808               	/* frame size = 0 */
 1809               	.LM295:
 1810 05fc AC9A      		sbi 53-32,4
 1811               	.LM296:
 1812 05fe AD9A      		sbi 53-32,5
 1813               	.LM297:
 1814 0600 AE9A      		sbi 53-32,6
 1815               	.LM298:
 1816 0602 AF9A      		sbi 53-32,7
 1817               	/* epilogue start */
 1818               	.LM299:
 1819 0604 0895      		ret
 1820               	.LFE46:
 1822               	.global	switch_init
 1824               	switch_init:
 1825               	.LFB47:
 1826               	.LM300:
 1827               	/* prologue: function */
 1828               	/* frame size = 0 */
 1829               	.LM301:
 1830 0606 82B3      		in r24,50-32
 1831 0608 8F60      		ori r24,lo8(15)
 1832 060a 82BB      		out 50-32,r24
 1833               	.LM302:
 1834 060c 81B3      		in r24,49-32
 1835 060e 807F      		andi r24,lo8(-16)
 1836 0610 81BB      		out 49-32,r24
 1837               	/* epilogue start */
 1838               	.LM303:
 1839 0612 0895      		ret
 1840               	.LFE47:
 1842               	.global	pressed_switch0
 1844               	pressed_switch0:
 1845               	.LFB48:
 1846               	.LM304:
 1847               	/* prologue: function */
 1848               	/* frame size = 0 */
 1849               	.LM305:
 1850 0614 20B3      		in r18,48-32
 1851 0616 30E0      		ldi r19,lo8(0)
 1852 0618 2095      		com r18
 1853 061a 3095      		com r19
 1854 061c 2170      		andi r18,lo8(1)
 1855 061e 3070      		andi r19,hi8(1)
 1856               	.LM306:
 1857 0620 C901      		movw r24,r18
 1858               	/* epilogue start */
 1859 0622 0895      		ret
 1860               	.LFE48:
 1862               	.global	pressed_switch1
 1864               	pressed_switch1:
 1865               	.LFB49:
 1866               	.LM307:
 1867               	/* prologue: function */
 1868               	/* frame size = 0 */
 1869               	.LM308:
 1870 0624 20B3      		in r18,48-32
 1871 0626 30E0      		ldi r19,lo8(0)
 1872 0628 3695      		lsr r19
 1873 062a 2795      		ror r18
 1874 062c 2095      		com r18
 1875 062e 3095      		com r19
 1876 0630 2170      		andi r18,lo8(1)
 1877 0632 3070      		andi r19,hi8(1)
 1878               	.LM309:
 1879 0634 C901      		movw r24,r18
 1880               	/* epilogue start */
 1881 0636 0895      		ret
 1882               	.LFE49:
 1884               	.global	pressed_switch2
 1886               	pressed_switch2:
 1887               	.LFB50:
 1888               	.LM310:
 1889               	/* prologue: function */
 1890               	/* frame size = 0 */
 1891               	.LM311:
 1892 0638 20B3      		in r18,48-32
 1893 063a 30E0      		ldi r19,lo8(0)
 1894 063c 3695      		lsr r19
 1895 063e 2795      		ror r18
 1896 0640 3695      		lsr r19
 1897 0642 2795      		ror r18
 1898 0644 2095      		com r18
 1899 0646 3095      		com r19
 1900 0648 2170      		andi r18,lo8(1)
 1901 064a 3070      		andi r19,hi8(1)
 1902               	.LM312:
 1903 064c C901      		movw r24,r18
 1904               	/* epilogue start */
 1905 064e 0895      		ret
 1906               	.LFE50:
 1908               	.global	pressed_switch3
 1910               	pressed_switch3:
 1911               	.LFB51:
 1912               	.LM313:
 1913               	/* prologue: function */
 1914               	/* frame size = 0 */
 1915               	.LM314:
 1916 0650 20B3      		in r18,48-32
 1917 0652 30E0      		ldi r19,lo8(0)
 1918 0654 43E0      		ldi r20,3
 1919 0656 3695      	1:	lsr r19
 1920 0658 2795      		ror r18
 1921 065a 4A95      		dec r20
 1922 065c 01F4      		brne 1b
 1923 065e 2095      		com r18
 1924 0660 3095      		com r19
 1925 0662 2170      		andi r18,lo8(1)
 1926 0664 3070      		andi r19,hi8(1)
 1927               	.LM315:
 1928 0666 C901      		movw r24,r18
 1929               	/* epilogue start */
 1930 0668 0895      		ret
 1931               	.LFE51:
 1933               	.global	line_track
 1935               	line_track:
 1936               	.LFB53:
 1937               	.LM316:
 1938 066a 6F92      		push r6
 1939 066c 7F92      		push r7
 1940 066e 8F92      		push r8
 1941 0670 9F92      		push r9
 1942 0672 AF92      		push r10
 1943 0674 BF92      		push r11
 1944 0676 CF92      		push r12
 1945 0678 DF92      		push r13
 1946 067a EF92      		push r14
 1947 067c FF92      		push r15
 1948 067e 0F93      		push r16
 1949 0680 1F93      		push r17
 1950               	/* prologue: function */
 1951               	/* frame size = 0 */
 1952               	.LBB533:
 1953               	.LBB534:
 1954               	.LM317:
 1955 0682 AC9A      		sbi 53-32,4
 1956               	.LM318:
 1957 0684 AD98      		cbi 53-32,5
 1958               	.LM319:
 1959 0686 AE9A      		sbi 53-32,6
 1960               	.LM320:
 1961 0688 AF98      		cbi 53-32,7
 1962               	.LBE534:
 1963               	.LBE533:
 1964               	.LM321:
 1965 068a 8091 0000 		lds r24,sensorbyte
 1966 068e 8630      		cpi r24,lo8(6)
 1967 0690 01F0      		breq .L181
 1968 0692 8730      		cpi r24,lo8(7)
 1969 0694 00F4      		brsh .L176
 1970 0696 8230      		cpi r24,lo8(2)
 1971 0698 01F0      		breq .L168
 1972 069a 8330      		cpi r24,lo8(3)
 1973 069c 00F4      		brsh .L177
 1974 069e 8130      		cpi r24,lo8(1)
 1975 06a0 01F4      		brne .L166
 1976 06a2 00C0      		rjmp .L184
 1977               	.L177:
 1978 06a4 8330      		cpi r24,lo8(3)
 1979 06a6 01F0      		breq .L169
 1980 06a8 8430      		cpi r24,lo8(4)
 1981 06aa 01F4      		brne .L166
 1982 06ac 00C0      		rjmp .L185
 1983               	.L176:
 1984 06ae 8830      		cpi r24,lo8(8)
 1985 06b0 01F0      		breq .L173
 1986 06b2 8830      		cpi r24,lo8(8)
 1987 06b4 00F0      		brlo .L172
 1988 06b6 8C30      		cpi r24,lo8(12)
 1989 06b8 01F0      		breq .L174
 1990 06ba 8E30      		cpi r24,lo8(14)
 1991 06bc 01F4      		brne .L166
 1992 06be 00C0      		rjmp .L186
 1993               	.L185:
 1994               	.LM322:
 1995 06c0 81E0      		ldi r24,lo8(1)
 1996 06c2 90E0      		ldi r25,hi8(1)
 1997 06c4 00C0      		rjmp .L180
 1998               	.L168:
 1999               	.LM323:
 2000 06c6 8FEF      		ldi r24,lo8(-1)
 2001 06c8 9FEF      		ldi r25,hi8(-1)
 2002 06ca 00C0      		rjmp .L180
 2003               	.L174:
 2004               	.LM324:
 2005 06cc 83E0      		ldi r24,lo8(3)
 2006 06ce 90E0      		ldi r25,hi8(3)
 2007 06d0 00C0      		rjmp .L180
 2008               	.L169:
 2009               	.LM325:
 2010 06d2 8DEF      		ldi r24,lo8(-3)
 2011 06d4 9FEF      		ldi r25,hi8(-3)
 2012 06d6 00C0      		rjmp .L183
 2013               	.L186:
 2014               	.LM326:
 2015 06d8 84E0      		ldi r24,lo8(4)
 2016 06da 90E0      		ldi r25,hi8(4)
 2017 06dc 00C0      		rjmp .L180
 2018               	.L172:
 2019               	.LM327:
 2020 06de 8CEF      		ldi r24,lo8(-4)
 2021 06e0 9FEF      		ldi r25,hi8(-4)
 2022               	.L183:
 2023 06e2 9093 0000 		sts (mpos)+1,r25
 2024 06e6 8093 0000 		sts mpos,r24
 2025               	.LM328:
 2026 06ea 8091 0000 		lds r24,flag1
 2027 06ee 9091 0000 		lds r25,(flag1)+1
 2028 06f2 0197      		sbiw r24,1
 2029 06f4 01F4      		brne .L166
 2030               	.L181:
 2031               	.LM329:
 2032 06f6 1092 0000 		sts (mpos)+1,__zero_reg__
 2033 06fa 1092 0000 		sts mpos,__zero_reg__
 2034 06fe 00C0      		rjmp .L166
 2035               	.L173:
 2036               	.LM330:
 2037 0700 86E0      		ldi r24,lo8(6)
 2038 0702 90E0      		ldi r25,hi8(6)
 2039 0704 00C0      		rjmp .L180
 2040               	.L184:
 2041               	.LM331:
 2042 0706 8AEF      		ldi r24,lo8(-6)
 2043 0708 9FEF      		ldi r25,hi8(-6)
 2044               	.L180:
 2045 070a 9093 0000 		sts (mpos)+1,r25
 2046 070e 8093 0000 		sts mpos,r24
 2047               	.L166:
 2048               	.LM332:
 2049 0712 6091 0000 		lds r22,mpos
 2050 0716 7091 0000 		lds r23,(mpos)+1
 2051 071a 8827      		clr r24
 2052 071c 77FD      		sbrc r23,7
 2053 071e 8095      		com r24
 2054 0720 982F      		mov r25,r24
 2055 0722 0E94 0000 		call __floatsisf
 2056 0726 5B01      		movw r10,r22
 2057 0728 6C01      		movw r12,r24
 2058 072a 6091 0000 		lds r22,prev_error
 2059 072e 7091 0000 		lds r23,(prev_error)+1
 2060 0732 8091 0000 		lds r24,(prev_error)+2
 2061 0736 9091 0000 		lds r25,(prev_error)+3
 2062 073a A601      		movw r20,r12
 2063 073c 9501      		movw r18,r10
 2064 073e 0E94 0000 		call __subsf3
 2065 0742 7B01      		movw r14,r22
 2066 0744 8C01      		movw r16,r24
 2067 0746 6093 0000 		sts act_error,r22
 2068 074a 7093 0000 		sts (act_error)+1,r23
 2069 074e 8093 0000 		sts (act_error)+2,r24
 2070 0752 9093 0000 		sts (act_error)+3,r25
 2071               	.LM333:
 2072 0756 C601      		movw r24,r12
 2073 0758 B501      		movw r22,r10
 2074 075a 2091 0000 		lds r18,kp
 2075 075e 3091 0000 		lds r19,(kp)+1
 2076 0762 4091 0000 		lds r20,(kp)+2
 2077 0766 5091 0000 		lds r21,(kp)+3
 2078 076a 0E94 0000 		call __mulsf3
 2079 076e 3B01      		movw r6,r22
 2080 0770 4C01      		movw r8,r24
 2081 0772 C801      		movw r24,r16
 2082 0774 B701      		movw r22,r14
 2083 0776 2091 0000 		lds r18,kd
 2084 077a 3091 0000 		lds r19,(kd)+1
 2085 077e 4091 0000 		lds r20,(kd)+2
 2086 0782 5091 0000 		lds r21,(kd)+3
 2087 0786 0E94 0000 		call __mulsf3
 2088 078a 9B01      		movw r18,r22
 2089 078c AC01      		movw r20,r24
 2090 078e C401      		movw r24,r8
 2091 0790 B301      		movw r22,r6
 2092 0792 0E94 0000 		call __subsf3
 2093 0796 7B01      		movw r14,r22
 2094 0798 8C01      		movw r16,r24
 2095 079a 6093 0000 		sts control,r22
 2096 079e 7093 0000 		sts (control)+1,r23
 2097 07a2 8093 0000 		sts (control)+2,r24
 2098 07a6 9093 0000 		sts (control)+3,r25
 2099               	.LM334:
 2100 07aa A092 0000 		sts prev_error,r10
 2101 07ae B092 0000 		sts (prev_error)+1,r11
 2102 07b2 C092 0000 		sts (prev_error)+2,r12
 2103 07b6 D092 0000 		sts (prev_error)+3,r13
 2104               	.LM335:
 2105 07ba 6091 0000 		lds r22,opt
 2106 07be 7091 0000 		lds r23,(opt)+1
 2107 07c2 80E0      		ldi r24,lo8(0)
 2108 07c4 90E0      		ldi r25,hi8(0)
 2109 07c6 0E94 0000 		call __floatunsisf
 2110 07ca 5B01      		movw r10,r22
 2111 07cc 6C01      		movw r12,r24
 2112               	.LBB535:
 2113               	.LBB536:
 2114               	.LM336:
 2115 07ce A801      		movw r20,r16
 2116 07d0 9701      		movw r18,r14
 2117 07d2 0E94 0000 		call __subsf3
 2118 07d6 0E94 0000 		call __fixsfsi
 2119 07da 7BBD      		out (74)+1-32,r23
 2120 07dc 6ABD      		out 74-32,r22
 2121               	.LBE536:
 2122               	.LBE535:
 2123               	.LBB537:
 2124               	.LBB538:
 2125               	.LM337:
 2126 07de C601      		movw r24,r12
 2127 07e0 B501      		movw r22,r10
 2128 07e2 A801      		movw r20,r16
 2129 07e4 9701      		movw r18,r14
 2130 07e6 0E94 0000 		call __addsf3
 2131 07ea 0E94 0000 		call __fixsfsi
 2132 07ee 79BD      		out (72)+1-32,r23
 2133 07f0 68BD      		out 72-32,r22
 2134               	/* epilogue start */
 2135               	.LBE538:
 2136               	.LBE537:
 2137               	.LM338:
 2138 07f2 1F91      		pop r17
 2139 07f4 0F91      		pop r16
 2140 07f6 FF90      		pop r15
 2141 07f8 EF90      		pop r14
 2142 07fa DF90      		pop r13
 2143 07fc CF90      		pop r12
 2144 07fe BF90      		pop r11
 2145 0800 AF90      		pop r10
 2146 0802 9F90      		pop r9
 2147 0804 8F90      		pop r8
 2148 0806 7F90      		pop r7
 2149 0808 6F90      		pop r6
 2150 080a 0895      		ret
 2151               	.LFE53:
 2153               	.global	init_devices
 2155               	init_devices:
 2156               	.LFB54:
 2157               	.LM339:
 2158               	/* prologue: function */
 2159               	/* frame size = 0 */
 2160               	.LM340:
 2161 080c 0E94 0000 		call port_init
 2162               	.LBB539:
 2163               	.LBB540:
 2164               	.LM341:
 2165 0810 1ABA      		out 58-32,__zero_reg__
 2166               	.LM342:
 2167 0812 16B8      		out 38-32,__zero_reg__
 2168               	.LM343:
 2169 0814 80E6      		ldi r24,lo8(96)
 2170 0816 87B9      		out 39-32,r24
 2171               	.LM344:
 2172 0818 87E8      		ldi r24,lo8(-121)
 2173 081a 86B9      		out 38-32,r24
 2174               	.LM345:
 2175 081c 80E8      		ldi r24,lo8(-128)
 2176 081e 88B9      		out 40-32,r24
 2177               	.LBE540:
 2178               	.LBE539:
 2179               	.LBB541:
 2180               	.LBB542:
 2181               	.LM346:
 2182 0820 8FEF      		ldi r24,lo8(-1)
 2183 0822 84BB      		out 52-32,r24
 2184               	.LBE542:
 2185               	.LBE541:
 2186               	.LM347:
 2187 0824 82E0      		ldi r24,lo8(2)
 2188 0826 0E94 0000 		call lcd_init
 2189               	.LBB543:
 2190               	.LBB544:
 2191               	.LM348:
 2192 082a 82B3      		in r24,50-32
 2193 082c 8F60      		ori r24,lo8(15)
 2194 082e 82BB      		out 50-32,r24
 2195               	.LM349:
 2196 0830 81B3      		in r24,49-32
 2197 0832 807F      		andi r24,lo8(-16)
 2198 0834 81BB      		out 49-32,r24
 2199               	.LBE544:
 2200               	.LBE543:
 2201               	.LM350:
 2202 0836 0E94 0000 		call pwm1_init
 2203               	/* epilogue start */
 2204               	.LM351:
 2205 083a 0895      		ret
 2206               	.LFE54:
 2208               	.global	Uturn
 2210               	Uturn:
 2211               	.LFB55:
 2212               	.LM352:
 2213               	/* prologue: function */
 2214               	/* frame size = 0 */
 2215               	.LM353:
 2216 083c 85E7      		ldi r24,lo8(117)
 2217 083e 8093 0000 		sts turn,r24
 2218               	.LBB545:
 2219               	.LBB546:
 2220               	.LM354:
 2221 0842 20EF      		ldi r18,lo8(240)
 2222 0844 30E0      		ldi r19,hi8(240)
 2223               	.LBE546:
 2224               	.LBE545:
 2225               	.LBB548:
 2226               	.LBB549:
 2227               	.LM355:
 2228 0846 82E2      		ldi r24,lo8(290)
 2229 0848 91E0      		ldi r25,hi8(290)
 2230 084a 00C0      		rjmp .L190
 2231               	.L191:
 2232               	.LBE549:
 2233               	.LBE548:
 2234               	.LBB551:
 2235               	.LBB547:
 2236               	.LM356:
 2237 084c 3BBD      		out (74)+1-32,r19
 2238 084e 2ABD      		out 74-32,r18
 2239               	.LBE547:
 2240               	.LBE551:
 2241               	.LBB552:
 2242               	.LBB550:
 2243               	.LM357:
 2244 0850 99BD      		out (72)+1-32,r25
 2245 0852 88BD      		out 72-32,r24
 2246               	.LBE550:
 2247               	.LBE552:
 2248               	.LBB553:
 2249               	.LBB554:
 2250               	.LM358:
 2251 0854 AC98      		cbi 53-32,4
 2252               	.LM359:
 2253 0856 AD9A      		sbi 53-32,5
 2254               	.LM360:
 2255 0858 AE9A      		sbi 53-32,6
 2256               	.LM361:
 2257 085a AF98      		cbi 53-32,7
 2258               	.L190:
 2259               	.LBE554:
 2260               	.LBE553:
 2261               	.LM362:
 2262 085c CD99      		sbic 57-32,5
 2263 085e 00C0      		rjmp .L191
 2264 0860 00C0      		rjmp .L198
 2265               	.L194:
 2266               	.LBB555:
 2267               	.LBB556:
 2268               	.LM363:
 2269 0862 3BBD      		out (74)+1-32,r19
 2270 0864 2ABD      		out 74-32,r18
 2271               	.LBE556:
 2272               	.LBE555:
 2273               	.LBB558:
 2274               	.LBB559:
 2275               	.LM364:
 2276 0866 99BD      		out (72)+1-32,r25
 2277 0868 88BD      		out 72-32,r24
 2278               	.LBE559:
 2279               	.LBE558:
 2280               	.LBB561:
 2281               	.LBB562:
 2282               	.LM365:
 2283 086a AC98      		cbi 53-32,4
 2284               	.LM366:
 2285 086c AD9A      		sbi 53-32,5
 2286               	.LM367:
 2287 086e AE9A      		sbi 53-32,6
 2288               	.LM368:
 2289 0870 AF98      		cbi 53-32,7
 2290 0872 00C0      		rjmp .L197
 2291               	.L198:
 2292               	.LBE562:
 2293               	.LBE561:
 2294               	.LBB563:
 2295               	.LBB557:
 2296               	.LM369:
 2297 0874 29EB      		ldi r18,lo8(185)
 2298 0876 30E0      		ldi r19,hi8(185)
 2299               	.LBE557:
 2300               	.LBE563:
 2301               	.LBB564:
 2302               	.LBB560:
 2303               	.LM370:
 2304 0878 87ED      		ldi r24,lo8(215)
 2305 087a 90E0      		ldi r25,hi8(215)
 2306               	.L197:
 2307               	.LBE560:
 2308               	.LBE564:
 2309               	.LM371:
 2310 087c CE9B      		sbis 57-32,6
 2311 087e 00C0      		rjmp .L193
 2312 0880 8699      		sbic 48-32,6
 2313 0882 00C0      		rjmp .L194
 2314               	.L193:
 2315               	.LBB565:
 2316               	.LBB566:
 2317               	.LM372:
 2318 0884 8FE8      		ldi r24,lo8(399)
 2319 0886 91E0      		ldi r25,hi8(399)
 2320 0888 9BBD      		out (74)+1-32,r25
 2321 088a 8ABD      		out 74-32,r24
 2322               	.LBE566:
 2323               	.LBE565:
 2324               	.LBB567:
 2325               	.LBB568:
 2326               	.LM373:
 2327 088c 99BD      		out (72)+1-32,r25
 2328 088e 88BD      		out 72-32,r24
 2329               	.LBE568:
 2330               	.LBE567:
 2331               	.LBB569:
 2332               	.LBB570:
 2333               	.LM374:
 2334 0890 AC9A      		sbi 53-32,4
 2335               	.LM375:
 2336 0892 AD9A      		sbi 53-32,5
 2337               	.LM376:
 2338 0894 AE9A      		sbi 53-32,6
 2339               	.LM377:
 2340 0896 AF9A      		sbi 53-32,7
 2341               	.LBE570:
 2342               	.LBE569:
 2343               	.LM378:
 2344 0898 82E3      		ldi r24,lo8(50)
 2345 089a 90E0      		ldi r25,hi8(50)
 2346 089c 0E94 0000 		call delay_millisec
 2347               	/* epilogue start */
 2348               	.LM379:
 2349 08a0 0895      		ret
 2350               	.LFE55:
 2352               	.global	left_count
 2354               	left_count:
 2355               	.LFB58:
 2356               	.LM380:
 2357               	/* prologue: function */
 2358               	/* frame size = 0 */
 2359               	.LM381:
 2360 08a2 CC99      		sbic 57-32,4
 2361 08a4 00C0      		rjmp .L200
 2362               	.LM382:
 2363 08a6 8091 0000 		lds r24,l
 2364 08aa 9091 0000 		lds r25,(l)+1
 2365 08ae 892B      		or r24,r25
 2366 08b0 01F4      		brne .L202
 2367               	.LM383:
 2368 08b2 8091 0000 		lds r24,lcount
 2369 08b6 9091 0000 		lds r25,(lcount)+1
 2370 08ba 0196      		adiw r24,1
 2371 08bc 9093 0000 		sts (lcount)+1,r25
 2372 08c0 8093 0000 		sts lcount,r24
 2373               	.LM384:
 2374 08c4 81E0      		ldi r24,lo8(1)
 2375 08c6 90E0      		ldi r25,hi8(1)
 2376 08c8 9093 0000 		sts (l)+1,r25
 2377 08cc 8093 0000 		sts l,r24
 2378 08d0 0895      		ret
 2379               	.L200:
 2380               	.LM385:
 2381 08d2 1092 0000 		sts (l)+1,__zero_reg__
 2382 08d6 1092 0000 		sts l,__zero_reg__
 2383               	.L202:
 2384 08da 0895      		ret
 2385               	.LFE58:
 2387               	.global	special_case_check
 2389               	special_case_check:
 2390               	.LFB60:
 2391               	.LM386:
 2392               	/* prologue: function */
 2393               	/* frame size = 0 */
 2394               	.LM387:
 2395 08dc CD9B      		sbis 57-32,5
 2396 08de 00C0      		rjmp .L204
 2397 08e0 8091 0000 		lds r24,flag1
 2398 08e4 9091 0000 		lds r25,(flag1)+1
 2399 08e8 0197      		sbiw r24,1
 2400 08ea 01F4      		brne .L210
 2401               	.L204:
 2402               	.LM388:
 2403 08ec 81E0      		ldi r24,lo8(1)
 2404 08ee 90E0      		ldi r25,hi8(1)
 2405 08f0 9093 0000 		sts (flag1)+1,r25
 2406 08f4 8093 0000 		sts flag1,r24
 2407               	.LM389:
 2408 08f8 CC99      		sbic 57-32,4
 2409 08fa 00C0      		rjmp .L210
 2410 08fc 869B      		sbis 48-32,6
 2411 08fe 00C0      		rjmp .L206
 2412 0900 CE9B      		sbis 57-32,6
 2413 0902 00C0      		rjmp .L206
 2414 0904 0895      		ret
 2415               	.L209:
 2416               	.LBB571:
 2417               	.LBB572:
 2418               	.LM390:
 2419 0906 3BBD      		out (74)+1-32,r19
 2420 0908 2ABD      		out 74-32,r18
 2421               	.LBE572:
 2422               	.LBE571:
 2423               	.LBB574:
 2424               	.LBB575:
 2425               	.LM391:
 2426 090a 39BD      		out (72)+1-32,r19
 2427 090c 28BD      		out 72-32,r18
 2428               	.LBE575:
 2429               	.LBE574:
 2430               	.LBB576:
 2431               	.LBB577:
 2432               	.LM392:
 2433 090e AC9A      		sbi 53-32,4
 2434               	.LM393:
 2435 0910 AD98      		cbi 53-32,5
 2436               	.LM394:
 2437 0912 AE9A      		sbi 53-32,6
 2438               	.LM395:
 2439 0914 AF98      		cbi 53-32,7
 2440               	.LBE577:
 2441               	.LBE576:
 2442               	.LM396:
 2443 0916 80E0      		ldi r24,lo8(0)
 2444 0918 90E0      		ldi r25,hi8(0)
 2445 091a 8799      		sbic 48-32,7
 2446 091c 00C0      		rjmp .L213
 2447               	.LBB578:
 2448               	.LBB579:
 2449               	.LM397:
 2450 091e AC9A      		sbi 53-32,4
 2451               	.LM398:
 2452 0920 AD9A      		sbi 53-32,5
 2453               	.LM399:
 2454 0922 AE9A      		sbi 53-32,6
 2455               	.LM400:
 2456 0924 AF9A      		sbi 53-32,7
 2457 0926 00C0      		rjmp .L213
 2458               	.L206:
 2459 0928 81E0      		ldi r24,lo8(1)
 2460 092a 90E0      		ldi r25,hi8(1)
 2461               	.LBE579:
 2462               	.LBE578:
 2463               	.LBB580:
 2464               	.LBB573:
 2465               	.LM401:
 2466 092c 20EF      		ldi r18,lo8(240)
 2467 092e 30E0      		ldi r19,hi8(240)
 2468               	.L213:
 2469               	.LBE573:
 2470               	.LBE580:
 2471               	.LM402:
 2472 0930 CC9B      		sbis 57-32,4
 2473 0932 00C0      		rjmp .L208
 2474 0934 9093 0000 		sts (flag1)+1,r25
 2475 0938 8093 0000 		sts flag1,r24
 2476 093c 0895      		ret
 2477               	.L208:
 2478 093e 8799      		sbic 48-32,7
 2479 0940 00C0      		rjmp .L209
 2480 0942 9093 0000 		sts (flag1)+1,r25
 2481 0946 8093 0000 		sts flag1,r24
 2482               	.L210:
 2483 094a 0895      		ret
 2484               	.LFE60:
 2486               	.global	line_track_new
 2488               	line_track_new:
 2489               	.LFB63:
 2490               	.LM403:
 2491               	/* prologue: function */
 2492               	/* frame size = 0 */
 2493               	.LM404:
 2494 094c 0E94 0000 		call check_sensors
 2495               	.LBB581:
 2496               	.LBB582:
 2497               	.LM405:
 2498 0950 AC9A      		sbi 53-32,4
 2499               	.LM406:
 2500 0952 AD98      		cbi 53-32,5
 2501               	.LM407:
 2502 0954 AE9A      		sbi 53-32,6
 2503               	.LM408:
 2504 0956 AF98      		cbi 53-32,7
 2505               	.LBE582:
 2506               	.LBE581:
 2507               	.LM409:
 2508 0958 CE9B      		sbis 57-32,6
 2509 095a 00C0      		rjmp .L215
 2510 095c 8699      		sbic 48-32,6
 2511 095e 00C0      		rjmp .L215
 2512               	.LM410:
 2513 0960 8091 0000 		lds r24,opt
 2514 0964 9091 0000 		lds r25,(opt)+1
 2515 0968 4E97      		sbiw r24,30
 2516               	.LBB583:
 2517               	.LBB584:
 2518               	.LM411:
 2519 096a 9BBD      		out (74)+1-32,r25
 2520 096c 8ABD      		out 74-32,r24
 2521               	.LBE584:
 2522               	.LBE583:
 2523               	.LM412:
 2524 096e CC96      		adiw r24,60
 2525 0970 00C0      		rjmp .L220
 2526               	.L215:
 2527               	.LM413:
 2528 0972 869B      		sbis 48-32,6
 2529 0974 00C0      		rjmp .L217
 2530 0976 CE99      		sbic 57-32,6
 2531 0978 00C0      		rjmp .L217
 2532               	.LM414:
 2533 097a 8091 0000 		lds r24,opt
 2534 097e 9091 0000 		lds r25,(opt)+1
 2535 0982 4E96      		adiw r24,30
 2536               	.LBB585:
 2537               	.LBB586:
 2538               	.LM415:
 2539 0984 9BBD      		out (74)+1-32,r25
 2540 0986 8ABD      		out 74-32,r24
 2541               	.LBE586:
 2542               	.LBE585:
 2543               	.LM416:
 2544 0988 CC97      		sbiw r24,60
 2545 098a 00C0      		rjmp .L220
 2546               	.L217:
 2547               	.LM417:
 2548 098c 869B      		sbis 48-32,6
 2549 098e 00C0      		rjmp .L218
 2550 0990 CE9B      		sbis 57-32,6
 2551 0992 00C0      		rjmp .L218
 2552               	.LM418:
 2553 0994 0E94 0000 		call line_track
 2554 0998 00C0      		rjmp .L216
 2555               	.L218:
 2556               	.LM419:
 2557 099a 8699      		sbic 48-32,6
 2558 099c 00C0      		rjmp .L216
 2559 099e CE99      		sbic 57-32,6
 2560 09a0 00C0      		rjmp .L216
 2561               	.LM420:
 2562 09a2 8091 0000 		lds r24,opt
 2563 09a6 9091 0000 		lds r25,(opt)+1
 2564               	.LBB587:
 2565               	.LBB588:
 2566               	.LM421:
 2567 09aa 9BBD      		out (74)+1-32,r25
 2568 09ac 8ABD      		out 74-32,r24
 2569               	.L220:
 2570               	.LBE588:
 2571               	.LBE587:
 2572               	.LBB589:
 2573               	.LBB590:
 2574               	.LM422:
 2575 09ae 99BD      		out (72)+1-32,r25
 2576 09b0 88BD      		out 72-32,r24
 2577               	.L216:
 2578               	.LBE590:
 2579               	.LBE589:
 2580               	.LM423:
 2581 09b2 8AE0      		ldi r24,lo8(10)
 2582 09b4 90E0      		ldi r25,hi8(10)
 2583 09b6 0E94 0000 		call delay_microsec
 2584               	/* epilogue start */
 2585               	.LM424:
 2586 09ba 0895      		ret
 2587               	.LFE63:
 2589               	.global	end_zone_uturn
 2591               	end_zone_uturn:
 2592               	.LFB59:
 2593               	.LM425:
 2594               	/* prologue: function */
 2595               	/* frame size = 0 */
 2596               	.LM426:
 2597 09bc 85E7      		ldi r24,lo8(117)
 2598 09be 8093 0000 		sts turn,r24
 2599               	.LBB591:
 2600               	.LBB592:
 2601               	.LM427:
 2602 09c2 24E0      		ldi r18,lo8(260)
 2603 09c4 31E0      		ldi r19,hi8(260)
 2604               	.LBE592:
 2605               	.LBE591:
 2606               	.LBB594:
 2607               	.LBB595:
 2608               	.LM428:
 2609 09c6 88E1      		ldi r24,lo8(280)
 2610 09c8 91E0      		ldi r25,hi8(280)
 2611 09ca 00C0      		rjmp .L222
 2612               	.L223:
 2613               	.LBE595:
 2614               	.LBE594:
 2615               	.LBB597:
 2616               	.LBB593:
 2617               	.LM429:
 2618 09cc 3BBD      		out (74)+1-32,r19
 2619 09ce 2ABD      		out 74-32,r18
 2620               	.LBE593:
 2621               	.LBE597:
 2622               	.LBB598:
 2623               	.LBB596:
 2624               	.LM430:
 2625 09d0 99BD      		out (72)+1-32,r25
 2626 09d2 88BD      		out 72-32,r24
 2627               	.LBE596:
 2628               	.LBE598:
 2629               	.LBB599:
 2630               	.LBB600:
 2631               	.LM431:
 2632 09d4 AC98      		cbi 53-32,4
 2633               	.LM432:
 2634 09d6 AD9A      		sbi 53-32,5
 2635               	.LM433:
 2636 09d8 AE9A      		sbi 53-32,6
 2637               	.LM434:
 2638 09da AF98      		cbi 53-32,7
 2639               	.L222:
 2640               	.LBE600:
 2641               	.LBE599:
 2642               	.LM435:
 2643 09dc CD9B      		sbis 57-32,5
 2644 09de 00C0      		rjmp .L223
 2645               	.L236:
 2646               	.LM436:
 2647 09e0 CE9B      		sbis 57-32,6
 2648 09e2 00C0      		rjmp .L236
 2649 09e4 869B      		sbis 48-32,6
 2650 09e6 00C0      		rjmp .L236
 2651               	.L233:
 2652               	.LM437:
 2653 09e8 CD99      		sbic 57-32,5
 2654 09ea 00C0      		rjmp .L233
 2655 09ec 00C0      		rjmp .L239
 2656               	.L228:
 2657               	.LBB601:
 2658               	.LBB602:
 2659               	.LM438:
 2660 09ee 9BBD      		out (74)+1-32,r25
 2661 09f0 8ABD      		out 74-32,r24
 2662               	.LBE602:
 2663               	.LBE601:
 2664               	.LBB604:
 2665               	.LBB605:
 2666               	.LM439:
 2667 09f2 99BD      		out (72)+1-32,r25
 2668 09f4 88BD      		out 72-32,r24
 2669               	.LBE605:
 2670               	.LBE604:
 2671               	.LBB606:
 2672               	.LBB607:
 2673               	.LM440:
 2674 09f6 AC98      		cbi 53-32,4
 2675               	.LM441:
 2676 09f8 AD9A      		sbi 53-32,5
 2677               	.LM442:
 2678 09fa AE9A      		sbi 53-32,6
 2679               	.LM443:
 2680 09fc AF98      		cbi 53-32,7
 2681 09fe 00C0      		rjmp .L238
 2682               	.L239:
 2683               	.LBE607:
 2684               	.LBE606:
 2685               	.LBB608:
 2686               	.LBB603:
 2687               	.LM444:
 2688 0a00 82ED      		ldi r24,lo8(210)
 2689 0a02 90E0      		ldi r25,hi8(210)
 2690               	.L238:
 2691               	.LBE603:
 2692               	.LBE608:
 2693               	.LM445:
 2694 0a04 CE9B      		sbis 57-32,6
 2695 0a06 00C0      		rjmp .L227
 2696 0a08 8699      		sbic 48-32,6
 2697 0a0a 00C0      		rjmp .L228
 2698               	.L227:
 2699               	.LBB609:
 2700               	.LBB610:
 2701               	.LM446:
 2702 0a0c 8FE8      		ldi r24,lo8(399)
 2703 0a0e 91E0      		ldi r25,hi8(399)
 2704 0a10 9BBD      		out (74)+1-32,r25
 2705 0a12 8ABD      		out 74-32,r24
 2706               	.LBE610:
 2707               	.LBE609:
 2708               	.LBB611:
 2709               	.LBB612:
 2710               	.LM447:
 2711 0a14 99BD      		out (72)+1-32,r25
 2712 0a16 88BD      		out 72-32,r24
 2713               	.LBE612:
 2714               	.LBE611:
 2715               	.LBB613:
 2716               	.LBB614:
 2717               	.LM448:
 2718 0a18 AC9A      		sbi 53-32,4
 2719               	.LM449:
 2720 0a1a AD9A      		sbi 53-32,5
 2721               	.LM450:
 2722 0a1c AE9A      		sbi 53-32,6
 2723               	.LM451:
 2724 0a1e AF9A      		sbi 53-32,7
 2725               	.LBE614:
 2726               	.LBE613:
 2727               	.LM452:
 2728 0a20 82E3      		ldi r24,lo8(50)
 2729 0a22 90E0      		ldi r25,hi8(50)
 2730 0a24 0E94 0000 		call delay_millisec
 2731 0a28 00C0      		rjmp .L229
 2732               	.L230:
 2733               	.LM453:
 2734 0a2a 0E94 0000 		call line_track_new
 2735               	.L229:
 2736               	.LM454:
 2737 0a2e CC9B      		sbis 57-32,4
 2738 0a30 00C0      		rjmp .L230
 2739 0a32 879B      		sbis 48-32,7
 2740 0a34 00C0      		rjmp .L230
 2741               	/* epilogue start */
 2742               	.LM455:
 2743 0a36 0895      		ret
 2744               	.LFE59:
 2746               	.global	turn_left
 2748               	turn_left:
 2749               	.LFB57:
 2750               	.LM456:
 2751               	/* prologue: function */
 2752               	/* frame size = 0 */
 2753               	.LM457:
 2754 0a38 8CE6      		ldi r24,lo8(108)
 2755 0a3a 8093 0000 		sts turn,r24
 2756 0a3e 00C0      		rjmp .L241
 2757               	.L242:
 2758               	.LM458:
 2759 0a40 0E94 0000 		call line_track_new
 2760               	.L241:
 2761               	.LM459:
 2762 0a44 879B      		sbis 48-32,7
 2763 0a46 00C0      		rjmp .L242
 2764 0a48 CC9B      		sbis 57-32,4
 2765 0a4a 00C0      		rjmp .L242
 2766 0a4c 00C0      		rjmp .L258
 2767               	.L245:
 2768               	.LBB615:
 2769               	.LBB616:
 2770               	.LM460:
 2771 0a4e 9BBD      		out (74)+1-32,r25
 2772 0a50 8ABD      		out 74-32,r24
 2773               	.LBE616:
 2774               	.LBE615:
 2775               	.LBB618:
 2776               	.LBB619:
 2777               	.LM461:
 2778 0a52 99BD      		out (72)+1-32,r25
 2779 0a54 88BD      		out 72-32,r24
 2780               	.LBE619:
 2781               	.LBE618:
 2782               	.LBB620:
 2783               	.LBB621:
 2784               	.LM462:
 2785 0a56 AC98      		cbi 53-32,4
 2786               	.LM463:
 2787 0a58 AD9A      		sbi 53-32,5
 2788               	.LM464:
 2789 0a5a AE98      		cbi 53-32,6
 2790               	.LM465:
 2791 0a5c AF9A      		sbi 53-32,7
 2792 0a5e 00C0      		rjmp .L254
 2793               	.L258:
 2794               	.LBE621:
 2795               	.LBE620:
 2796               	.LBB622:
 2797               	.LBB617:
 2798               	.LM466:
 2799 0a60 85EF      		ldi r24,lo8(245)
 2800 0a62 90E0      		ldi r25,hi8(245)
 2801               	.L254:
 2802               	.LBE617:
 2803               	.LBE622:
 2804               	.LM467:
 2805 0a64 879B      		sbis 48-32,7
 2806 0a66 00C0      		rjmp .L244
 2807 0a68 CC99      		sbic 57-32,4
 2808 0a6a 00C0      		rjmp .L245
 2809 0a6c 00C0      		rjmp .L244
 2810               	.L246:
 2811               	.LBB623:
 2812               	.LBB624:
 2813               	.LM468:
 2814 0a6e 9BBD      		out (74)+1-32,r25
 2815 0a70 8ABD      		out 74-32,r24
 2816               	.LBE624:
 2817               	.LBE623:
 2818               	.LBB626:
 2819               	.LBB627:
 2820               	.LM469:
 2821 0a72 99BD      		out (72)+1-32,r25
 2822 0a74 88BD      		out 72-32,r24
 2823               	.LBE627:
 2824               	.LBE626:
 2825               	.LBB628:
 2826               	.LBB629:
 2827               	.LM470:
 2828 0a76 AC98      		cbi 53-32,4
 2829               	.LM471:
 2830 0a78 AD9A      		sbi 53-32,5
 2831               	.LM472:
 2832 0a7a AE9A      		sbi 53-32,6
 2833               	.LM473:
 2834 0a7c AF98      		cbi 53-32,7
 2835 0a7e 00C0      		rjmp .L255
 2836               	.L244:
 2837               	.LBE629:
 2838               	.LBE628:
 2839               	.LBB630:
 2840               	.LBB625:
 2841               	.LM474:
 2842 0a80 85EF      		ldi r24,lo8(245)
 2843 0a82 90E0      		ldi r25,hi8(245)
 2844               	.L255:
 2845               	.LBE625:
 2846               	.LBE630:
 2847               	.LM475:
 2848 0a84 CD99      		sbic 57-32,5
 2849 0a86 00C0      		rjmp .L246
 2850 0a88 00C0      		rjmp .L259
 2851               	.L249:
 2852               	.LBB631:
 2853               	.LBB632:
 2854               	.LM476:
 2855 0a8a 9BBD      		out (74)+1-32,r25
 2856 0a8c 8ABD      		out 74-32,r24
 2857               	.LBE632:
 2858               	.LBE631:
 2859               	.LBB634:
 2860               	.LBB635:
 2861               	.LM477:
 2862 0a8e 99BD      		out (72)+1-32,r25
 2863 0a90 88BD      		out 72-32,r24
 2864               	.LBE635:
 2865               	.LBE634:
 2866               	.LBB636:
 2867               	.LBB637:
 2868               	.LM478:
 2869 0a92 AC98      		cbi 53-32,4
 2870               	.LM479:
 2871 0a94 AD9A      		sbi 53-32,5
 2872               	.LM480:
 2873 0a96 AE9A      		sbi 53-32,6
 2874               	.LM481:
 2875 0a98 AF98      		cbi 53-32,7
 2876 0a9a 00C0      		rjmp .L257
 2877               	.L259:
 2878               	.LBE637:
 2879               	.LBE636:
 2880               	.LBB638:
 2881               	.LBB633:
 2882               	.LM482:
 2883 0a9c 8CED      		ldi r24,lo8(220)
 2884 0a9e 90E0      		ldi r25,hi8(220)
 2885               	.L257:
 2886               	.LBE633:
 2887               	.LBE638:
 2888               	.LM483:
 2889 0aa0 CE9B      		sbis 57-32,6
 2890 0aa2 00C0      		rjmp .L252
 2891 0aa4 8699      		sbic 48-32,6
 2892 0aa6 00C0      		rjmp .L249
 2893 0aa8 00C0      		rjmp .L252
 2894               	.L250:
 2895               	.LM484:
 2896 0aaa 0E94 0000 		call line_track_new
 2897               	.L252:
 2898               	.LM485:
 2899 0aae CC9B      		sbis 57-32,4
 2900 0ab0 00C0      		rjmp .L250
 2901 0ab2 879B      		sbis 48-32,7
 2902 0ab4 00C0      		rjmp .L250
 2903               	.LBB639:
 2904               	.LBB640:
 2905               	.LM486:
 2906 0ab6 8FE8      		ldi r24,lo8(399)
 2907 0ab8 91E0      		ldi r25,hi8(399)
 2908 0aba 9BBD      		out (74)+1-32,r25
 2909 0abc 8ABD      		out 74-32,r24
 2910               	.LBE640:
 2911               	.LBE639:
 2912               	.LBB641:
 2913               	.LBB642:
 2914               	.LM487:
 2915 0abe 99BD      		out (72)+1-32,r25
 2916 0ac0 88BD      		out 72-32,r24
 2917               	.LBE642:
 2918               	.LBE641:
 2919               	.LBB643:
 2920               	.LBB644:
 2921               	.LM488:
 2922 0ac2 AC9A      		sbi 53-32,4
 2923               	.LM489:
 2924 0ac4 AD9A      		sbi 53-32,5
 2925               	.LM490:
 2926 0ac6 AE9A      		sbi 53-32,6
 2927               	.LM491:
 2928 0ac8 AF9A      		sbi 53-32,7
 2929               	.LBE644:
 2930               	.LBE643:
 2931               	.LM492:
 2932 0aca 82E3      		ldi r24,lo8(50)
 2933 0acc 90E0      		ldi r25,hi8(50)
 2934 0ace 0E94 0000 		call delay_millisec
 2935               	/* epilogue start */
 2936               	.LM493:
 2937 0ad2 0895      		ret
 2938               	.LFE57:
 2940               	.global	turn_right
 2942               	turn_right:
 2943               	.LFB56:
 2944               	.LM494:
 2945               	/* prologue: function */
 2946               	/* frame size = 0 */
 2947               	.LM495:
 2948 0ad4 82E7      		ldi r24,lo8(114)
 2949 0ad6 8093 0000 		sts turn,r24
 2950 0ada 00C0      		rjmp .L261
 2951               	.L262:
 2952               	.LM496:
 2953 0adc 0E94 0000 		call line_track_new
 2954               	.LM497:
 2955 0ae0 0E94 0000 		call left_count
 2956               	.L261:
 2957               	.LM498:
 2958 0ae4 879B      		sbis 48-32,7
 2959 0ae6 00C0      		rjmp .L262
 2960 0ae8 CC9B      		sbis 57-32,4
 2961 0aea 00C0      		rjmp .L262
 2962 0aec 00C0      		rjmp .L278
 2963               	.L265:
 2964               	.LBB645:
 2965               	.LBB646:
 2966               	.LM499:
 2967 0aee 9BBD      		out (74)+1-32,r25
 2968 0af0 8ABD      		out 74-32,r24
 2969               	.LBE646:
 2970               	.LBE645:
 2971               	.LBB648:
 2972               	.LBB649:
 2973               	.LM500:
 2974 0af2 99BD      		out (72)+1-32,r25
 2975 0af4 88BD      		out 72-32,r24
 2976               	.LBE649:
 2977               	.LBE648:
 2978               	.LBB650:
 2979               	.LBB651:
 2980               	.LM501:
 2981 0af6 AC98      		cbi 53-32,4
 2982               	.LM502:
 2983 0af8 AD9A      		sbi 53-32,5
 2984               	.LM503:
 2985 0afa AE98      		cbi 53-32,6
 2986               	.LM504:
 2987 0afc AF9A      		sbi 53-32,7
 2988 0afe 00C0      		rjmp .L274
 2989               	.L278:
 2990               	.LBE651:
 2991               	.LBE650:
 2992               	.LBB652:
 2993               	.LBB647:
 2994               	.LM505:
 2995 0b00 85EF      		ldi r24,lo8(245)
 2996 0b02 90E0      		ldi r25,hi8(245)
 2997               	.L274:
 2998               	.LBE647:
 2999               	.LBE652:
 3000               	.LM506:
 3001 0b04 879B      		sbis 48-32,7
 3002 0b06 00C0      		rjmp .L264
 3003 0b08 CC99      		sbic 57-32,4
 3004 0b0a 00C0      		rjmp .L265
 3005 0b0c 00C0      		rjmp .L264
 3006               	.L266:
 3007               	.LBB653:
 3008               	.LBB654:
 3009               	.LM507:
 3010 0b0e 9BBD      		out (74)+1-32,r25
 3011 0b10 8ABD      		out 74-32,r24
 3012               	.LBE654:
 3013               	.LBE653:
 3014               	.LBB656:
 3015               	.LBB657:
 3016               	.LM508:
 3017 0b12 99BD      		out (72)+1-32,r25
 3018 0b14 88BD      		out 72-32,r24
 3019               	.LBE657:
 3020               	.LBE656:
 3021               	.LBB658:
 3022               	.LBB659:
 3023               	.LM509:
 3024 0b16 AC9A      		sbi 53-32,4
 3025               	.LM510:
 3026 0b18 AD98      		cbi 53-32,5
 3027               	.LM511:
 3028 0b1a AE98      		cbi 53-32,6
 3029               	.LM512:
 3030 0b1c AF9A      		sbi 53-32,7
 3031 0b1e 00C0      		rjmp .L275
 3032               	.L264:
 3033               	.LBE659:
 3034               	.LBE658:
 3035               	.LBB660:
 3036               	.LBB655:
 3037               	.LM513:
 3038 0b20 85EF      		ldi r24,lo8(245)
 3039 0b22 90E0      		ldi r25,hi8(245)
 3040               	.L275:
 3041               	.LBE655:
 3042               	.LBE660:
 3043               	.LM514:
 3044 0b24 CF99      		sbic 57-32,7
 3045 0b26 00C0      		rjmp .L266
 3046 0b28 00C0      		rjmp .L279
 3047               	.L269:
 3048               	.LBB661:
 3049               	.LBB662:
 3050               	.LM515:
 3051 0b2a 9BBD      		out (74)+1-32,r25
 3052 0b2c 8ABD      		out 74-32,r24
 3053               	.LBE662:
 3054               	.LBE661:
 3055               	.LBB664:
 3056               	.LBB665:
 3057               	.LM516:
 3058 0b2e 99BD      		out (72)+1-32,r25
 3059 0b30 88BD      		out 72-32,r24
 3060               	.LBE665:
 3061               	.LBE664:
 3062               	.LBB666:
 3063               	.LBB667:
 3064               	.LM517:
 3065 0b32 AC9A      		sbi 53-32,4
 3066               	.LM518:
 3067 0b34 AD98      		cbi 53-32,5
 3068               	.LM519:
 3069 0b36 AE98      		cbi 53-32,6
 3070               	.LM520:
 3071 0b38 AF9A      		sbi 53-32,7
 3072 0b3a 00C0      		rjmp .L277
 3073               	.L279:
 3074               	.LBE667:
 3075               	.LBE666:
 3076               	.LBB668:
 3077               	.LBB663:
 3078               	.LM521:
 3079 0b3c 8CED      		ldi r24,lo8(220)
 3080 0b3e 90E0      		ldi r25,hi8(220)
 3081               	.L277:
 3082               	.LBE663:
 3083               	.LBE668:
 3084               	.LM522:
 3085 0b40 CE9B      		sbis 57-32,6
 3086 0b42 00C0      		rjmp .L272
 3087 0b44 8699      		sbic 48-32,6
 3088 0b46 00C0      		rjmp .L269
 3089 0b48 00C0      		rjmp .L272
 3090               	.L270:
 3091               	.LM523:
 3092 0b4a 0E94 0000 		call line_track_new
 3093               	.L272:
 3094               	.LM524:
 3095 0b4e CC9B      		sbis 57-32,4
 3096 0b50 00C0      		rjmp .L270
 3097 0b52 879B      		sbis 48-32,7
 3098 0b54 00C0      		rjmp .L270
 3099               	.LBB669:
 3100               	.LBB670:
 3101               	.LM525:
 3102 0b56 8FE8      		ldi r24,lo8(399)
 3103 0b58 91E0      		ldi r25,hi8(399)
 3104 0b5a 9BBD      		out (74)+1-32,r25
 3105 0b5c 8ABD      		out 74-32,r24
 3106               	.LBE670:
 3107               	.LBE669:
 3108               	.LBB671:
 3109               	.LBB672:
 3110               	.LM526:
 3111 0b5e 99BD      		out (72)+1-32,r25
 3112 0b60 88BD      		out 72-32,r24
 3113               	.LBE672:
 3114               	.LBE671:
 3115               	.LBB673:
 3116               	.LBB674:
 3117               	.LM527:
 3118 0b62 AC9A      		sbi 53-32,4
 3119               	.LM528:
 3120 0b64 AD9A      		sbi 53-32,5
 3121               	.LM529:
 3122 0b66 AE9A      		sbi 53-32,6
 3123               	.LM530:
 3124 0b68 AF9A      		sbi 53-32,7
 3125               	.LBE674:
 3126               	.LBE673:
 3127               	.LM531:
 3128 0b6a 82E3      		ldi r24,lo8(50)
 3129 0b6c 90E0      		ldi r25,hi8(50)
 3130 0b6e 0E94 0000 		call delay_millisec
 3131               	/* epilogue start */
 3132               	.LM532:
 3133 0b72 0895      		ret
 3134               	.LFE56:
 3136               	.global	sense_of_directon
 3138               	sense_of_directon:
 3139               	.LFB66:
 3140               	.LM533:
 3141               	/* prologue: function */
 3142               	/* frame size = 0 */
 3143               	.LM534:
 3144 0b74 8091 0000 		lds r24,turn
 3145 0b78 8237      		cpi r24,lo8(114)
 3146 0b7a 01F4      		brne .L281
 3147               	.LM535:
 3148 0b7c 8091 0000 		lds r24,dir
 3149 0b80 9091 0000 		lds r25,(dir)+1
 3150 0b84 2FEF      		ldi r18,hi8(-1)
 3151 0b86 8F3F      		cpi r24,lo8(-1)
 3152 0b88 9207      		cpc r25,r18
 3153 0b8a 01F0      		breq .L291
 3154 0b8c 2FEF      		ldi r18,hi8(-1)
 3155 0b8e 8F3F      		cpi r24,lo8(-1)
 3156 0b90 9207      		cpc r25,r18
 3157 0b92 01F0      		breq .+2
 3158 0b94 04F4      		brge .L287
 3159 0b96 8E5F      		subi r24,lo8(-2)
 3160 0b98 9F4F      		sbci r25,hi8(-2)
 3161 0b9a 01F0      		breq .+2
 3162 0b9c 00C0      		rjmp .L299
 3163 0b9e 00C0      		rjmp .L296
 3164               	.L287:
 3165 0ba0 8130      		cpi r24,1
 3166 0ba2 9105      		cpc r25,__zero_reg__
 3167 0ba4 01F4      		brne .+2
 3168 0ba6 00C0      		rjmp .L297
 3169 0ba8 0297      		sbiw r24,2
 3170 0baa 01F0      		breq .+2
 3171 0bac 00C0      		rjmp .L299
 3172 0bae 00C0      		rjmp .L295
 3173               	.L281:
 3174               	.LM536:
 3175 0bb0 8C36      		cpi r24,lo8(108)
 3176 0bb2 01F4      		brne .L288
 3177               	.LM537:
 3178 0bb4 8091 0000 		lds r24,dir
 3179 0bb8 9091 0000 		lds r25,(dir)+1
 3180 0bbc 2FEF      		ldi r18,hi8(-1)
 3181 0bbe 8F3F      		cpi r24,lo8(-1)
 3182 0bc0 9207      		cpc r25,r18
 3183 0bc2 01F0      		breq .L297
 3184 0bc4 2FEF      		ldi r18,hi8(-1)
 3185 0bc6 8F3F      		cpi r24,lo8(-1)
 3186 0bc8 9207      		cpc r25,r18
 3187 0bca 01F0      		breq .+2
 3188 0bcc 04F4      		brge .L293
 3189 0bce 8E5F      		subi r24,lo8(-2)
 3190 0bd0 9F4F      		sbci r25,hi8(-2)
 3191 0bd2 01F4      		brne .L299
 3192 0bd4 00C0      		rjmp .L295
 3193               	.L293:
 3194 0bd6 8130      		cpi r24,1
 3195 0bd8 9105      		cpc r25,__zero_reg__
 3196 0bda 01F0      		breq .L291
 3197 0bdc 0297      		sbiw r24,2
 3198 0bde 01F4      		brne .L299
 3199 0be0 00C0      		rjmp .L296
 3200               	.L291:
 3201               	.LM538:
 3202 0be2 82E0      		ldi r24,lo8(2)
 3203 0be4 90E0      		ldi r25,hi8(2)
 3204 0be6 00C0      		rjmp .L300
 3205               	.L288:
 3206               	.LM539:
 3207 0be8 8537      		cpi r24,lo8(117)
 3208 0bea 01F4      		brne .L299
 3209               	.LM540:
 3210 0bec 8091 0000 		lds r24,dir
 3211 0bf0 9091 0000 		lds r25,(dir)+1
 3212 0bf4 2FEF      		ldi r18,hi8(-1)
 3213 0bf6 8F3F      		cpi r24,lo8(-1)
 3214 0bf8 9207      		cpc r25,r18
 3215 0bfa 01F0      		breq .L295
 3216 0bfc 2FEF      		ldi r18,hi8(-1)
 3217 0bfe 8F3F      		cpi r24,lo8(-1)
 3218 0c00 9207      		cpc r25,r18
 3219 0c02 01F0      		breq .+2
 3220 0c04 04F4      		brge .L298
 3221 0c06 8E5F      		subi r24,lo8(-2)
 3222 0c08 9F4F      		sbci r25,hi8(-2)
 3223 0c0a 01F4      		brne .L299
 3224 0c0c 00C0      		rjmp .L301
 3225               	.L298:
 3226 0c0e 8130      		cpi r24,1
 3227 0c10 9105      		cpc r25,__zero_reg__
 3228 0c12 01F0      		breq .L296
 3229 0c14 0297      		sbiw r24,2
 3230 0c16 01F4      		brne .L299
 3231 0c18 00C0      		rjmp .L297
 3232               	.L296:
 3233               	.LM541:
 3234 0c1a 8FEF      		ldi r24,lo8(-1)
 3235 0c1c 9FEF      		ldi r25,hi8(-1)
 3236 0c1e 00C0      		rjmp .L300
 3237               	.L295:
 3238               	.LM542:
 3239 0c20 81E0      		ldi r24,lo8(1)
 3240 0c22 90E0      		ldi r25,hi8(1)
 3241 0c24 00C0      		rjmp .L300
 3242               	.L297:
 3243               	.LM543:
 3244 0c26 8EEF      		ldi r24,lo8(-2)
 3245 0c28 9FEF      		ldi r25,hi8(-2)
 3246               	.L300:
 3247 0c2a 9093 0000 		sts (dir)+1,r25
 3248 0c2e 8093 0000 		sts dir,r24
 3249 0c32 0895      		ret
 3250               	.L301:
 3251               	.LM544:
 3252 0c34 82E0      		ldi r24,lo8(2)
 3253 0c36 90E0      		ldi r25,hi8(2)
 3254 0c38 9093 0000 		sts (dir)+1,r25
 3255 0c3c 8093 0000 		sts dir,r24
 3256               	.L299:
 3257 0c40 0895      		ret
 3258               	.LFE66:
 3260               	.global	is_coordinate_null
 3262               	is_coordinate_null:
 3263               	.LFB68:
 3264               	.LM545:
 3265               	.LVL103:
 3266               	/* prologue: function */
 3267               	/* frame size = 0 */
 3268               	.LM546:
 3269 0c42 FC01      		movw r30,r24
 3270 0c44 A4E0      		ldi r26,4
 3271 0c46 EE0F      	1:	lsl r30
 3272 0c48 FF1F      		rol r31
 3273 0c4a AA95      		dec r26
 3274 0c4c 01F4      		brne 1b
 3275 0c4e E60F      		add r30,r22
 3276 0c50 F71F      		adc r31,r23
 3277 0c52 DF01      		movw r26,r30
 3278 0c54 AA0F      		lsl r26
 3279 0c56 BB1F      		rol r27
 3280 0c58 AA0F      		lsl r26
 3281 0c5a BB1F      		rol r27
 3282               	.LVL104:
 3283 0c5c A050      		subi r26,lo8(-(dir_array))
 3284 0c5e B040      		sbci r27,hi8(-(dir_array))
 3285 0c60 8C91      		ld r24,X
 3286               	.LVL105:
 3287 0c62 8634      		cpi r24,lo8(70)
 3288 0c64 01F4      		brne .L303
 3289 0c66 1196      		adiw r26,1
 3290 0c68 8C91      		ld r24,X
 3291 0c6a 1197      		sbiw r26,1
 3292 0c6c 8634      		cpi r24,lo8(70)
 3293 0c6e 01F4      		brne .L303
 3294 0c70 EE0F      		lsl r30
 3295 0c72 FF1F      		rol r31
 3296 0c74 EE0F      		lsl r30
 3297 0c76 FF1F      		rol r31
 3298 0c78 E050      		subi r30,lo8(-(dir_array+2))
 3299 0c7a F040      		sbci r31,hi8(-(dir_array+2))
 3300 0c7c 8081      		ld r24,Z
 3301 0c7e 8634      		cpi r24,lo8(70)
 3302 0c80 01F4      		brne .L303
 3303 0c82 90E0      		ldi r25,lo8(0)
 3304 0c84 1396      		adiw r26,3
 3305 0c86 8C91      		ld r24,X
 3306 0c88 8634      		cpi r24,lo8(70)
 3307 0c8a 01F0      		breq .L304
 3308 0c8c 91E0      		ldi r25,lo8(1)
 3309               	.L304:
 3310 0c8e 81E0      		ldi r24,lo8(1)
 3311 0c90 9827      		eor r25,r24
 3312 0c92 292F      		mov r18,r25
 3313 0c94 30E0      		ldi r19,lo8(0)
 3314 0c96 00C0      		rjmp .L305
 3315               	.L303:
 3316 0c98 20E0      		ldi r18,lo8(0)
 3317 0c9a 30E0      		ldi r19,hi8(0)
 3318               	.L305:
 3319               	.LM547:
 3320 0c9c C901      		movw r24,r18
 3321               	/* epilogue start */
 3322 0c9e 0895      		ret
 3323               	.LFE68:
 3325               	.global	update_array
 3327               	update_array:
 3328               	.LFB67:
 3329               	.LM548:
 3330               	.LVL106:
 3331 0ca0 CF92      		push r12
 3332 0ca2 DF92      		push r13
 3333 0ca4 EF92      		push r14
 3334 0ca6 FF92      		push r15
 3335 0ca8 0F93      		push r16
 3336 0caa 1F93      		push r17
 3337 0cac CF93      		push r28
 3338 0cae DF93      		push r29
 3339               	/* prologue: function */
 3340               	/* frame size = 0 */
 3341 0cb0 F82E      		mov r15,r24
 3342 0cb2 E62E      		mov r14,r22
 3343 0cb4 D42E      		mov r13,r20
 3344 0cb6 C22E      		mov r12,r18
 3345               	.LM549:
 3346 0cb8 C091 0000 		lds r28,x_coordinate
 3347 0cbc D091 0000 		lds r29,(x_coordinate)+1
 3348 0cc0 0091 0000 		lds r16,y_coordinate
 3349 0cc4 1091 0000 		lds r17,(y_coordinate)+1
 3350 0cc8 CE01      		movw r24,r28
 3351               	.LVL107:
 3352 0cca B801      		movw r22,r16
 3353               	.LVL108:
 3354 0ccc 0E94 0000 		call is_coordinate_null
 3355               	.LVL109:
 3356 0cd0 892B      		or r24,r25
 3357 0cd2 01F4      		brne .+2
 3358 0cd4 00C0      		rjmp .L314
 3359               	.LM550:
 3360 0cd6 8091 0000 		lds r24,dir
 3361 0cda 9091 0000 		lds r25,(dir)+1
 3362 0cde 2FEF      		ldi r18,hi8(-1)
 3363 0ce0 8F3F      		cpi r24,lo8(-1)
 3364 0ce2 9207      		cpc r25,r18
 3365 0ce4 01F4      		brne .+2
 3366 0ce6 00C0      		rjmp .L310
 3367 0ce8 2FEF      		ldi r18,hi8(-1)
 3368 0cea 8F3F      		cpi r24,lo8(-1)
 3369 0cec 9207      		cpc r25,r18
 3370 0cee 01F0      		breq .+2
 3371 0cf0 04F4      		brge .L313
 3372 0cf2 8E5F      		subi r24,lo8(-2)
 3373 0cf4 9F4F      		sbci r25,hi8(-2)
 3374 0cf6 01F0      		breq .+2
 3375 0cf8 00C0      		rjmp .L314
 3376 0cfa 00C0      		rjmp .L315
 3377               	.L313:
 3378 0cfc 8130      		cpi r24,1
 3379 0cfe 9105      		cpc r25,__zero_reg__
 3380 0d00 01F0      		breq .L311
 3381 0d02 0297      		sbiw r24,2
 3382 0d04 01F0      		breq .+2
 3383 0d06 00C0      		rjmp .L314
 3384               	.LM551:
 3385 0d08 FE01      		movw r30,r28
 3386 0d0a B4E0      		ldi r27,4
 3387 0d0c EE0F      	1:	lsl r30
 3388 0d0e FF1F      		rol r31
 3389 0d10 BA95      		dec r27
 3390 0d12 01F4      		brne 1b
 3391 0d14 E00F      		add r30,r16
 3392 0d16 F11F      		adc r31,r17
 3393 0d18 EE0F      		lsl r30
 3394 0d1a FF1F      		rol r31
 3395 0d1c EE0F      		lsl r30
 3396 0d1e FF1F      		rol r31
 3397 0d20 DF01      		movw r26,r30
 3398 0d22 A050      		subi r26,lo8(-(dir_array))
 3399 0d24 B040      		sbci r27,hi8(-(dir_array))
 3400 0d26 FC92      		st X,r15
 3401               	.LM552:
 3402 0d28 1196      		adiw r26,1
 3403 0d2a EC92      		st X,r14
 3404 0d2c 1197      		sbiw r26,1
 3405               	.LM553:
 3406 0d2e E050      		subi r30,lo8(-(dir_array+2))
 3407 0d30 F040      		sbci r31,hi8(-(dir_array+2))
 3408 0d32 D082      		st Z,r13
 3409               	.LM554:
 3410 0d34 1396      		adiw r26,3
 3411 0d36 CC92      		st X,r12
 3412 0d38 00C0      		rjmp .L314
 3413               	.L311:
 3414               	.LM555:
 3415 0d3a FE01      		movw r30,r28
 3416 0d3c 64E0      		ldi r22,4
 3417 0d3e EE0F      	1:	lsl r30
 3418 0d40 FF1F      		rol r31
 3419 0d42 6A95      		dec r22
 3420 0d44 01F4      		brne 1b
 3421 0d46 E00F      		add r30,r16
 3422 0d48 F11F      		adc r31,r17
 3423 0d4a EE0F      		lsl r30
 3424 0d4c FF1F      		rol r31
 3425 0d4e EE0F      		lsl r30
 3426 0d50 FF1F      		rol r31
 3427 0d52 DF01      		movw r26,r30
 3428 0d54 A050      		subi r26,lo8(-(dir_array))
 3429 0d56 B040      		sbci r27,hi8(-(dir_array))
 3430 0d58 1196      		adiw r26,1
 3431 0d5a FC92      		st X,r15
 3432 0d5c 1197      		sbiw r26,1
 3433               	.LM556:
 3434 0d5e E050      		subi r30,lo8(-(dir_array+2))
 3435 0d60 F040      		sbci r31,hi8(-(dir_array+2))
 3436 0d62 E082      		st Z,r14
 3437               	.LM557:
 3438 0d64 1396      		adiw r26,3
 3439 0d66 DC92      		st X,r13
 3440 0d68 1397      		sbiw r26,3
 3441               	.LM558:
 3442 0d6a CC92      		st X,r12
 3443 0d6c 00C0      		rjmp .L314
 3444               	.L315:
 3445               	.LM559:
 3446 0d6e FE01      		movw r30,r28
 3447 0d70 34E0      		ldi r19,4
 3448 0d72 EE0F      	1:	lsl r30
 3449 0d74 FF1F      		rol r31
 3450 0d76 3A95      		dec r19
 3451 0d78 01F4      		brne 1b
 3452 0d7a E00F      		add r30,r16
 3453 0d7c F11F      		adc r31,r17
 3454 0d7e EE0F      		lsl r30
 3455 0d80 FF1F      		rol r31
 3456 0d82 EE0F      		lsl r30
 3457 0d84 FF1F      		rol r31
 3458 0d86 DF01      		movw r26,r30
 3459 0d88 A050      		subi r26,lo8(-(dir_array+2))
 3460 0d8a B040      		sbci r27,hi8(-(dir_array+2))
 3461 0d8c FC92      		st X,r15
 3462               	.LM560:
 3463 0d8e E050      		subi r30,lo8(-(dir_array))
 3464 0d90 F040      		sbci r31,hi8(-(dir_array))
 3465 0d92 E382      		std Z+3,r14
 3466               	.LM561:
 3467 0d94 D082      		st Z,r13
 3468               	.LM562:
 3469 0d96 C182      		std Z+1,r12
 3470 0d98 00C0      		rjmp .L314
 3471               	.L310:
 3472               	.LM563:
 3473 0d9a FE01      		movw r30,r28
 3474 0d9c 84E0      		ldi r24,4
 3475 0d9e EE0F      	1:	lsl r30
 3476 0da0 FF1F      		rol r31
 3477 0da2 8A95      		dec r24
 3478 0da4 01F4      		brne 1b
 3479 0da6 E00F      		add r30,r16
 3480 0da8 F11F      		adc r31,r17
 3481 0daa EE0F      		lsl r30
 3482 0dac FF1F      		rol r31
 3483 0dae EE0F      		lsl r30
 3484 0db0 FF1F      		rol r31
 3485 0db2 DF01      		movw r26,r30
 3486 0db4 A050      		subi r26,lo8(-(dir_array))
 3487 0db6 B040      		sbci r27,hi8(-(dir_array))
 3488 0db8 1396      		adiw r26,3
 3489 0dba FC92      		st X,r15
 3490 0dbc 1397      		sbiw r26,3
 3491               	.LM564:
 3492 0dbe EC92      		st X,r14
 3493               	.LM565:
 3494 0dc0 1196      		adiw r26,1
 3495 0dc2 DC92      		st X,r13
 3496               	.LM566:
 3497 0dc4 E050      		subi r30,lo8(-(dir_array+2))
 3498 0dc6 F040      		sbci r31,hi8(-(dir_array+2))
 3499 0dc8 C082      		st Z,r12
 3500               	.L314:
 3501               	/* epilogue start */
 3502               	.LM567:
 3503 0dca DF91      		pop r29
 3504 0dcc CF91      		pop r28
 3505 0dce 1F91      		pop r17
 3506 0dd0 0F91      		pop r16
 3507 0dd2 FF90      		pop r15
 3508               	.LVL110:
 3509 0dd4 EF90      		pop r14
 3510               	.LVL111:
 3511 0dd6 DF90      		pop r13
 3512               	.LVL112:
 3513 0dd8 CF90      		pop r12
 3514               	.LVL113:
 3515 0dda 0895      		ret
 3516               	.LFE67:
 3518               	.global	update_coordinates
 3520               	update_coordinates:
 3521               	.LFB65:
 3522               	.LM568:
 3523               	/* prologue: function */
 3524               	/* frame size = 0 */
 3525               	.LM569:
 3526 0ddc 8091 0000 		lds r24,Coordinates_changed_by
 3527 0de0 9091 0000 		lds r25,(Coordinates_changed_by)+1
 3528               	.LVL114:
 3529               	.LM570:
 3530 0de4 8230      		cpi r24,2
 3531 0de6 9105      		cpc r25,__zero_reg__
 3532 0de8 01F0      		breq .+2
 3533 0dea 00C0      		rjmp .L317
 3534               	.LM571:
 3535 0dec 8091 0000 		lds r24,dir
 3536 0df0 9091 0000 		lds r25,(dir)+1
 3537               	.LVL115:
 3538 0df4 2FEF      		ldi r18,hi8(-1)
 3539 0df6 8F3F      		cpi r24,lo8(-1)
 3540 0df8 9207      		cpc r25,r18
 3541 0dfa 01F0      		breq .L320
 3542 0dfc 2FEF      		ldi r18,hi8(-1)
 3543 0dfe 8F3F      		cpi r24,lo8(-1)
 3544 0e00 9207      		cpc r25,r18
 3545 0e02 01F0      		breq .+2
 3546 0e04 04F4      		brge .L323
 3547 0e06 8E5F      		subi r24,lo8(-2)
 3548 0e08 9F4F      		sbci r25,hi8(-2)
 3549 0e0a 01F0      		breq .+2
 3550 0e0c 00C0      		rjmp .L318
 3551 0e0e 00C0      		rjmp .L362
 3552               	.L323:
 3553 0e10 8130      		cpi r24,1
 3554 0e12 9105      		cpc r25,__zero_reg__
 3555 0e14 01F0      		breq .L321
 3556 0e16 0297      		sbiw r24,2
 3557 0e18 01F0      		breq .+2
 3558 0e1a 00C0      		rjmp .L318
 3559 0e1c 00C0      		rjmp .L363
 3560               	.L321:
 3561               	.LM572:
 3562 0e1e 8091 0000 		lds r24,x_coordinate
 3563 0e22 9091 0000 		lds r25,(x_coordinate)+1
 3564 0e26 0196      		adiw r24,1
 3565 0e28 9093 0000 		sts (x_coordinate)+1,r25
 3566 0e2c 8093 0000 		sts x_coordinate,r24
 3567               	.LM573:
 3568 0e30 84E5      		ldi r24,lo8(84)
 3569 0e32 90E0      		ldi r25,hi8(84)
 3570 0e34 66E4      		ldi r22,lo8(70)
 3571 0e36 70E0      		ldi r23,hi8(70)
 3572 0e38 44E5      		ldi r20,lo8(84)
 3573 0e3a 50E0      		ldi r21,hi8(84)
 3574 0e3c 26E4      		ldi r18,lo8(70)
 3575 0e3e 30E0      		ldi r19,hi8(70)
 3576 0e40 0E94 0000 		call update_array
 3577               	.LM574:
 3578 0e44 8091 0000 		lds r24,x_coordinate
 3579 0e48 9091 0000 		lds r25,(x_coordinate)+1
 3580 0e4c 0196      		adiw r24,1
 3581 0e4e 9093 0000 		sts (x_coordinate)+1,r25
 3582 0e52 8093 0000 		sts x_coordinate,r24
 3583               	.LM575:
 3584 0e56 6091 0000 		lds r22,y_coordinate
 3585 0e5a 7091 0000 		lds r23,(y_coordinate)+1
 3586 0e5e 0E94 0000 		call is_coordinate_null
 3587 0e62 00C0      		rjmp .L351
 3588               	.L320:
 3589               	.LM576:
 3590 0e64 8091 0000 		lds r24,x_coordinate
 3591 0e68 9091 0000 		lds r25,(x_coordinate)+1
 3592 0e6c 0197      		sbiw r24,1
 3593 0e6e 9093 0000 		sts (x_coordinate)+1,r25
 3594 0e72 8093 0000 		sts x_coordinate,r24
 3595               	.LM577:
 3596 0e76 84E5      		ldi r24,lo8(84)
 3597 0e78 90E0      		ldi r25,hi8(84)
 3598 0e7a 66E4      		ldi r22,lo8(70)
 3599 0e7c 70E0      		ldi r23,hi8(70)
 3600 0e7e 44E5      		ldi r20,lo8(84)
 3601 0e80 50E0      		ldi r21,hi8(84)
 3602 0e82 26E4      		ldi r18,lo8(70)
 3603 0e84 30E0      		ldi r19,hi8(70)
 3604 0e86 0E94 0000 		call update_array
 3605               	.LM578:
 3606 0e8a 8091 0000 		lds r24,x_coordinate
 3607 0e8e 9091 0000 		lds r25,(x_coordinate)+1
 3608 0e92 0197      		sbiw r24,1
 3609 0e94 9093 0000 		sts (x_coordinate)+1,r25
 3610 0e98 8093 0000 		sts x_coordinate,r24
 3611               	.LM579:
 3612 0e9c 6091 0000 		lds r22,y_coordinate
 3613 0ea0 7091 0000 		lds r23,(y_coordinate)+1
 3614 0ea4 0E94 0000 		call is_coordinate_null
 3615 0ea8 00C0      		rjmp .L351
 3616               	.L363:
 3617               	.LM580:
 3618 0eaa 8091 0000 		lds r24,y_coordinate
 3619 0eae 9091 0000 		lds r25,(y_coordinate)+1
 3620 0eb2 0196      		adiw r24,1
 3621 0eb4 9093 0000 		sts (y_coordinate)+1,r25
 3622 0eb8 8093 0000 		sts y_coordinate,r24
 3623               	.LM581:
 3624 0ebc 84E5      		ldi r24,lo8(84)
 3625 0ebe 90E0      		ldi r25,hi8(84)
 3626 0ec0 66E4      		ldi r22,lo8(70)
 3627 0ec2 70E0      		ldi r23,hi8(70)
 3628 0ec4 44E5      		ldi r20,lo8(84)
 3629 0ec6 50E0      		ldi r21,hi8(84)
 3630 0ec8 26E4      		ldi r18,lo8(70)
 3631 0eca 30E0      		ldi r19,hi8(70)
 3632 0ecc 0E94 0000 		call update_array
 3633               	.LM582:
 3634 0ed0 6091 0000 		lds r22,y_coordinate
 3635 0ed4 7091 0000 		lds r23,(y_coordinate)+1
 3636 0ed8 6F5F      		subi r22,lo8(-(1))
 3637 0eda 7F4F      		sbci r23,hi8(-(1))
 3638 0edc 7093 0000 		sts (y_coordinate)+1,r23
 3639 0ee0 6093 0000 		sts y_coordinate,r22
 3640               	.LM583:
 3641 0ee4 8091 0000 		lds r24,x_coordinate
 3642 0ee8 9091 0000 		lds r25,(x_coordinate)+1
 3643 0eec 0E94 0000 		call is_coordinate_null
 3644 0ef0 00C0      		rjmp .L351
 3645               	.L362:
 3646               	.LM584:
 3647 0ef2 8091 0000 		lds r24,y_coordinate
 3648 0ef6 9091 0000 		lds r25,(y_coordinate)+1
 3649 0efa 0197      		sbiw r24,1
 3650 0efc 9093 0000 		sts (y_coordinate)+1,r25
 3651 0f00 8093 0000 		sts y_coordinate,r24
 3652               	.LM585:
 3653 0f04 84E5      		ldi r24,lo8(84)
 3654 0f06 90E0      		ldi r25,hi8(84)
 3655 0f08 66E4      		ldi r22,lo8(70)
 3656 0f0a 70E0      		ldi r23,hi8(70)
 3657 0f0c 44E5      		ldi r20,lo8(84)
 3658 0f0e 50E0      		ldi r21,hi8(84)
 3659 0f10 26E4      		ldi r18,lo8(70)
 3660 0f12 30E0      		ldi r19,hi8(70)
 3661 0f14 0E94 0000 		call update_array
 3662               	.LM586:
 3663 0f18 6091 0000 		lds r22,y_coordinate
 3664 0f1c 7091 0000 		lds r23,(y_coordinate)+1
 3665 0f20 6150      		subi r22,lo8(-(-1))
 3666 0f22 7040      		sbci r23,hi8(-(-1))
 3667 0f24 7093 0000 		sts (y_coordinate)+1,r23
 3668 0f28 6093 0000 		sts y_coordinate,r22
 3669               	.LM587:
 3670 0f2c 8091 0000 		lds r24,x_coordinate
 3671 0f30 9091 0000 		lds r25,(x_coordinate)+1
 3672 0f34 0E94 0000 		call is_coordinate_null
 3673 0f38 00C0      		rjmp .L351
 3674               	.LVL116:
 3675               	.L317:
 3676               	.LM588:
 3677 0f3a 8130      		cpi r24,1
 3678 0f3c 9105      		cpc r25,__zero_reg__
 3679 0f3e 01F0      		breq .+2
 3680 0f40 00C0      		rjmp .L328
 3681               	.LM589:
 3682 0f42 8091 0000 		lds r24,dir
 3683 0f46 9091 0000 		lds r25,(dir)+1
 3684               	.LVL117:
 3685 0f4a 2FEF      		ldi r18,hi8(-1)
 3686 0f4c 8F3F      		cpi r24,lo8(-1)
 3687 0f4e 9207      		cpc r25,r18
 3688 0f50 01F0      		breq .L330
 3689 0f52 2FEF      		ldi r18,hi8(-1)
 3690 0f54 8F3F      		cpi r24,lo8(-1)
 3691 0f56 9207      		cpc r25,r18
 3692 0f58 01F0      		breq .+2
 3693 0f5a 04F4      		brge .L333
 3694 0f5c 8E5F      		subi r24,lo8(-2)
 3695 0f5e 9F4F      		sbci r25,hi8(-2)
 3696 0f60 01F0      		breq .+2
 3697 0f62 00C0      		rjmp .L318
 3698 0f64 00C0      		rjmp .L364
 3699               	.L333:
 3700 0f66 8130      		cpi r24,1
 3701 0f68 9105      		cpc r25,__zero_reg__
 3702 0f6a 01F0      		breq .L331
 3703 0f6c 0297      		sbiw r24,2
 3704 0f6e 01F0      		breq .+2
 3705 0f70 00C0      		rjmp .L318
 3706 0f72 00C0      		rjmp .L365
 3707               	.L331:
 3708               	.LM590:
 3709 0f74 8091 0000 		lds r24,x_coordinate
 3710 0f78 9091 0000 		lds r25,(x_coordinate)+1
 3711 0f7c 0196      		adiw r24,1
 3712 0f7e 9093 0000 		sts (x_coordinate)+1,r25
 3713 0f82 8093 0000 		sts x_coordinate,r24
 3714               	.LM591:
 3715 0f86 6091 0000 		lds r22,y_coordinate
 3716 0f8a 7091 0000 		lds r23,(y_coordinate)+1
 3717 0f8e 0E94 0000 		call is_coordinate_null
 3718 0f92 00C0      		rjmp .L351
 3719               	.L330:
 3720               	.LM592:
 3721 0f94 8091 0000 		lds r24,x_coordinate
 3722 0f98 9091 0000 		lds r25,(x_coordinate)+1
 3723 0f9c 0197      		sbiw r24,1
 3724 0f9e 9093 0000 		sts (x_coordinate)+1,r25
 3725 0fa2 8093 0000 		sts x_coordinate,r24
 3726               	.LM593:
 3727 0fa6 6091 0000 		lds r22,y_coordinate
 3728 0faa 7091 0000 		lds r23,(y_coordinate)+1
 3729 0fae 0E94 0000 		call is_coordinate_null
 3730 0fb2 00C0      		rjmp .L351
 3731               	.L365:
 3732               	.LM594:
 3733 0fb4 6091 0000 		lds r22,y_coordinate
 3734 0fb8 7091 0000 		lds r23,(y_coordinate)+1
 3735 0fbc 6F5F      		subi r22,lo8(-(1))
 3736 0fbe 7F4F      		sbci r23,hi8(-(1))
 3737 0fc0 7093 0000 		sts (y_coordinate)+1,r23
 3738 0fc4 6093 0000 		sts y_coordinate,r22
 3739               	.LM595:
 3740 0fc8 8091 0000 		lds r24,x_coordinate
 3741 0fcc 9091 0000 		lds r25,(x_coordinate)+1
 3742 0fd0 0E94 0000 		call is_coordinate_null
 3743 0fd4 00C0      		rjmp .L351
 3744               	.L364:
 3745               	.LM596:
 3746 0fd6 6091 0000 		lds r22,y_coordinate
 3747 0fda 7091 0000 		lds r23,(y_coordinate)+1
 3748 0fde 6150      		subi r22,lo8(-(-1))
 3749 0fe0 7040      		sbci r23,hi8(-(-1))
 3750 0fe2 7093 0000 		sts (y_coordinate)+1,r23
 3751 0fe6 6093 0000 		sts y_coordinate,r22
 3752               	.LM597:
 3753 0fea 8091 0000 		lds r24,x_coordinate
 3754 0fee 9091 0000 		lds r25,(x_coordinate)+1
 3755 0ff2 0E94 0000 		call is_coordinate_null
 3756 0ff6 00C0      		rjmp .L351
 3757               	.LVL118:
 3758               	.L328:
 3759               	.LM598:
 3760 0ff8 0397      		sbiw r24,3
 3761 0ffa 01F0      		breq .+2
 3762 0ffc 00C0      		rjmp .L318
 3763               	.LM599:
 3764 0ffe 8091 0000 		lds r24,dir
 3765 1002 9091 0000 		lds r25,(dir)+1
 3766               	.LVL119:
 3767 1006 2FEF      		ldi r18,hi8(-1)
 3768 1008 8F3F      		cpi r24,lo8(-1)
 3769 100a 9207      		cpc r25,r18
 3770 100c 01F4      		brne .+2
 3771 100e 00C0      		rjmp .L339
 3772 1010 2FEF      		ldi r18,hi8(-1)
 3773 1012 8F3F      		cpi r24,lo8(-1)
 3774 1014 9207      		cpc r25,r18
 3775 1016 01F0      		breq .+2
 3776 1018 04F4      		brge .L342
 3777 101a 8E5F      		subi r24,lo8(-2)
 3778 101c 9F4F      		sbci r25,hi8(-2)
 3779 101e 01F0      		breq .+2
 3780 1020 00C0      		rjmp .L318
 3781 1022 00C0      		rjmp .L366
 3782               	.L342:
 3783 1024 8130      		cpi r24,1
 3784 1026 9105      		cpc r25,__zero_reg__
 3785 1028 01F0      		breq .L340
 3786 102a 0297      		sbiw r24,2
 3787 102c 01F0      		breq .+2
 3788 102e 00C0      		rjmp .L318
 3789 1030 00C0      		rjmp .L367
 3790               	.L340:
 3791               	.LM600:
 3792 1032 8091 0000 		lds r24,x_coordinate
 3793 1036 9091 0000 		lds r25,(x_coordinate)+1
 3794 103a 0196      		adiw r24,1
 3795 103c 9093 0000 		sts (x_coordinate)+1,r25
 3796 1040 8093 0000 		sts x_coordinate,r24
 3797               	.LM601:
 3798 1044 84E5      		ldi r24,lo8(84)
 3799 1046 90E0      		ldi r25,hi8(84)
 3800 1048 66E4      		ldi r22,lo8(70)
 3801 104a 70E0      		ldi r23,hi8(70)
 3802 104c 44E5      		ldi r20,lo8(84)
 3803 104e 50E0      		ldi r21,hi8(84)
 3804 1050 26E4      		ldi r18,lo8(70)
 3805 1052 30E0      		ldi r19,hi8(70)
 3806 1054 0E94 0000 		call update_array
 3807               	.LM602:
 3808 1058 8091 0000 		lds r24,x_coordinate
 3809 105c 9091 0000 		lds r25,(x_coordinate)+1
 3810 1060 0196      		adiw r24,1
 3811 1062 9093 0000 		sts (x_coordinate)+1,r25
 3812 1066 8093 0000 		sts x_coordinate,r24
 3813               	.LM603:
 3814 106a 84E5      		ldi r24,lo8(84)
 3815 106c 90E0      		ldi r25,hi8(84)
 3816 106e 66E4      		ldi r22,lo8(70)
 3817 1070 70E0      		ldi r23,hi8(70)
 3818 1072 44E5      		ldi r20,lo8(84)
 3819 1074 50E0      		ldi r21,hi8(84)
 3820 1076 26E4      		ldi r18,lo8(70)
 3821 1078 30E0      		ldi r19,hi8(70)
 3822 107a 0E94 0000 		call update_array
 3823               	.LM604:
 3824 107e 8091 0000 		lds r24,x_coordinate
 3825 1082 9091 0000 		lds r25,(x_coordinate)+1
 3826 1086 0196      		adiw r24,1
 3827 1088 9093 0000 		sts (x_coordinate)+1,r25
 3828 108c 8093 0000 		sts x_coordinate,r24
 3829               	.LM605:
 3830 1090 6091 0000 		lds r22,y_coordinate
 3831 1094 7091 0000 		lds r23,(y_coordinate)+1
 3832 1098 0E94 0000 		call is_coordinate_null
 3833 109c 00C0      		rjmp .L351
 3834               	.L339:
 3835               	.LM606:
 3836 109e 8091 0000 		lds r24,x_coordinate
 3837 10a2 9091 0000 		lds r25,(x_coordinate)+1
 3838 10a6 0197      		sbiw r24,1
 3839 10a8 9093 0000 		sts (x_coordinate)+1,r25
 3840 10ac 8093 0000 		sts x_coordinate,r24
 3841               	.LM607:
 3842 10b0 84E5      		ldi r24,lo8(84)
 3843 10b2 90E0      		ldi r25,hi8(84)
 3844 10b4 66E4      		ldi r22,lo8(70)
 3845 10b6 70E0      		ldi r23,hi8(70)
 3846 10b8 44E5      		ldi r20,lo8(84)
 3847 10ba 50E0      		ldi r21,hi8(84)
 3848 10bc 26E4      		ldi r18,lo8(70)
 3849 10be 30E0      		ldi r19,hi8(70)
 3850 10c0 0E94 0000 		call update_array
 3851               	.LM608:
 3852 10c4 8091 0000 		lds r24,x_coordinate
 3853 10c8 9091 0000 		lds r25,(x_coordinate)+1
 3854 10cc 0197      		sbiw r24,1
 3855 10ce 9093 0000 		sts (x_coordinate)+1,r25
 3856 10d2 8093 0000 		sts x_coordinate,r24
 3857               	.LM609:
 3858 10d6 84E5      		ldi r24,lo8(84)
 3859 10d8 90E0      		ldi r25,hi8(84)
 3860 10da 66E4      		ldi r22,lo8(70)
 3861 10dc 70E0      		ldi r23,hi8(70)
 3862 10de 44E5      		ldi r20,lo8(84)
 3863 10e0 50E0      		ldi r21,hi8(84)
 3864 10e2 26E4      		ldi r18,lo8(70)
 3865 10e4 30E0      		ldi r19,hi8(70)
 3866 10e6 0E94 0000 		call update_array
 3867               	.LM610:
 3868 10ea 8091 0000 		lds r24,x_coordinate
 3869 10ee 9091 0000 		lds r25,(x_coordinate)+1
 3870 10f2 0196      		adiw r24,1
 3871 10f4 9093 0000 		sts (x_coordinate)+1,r25
 3872 10f8 8093 0000 		sts x_coordinate,r24
 3873               	.LM611:
 3874 10fc 6091 0000 		lds r22,y_coordinate
 3875 1100 7091 0000 		lds r23,(y_coordinate)+1
 3876 1104 0E94 0000 		call is_coordinate_null
 3877 1108 00C0      		rjmp .L351
 3878               	.L367:
 3879               	.LM612:
 3880 110a 8091 0000 		lds r24,y_coordinate
 3881 110e 9091 0000 		lds r25,(y_coordinate)+1
 3882 1112 0196      		adiw r24,1
 3883 1114 9093 0000 		sts (y_coordinate)+1,r25
 3884 1118 8093 0000 		sts y_coordinate,r24
 3885               	.LM613:
 3886 111c 84E5      		ldi r24,lo8(84)
 3887 111e 90E0      		ldi r25,hi8(84)
 3888 1120 66E4      		ldi r22,lo8(70)
 3889 1122 70E0      		ldi r23,hi8(70)
 3890 1124 44E5      		ldi r20,lo8(84)
 3891 1126 50E0      		ldi r21,hi8(84)
 3892 1128 26E4      		ldi r18,lo8(70)
 3893 112a 30E0      		ldi r19,hi8(70)
 3894 112c 0E94 0000 		call update_array
 3895               	.LM614:
 3896 1130 8091 0000 		lds r24,y_coordinate
 3897 1134 9091 0000 		lds r25,(y_coordinate)+1
 3898 1138 0196      		adiw r24,1
 3899 113a 9093 0000 		sts (y_coordinate)+1,r25
 3900 113e 8093 0000 		sts y_coordinate,r24
 3901               	.LM615:
 3902 1142 84E5      		ldi r24,lo8(84)
 3903 1144 90E0      		ldi r25,hi8(84)
 3904 1146 66E4      		ldi r22,lo8(70)
 3905 1148 70E0      		ldi r23,hi8(70)
 3906 114a 44E5      		ldi r20,lo8(84)
 3907 114c 50E0      		ldi r21,hi8(84)
 3908 114e 26E4      		ldi r18,lo8(70)
 3909 1150 30E0      		ldi r19,hi8(70)
 3910 1152 0E94 0000 		call update_array
 3911               	.LM616:
 3912 1156 6091 0000 		lds r22,y_coordinate
 3913 115a 7091 0000 		lds r23,(y_coordinate)+1
 3914 115e 6F5F      		subi r22,lo8(-(1))
 3915 1160 7F4F      		sbci r23,hi8(-(1))
 3916 1162 7093 0000 		sts (y_coordinate)+1,r23
 3917 1166 6093 0000 		sts y_coordinate,r22
 3918               	.LM617:
 3919 116a 8091 0000 		lds r24,x_coordinate
 3920 116e 9091 0000 		lds r25,(x_coordinate)+1
 3921 1172 0E94 0000 		call is_coordinate_null
 3922 1176 00C0      		rjmp .L351
 3923               	.L366:
 3924               	.LM618:
 3925 1178 8091 0000 		lds r24,y_coordinate
 3926 117c 9091 0000 		lds r25,(y_coordinate)+1
 3927 1180 0197      		sbiw r24,1
 3928 1182 9093 0000 		sts (y_coordinate)+1,r25
 3929 1186 8093 0000 		sts y_coordinate,r24
 3930               	.LM619:
 3931 118a 84E5      		ldi r24,lo8(84)
 3932 118c 90E0      		ldi r25,hi8(84)
 3933 118e 66E4      		ldi r22,lo8(70)
 3934 1190 70E0      		ldi r23,hi8(70)
 3935 1192 44E5      		ldi r20,lo8(84)
 3936 1194 50E0      		ldi r21,hi8(84)
 3937 1196 26E4      		ldi r18,lo8(70)
 3938 1198 30E0      		ldi r19,hi8(70)
 3939 119a 0E94 0000 		call update_array
 3940               	.LM620:
 3941 119e 8091 0000 		lds r24,y_coordinate
 3942 11a2 9091 0000 		lds r25,(y_coordinate)+1
 3943 11a6 0197      		sbiw r24,1
 3944 11a8 9093 0000 		sts (y_coordinate)+1,r25
 3945 11ac 8093 0000 		sts y_coordinate,r24
 3946               	.LM621:
 3947 11b0 84E5      		ldi r24,lo8(84)
 3948 11b2 90E0      		ldi r25,hi8(84)
 3949 11b4 66E4      		ldi r22,lo8(70)
 3950 11b6 70E0      		ldi r23,hi8(70)
 3951 11b8 44E5      		ldi r20,lo8(84)
 3952 11ba 50E0      		ldi r21,hi8(84)
 3953 11bc 26E4      		ldi r18,lo8(70)
 3954 11be 30E0      		ldi r19,hi8(70)
 3955 11c0 0E94 0000 		call update_array
 3956               	.LM622:
 3957 11c4 6091 0000 		lds r22,y_coordinate
 3958 11c8 7091 0000 		lds r23,(y_coordinate)+1
 3959 11cc 6F5F      		subi r22,lo8(-(1))
 3960 11ce 7F4F      		sbci r23,hi8(-(1))
 3961 11d0 7093 0000 		sts (y_coordinate)+1,r23
 3962 11d4 6093 0000 		sts y_coordinate,r22
 3963               	.LM623:
 3964 11d8 8091 0000 		lds r24,x_coordinate
 3965 11dc 9091 0000 		lds r25,(x_coordinate)+1
 3966 11e0 0E94 0000 		call is_coordinate_null
 3967               	.L351:
 3968 11e4 892B      		or r24,r25
 3969 11e6 01F4      		brne .L346
 3970               	.LM624:
 3971 11e8 8091 0000 		lds r24,repeat
 3972 11ec 9091 0000 		lds r25,(repeat)+1
 3973 11f0 0196      		adiw r24,1
 3974 11f2 9093 0000 		sts (repeat)+1,r25
 3975 11f6 8093 0000 		sts repeat,r24
 3976 11fa 00C0      		rjmp .L318
 3977               	.L346:
 3978               	.LM625:
 3979 11fc 1092 0000 		sts (repeat)+1,__zero_reg__
 3980 1200 1092 0000 		sts repeat,__zero_reg__
 3981               	.LVL120:
 3982               	.L318:
 3983               	.LM626:
 3984 1204 81E0      		ldi r24,lo8(1)
 3985               	.LVL121:
 3986 1206 60E0      		ldi r22,lo8(0)
 3987 1208 0E94 0000 		call lcd_byte
 3988               	.LM627:
 3989 120c 4091 0000 		lds r20,x_coordinate
 3990 1210 5091 0000 		lds r21,(x_coordinate)+1
 3991 1214 84E0      		ldi r24,lo8(4)
 3992 1216 90E0      		ldi r25,hi8(4)
 3993 1218 60E0      		ldi r22,lo8(0)
 3994 121a 70E0      		ldi r23,hi8(0)
 3995 121c 22E0      		ldi r18,lo8(2)
 3996 121e 30E0      		ldi r19,hi8(2)
 3997 1220 0E94 0000 		call lcd_write_int_xy
 3998               	.LM628:
 3999 1224 4091 0000 		lds r20,y_coordinate
 4000 1228 5091 0000 		lds r21,(y_coordinate)+1
 4001 122c 88E0      		ldi r24,lo8(8)
 4002 122e 90E0      		ldi r25,hi8(8)
 4003 1230 60E0      		ldi r22,lo8(0)
 4004 1232 70E0      		ldi r23,hi8(0)
 4005 1234 22E0      		ldi r18,lo8(2)
 4006 1236 30E0      		ldi r19,hi8(2)
 4007 1238 0E94 0000 		call lcd_write_int_xy
 4008               	.LM629:
 4009 123c 1092 0000 		sts (Coordinates_changed_by)+1,__zero_reg__
 4010 1240 1092 0000 		sts Coordinates_changed_by,__zero_reg__
 4011               	/* epilogue start */
 4012               	.LM630:
 4013 1244 0895      		ret
 4014               	.LFE65:
 4016               	.global	left_junc_check
 4018               	left_junc_check:
 4019               	.LFB64:
 4020               	.LM631:
 4021               	/* prologue: function */
 4022               	/* frame size = 0 */
 4023               	.LM632:
 4024 1246 CD99      		sbic 57-32,5
 4025 1248 00C0      		rjmp .L369
 4026               	.LM633:
 4027 124a 21E0      		ldi r18,lo8(1)
 4028 124c 30E0      		ldi r19,hi8(1)
 4029 124e 3093 0000 		sts (flag1)+1,r19
 4030 1252 2093 0000 		sts flag1,r18
 4031               	.LM634:
 4032 1256 8091 0000 		lds r24,irc
 4033 125a 9091 0000 		lds r25,(irc)+1
 4034 125e 47E0      		ldi r20,hi8(2001)
 4035 1260 813D      		cpi r24,lo8(2001)
 4036 1262 9407      		cpc r25,r20
 4037 1264 04F0      		brlt .L370
 4038               	.LM635:
 4039 1266 815A      		subi r24,lo8(4001)
 4040 1268 9F40      		sbci r25,hi8(4001)
 4041 126a 04F0      		brlt .L371
 4042               	.LM636:
 4043 126c 83E0      		ldi r24,lo8(3)
 4044 126e 90E0      		ldi r25,hi8(3)
 4045 1270 00C0      		rjmp .L378
 4046               	.L371:
 4047               	.LM637:
 4048 1272 82E0      		ldi r24,lo8(2)
 4049 1274 90E0      		ldi r25,hi8(2)
 4050               	.L378:
 4051 1276 9093 0000 		sts (Coordinates_changed_by)+1,r25
 4052 127a 8093 0000 		sts Coordinates_changed_by,r24
 4053 127e 00C0      		rjmp .L369
 4054               	.L370:
 4055               	.LM638:
 4056 1280 3093 0000 		sts (Coordinates_changed_by)+1,r19
 4057 1284 2093 0000 		sts Coordinates_changed_by,r18
 4058               	.LM639:
 4059 1288 892B      		or r24,r25
 4060 128a 01F4      		brne .L369
 4061               	.LM640:
 4062 128c 1092 0000 		sts (Coordinates_changed_by)+1,__zero_reg__
 4063 1290 1092 0000 		sts Coordinates_changed_by,__zero_reg__
 4064               	.L369:
 4065               	.LM641:
 4066 1294 CE9B      		sbis 57-32,6
 4067 1296 00C0      		rjmp .L372
 4068 1298 8699      		sbic 48-32,6
 4069 129a 00C0      		rjmp .L373
 4070               	.L372:
 4071 129c CC9B      		sbis 57-32,4
 4072 129e 00C0      		rjmp .L374
 4073 12a0 8091 0000 		lds r24,special_flag
 4074 12a4 9091 0000 		lds r25,(special_flag)+1
 4075 12a8 0197      		sbiw r24,1
 4076 12aa 01F4      		brne .L373
 4077               	.L374:
 4078               	.LM642:
 4079 12ac 0E94 0000 		call update_coordinates
 4080               	.LM643:
 4081 12b0 84E5      		ldi r24,lo8(84)
 4082 12b2 90E0      		ldi r25,hi8(84)
 4083 12b4 66E4      		ldi r22,lo8(70)
 4084 12b6 70E0      		ldi r23,hi8(70)
 4085 12b8 44E5      		ldi r20,lo8(84)
 4086 12ba 50E0      		ldi r21,hi8(84)
 4087 12bc 24E5      		ldi r18,lo8(84)
 4088 12be 30E0      		ldi r19,hi8(84)
 4089 12c0 0E94 0000 		call update_array
 4090               	.LM644:
 4091 12c4 1092 0000 		sts (irc)+1,__zero_reg__
 4092 12c8 1092 0000 		sts irc,__zero_reg__
 4093               	.LM645:
 4094 12cc 1092 0000 		sts (special_flag)+1,__zero_reg__
 4095 12d0 1092 0000 		sts special_flag,__zero_reg__
 4096 12d4 0895      		ret
 4097               	.L373:
 4098               	.LM646:
 4099 12d6 CC9B      		sbis 57-32,4
 4100 12d8 00C0      		rjmp .L376
 4101 12da 8091 0000 		lds r24,special_flag
 4102 12de 9091 0000 		lds r25,(special_flag)+1
 4103 12e2 0197      		sbiw r24,1
 4104 12e4 01F4      		brne .L377
 4105               	.L376:
 4106 12e6 CE9B      		sbis 57-32,6
 4107 12e8 00C0      		rjmp .L377
 4108 12ea 869B      		sbis 48-32,6
 4109 12ec 00C0      		rjmp .L377
 4110               	.LM647:
 4111 12ee 0E94 0000 		call update_coordinates
 4112               	.LM648:
 4113 12f2 1092 0000 		sts (irc)+1,__zero_reg__
 4114 12f6 1092 0000 		sts irc,__zero_reg__
 4115               	.LBB675:
 4116               	.LBB676:
 4117               	.LM649:
 4118 12fa AC9A      		sbi 53-32,4
 4119               	.LM650:
 4120 12fc AD9A      		sbi 53-32,5
 4121               	.LM651:
 4122 12fe AE9A      		sbi 53-32,6
 4123               	.LM652:
 4124 1300 AF9A      		sbi 53-32,7
 4125               	.LBE676:
 4126               	.LBE675:
 4127               	.LM653:
 4128 1302 8091 0000 		lds r24,repeat
 4129 1306 9091 0000 		lds r25,(repeat)+1
 4130 130a 0397      		sbiw r24,3
 4131 130c 04F4      		brge .L377
 4132               	.LM654:
 4133 130e 0E94 0000 		call turn_left
 4134               	.LM655:
 4135 1312 86E4      		ldi r24,lo8(70)
 4136 1314 90E0      		ldi r25,hi8(70)
 4137 1316 66E4      		ldi r22,lo8(70)
 4138 1318 70E0      		ldi r23,hi8(70)
 4139 131a 44E5      		ldi r20,lo8(84)
 4140 131c 50E0      		ldi r21,hi8(84)
 4141 131e 24E5      		ldi r18,lo8(84)
 4142 1320 30E0      		ldi r19,hi8(84)
 4143 1322 0E94 0000 		call update_array
 4144               	.LBB677:
 4145               	.LBB678:
 4146               	.LM656:
 4147 1326 AC9A      		sbi 53-32,4
 4148               	.LM657:
 4149 1328 AD9A      		sbi 53-32,5
 4150               	.LM658:
 4151 132a AE9A      		sbi 53-32,6
 4152               	.LM659:
 4153 132c AF9A      		sbi 53-32,7
 4154               	.LBE678:
 4155               	.LBE677:
 4156               	.LM660:
 4157 132e 0E94 0000 		call sense_of_directon
 4158               	.LM661:
 4159 1332 1092 0000 		sts (flag1)+1,__zero_reg__
 4160 1336 1092 0000 		sts flag1,__zero_reg__
 4161               	.LM662:
 4162 133a 1092 0000 		sts (special_flag)+1,__zero_reg__
 4163 133e 1092 0000 		sts special_flag,__zero_reg__
 4164               	.L377:
 4165 1342 0895      		ret
 4166               	.LFE64:
 4168               	.global	frSensorCheck
 4170               	frSensorCheck:
 4171               	.LFB62:
 4172               	.LM663:
 4173               	/* prologue: function */
 4174               	/* frame size = 0 */
 4175               	.LM664:
 4176 1344 CE9B      		sbis 57-32,6
 4177 1346 00C0      		rjmp .L380
 4178 1348 869B      		sbis 48-32,6
 4179 134a 00C0      		rjmp .L380
 4180               	.LM665:
 4181 134c 8091 0000 		lds r24,Coordinates_changed_by
 4182 1350 9091 0000 		lds r25,(Coordinates_changed_by)+1
 4183 1354 892B      		or r24,r25
 4184 1356 01F4      		brne .L380
 4185               	.LM666:
 4186 1358 8091 0000 		lds r24,irc
 4187 135c 9091 0000 		lds r25,(irc)+1
 4188 1360 27E0      		ldi r18,hi8(2001)
 4189 1362 813D      		cpi r24,lo8(2001)
 4190 1364 9207      		cpc r25,r18
 4191 1366 04F0      		brlt .L381
 4192               	.LM667:
 4193 1368 815A      		subi r24,lo8(4001)
 4194 136a 9F40      		sbci r25,hi8(4001)
 4195 136c 04F0      		brlt .L382
 4196               	.LM668:
 4197 136e 83E0      		ldi r24,lo8(3)
 4198 1370 90E0      		ldi r25,hi8(3)
 4199 1372 00C0      		rjmp .L385
 4200               	.L382:
 4201               	.LM669:
 4202 1374 82E0      		ldi r24,lo8(2)
 4203 1376 90E0      		ldi r25,hi8(2)
 4204 1378 00C0      		rjmp .L385
 4205               	.L381:
 4206               	.LM670:
 4207 137a 81E0      		ldi r24,lo8(1)
 4208 137c 90E0      		ldi r25,hi8(1)
 4209               	.L385:
 4210 137e 9093 0000 		sts (Coordinates_changed_by)+1,r25
 4211 1382 8093 0000 		sts Coordinates_changed_by,r24
 4212               	.L380:
 4213               	.LM671:
 4214 1386 8091 0000 		lds r24,sensorbyte
 4215 138a 8823      		tst r24
 4216 138c 01F4      		brne .L384
 4217 138e CC9B      		sbis 57-32,4
 4218 1390 00C0      		rjmp .L384
 4219 1392 CD9B      		sbis 57-32,5
 4220 1394 00C0      		rjmp .L384
 4221 1396 CE9B      		sbis 57-32,6
 4222 1398 00C0      		rjmp .L384
 4223 139a CF9B      		sbis 57-32,7
 4224 139c 00C0      		rjmp .L384
 4225 139e 869B      		sbis 48-32,6
 4226 13a0 00C0      		rjmp .L384
 4227 13a2 879B      		sbis 48-32,7
 4228 13a4 00C0      		rjmp .L384
 4229               	.LBB679:
 4230               	.LBB680:
 4231               	.LM672:
 4232 13a6 AC9A      		sbi 53-32,4
 4233               	.LM673:
 4234 13a8 AD9A      		sbi 53-32,5
 4235               	.LM674:
 4236 13aa AE9A      		sbi 53-32,6
 4237               	.LM675:
 4238 13ac AF9A      		sbi 53-32,7
 4239               	.LBE680:
 4240               	.LBE679:
 4241               	.LM676:
 4242 13ae 0E94 0000 		call update_coordinates
 4243               	.LM677:
 4244 13b2 86E4      		ldi r24,lo8(70)
 4245 13b4 90E0      		ldi r25,hi8(70)
 4246 13b6 66E4      		ldi r22,lo8(70)
 4247 13b8 70E0      		ldi r23,hi8(70)
 4248 13ba 44E5      		ldi r20,lo8(84)
 4249 13bc 50E0      		ldi r21,hi8(84)
 4250 13be 26E4      		ldi r18,lo8(70)
 4251 13c0 30E0      		ldi r19,hi8(70)
 4252 13c2 0E94 0000 		call update_array
 4253               	.LM678:
 4254 13c6 0E94 0000 		call Uturn
 4255               	.LM679:
 4256 13ca 0E94 0000 		call sense_of_directon
 4257               	.LM680:
 4258 13ce 1092 0000 		sts (flag1)+1,__zero_reg__
 4259 13d2 1092 0000 		sts flag1,__zero_reg__
 4260               	.LM681:
 4261 13d6 1092 0000 		sts (irc)+1,__zero_reg__
 4262 13da 1092 0000 		sts irc,__zero_reg__
 4263               	.L384:
 4264 13de 0895      		ret
 4265               	.LFE62:
 4267               		.data
 4268               	.LC0:
 4269 0000 4669 6C6C 		.string	"Filliable"
 4269      6961 626C 
 4269      6500 
 4270               		.text
 4271               	.global	fill_missed_array
 4273               	fill_missed_array:
 4274               	.LFB69:
 4275               	.LM682:
 4276 13e0 6F92      		push r6
 4277 13e2 7F92      		push r7
 4278 13e4 8F92      		push r8
 4279 13e6 9F92      		push r9
 4280 13e8 BF92      		push r11
 4281 13ea CF92      		push r12
 4282 13ec DF92      		push r13
 4283 13ee EF92      		push r14
 4284 13f0 FF92      		push r15
 4285 13f2 0F93      		push r16
 4286 13f4 1F93      		push r17
 4287 13f6 CF93      		push r28
 4288 13f8 DF93      		push r29
 4289               	/* prologue: function */
 4290               	/* frame size = 0 */
 4291               	.LM683:
 4292 13fa 81E0      		ldi r24,lo8(1)
 4293 13fc E82E      		mov r14,r24
 4294 13fe F12C      		mov r15,__zero_reg__
 4295               	.LVL122:
 4296               	.LBB681:
 4297               	.LBB682:
 4298               	.LM684:
 4299 1400 06E4      		ldi r16,lo8(70)
 4300 1402 B02E      		mov r11,r16
 4301 1404 00C0      		rjmp .L387
 4302               	.LVL123:
 4303               	.L396:
 4304               	.LM685:
 4305 1406 C701      		movw r24,r14
 4306 1408 B801      		movw r22,r16
 4307 140a 0E94 0000 		call is_coordinate_null
 4308 140e 892B      		or r24,r25
 4309 1410 01F4      		brne .+2
 4310 1412 00C0      		rjmp .L388
 4311               	.LM686:
 4312 1414 81E0      		ldi r24,lo8(1)
 4313 1416 60E0      		ldi r22,lo8(0)
 4314 1418 0E94 0000 		call lcd_byte
 4315               	.LM687:
 4316 141c C301      		movw r24,r6
 4317 141e B801      		movw r22,r16
 4318 1420 0E94 0000 		call is_coordinate_null
 4319 1424 892B      		or r24,r25
 4320 1426 01F0      		breq .+2
 4321 1428 00C0      		rjmp .L388
 4322 142a C401      		movw r24,r8
 4323 142c B801      		movw r22,r16
 4324 142e 0E94 0000 		call is_coordinate_null
 4325 1432 892B      		or r24,r25
 4326 1434 01F4      		brne .L388
 4327 1436 B801      		movw r22,r16
 4328 1438 6150      		subi r22,lo8(-(-1))
 4329 143a 7040      		sbci r23,hi8(-(-1))
 4330 143c C701      		movw r24,r14
 4331 143e 0E94 0000 		call is_coordinate_null
 4332 1442 892B      		or r24,r25
 4333 1444 01F4      		brne .L388
 4334 1446 B801      		movw r22,r16
 4335 1448 6F5F      		subi r22,lo8(-(1))
 4336 144a 7F4F      		sbci r23,hi8(-(1))
 4337 144c C701      		movw r24,r14
 4338 144e 0E94 0000 		call is_coordinate_null
 4339 1452 892B      		or r24,r25
 4340 1454 01F4      		brne .L388
 4341               	.LM688:
 4342 1456 81E0      		ldi r24,lo8(1)
 4343 1458 60E0      		ldi r22,lo8(0)
 4344 145a 0E94 0000 		call lcd_byte
 4345               	.LM689:
 4346 145e 80E0      		ldi r24,lo8(.LC0)
 4347 1460 90E0      		ldi r25,hi8(.LC0)
 4348 1462 0E94 0000 		call lcd_write_string
 4349               	.LM690:
 4350 1466 80ED      		ldi r24,lo8(2000)
 4351 1468 97E0      		ldi r25,hi8(2000)
 4352 146a 0E94 0000 		call delay_millisec
 4353               	.LM691:
 4354 146e CD5B      		subi r28,lo8(-(67))
 4355 1470 DF4F      		sbci r29,hi8(-(67))
 4356 1472 8881      		ld r24,Y
 4357 1474 C354      		subi r28,lo8(-(-67))
 4358 1476 D040      		sbci r29,hi8(-(-67))
 4359 1478 8435      		cpi r24,lo8(84)
 4360 147a 01F4      		brne .L389
 4361               	.LM692:
 4362 147c 8983      		std Y+1,r24
 4363 147e 00C0      		rjmp .L390
 4364               	.L389:
 4365               	.LM693:
 4366 1480 B982      		std Y+1,r11
 4367               	.L390:
 4368               	.LM694:
 4369 1482 EF97      		sbiw r28,63
 4370 1484 8881      		ld r24,Y
 4371 1486 EF96      		adiw r28,63
 4372 1488 8435      		cpi r24,lo8(84)
 4373 148a 01F4      		brne .L391
 4374               	.LM695:
 4375 148c 8B83      		std Y+3,r24
 4376 148e 00C0      		rjmp .L392
 4377               	.L391:
 4378               	.LM696:
 4379 1490 BB82      		std Y+3,r11
 4380               	.L392:
 4381               	.LM697:
 4382 1492 8E81      		ldd r24,Y+6
 4383 1494 8435      		cpi r24,lo8(84)
 4384 1496 01F4      		brne .L393
 4385               	.LM698:
 4386 1498 8883      		st Y,r24
 4387 149a 00C0      		rjmp .L394
 4388               	.L393:
 4389               	.LM699:
 4390 149c B882      		st Y,r11
 4391               	.L394:
 4392               	.LM700:
 4393 149e F601      		movw r30,r12
 4394 14a0 8081      		ld r24,Z
 4395 14a2 8435      		cpi r24,lo8(84)
 4396 14a4 01F4      		brne .L395
 4397               	.LM701:
 4398 14a6 8A83      		std Y+2,r24
 4399 14a8 00C0      		rjmp .L388
 4400               	.L395:
 4401               	.LM702:
 4402 14aa BA82      		std Y+2,r11
 4403               	.L388:
 4404               	.LM703:
 4405 14ac 0F5F      		subi r16,lo8(-(1))
 4406 14ae 1F4F      		sbci r17,hi8(-(1))
 4407 14b0 85E0      		ldi r24,lo8(5)
 4408 14b2 90E0      		ldi r25,hi8(5)
 4409 14b4 C80E      		add r12,r24
 4410 14b6 D91E      		adc r13,r25
 4411 14b8 2496      		adiw r28,4
 4412 14ba 0F30      		cpi r16,15
 4413 14bc 1105      		cpc r17,__zero_reg__
 4414 14be 01F0      		breq .+2
 4415 14c0 00C0      		rjmp .L396
 4416               	.LBE682:
 4417               	.LM704:
 4418 14c2 0894      		sec
 4419 14c4 E11C      		adc r14,__zero_reg__
 4420 14c6 F11C      		adc r15,__zero_reg__
 4421 14c8 9FE0      		ldi r25,lo8(15)
 4422 14ca E916      		cp r14,r25
 4423 14cc F104      		cpc r15,__zero_reg__
 4424 14ce 01F0      		breq .L398
 4425               	.L387:
 4426 14d0 6701      		movw r12,r14
 4427 14d2 16E0      		ldi r17,6
 4428 14d4 CC0C      	1:	lsl r12
 4429 14d6 DD1C      		rol r13
 4430 14d8 1A95      		dec r17
 4431 14da 01F4      		brne 1b
 4432 14dc E0E0      		ldi r30,lo8(dir_array+4)
 4433 14de F0E0      		ldi r31,hi8(dir_array+4)
 4434 14e0 CE0E      		add r12,r30
 4435 14e2 DF1E      		adc r13,r31
 4436 14e4 E601      		movw r28,r12
 4437 14e6 01E0      		ldi r16,lo8(1)
 4438 14e8 10E0      		ldi r17,hi8(1)
 4439               	.LBB683:
 4440               	.LM705:
 4441 14ea 3701      		movw r6,r14
 4442 14ec 0894      		sec
 4443 14ee 611C      		adc r6,__zero_reg__
 4444 14f0 711C      		adc r7,__zero_reg__
 4445 14f2 4701      		movw r8,r14
 4446 14f4 0894      		sec
 4447 14f6 8108      		sbc r8,__zero_reg__
 4448 14f8 9108      		sbc r9,__zero_reg__
 4449 14fa 00C0      		rjmp .L396
 4450               	.L398:
 4451               	/* epilogue start */
 4452               	.LBE683:
 4453               	.LBE681:
 4454               	.LM706:
 4455 14fc DF91      		pop r29
 4456 14fe CF91      		pop r28
 4457 1500 1F91      		pop r17
 4458 1502 0F91      		pop r16
 4459               	.LVL124:
 4460 1504 FF90      		pop r15
 4461 1506 EF90      		pop r14
 4462               	.LVL125:
 4463 1508 DF90      		pop r13
 4464 150a CF90      		pop r12
 4465 150c BF90      		pop r11
 4466 150e 9F90      		pop r9
 4467 1510 8F90      		pop r8
 4468 1512 7F90      		pop r7
 4469 1514 6F90      		pop r6
 4470 1516 0895      		ret
 4471               	.LFE69:
 4473               	.global	coordinates_tobe_reached
 4475               	coordinates_tobe_reached:
 4476               	.LFB70:
 4477               	.LM707:
 4478 1518 2F92      		push r2
 4479 151a 3F92      		push r3
 4480 151c 4F92      		push r4
 4481 151e 5F92      		push r5
 4482 1520 6F92      		push r6
 4483 1522 7F92      		push r7
 4484 1524 8F92      		push r8
 4485 1526 9F92      		push r9
 4486 1528 AF92      		push r10
 4487 152a BF92      		push r11
 4488 152c CF92      		push r12
 4489 152e DF92      		push r13
 4490 1530 EF92      		push r14
 4491 1532 FF92      		push r15
 4492 1534 0F93      		push r16
 4493 1536 1F93      		push r17
 4494 1538 DF93      		push r29
 4495 153a CF93      		push r28
 4496 153c CDB7      		in r28,__SP_L__
 4497 153e DEB7      		in r29,__SP_H__
 4498 1540 6897      		sbiw r28,24
 4499 1542 0FB6      		in __tmp_reg__,__SREG__
 4500 1544 F894      		cli
 4501 1546 DEBF      		out __SP_H__,r29
 4502 1548 0FBE      		out __SREG__,__tmp_reg__
 4503 154a CDBF      		out __SP_L__,r28
 4504               	/* prologue: function */
 4505               	/* frame size = 24 */
 4506               	.LM708:
 4507 154c 1092 0000 		sts (mx)+1,__zero_reg__
 4508 1550 1092 0000 		sts mx,__zero_reg__
 4509               	.LM709:
 4510 1554 1092 0000 		sts (my)+1,__zero_reg__
 4511 1558 1092 0000 		sts my,__zero_reg__
 4512               	.LBB684:
 4513               	.LBB685:
 4514               	.LM710:
 4515 155c 8090 0000 		lds r8,x_coordinate
 4516 1560 9090 0000 		lds r9,(x_coordinate)+1
 4517 1564 A090 0000 		lds r10,y_coordinate
 4518 1568 B090 0000 		lds r11,(y_coordinate)+1
 4519 156c CC24      		clr r12
 4520 156e DD24      		clr r13
 4521 1570 C818      		sub r12,r8
 4522 1572 D908      		sbc r13,r9
 4523 1574 DE82      		std Y+6,r13
 4524 1576 CD82      		std Y+5,r12
 4525 1578 DC82      		std Y+4,r13
 4526 157a CB82      		std Y+3,r12
 4527 157c DA82      		std Y+2,r13
 4528 157e C982      		std Y+1,r12
 4529 1580 00E0      		ldi r16,lo8(0)
 4530 1582 10E0      		ldi r17,hi8(0)
 4531               	.LVL126:
 4532               	.LM711:
 4533 1584 2227      		clr r18
 4534 1586 3327      		clr r19
 4535 1588 2A19      		sub r18,r10
 4536 158a 3B09      		sbc r19,r11
 4537 158c 3E8B      		std Y+22,r19
 4538 158e 2D8B      		std Y+21,r18
 4539 1590 00C0      		rjmp .L401
 4540               	.LVL127:
 4541               	.L410:
 4542               	.LM712:
 4543 1592 C801      		movw r24,r16
 4544 1594 6F89      		ldd r22,Y+23
 4545 1596 788D      		ldd r23,Y+24
 4546 1598 0E94 0000 		call is_coordinate_null
 4547 159c 892B      		or r24,r25
 4548 159e 01F0      		breq .+2
 4549 15a0 00C0      		rjmp .L402
 4550               	.LM713:
 4551 15a2 F701      		movw r30,r14
 4552 15a4 8081      		ld r24,Z
 4553 15a6 8435      		cpi r24,lo8(84)
 4554 15a8 01F0      		breq .+2
 4555 15aa 00C0      		rjmp .L403
 4556               	.LM714:
 4557 15ac 6F89      		ldd r22,Y+23
 4558 15ae 788D      		ldd r23,Y+24
 4559 15b0 6F5F      		subi r22,lo8(-(1))
 4560 15b2 7F4F      		sbci r23,hi8(-(1))
 4561 15b4 C801      		movw r24,r16
 4562 15b6 0E94 0000 		call is_coordinate_null
 4563 15ba 892B      		or r24,r25
 4564 15bc 01F4      		brne .+2
 4565 15be 00C0      		rjmp .L403
 4566               	.LM715:
 4567 15c0 6091 0000 		lds r22,mx
 4568 15c4 7091 0000 		lds r23,(mx)+1
 4569 15c8 6115      		cp r22,__zero_reg__
 4570 15ca 7105      		cpc r23,__zero_reg__
 4571 15cc 01F4      		brne .L404
 4572 15ce 8091 0000 		lds r24,my
 4573 15d2 9091 0000 		lds r25,(my)+1
 4574 15d6 892B      		or r24,r25
 4575 15d8 01F0      		breq .L414
 4576               	.L404:
 4577               	.LM716:
 4578 15da 6819      		sub r22,r8
 4579 15dc 7909      		sbc r23,r9
 4580 15de 8091 0000 		lds r24,my
 4581 15e2 9091 0000 		lds r25,(my)+1
 4582 15e6 8A19      		sub r24,r10
 4583 15e8 9B09      		sbc r25,r11
 4584               	.LM717:
 4585 15ea ED85      		ldd r30,Y+13
 4586 15ec FE85      		ldd r31,Y+14
 4587 15ee EE9F      		mul r30,r30
 4588 15f0 A001      		movw r20,r0
 4589 15f2 EF9F      		mul r30,r31
 4590 15f4 500D      		add r21,r0
 4591 15f6 FE9F      		mul r31,r30
 4592 15f8 500D      		add r21,r0
 4593 15fa 1124      		clr r1
 4594 15fc 2F85      		ldd r18,Y+15
 4595 15fe 3889      		ldd r19,Y+16
 4596 1600 420F      		add r20,r18
 4597 1602 531F      		adc r21,r19
 4598 1604 FC01      		movw r30,r24
 4599 1606 EE9F      		mul r30,r30
 4600 1608 C001      		movw r24,r0
 4601 160a EF9F      		mul r30,r31
 4602 160c 900D      		add r25,r0
 4603 160e FE9F      		mul r31,r30
 4604 1610 900D      		add r25,r0
 4605 1612 1124      		clr r1
 4606 1614 669F      		mul r22,r22
 4607 1616 9001      		movw r18,r0
 4608 1618 679F      		mul r22,r23
 4609 161a 300D      		add r19,r0
 4610 161c 769F      		mul r23,r22
 4611 161e 300D      		add r19,r0
 4612 1620 1124      		clr r1
 4613 1622 820F      		add r24,r18
 4614 1624 931F      		adc r25,r19
 4615 1626 4817      		cp r20,r24
 4616 1628 5907      		cpc r21,r25
 4617 162a 04F4      		brge .L403
 4618               	.L414:
 4619               	.LM718:
 4620 162c 1093 0000 		sts (mx)+1,r17
 4621 1630 0093 0000 		sts mx,r16
 4622               	.LM719:
 4623 1634 2F89      		ldd r18,Y+23
 4624 1636 388D      		ldd r19,Y+24
 4625 1638 3093 0000 		sts (my)+1,r19
 4626 163c 2093 0000 		sts my,r18
 4627               	.L403:
 4628               	.LM720:
 4629 1640 F701      		movw r30,r14
 4630 1642 8181      		ldd r24,Z+1
 4631 1644 8435      		cpi r24,lo8(84)
 4632 1646 01F0      		breq .+2
 4633 1648 00C0      		rjmp .L405
 4634               	.LM721:
 4635 164a 8B89      		ldd r24,Y+19
 4636 164c 9C89      		ldd r25,Y+20
 4637 164e 6F89      		ldd r22,Y+23
 4638 1650 788D      		ldd r23,Y+24
 4639 1652 0E94 0000 		call is_coordinate_null
 4640 1656 892B      		or r24,r25
 4641 1658 01F4      		brne .+2
 4642 165a 00C0      		rjmp .L405
 4643               	.LM722:
 4644 165c 6091 0000 		lds r22,mx
 4645 1660 7091 0000 		lds r23,(mx)+1
 4646 1664 6115      		cp r22,__zero_reg__
 4647 1666 7105      		cpc r23,__zero_reg__
 4648 1668 01F4      		brne .L406
 4649 166a 8091 0000 		lds r24,my
 4650 166e 9091 0000 		lds r25,(my)+1
 4651 1672 892B      		or r24,r25
 4652 1674 01F4      		brne .L406
 4653               	.LM723:
 4654 1676 1093 0000 		sts (mx)+1,r17
 4655 167a 0093 0000 		sts mx,r16
 4656               	.LM724:
 4657 167e 2F89      		ldd r18,Y+23
 4658 1680 388D      		ldd r19,Y+24
 4659 1682 3093 0000 		sts (my)+1,r19
 4660 1686 2093 0000 		sts my,r18
 4661 168a 00C0      		rjmp .L405
 4662               	.L406:
 4663               	.LM725:
 4664 168c 6819      		sub r22,r8
 4665 168e 7909      		sbc r23,r9
 4666 1690 8091 0000 		lds r24,my
 4667 1694 9091 0000 		lds r25,(my)+1
 4668 1698 8A19      		sub r24,r10
 4669 169a 9B09      		sbc r25,r11
 4670               	.LM726:
 4671 169c 669C      		mul r6,r6
 4672 169e A001      		movw r20,r0
 4673 16a0 679C      		mul r6,r7
 4674 16a2 500D      		add r21,r0
 4675 16a4 769C      		mul r7,r6
 4676 16a6 500D      		add r21,r0
 4677 16a8 1124      		clr r1
 4678 16aa EB85      		ldd r30,Y+11
 4679 16ac FC85      		ldd r31,Y+12
 4680 16ae 4E0F      		add r20,r30
 4681 16b0 5F1F      		adc r21,r31
 4682 16b2 9C01      		movw r18,r24
 4683 16b4 229F      		mul r18,r18
 4684 16b6 C001      		movw r24,r0
 4685 16b8 239F      		mul r18,r19
 4686 16ba 900D      		add r25,r0
 4687 16bc 329F      		mul r19,r18
 4688 16be 900D      		add r25,r0
 4689 16c0 1124      		clr r1
 4690 16c2 669F      		mul r22,r22
 4691 16c4 9001      		movw r18,r0
 4692 16c6 679F      		mul r22,r23
 4693 16c8 300D      		add r19,r0
 4694 16ca 769F      		mul r23,r22
 4695 16cc 300D      		add r19,r0
 4696 16ce 1124      		clr r1
 4697 16d0 820F      		add r24,r18
 4698 16d2 931F      		adc r25,r19
 4699 16d4 4817      		cp r20,r24
 4700 16d6 5907      		cpc r21,r25
 4701 16d8 04F4      		brge .L405
 4702               	.LM727:
 4703 16da 1093 0000 		sts (mx)+1,r17
 4704 16de 0093 0000 		sts mx,r16
 4705               	.LM728:
 4706 16e2 8F89      		ldd r24,Y+23
 4707 16e4 988D      		ldd r25,Y+24
 4708 16e6 9093 0000 		sts (my)+1,r25
 4709 16ea 8093 0000 		sts my,r24
 4710               	.L405:
 4711               	.LM729:
 4712 16ee F701      		movw r30,r14
 4713 16f0 8281      		ldd r24,Z+2
 4714 16f2 8435      		cpi r24,lo8(84)
 4715 16f4 01F0      		breq .+2
 4716 16f6 00C0      		rjmp .L407
 4717               	.LM730:
 4718 16f8 6F89      		ldd r22,Y+23
 4719 16fa 788D      		ldd r23,Y+24
 4720 16fc 6150      		subi r22,lo8(-(-1))
 4721 16fe 7040      		sbci r23,hi8(-(-1))
 4722 1700 C801      		movw r24,r16
 4723 1702 0E94 0000 		call is_coordinate_null
 4724 1706 892B      		or r24,r25
 4725 1708 01F4      		brne .+2
 4726 170a 00C0      		rjmp .L407
 4727               	.LM731:
 4728 170c 6091 0000 		lds r22,mx
 4729 1710 7091 0000 		lds r23,(mx)+1
 4730 1714 6115      		cp r22,__zero_reg__
 4731 1716 7105      		cpc r23,__zero_reg__
 4732 1718 01F4      		brne .L408
 4733 171a 8091 0000 		lds r24,my
 4734 171e 9091 0000 		lds r25,(my)+1
 4735 1722 892B      		or r24,r25
 4736 1724 01F4      		brne .L408
 4737               	.LM732:
 4738 1726 1093 0000 		sts (mx)+1,r17
 4739 172a 0093 0000 		sts mx,r16
 4740               	.LM733:
 4741 172e 2F89      		ldd r18,Y+23
 4742 1730 388D      		ldd r19,Y+24
 4743 1732 3093 0000 		sts (my)+1,r19
 4744 1736 2093 0000 		sts my,r18
 4745 173a 00C0      		rjmp .L407
 4746               	.L408:
 4747               	.LM734:
 4748 173c 6819      		sub r22,r8
 4749 173e 7909      		sbc r23,r9
 4750 1740 8091 0000 		lds r24,my
 4751 1744 9091 0000 		lds r25,(my)+1
 4752 1748 8A19      		sub r24,r10
 4753 174a 9B09      		sbc r25,r11
 4754               	.LM735:
 4755 174c 449C      		mul r4,r4
 4756 174e A001      		movw r20,r0
 4757 1750 459C      		mul r4,r5
 4758 1752 500D      		add r21,r0
 4759 1754 549C      		mul r5,r4
 4760 1756 500D      		add r21,r0
 4761 1758 1124      		clr r1
 4762 175a E985      		ldd r30,Y+9
 4763 175c FA85      		ldd r31,Y+10
 4764 175e 4E0F      		add r20,r30
 4765 1760 5F1F      		adc r21,r31
 4766 1762 9C01      		movw r18,r24
 4767 1764 229F      		mul r18,r18
 4768 1766 C001      		movw r24,r0
 4769 1768 239F      		mul r18,r19
 4770 176a 900D      		add r25,r0
 4771 176c 329F      		mul r19,r18
 4772 176e 900D      		add r25,r0
 4773 1770 1124      		clr r1
 4774 1772 669F      		mul r22,r22
 4775 1774 9001      		movw r18,r0
 4776 1776 679F      		mul r22,r23
 4777 1778 300D      		add r19,r0
 4778 177a 769F      		mul r23,r22
 4779 177c 300D      		add r19,r0
 4780 177e 1124      		clr r1
 4781 1780 820F      		add r24,r18
 4782 1782 931F      		adc r25,r19
 4783 1784 4817      		cp r20,r24
 4784 1786 5907      		cpc r21,r25
 4785 1788 04F4      		brge .L407
 4786               	.LM736:
 4787 178a 1093 0000 		sts (mx)+1,r17
 4788 178e 0093 0000 		sts mx,r16
 4789               	.LM737:
 4790 1792 8F89      		ldd r24,Y+23
 4791 1794 988D      		ldd r25,Y+24
 4792 1796 9093 0000 		sts (my)+1,r25
 4793 179a 8093 0000 		sts my,r24
 4794               	.L407:
 4795               	.LM738:
 4796 179e F701      		movw r30,r14
 4797 17a0 8381      		ldd r24,Z+3
 4798 17a2 8435      		cpi r24,lo8(84)
 4799 17a4 01F0      		breq .+2
 4800 17a6 00C0      		rjmp .L402
 4801               	.LM739:
 4802 17a8 8989      		ldd r24,Y+17
 4803 17aa 9A89      		ldd r25,Y+18
 4804 17ac 6F89      		ldd r22,Y+23
 4805 17ae 788D      		ldd r23,Y+24
 4806 17b0 0E94 0000 		call is_coordinate_null
 4807 17b4 892B      		or r24,r25
 4808 17b6 01F4      		brne .+2
 4809 17b8 00C0      		rjmp .L402
 4810               	.LM740:
 4811 17ba 6091 0000 		lds r22,mx
 4812 17be 7091 0000 		lds r23,(mx)+1
 4813 17c2 6115      		cp r22,__zero_reg__
 4814 17c4 7105      		cpc r23,__zero_reg__
 4815 17c6 01F4      		brne .L409
 4816 17c8 8091 0000 		lds r24,my
 4817 17cc 9091 0000 		lds r25,(my)+1
 4818 17d0 892B      		or r24,r25
 4819 17d2 01F4      		brne .L409
 4820               	.LM741:
 4821 17d4 1093 0000 		sts (mx)+1,r17
 4822 17d8 0093 0000 		sts mx,r16
 4823               	.LM742:
 4824 17dc 2F89      		ldd r18,Y+23
 4825 17de 388D      		ldd r19,Y+24
 4826 17e0 3093 0000 		sts (my)+1,r19
 4827 17e4 2093 0000 		sts my,r18
 4828 17e8 00C0      		rjmp .L402
 4829               	.L409:
 4830               	.LM743:
 4831 17ea 6819      		sub r22,r8
 4832 17ec 7909      		sbc r23,r9
 4833 17ee 8091 0000 		lds r24,my
 4834 17f2 9091 0000 		lds r25,(my)+1
 4835 17f6 8A19      		sub r24,r10
 4836 17f8 9B09      		sbc r25,r11
 4837               	.LM744:
 4838 17fa 229C      		mul r2,r2
 4839 17fc A001      		movw r20,r0
 4840 17fe 239C      		mul r2,r3
 4841 1800 500D      		add r21,r0
 4842 1802 329C      		mul r3,r2
 4843 1804 500D      		add r21,r0
 4844 1806 1124      		clr r1
 4845 1808 EF81      		ldd r30,Y+7
 4846 180a F885      		ldd r31,Y+8
 4847 180c 4E0F      		add r20,r30
 4848 180e 5F1F      		adc r21,r31
 4849 1810 9C01      		movw r18,r24
 4850 1812 229F      		mul r18,r18
 4851 1814 C001      		movw r24,r0
 4852 1816 239F      		mul r18,r19
 4853 1818 900D      		add r25,r0
 4854 181a 329F      		mul r19,r18
 4855 181c 900D      		add r25,r0
 4856 181e 1124      		clr r1
 4857 1820 669F      		mul r22,r22
 4858 1822 9001      		movw r18,r0
 4859 1824 679F      		mul r22,r23
 4860 1826 300D      		add r19,r0
 4861 1828 769F      		mul r23,r22
 4862 182a 300D      		add r19,r0
 4863 182c 1124      		clr r1
 4864 182e 820F      		add r24,r18
 4865 1830 931F      		adc r25,r19
 4866 1832 4817      		cp r20,r24
 4867 1834 5907      		cpc r21,r25
 4868 1836 04F4      		brge .L402
 4869               	.LM745:
 4870 1838 1093 0000 		sts (mx)+1,r17
 4871 183c 0093 0000 		sts mx,r16
 4872               	.LM746:
 4873 1840 8F89      		ldd r24,Y+23
 4874 1842 988D      		ldd r25,Y+24
 4875 1844 9093 0000 		sts (my)+1,r25
 4876 1848 8093 0000 		sts my,r24
 4877               	.L402:
 4878               	.LM747:
 4879 184c EF89      		ldd r30,Y+23
 4880 184e F88D      		ldd r31,Y+24
 4881 1850 3196      		adiw r30,1
 4882 1852 F88F      		std Y+24,r31
 4883 1854 EF8B      		std Y+23,r30
 4884               	.LVL128:
 4885 1856 24E0      		ldi r18,lo8(4)
 4886 1858 30E0      		ldi r19,hi8(4)
 4887 185a E20E      		add r14,r18
 4888 185c F31E      		adc r15,r19
 4889 185e 0894      		sec
 4890 1860 211C      		adc r2,__zero_reg__
 4891 1862 311C      		adc r3,__zero_reg__
 4892 1864 0894      		sec
 4893 1866 411C      		adc r4,__zero_reg__
 4894 1868 511C      		adc r5,__zero_reg__
 4895 186a 0894      		sec
 4896 186c 611C      		adc r6,__zero_reg__
 4897 186e 711C      		adc r7,__zero_reg__
 4898 1870 8D85      		ldd r24,Y+13
 4899 1872 9E85      		ldd r25,Y+14
 4900 1874 0196      		adiw r24,1
 4901 1876 9E87      		std Y+14,r25
 4902 1878 8D87      		std Y+13,r24
 4903 187a 7097      		sbiw r30,16
 4904 187c 01F0      		breq .+2
 4905 187e 00C0      		rjmp .L410
 4906               	.LBE685:
 4907               	.LM748:
 4908 1880 0F5F      		subi r16,lo8(-(1))
 4909 1882 1F4F      		sbci r17,hi8(-(1))
 4910 1884 0894      		sec
 4911 1886 C11C      		adc r12,__zero_reg__
 4912 1888 D11C      		adc r13,__zero_reg__
 4913 188a ED81      		ldd r30,Y+5
 4914 188c FE81      		ldd r31,Y+6
 4915 188e 3196      		adiw r30,1
 4916 1890 FE83      		std Y+6,r31
 4917 1892 ED83      		std Y+5,r30
 4918 1894 2B81      		ldd r18,Y+3
 4919 1896 3C81      		ldd r19,Y+4
 4920 1898 2F5F      		subi r18,lo8(-(1))
 4921 189a 3F4F      		sbci r19,hi8(-(1))
 4922 189c 3C83      		std Y+4,r19
 4923 189e 2B83      		std Y+3,r18
 4924 18a0 8981      		ldd r24,Y+1
 4925 18a2 9A81      		ldd r25,Y+2
 4926 18a4 0196      		adiw r24,1
 4927 18a6 9A83      		std Y+2,r25
 4928 18a8 8983      		std Y+1,r24
 4929 18aa 0031      		cpi r16,16
 4930 18ac 1105      		cpc r17,__zero_reg__
 4931 18ae 01F4      		brne .+2
 4932 18b0 00C0      		rjmp .L412
 4933               	.L401:
 4934               	.LBB686:
 4935               	.LM749:
 4936 18b2 CC9C      		mul r12,r12
 4937 18b4 F001      		movw r30,r0
 4938 18b6 CD9C      		mul r12,r13
 4939 18b8 F00D      		add r31,r0
 4940 18ba DC9C      		mul r13,r12
 4941 18bc F00D      		add r31,r0
 4942 18be 1124      		clr r1
 4943 18c0 F88B      		std Y+16,r31
 4944 18c2 EF87      		std Y+15,r30
 4945               	.LM750:
 4946 18c4 8D81      		ldd r24,Y+5
 4947 18c6 9E81      		ldd r25,Y+6
 4948 18c8 889F      		mul r24,r24
 4949 18ca 9001      		movw r18,r0
 4950 18cc 899F      		mul r24,r25
 4951 18ce 300D      		add r19,r0
 4952 18d0 989F      		mul r25,r24
 4953 18d2 300D      		add r19,r0
 4954 18d4 1124      		clr r1
 4955 18d6 3C87      		std Y+12,r19
 4956 18d8 2B87      		std Y+11,r18
 4957               	.LM751:
 4958 18da 2B81      		ldd r18,Y+3
 4959 18dc 3C81      		ldd r19,Y+4
 4960 18de 229F      		mul r18,r18
 4961 18e0 F001      		movw r30,r0
 4962 18e2 239F      		mul r18,r19
 4963 18e4 F00D      		add r31,r0
 4964 18e6 329F      		mul r19,r18
 4965 18e8 F00D      		add r31,r0
 4966 18ea 1124      		clr r1
 4967 18ec FA87      		std Y+10,r31
 4968 18ee E987      		std Y+9,r30
 4969               	.LM752:
 4970 18f0 E981      		ldd r30,Y+1
 4971 18f2 FA81      		ldd r31,Y+2
 4972 18f4 EE9F      		mul r30,r30
 4973 18f6 C001      		movw r24,r0
 4974 18f8 EF9F      		mul r30,r31
 4975 18fa 900D      		add r25,r0
 4976 18fc FE9F      		mul r31,r30
 4977 18fe 900D      		add r25,r0
 4978 1900 1124      		clr r1
 4979 1902 9887      		std Y+8,r25
 4980 1904 8F83      		std Y+7,r24
 4981 1906 7801      		movw r14,r16
 4982 1908 96E0      		ldi r25,6
 4983 190a EE0C      	1:	lsl r14
 4984 190c FF1C      		rol r15
 4985 190e 9A95      		dec r25
 4986 1910 01F4      		brne 1b
 4987 1912 20E0      		ldi r18,lo8(dir_array)
 4988 1914 30E0      		ldi r19,hi8(dir_array)
 4989 1916 E20E      		add r14,r18
 4990 1918 F31E      		adc r15,r19
 4991 191a 8D89      		ldd r24,Y+21
 4992 191c 9E89      		ldd r25,Y+22
 4993 191e 9E87      		std Y+14,r25
 4994 1920 8D87      		std Y+13,r24
 4995 1922 1C01      		movw r2,r24
 4996 1924 2C01      		movw r4,r24
 4997 1926 3C01      		movw r6,r24
 4998 1928 188E      		std Y+24,__zero_reg__
 4999 192a 1F8A      		std Y+23,__zero_reg__
 5000               	.LVL129:
 5001               	.LM753:
 5002 192c F801      		movw r30,r16
 5003 192e 3197      		sbiw r30,1
 5004 1930 FA8B      		std Y+18,r31
 5005 1932 E98B      		std Y+17,r30
 5006               	.LM754:
 5007 1934 9801      		movw r18,r16
 5008 1936 2F5F      		subi r18,lo8(-(1))
 5009 1938 3F4F      		sbci r19,hi8(-(1))
 5010 193a 3C8B      		std Y+20,r19
 5011 193c 2B8B      		std Y+19,r18
 5012 193e 00C0      		rjmp .L410
 5013               	.L412:
 5014               	/* epilogue start */
 5015               	.LBE686:
 5016               	.LBE684:
 5017               	.LM755:
 5018 1940 6896      		adiw r28,24
 5019 1942 0FB6      		in __tmp_reg__,__SREG__
 5020 1944 F894      		cli
 5021 1946 DEBF      		out __SP_H__,r29
 5022 1948 0FBE      		out __SREG__,__tmp_reg__
 5023 194a CDBF      		out __SP_L__,r28
 5024 194c CF91      		pop r28
 5025 194e DF91      		pop r29
 5026 1950 1F91      		pop r17
 5027 1952 0F91      		pop r16
 5028               	.LVL130:
 5029 1954 FF90      		pop r15
 5030 1956 EF90      		pop r14
 5031 1958 DF90      		pop r13
 5032 195a CF90      		pop r12
 5033 195c BF90      		pop r11
 5034 195e AF90      		pop r10
 5035 1960 9F90      		pop r9
 5036 1962 8F90      		pop r8
 5037 1964 7F90      		pop r7
 5038 1966 6F90      		pop r6
 5039 1968 5F90      		pop r5
 5040 196a 4F90      		pop r4
 5041 196c 3F90      		pop r3
 5042 196e 2F90      		pop r2
 5043 1970 0895      		ret
 5044               	.LFE70:
 5046               		.data
 5047               	.LC1:
 5048 000a 4272 6F6B 		.string	"Broke path "
 5048      6520 7061 
 5048      7468 2000 
 5049               		.text
 5050               	.global	get_path
 5052               	get_path:
 5053               	.LFB71:
 5054               	.LM756:
 5055 1972 6F92      		push r6
 5056 1974 7F92      		push r7
 5057 1976 8F92      		push r8
 5058 1978 9F92      		push r9
 5059 197a AF92      		push r10
 5060 197c BF92      		push r11
 5061 197e CF92      		push r12
 5062 1980 DF92      		push r13
 5063 1982 EF92      		push r14
 5064 1984 FF92      		push r15
 5065 1986 0F93      		push r16
 5066 1988 1F93      		push r17
 5067 198a CF93      		push r28
 5068 198c DF93      		push r29
 5069               	/* prologue: function */
 5070               	/* frame size = 0 */
 5071               	.LM757:
 5072 198e 6091 0000 		lds r22,y_coordinate
 5073 1992 7091 0000 		lds r23,(y_coordinate)+1
 5074               	.LVL131:
 5075               	.LM758:
 5076 1996 0091 0000 		lds r16,x_coordinate
 5077 199a 1091 0000 		lds r17,(x_coordinate)+1
 5078               	.LVL132:
 5079 199e F0E0      		ldi r31,lo8(path_array)
 5080 19a0 CF2E      		mov r12,r31
 5081 19a2 F0E0      		ldi r31,hi8(path_array)
 5082 19a4 DF2E      		mov r13,r31
 5083 19a6 F601      		movw r30,r12
 5084               	.L416:
 5085               	.LBB687:
 5086               	.LM759:
 5087 19a8 1182      		std Z+1,__zero_reg__
 5088 19aa 1082      		st Z,__zero_reg__
 5089               	.LM760:
 5090 19ac 1382      		std Z+3,__zero_reg__
 5091 19ae 1282      		std Z+2,__zero_reg__
 5092 19b0 3496      		adiw r30,4
 5093               	.LM761:
 5094 19b2 80E0      		ldi r24,hi8(path_array+60)
 5095 19b4 E030      		cpi r30,lo8(path_array+60)
 5096 19b6 F807      		cpc r31,r24
 5097 19b8 01F4      		brne .L416
 5098               	.LBE687:
 5099               	.LM762:
 5100 19ba 1092 0000 		sts (ipl)+1,__zero_reg__
 5101 19be 1092 0000 		sts ipl,__zero_reg__
 5102 19c2 6624      		clr r6
 5103 19c4 7724      		clr r7
 5104 19c6 00C0      		rjmp .L417
 5105               	.LVL133:
 5106               	.L431:
 5107               	.LM763:
 5108 19c8 A801      		movw r20,r16
 5109 19ca 4F5F      		subi r20,lo8(-(1))
 5110 19cc 5F4F      		sbci r21,hi8(-(1))
 5111               	.LVL134:
 5112 19ce 9A01      		movw r18,r20
 5113 19d0 E4E0      		ldi r30,4
 5114 19d2 220F      	1:	lsl r18
 5115 19d4 331F      		rol r19
 5116 19d6 EA95      		dec r30
 5117 19d8 01F4      		brne 1b
 5118 19da 260F      		add r18,r22
 5119 19dc 371F      		adc r19,r23
 5120 19de 7901      		movw r14,r18
 5121 19e0 EE0C      		lsl r14
 5122 19e2 FF1C      		rol r15
 5123 19e4 F701      		movw r30,r14
 5124 19e6 E050      		subi r30,lo8(-(map_array))
 5125 19e8 F040      		sbci r31,hi8(-(map_array))
 5126 19ea 8080      		ld r8,Z
 5127 19ec 9180      		ldd r9,Z+1
 5128 19ee 8A14      		cp r8,r10
 5129 19f0 9B04      		cpc r9,r11
 5130 19f2 04F0      		brlt .+2
 5131 19f4 00C0      		rjmp .L418
 5132 19f6 AA0F      		lsl r26
 5133 19f8 BB1F      		rol r27
 5134 19fa AA0F      		lsl r26
 5135 19fc BB1F      		rol r27
 5136 19fe A050      		subi r26,lo8(-(dir_array))
 5137 1a00 B040      		sbci r27,hi8(-(dir_array))
 5138 1a02 1196      		adiw r26,1
 5139 1a04 8C91      		ld r24,X
 5140 1a06 8435      		cpi r24,lo8(84)
 5141 1a08 01F0      		breq .+2
 5142 1a0a 00C0      		rjmp .L418
 5143 1a0c E901      		movw r28,r18
 5144 1a0e CC0F      		lsl r28
 5145 1a10 DD1F      		rol r29
 5146 1a12 CC0F      		lsl r28
 5147 1a14 DD1F      		rol r29
 5148 1a16 C050      		subi r28,lo8(-(dir_array))
 5149 1a18 D040      		sbci r29,hi8(-(dir_array))
 5150 1a1a 8B81      		ldd r24,Y+3
 5151 1a1c 8435      		cpi r24,lo8(84)
 5152 1a1e 01F0      		breq .+2
 5153 1a20 00C0      		rjmp .L418
 5154 1a22 0F30      		cpi r16,15
 5155 1a24 1105      		cpc r17,__zero_reg__
 5156 1a26 04F0      		brlt .+2
 5157 1a28 00C0      		rjmp .L418
 5158               	.LVL135:
 5159               	.LM764:
 5160 1a2a F601      		movw r30,r12
 5161 1a2c 5183      		std Z+1,r21
 5162 1a2e 4083      		st Z,r20
 5163               	.LM765:
 5164 1a30 7383      		std Z+3,r23
 5165 1a32 6283      		std Z+2,r22
 5166               	.LM766:
 5167 1a34 9A01      		movw r18,r20
 5168 1a36 2F5F      		subi r18,lo8(-(1))
 5169 1a38 3F4F      		sbci r19,hi8(-(1))
 5170               	.LVL136:
 5171 1a3a D901      		movw r26,r18
 5172 1a3c E4E0      		ldi r30,4
 5173 1a3e AA0F      	1:	lsl r26
 5174 1a40 BB1F      		rol r27
 5175 1a42 EA95      		dec r30
 5176 1a44 01F4      		brne 1b
 5177 1a46 A60F      		add r26,r22
 5178 1a48 B71F      		adc r27,r23
 5179 1a4a FD01      		movw r30,r26
 5180 1a4c EE0F      		lsl r30
 5181 1a4e FF1F      		rol r31
 5182 1a50 E050      		subi r30,lo8(-(map_array))
 5183 1a52 F040      		sbci r31,hi8(-(map_array))
 5184 1a54 0081      		ld r16,Z
 5185 1a56 1181      		ldd r17,Z+1
 5186 1a58 0815      		cp r16,r8
 5187 1a5a 1905      		cpc r17,r9
 5188 1a5c 04F0      		brlt .+2
 5189 1a5e 00C0      		rjmp .L434
 5190 1a60 AA0F      		lsl r26
 5191 1a62 BB1F      		rol r27
 5192 1a64 AA0F      		lsl r26
 5193 1a66 BB1F      		rol r27
 5194 1a68 A050      		subi r26,lo8(-(dir_array))
 5195 1a6a B040      		sbci r27,hi8(-(dir_array))
 5196 1a6c 1396      		adiw r26,3
 5197 1a6e 8C91      		ld r24,X
 5198 1a70 8435      		cpi r24,lo8(84)
 5199 1a72 01F0      		breq .+2
 5200 1a74 00C0      		rjmp .L434
 5201 1a76 8881      		ld r24,Y
 5202 1a78 8634      		cpi r24,lo8(70)
 5203 1a7a 01F0      		breq .+2
 5204 1a7c 00C0      		rjmp .L434
 5205 1a7e 8981      		ldd r24,Y+1
 5206 1a80 8435      		cpi r24,lo8(84)
 5207 1a82 01F0      		breq .+2
 5208 1a84 00C0      		rjmp .L434
 5209 1a86 EE0C      		lsl r14
 5210 1a88 FF1C      		rol r15
 5211 1a8a 80E0      		ldi r24,lo8(dir_array+2)
 5212 1a8c 90E0      		ldi r25,hi8(dir_array+2)
 5213 1a8e E80E      		add r14,r24
 5214 1a90 F91E      		adc r15,r25
 5215 1a92 F701      		movw r30,r14
 5216 1a94 8081      		ld r24,Z
 5217 1a96 8634      		cpi r24,lo8(70)
 5218 1a98 01F0      		breq .+2
 5219 1a9a 00C0      		rjmp .L434
 5220 1a9c 4F30      		cpi r20,15
 5221 1a9e 5105      		cpc r21,__zero_reg__
 5222 1aa0 04F0      		brlt .+2
 5223 1aa2 00C0      		rjmp .L434
 5224               	.LVL137:
 5225               	.LM767:
 5226 1aa4 F601      		movw r30,r12
 5227 1aa6 3183      		std Z+1,r19
 5228 1aa8 2083      		st Z,r18
 5229               	.LM768:
 5230 1aaa A901      		movw r20,r18
 5231 1aac 4F5F      		subi r20,lo8(-(1))
 5232 1aae 5F4F      		sbci r21,hi8(-(1))
 5233 1ab0 DA01      		movw r26,r20
 5234 1ab2 E4E0      		ldi r30,4
 5235 1ab4 AA0F      	1:	lsl r26
 5236 1ab6 BB1F      		rol r27
 5237 1ab8 EA95      		dec r30
 5238 1aba 01F4      		brne 1b
 5239 1abc A60F      		add r26,r22
 5240 1abe B71F      		adc r27,r23
 5241 1ac0 FD01      		movw r30,r26
 5242 1ac2 EE0F      		lsl r30
 5243 1ac4 FF1F      		rol r31
 5244 1ac6 E050      		subi r30,lo8(-(map_array))
 5245 1ac8 F040      		sbci r31,hi8(-(map_array))
 5246 1aca 8081      		ld r24,Z
 5247 1acc 9181      		ldd r25,Z+1
 5248 1ace 8017      		cp r24,r16
 5249 1ad0 9107      		cpc r25,r17
 5250 1ad2 04F0      		brlt .+2
 5251 1ad4 00C0      		rjmp .L423
 5252 1ad6 AA0F      		lsl r26
 5253 1ad8 BB1F      		rol r27
 5254 1ada AA0F      		lsl r26
 5255 1adc BB1F      		rol r27
 5256 1ade A050      		subi r26,lo8(-(dir_array))
 5257 1ae0 B040      		sbci r27,hi8(-(dir_array))
 5258 1ae2 1396      		adiw r26,3
 5259 1ae4 8C91      		ld r24,X
 5260 1ae6 8435      		cpi r24,lo8(84)
 5261 1ae8 01F0      		breq .+2
 5262 1aea 00C0      		rjmp .L423
 5263 1aec F901      		movw r30,r18
 5264 1aee 04E0      		ldi r16,4
 5265 1af0 EE0F      	1:	lsl r30
 5266 1af2 FF1F      		rol r31
 5267 1af4 0A95      		dec r16
 5268 1af6 01F4      		brne 1b
 5269 1af8 E60F      		add r30,r22
 5270 1afa F71F      		adc r31,r23
 5271 1afc DF01      		movw r26,r30
 5272 1afe AA0F      		lsl r26
 5273 1b00 BB1F      		rol r27
 5274 1b02 AA0F      		lsl r26
 5275 1b04 BB1F      		rol r27
 5276 1b06 A050      		subi r26,lo8(-(dir_array))
 5277 1b08 B040      		sbci r27,hi8(-(dir_array))
 5278 1b0a 8C91      		ld r24,X
 5279 1b0c 8634      		cpi r24,lo8(70)
 5280 1b0e 01F0      		breq .+2
 5281 1b10 00C0      		rjmp .L423
 5282               	.LVL138:
 5283 1b12 1196      		adiw r26,1
 5284 1b14 8C91      		ld r24,X
 5285 1b16 8435      		cpi r24,lo8(84)
 5286 1b18 01F0      		breq .+2
 5287 1b1a 00C0      		rjmp .L423
 5288 1b1c EE0F      		lsl r30
 5289 1b1e FF1F      		rol r31
 5290 1b20 EE0F      		lsl r30
 5291 1b22 FF1F      		rol r31
 5292 1b24 E050      		subi r30,lo8(-(dir_array+2))
 5293 1b26 F040      		sbci r31,hi8(-(dir_array+2))
 5294 1b28 8081      		ld r24,Z
 5295 1b2a 8634      		cpi r24,lo8(70)
 5296 1b2c 01F0      		breq .+2
 5297 1b2e 00C0      		rjmp .L423
 5298 1b30 2F30      		cpi r18,15
 5299 1b32 3105      		cpc r19,__zero_reg__
 5300 1b34 04F0      		brlt .+2
 5301 1b36 00C0      		rjmp .L423
 5302 1b38 00C0      		rjmp .L436
 5303               	.LVL139:
 5304               	.L418:
 5305               	.LM769:
 5306 1b3a A801      		movw r20,r16
 5307 1b3c 4150      		subi r20,lo8(-(-1))
 5308 1b3e 5040      		sbci r21,hi8(-(-1))
 5309 1b40 9A01      		movw r18,r20
 5310 1b42 84E0      		ldi r24,4
 5311 1b44 220F      	1:	lsl r18
 5312 1b46 331F      		rol r19
 5313 1b48 8A95      		dec r24
 5314 1b4a 01F4      		brne 1b
 5315 1b4c 260F      		add r18,r22
 5316 1b4e 371F      		adc r19,r23
 5317 1b50 7901      		movw r14,r18
 5318 1b52 EE0C      		lsl r14
 5319 1b54 FF1C      		rol r15
 5320 1b56 F701      		movw r30,r14
 5321 1b58 E050      		subi r30,lo8(-(map_array))
 5322 1b5a F040      		sbci r31,hi8(-(map_array))
 5323 1b5c 8080      		ld r8,Z
 5324 1b5e 9180      		ldd r9,Z+1
 5325 1b60 8A14      		cp r8,r10
 5326 1b62 9B04      		cpc r9,r11
 5327 1b64 04F0      		brlt .+2
 5328 1b66 00C0      		rjmp .L422
 5329 1b68 F801      		movw r30,r16
 5330 1b6a A4E0      		ldi r26,4
 5331 1b6c EE0F      	1:	lsl r30
 5332 1b6e FF1F      		rol r31
 5333 1b70 AA95      		dec r26
 5334 1b72 01F4      		brne 1b
 5335 1b74 E60F      		add r30,r22
 5336 1b76 F71F      		adc r31,r23
 5337 1b78 EE0F      		lsl r30
 5338 1b7a FF1F      		rol r31
 5339 1b7c EE0F      		lsl r30
 5340 1b7e FF1F      		rol r31
 5341 1b80 E050      		subi r30,lo8(-(dir_array))
 5342 1b82 F040      		sbci r31,hi8(-(dir_array))
 5343 1b84 8381      		ldd r24,Z+3
 5344 1b86 8435      		cpi r24,lo8(84)
 5345 1b88 01F0      		breq .+2
 5346 1b8a 00C0      		rjmp .L422
 5347               	.LVL140:
 5348 1b8c E901      		movw r28,r18
 5349 1b8e CC0F      		lsl r28
 5350 1b90 DD1F      		rol r29
 5351 1b92 CC0F      		lsl r28
 5352 1b94 DD1F      		rol r29
 5353 1b96 C050      		subi r28,lo8(-(dir_array))
 5354 1b98 D040      		sbci r29,hi8(-(dir_array))
 5355 1b9a 8981      		ldd r24,Y+1
 5356 1b9c 8435      		cpi r24,lo8(84)
 5357 1b9e 01F0      		breq .+2
 5358 1ba0 00C0      		rjmp .L422
 5359 1ba2 1016      		cp __zero_reg__,r16
 5360 1ba4 1106      		cpc __zero_reg__,r17
 5361 1ba6 04F0      		brlt .+2
 5362 1ba8 00C0      		rjmp .L422
 5363               	.LM770:
 5364 1baa F601      		movw r30,r12
 5365 1bac 5183      		std Z+1,r21
 5366 1bae 4083      		st Z,r20
 5367               	.LM771:
 5368 1bb0 7383      		std Z+3,r23
 5369 1bb2 6283      		std Z+2,r22
 5370               	.LM772:
 5371 1bb4 9A01      		movw r18,r20
 5372 1bb6 2150      		subi r18,lo8(-(-1))
 5373 1bb8 3040      		sbci r19,hi8(-(-1))
 5374               	.LVL141:
 5375 1bba D901      		movw r26,r18
 5376 1bbc 04E0      		ldi r16,4
 5377 1bbe AA0F      	1:	lsl r26
 5378 1bc0 BB1F      		rol r27
 5379 1bc2 0A95      		dec r16
 5380 1bc4 01F4      		brne 1b
 5381 1bc6 A60F      		add r26,r22
 5382 1bc8 B71F      		adc r27,r23
 5383 1bca FD01      		movw r30,r26
 5384 1bcc EE0F      		lsl r30
 5385 1bce FF1F      		rol r31
 5386 1bd0 E050      		subi r30,lo8(-(map_array))
 5387 1bd2 F040      		sbci r31,hi8(-(map_array))
 5388 1bd4 0081      		ld r16,Z
 5389 1bd6 1181      		ldd r17,Z+1
 5390 1bd8 0815      		cp r16,r8
 5391 1bda 1905      		cpc r17,r9
 5392 1bdc 04F0      		brlt .+2
 5393 1bde 00C0      		rjmp .L434
 5394 1be0 AA0F      		lsl r26
 5395 1be2 BB1F      		rol r27
 5396 1be4 AA0F      		lsl r26
 5397 1be6 BB1F      		rol r27
 5398 1be8 A050      		subi r26,lo8(-(dir_array))
 5399 1bea B040      		sbci r27,hi8(-(dir_array))
 5400 1bec 1196      		adiw r26,1
 5401 1bee 8C91      		ld r24,X
 5402 1bf0 8435      		cpi r24,lo8(84)
 5403 1bf2 01F0      		breq .+2
 5404 1bf4 00C0      		rjmp .L434
 5405 1bf6 8881      		ld r24,Y
 5406 1bf8 8634      		cpi r24,lo8(70)
 5407 1bfa 01F0      		breq .+2
 5408 1bfc 00C0      		rjmp .L434
 5409 1bfe EE0C      		lsl r14
 5410 1c00 FF1C      		rol r15
 5411 1c02 80E0      		ldi r24,lo8(dir_array+2)
 5412 1c04 90E0      		ldi r25,hi8(dir_array+2)
 5413 1c06 E80E      		add r14,r24
 5414 1c08 F91E      		adc r15,r25
 5415 1c0a F701      		movw r30,r14
 5416 1c0c 8081      		ld r24,Z
 5417 1c0e 8634      		cpi r24,lo8(70)
 5418 1c10 01F0      		breq .+2
 5419 1c12 00C0      		rjmp .L434
 5420 1c14 8B81      		ldd r24,Y+3
 5421 1c16 8435      		cpi r24,lo8(84)
 5422 1c18 01F0      		breq .+2
 5423 1c1a 00C0      		rjmp .L434
 5424 1c1c 1416      		cp __zero_reg__,r20
 5425 1c1e 1506      		cpc __zero_reg__,r21
 5426 1c20 04F0      		brlt .+2
 5427 1c22 00C0      		rjmp .L434
 5428               	.LVL142:
 5429               	.LM773:
 5430 1c24 F601      		movw r30,r12
 5431 1c26 3183      		std Z+1,r19
 5432 1c28 2083      		st Z,r18
 5433               	.LM774:
 5434 1c2a A901      		movw r20,r18
 5435 1c2c 4150      		subi r20,lo8(-(-1))
 5436 1c2e 5040      		sbci r21,hi8(-(-1))
 5437 1c30 DA01      		movw r26,r20
 5438 1c32 94E0      		ldi r25,4
 5439 1c34 AA0F      	1:	lsl r26
 5440 1c36 BB1F      		rol r27
 5441 1c38 9A95      		dec r25
 5442 1c3a 01F4      		brne 1b
 5443 1c3c A60F      		add r26,r22
 5444 1c3e B71F      		adc r27,r23
 5445 1c40 FD01      		movw r30,r26
 5446 1c42 EE0F      		lsl r30
 5447 1c44 FF1F      		rol r31
 5448 1c46 E050      		subi r30,lo8(-(map_array))
 5449 1c48 F040      		sbci r31,hi8(-(map_array))
 5450 1c4a 8081      		ld r24,Z
 5451 1c4c 9181      		ldd r25,Z+1
 5452 1c4e 8017      		cp r24,r16
 5453 1c50 9107      		cpc r25,r17
 5454 1c52 04F0      		brlt .+2
 5455 1c54 00C0      		rjmp .L423
 5456 1c56 AA0F      		lsl r26
 5457 1c58 BB1F      		rol r27
 5458 1c5a AA0F      		lsl r26
 5459 1c5c BB1F      		rol r27
 5460 1c5e A050      		subi r26,lo8(-(dir_array))
 5461 1c60 B040      		sbci r27,hi8(-(dir_array))
 5462 1c62 1196      		adiw r26,1
 5463 1c64 8C91      		ld r24,X
 5464 1c66 8435      		cpi r24,lo8(84)
 5465 1c68 01F0      		breq .+2
 5466 1c6a 00C0      		rjmp .L423
 5467 1c6c F901      		movw r30,r18
 5468 1c6e 84E0      		ldi r24,4
 5469 1c70 EE0F      	1:	lsl r30
 5470 1c72 FF1F      		rol r31
 5471 1c74 8A95      		dec r24
 5472 1c76 01F4      		brne 1b
 5473 1c78 E60F      		add r30,r22
 5474 1c7a F71F      		adc r31,r23
 5475 1c7c DF01      		movw r26,r30
 5476 1c7e AA0F      		lsl r26
 5477 1c80 BB1F      		rol r27
 5478 1c82 AA0F      		lsl r26
 5479 1c84 BB1F      		rol r27
 5480 1c86 A050      		subi r26,lo8(-(dir_array))
 5481 1c88 B040      		sbci r27,hi8(-(dir_array))
 5482 1c8a 8C91      		ld r24,X
 5483 1c8c 8634      		cpi r24,lo8(70)
 5484 1c8e 01F0      		breq .+2
 5485 1c90 00C0      		rjmp .L423
 5486               	.LVL143:
 5487 1c92 EE0F      		lsl r30
 5488 1c94 FF1F      		rol r31
 5489 1c96 EE0F      		lsl r30
 5490 1c98 FF1F      		rol r31
 5491 1c9a E050      		subi r30,lo8(-(dir_array+2))
 5492 1c9c F040      		sbci r31,hi8(-(dir_array+2))
 5493 1c9e 8081      		ld r24,Z
 5494 1ca0 8634      		cpi r24,lo8(70)
 5495 1ca2 01F0      		breq .+2
 5496 1ca4 00C0      		rjmp .L423
 5497 1ca6 1396      		adiw r26,3
 5498 1ca8 8C91      		ld r24,X
 5499 1caa 8435      		cpi r24,lo8(84)
 5500 1cac 01F0      		breq .+2
 5501 1cae 00C0      		rjmp .L423
 5502 1cb0 1216      		cp __zero_reg__,r18
 5503 1cb2 1306      		cpc __zero_reg__,r19
 5504 1cb4 04F0      		brlt .+2
 5505 1cb6 00C0      		rjmp .L423
 5506               	.L436:
 5507               	.LM775:
 5508 1cb8 F601      		movw r30,r12
 5509 1cba 5183      		std Z+1,r21
 5510 1cbc 4083      		st Z,r20
 5511 1cbe 00C0      		rjmp .L434
 5512               	.LVL144:
 5513               	.L422:
 5514               	.LM776:
 5515 1cc0 9B01      		movw r18,r22
 5516 1cc2 2F5F      		subi r18,lo8(-(1))
 5517 1cc4 3F4F      		sbci r19,hi8(-(1))
 5518               	.LVL145:
 5519 1cc6 A801      		movw r20,r16
 5520               	.LVL146:
 5521 1cc8 E4E0      		ldi r30,4
 5522 1cca 440F      	1:	lsl r20
 5523 1ccc 551F      		rol r21
 5524 1cce EA95      		dec r30
 5525 1cd0 01F4      		brne 1b
 5526 1cd2 4A01      		movw r8,r20
 5527 1cd4 820E      		add r8,r18
 5528 1cd6 931E      		adc r9,r19
 5529 1cd8 D401      		movw r26,r8
 5530 1cda AA0F      		lsl r26
 5531 1cdc BB1F      		rol r27
 5532 1cde FD01      		movw r30,r26
 5533 1ce0 E050      		subi r30,lo8(-(map_array))
 5534 1ce2 F040      		sbci r31,hi8(-(map_array))
 5535 1ce4 C081      		ld r28,Z
 5536 1ce6 D181      		ldd r29,Z+1
 5537 1ce8 CA15      		cp r28,r10
 5538 1cea DB05      		cpc r29,r11
 5539 1cec 04F0      		brlt .+2
 5540 1cee 00C0      		rjmp .L424
 5541 1cf0 FA01      		movw r30,r20
 5542 1cf2 E60F      		add r30,r22
 5543 1cf4 F71F      		adc r31,r23
 5544 1cf6 EE0F      		lsl r30
 5545 1cf8 FF1F      		rol r31
 5546 1cfa EE0F      		lsl r30
 5547 1cfc FF1F      		rol r31
 5548 1cfe E050      		subi r30,lo8(-(dir_array))
 5549 1d00 F040      		sbci r31,hi8(-(dir_array))
 5550 1d02 8081      		ld r24,Z
 5551 1d04 8435      		cpi r24,lo8(84)
 5552 1d06 01F0      		breq .+2
 5553 1d08 00C0      		rjmp .L424
 5554               	.LVL147:
 5555 1d0a AA0F      		lsl r26
 5556 1d0c BB1F      		rol r27
 5557 1d0e A050      		subi r26,lo8(-(dir_array+2))
 5558 1d10 B040      		sbci r27,hi8(-(dir_array+2))
 5559 1d12 8C91      		ld r24,X
 5560 1d14 8435      		cpi r24,lo8(84)
 5561 1d16 01F0      		breq .+2
 5562 1d18 00C0      		rjmp .L424
 5563 1d1a 6F30      		cpi r22,15
 5564 1d1c 7105      		cpc r23,__zero_reg__
 5565 1d1e 04F0      		brlt .+2
 5566 1d20 00C0      		rjmp .L424
 5567               	.LM777:
 5568 1d22 F601      		movw r30,r12
 5569 1d24 1183      		std Z+1,r17
 5570 1d26 0083      		st Z,r16
 5571               	.LM778:
 5572 1d28 3383      		std Z+3,r19
 5573 1d2a 2283      		std Z+2,r18
 5574               	.LM779:
 5575 1d2c B901      		movw r22,r18
 5576 1d2e 6F5F      		subi r22,lo8(-(1))
 5577 1d30 7F4F      		sbci r23,hi8(-(1))
 5578 1d32 DA01      		movw r26,r20
 5579 1d34 A60F      		add r26,r22
 5580 1d36 B71F      		adc r27,r23
 5581 1d38 AA0F      		lsl r26
 5582 1d3a BB1F      		rol r27
 5583 1d3c FD01      		movw r30,r26
 5584 1d3e E050      		subi r30,lo8(-(map_array))
 5585 1d40 F040      		sbci r31,hi8(-(map_array))
 5586 1d42 E080      		ld r14,Z
 5587 1d44 F180      		ldd r15,Z+1
 5588 1d46 EC16      		cp r14,r28
 5589 1d48 FD06      		cpc r15,r29
 5590 1d4a 04F0      		brlt .+2
 5591 1d4c 00C0      		rjmp .L425
 5592 1d4e AA0F      		lsl r26
 5593 1d50 BB1F      		rol r27
 5594 1d52 A050      		subi r26,lo8(-(dir_array+2))
 5595 1d54 B040      		sbci r27,hi8(-(dir_array+2))
 5596 1d56 8C91      		ld r24,X
 5597 1d58 8435      		cpi r24,lo8(84)
 5598 1d5a 01F0      		breq .+2
 5599 1d5c 00C0      		rjmp .L425
 5600 1d5e F401      		movw r30,r8
 5601 1d60 EE0F      		lsl r30
 5602 1d62 FF1F      		rol r31
 5603 1d64 EE0F      		lsl r30
 5604 1d66 FF1F      		rol r31
 5605 1d68 E050      		subi r30,lo8(-(dir_array))
 5606 1d6a F040      		sbci r31,hi8(-(dir_array))
 5607 1d6c 8081      		ld r24,Z
 5608 1d6e 8435      		cpi r24,lo8(84)
 5609 1d70 01F0      		breq .+2
 5610 1d72 00C0      		rjmp .L425
 5611 1d74 8181      		ldd r24,Z+1
 5612 1d76 8634      		cpi r24,lo8(70)
 5613 1d78 01F0      		breq .+2
 5614 1d7a 00C0      		rjmp .L425
 5615 1d7c 8381      		ldd r24,Z+3
 5616 1d7e 8634      		cpi r24,lo8(70)
 5617 1d80 01F0      		breq .+2
 5618 1d82 00C0      		rjmp .L425
 5619 1d84 2F30      		cpi r18,15
 5620 1d86 3105      		cpc r19,__zero_reg__
 5621 1d88 04F0      		brlt .+2
 5622 1d8a 00C0      		rjmp .L425
 5623               	.LVL148:
 5624               	.LM780:
 5625 1d8c F601      		movw r30,r12
 5626               	.LM781:
 5627 1d8e 7383      		std Z+3,r23
 5628 1d90 6283      		std Z+2,r22
 5629               	.LM782:
 5630 1d92 9B01      		movw r18,r22
 5631 1d94 2F5F      		subi r18,lo8(-(1))
 5632 1d96 3F4F      		sbci r19,hi8(-(1))
 5633 1d98 A801      		movw r20,r16
 5634 1d9a A4E0      		ldi r26,4
 5635 1d9c 440F      	1:	lsl r20
 5636 1d9e 551F      		rol r21
 5637 1da0 AA95      		dec r26
 5638 1da2 01F4      		brne 1b
 5639 1da4 DA01      		movw r26,r20
 5640 1da6 A20F      		add r26,r18
 5641 1da8 B31F      		adc r27,r19
 5642 1daa AA0F      		lsl r26
 5643 1dac BB1F      		rol r27
 5644 1dae FD01      		movw r30,r26
 5645 1db0 E050      		subi r30,lo8(-(map_array))
 5646 1db2 F040      		sbci r31,hi8(-(map_array))
 5647 1db4 8081      		ld r24,Z
 5648 1db6 9181      		ldd r25,Z+1
 5649 1db8 8E15      		cp r24,r14
 5650 1dba 9F05      		cpc r25,r15
 5651 1dbc 04F0      		brlt .+2
 5652 1dbe 00C0      		rjmp .L428
 5653 1dc0 AA0F      		lsl r26
 5654 1dc2 BB1F      		rol r27
 5655 1dc4 A050      		subi r26,lo8(-(dir_array+2))
 5656 1dc6 B040      		sbci r27,hi8(-(dir_array+2))
 5657 1dc8 8C91      		ld r24,X
 5658 1dca 8435      		cpi r24,lo8(84)
 5659 1dcc 01F0      		breq .+2
 5660 1dce 00C0      		rjmp .L428
 5661 1dd0 FA01      		movw r30,r20
 5662 1dd2 E60F      		add r30,r22
 5663 1dd4 F71F      		adc r31,r23
 5664 1dd6 EE0F      		lsl r30
 5665 1dd8 FF1F      		rol r31
 5666 1dda EE0F      		lsl r30
 5667 1ddc FF1F      		rol r31
 5668 1dde E050      		subi r30,lo8(-(dir_array))
 5669 1de0 F040      		sbci r31,hi8(-(dir_array))
 5670 1de2 8081      		ld r24,Z
 5671 1de4 8435      		cpi r24,lo8(84)
 5672 1de6 01F0      		breq .+2
 5673 1de8 00C0      		rjmp .L428
 5674               	.LVL149:
 5675 1dea 8181      		ldd r24,Z+1
 5676 1dec 8634      		cpi r24,lo8(70)
 5677 1dee 01F0      		breq .+2
 5678 1df0 00C0      		rjmp .L428
 5679 1df2 8381      		ldd r24,Z+3
 5680 1df4 8634      		cpi r24,lo8(70)
 5681 1df6 01F0      		breq .+2
 5682 1df8 00C0      		rjmp .L428
 5683 1dfa 6F30      		cpi r22,15
 5684 1dfc 7105      		cpc r23,__zero_reg__
 5685 1dfe 04F0      		brlt .+2
 5686 1e00 00C0      		rjmp .L428
 5687 1e02 00C0      		rjmp .L435
 5688               	.LVL150:
 5689               	.L424:
 5690               	.LM783:
 5691 1e04 9B01      		movw r18,r22
 5692 1e06 2150      		subi r18,lo8(-(-1))
 5693 1e08 3040      		sbci r19,hi8(-(-1))
 5694 1e0a D801      		movw r26,r16
 5695 1e0c 44E0      		ldi r20,4
 5696 1e0e AA0F      	1:	lsl r26
 5697 1e10 BB1F      		rol r27
 5698 1e12 4A95      		dec r20
 5699 1e14 01F4      		brne 1b
 5700 1e16 ED01      		movw r28,r26
 5701 1e18 C20F      		add r28,r18
 5702 1e1a D31F      		adc r29,r19
 5703 1e1c AE01      		movw r20,r28
 5704 1e1e 440F      		lsl r20
 5705 1e20 551F      		rol r21
 5706 1e22 FA01      		movw r30,r20
 5707 1e24 E050      		subi r30,lo8(-(map_array))
 5708 1e26 F040      		sbci r31,hi8(-(map_array))
 5709 1e28 E080      		ld r14,Z
 5710 1e2a F180      		ldd r15,Z+1
 5711 1e2c EA14      		cp r14,r10
 5712 1e2e FB04      		cpc r15,r11
 5713 1e30 04F0      		brlt .+2
 5714 1e32 00C0      		rjmp .L428
 5715 1e34 FD01      		movw r30,r26
 5716 1e36 E60F      		add r30,r22
 5717 1e38 F71F      		adc r31,r23
 5718 1e3a EE0F      		lsl r30
 5719 1e3c FF1F      		rol r31
 5720 1e3e EE0F      		lsl r30
 5721 1e40 FF1F      		rol r31
 5722 1e42 E050      		subi r30,lo8(-(dir_array+2))
 5723 1e44 F040      		sbci r31,hi8(-(dir_array+2))
 5724 1e46 8081      		ld r24,Z
 5725 1e48 8435      		cpi r24,lo8(84)
 5726 1e4a 01F0      		breq .+2
 5727 1e4c 00C0      		rjmp .L428
 5728               	.LVL151:
 5729 1e4e CC0F      		lsl r28
 5730 1e50 DD1F      		rol r29
 5731 1e52 CC0F      		lsl r28
 5732 1e54 DD1F      		rol r29
 5733 1e56 C050      		subi r28,lo8(-(dir_array))
 5734 1e58 D040      		sbci r29,hi8(-(dir_array))
 5735 1e5a 8881      		ld r24,Y
 5736 1e5c 8435      		cpi r24,lo8(84)
 5737 1e5e 01F0      		breq .+2
 5738 1e60 00C0      		rjmp .L428
 5739 1e62 1616      		cp __zero_reg__,r22
 5740 1e64 1706      		cpc __zero_reg__,r23
 5741 1e66 04F0      		brlt .+2
 5742 1e68 00C0      		rjmp .L428
 5743               	.LM784:
 5744 1e6a F601      		movw r30,r12
 5745 1e6c 1183      		std Z+1,r17
 5746 1e6e 0083      		st Z,r16
 5747               	.LM785:
 5748 1e70 3383      		std Z+3,r19
 5749 1e72 2283      		std Z+2,r18
 5750               	.LM786:
 5751 1e74 B901      		movw r22,r18
 5752 1e76 6150      		subi r22,lo8(-(-1))
 5753 1e78 7040      		sbci r23,hi8(-(-1))
 5754 1e7a A60F      		add r26,r22
 5755 1e7c B71F      		adc r27,r23
 5756 1e7e FD01      		movw r30,r26
 5757 1e80 EE0F      		lsl r30
 5758 1e82 FF1F      		rol r31
 5759 1e84 E050      		subi r30,lo8(-(map_array))
 5760 1e86 F040      		sbci r31,hi8(-(map_array))
 5761 1e88 A080      		ld r10,Z
 5762 1e8a B180      		ldd r11,Z+1
 5763 1e8c AE14      		cp r10,r14
 5764 1e8e BF04      		cpc r11,r15
 5765 1e90 04F0      		brlt .+2
 5766 1e92 00C0      		rjmp .L425
 5767 1e94 AA0F      		lsl r26
 5768 1e96 BB1F      		rol r27
 5769 1e98 AA0F      		lsl r26
 5770 1e9a BB1F      		rol r27
 5771 1e9c A050      		subi r26,lo8(-(dir_array))
 5772 1e9e B040      		sbci r27,hi8(-(dir_array))
 5773 1ea0 8C91      		ld r24,X
 5774 1ea2 8435      		cpi r24,lo8(84)
 5775 1ea4 01F0      		breq .+2
 5776 1ea6 00C0      		rjmp .L425
 5777 1ea8 8981      		ldd r24,Y+1
 5778 1eaa 8634      		cpi r24,lo8(70)
 5779 1eac 01F0      		breq .+2
 5780 1eae 00C0      		rjmp .L425
 5781 1eb0 440F      		lsl r20
 5782 1eb2 551F      		rol r21
 5783 1eb4 4050      		subi r20,lo8(-(dir_array+2))
 5784 1eb6 5040      		sbci r21,hi8(-(dir_array+2))
 5785 1eb8 FA01      		movw r30,r20
 5786 1eba 8081      		ld r24,Z
 5787 1ebc 8435      		cpi r24,lo8(84)
 5788 1ebe 01F0      		breq .+2
 5789 1ec0 00C0      		rjmp .L425
 5790 1ec2 8B81      		ldd r24,Y+3
 5791 1ec4 8634      		cpi r24,lo8(70)
 5792 1ec6 01F0      		breq .+2
 5793 1ec8 00C0      		rjmp .L425
 5794 1eca 1216      		cp __zero_reg__,r18
 5795 1ecc 1306      		cpc __zero_reg__,r19
 5796 1ece 04F0      		brlt .+2
 5797 1ed0 00C0      		rjmp .L425
 5798               	.LVL152:
 5799               	.LM787:
 5800 1ed2 F601      		movw r30,r12
 5801               	.LM788:
 5802 1ed4 7383      		std Z+3,r23
 5803 1ed6 6283      		std Z+2,r22
 5804               	.LM789:
 5805 1ed8 9B01      		movw r18,r22
 5806 1eda 2150      		subi r18,lo8(-(-1))
 5807 1edc 3040      		sbci r19,hi8(-(-1))
 5808 1ede A801      		movw r20,r16
 5809 1ee0 94E0      		ldi r25,4
 5810 1ee2 440F      	1:	lsl r20
 5811 1ee4 551F      		rol r21
 5812 1ee6 9A95      		dec r25
 5813 1ee8 01F4      		brne 1b
 5814 1eea DA01      		movw r26,r20
 5815 1eec A20F      		add r26,r18
 5816 1eee B31F      		adc r27,r19
 5817 1ef0 FD01      		movw r30,r26
 5818 1ef2 EE0F      		lsl r30
 5819 1ef4 FF1F      		rol r31
 5820 1ef6 E050      		subi r30,lo8(-(map_array))
 5821 1ef8 F040      		sbci r31,hi8(-(map_array))
 5822 1efa 8081      		ld r24,Z
 5823 1efc 9181      		ldd r25,Z+1
 5824 1efe 8A15      		cp r24,r10
 5825 1f00 9B05      		cpc r25,r11
 5826 1f02 04F4      		brge .L428
 5827 1f04 AA0F      		lsl r26
 5828 1f06 BB1F      		rol r27
 5829 1f08 AA0F      		lsl r26
 5830 1f0a BB1F      		rol r27
 5831 1f0c A050      		subi r26,lo8(-(dir_array))
 5832 1f0e B040      		sbci r27,hi8(-(dir_array))
 5833 1f10 8C91      		ld r24,X
 5834 1f12 8435      		cpi r24,lo8(84)
 5835 1f14 01F4      		brne .L428
 5836 1f16 FA01      		movw r30,r20
 5837 1f18 E60F      		add r30,r22
 5838 1f1a F71F      		adc r31,r23
 5839 1f1c DF01      		movw r26,r30
 5840 1f1e AA0F      		lsl r26
 5841 1f20 BB1F      		rol r27
 5842 1f22 AA0F      		lsl r26
 5843 1f24 BB1F      		rol r27
 5844 1f26 A050      		subi r26,lo8(-(dir_array))
 5845 1f28 B040      		sbci r27,hi8(-(dir_array))
 5846 1f2a 1196      		adiw r26,1
 5847 1f2c 8C91      		ld r24,X
 5848 1f2e 1197      		sbiw r26,1
 5849 1f30 8634      		cpi r24,lo8(70)
 5850 1f32 01F4      		brne .L428
 5851               	.LVL153:
 5852 1f34 EE0F      		lsl r30
 5853 1f36 FF1F      		rol r31
 5854 1f38 EE0F      		lsl r30
 5855 1f3a FF1F      		rol r31
 5856 1f3c E050      		subi r30,lo8(-(dir_array+2))
 5857 1f3e F040      		sbci r31,hi8(-(dir_array+2))
 5858 1f40 8081      		ld r24,Z
 5859 1f42 8435      		cpi r24,lo8(84)
 5860 1f44 01F4      		brne .L428
 5861 1f46 1396      		adiw r26,3
 5862 1f48 8C91      		ld r24,X
 5863 1f4a 8634      		cpi r24,lo8(70)
 5864 1f4c 01F4      		brne .L428
 5865 1f4e 1616      		cp __zero_reg__,r22
 5866 1f50 1706      		cpc __zero_reg__,r23
 5867 1f52 04F4      		brge .L428
 5868               	.L435:
 5869               	.LM790:
 5870 1f54 F601      		movw r30,r12
 5871               	.LM791:
 5872 1f56 3383      		std Z+3,r19
 5873 1f58 2283      		std Z+2,r18
 5874               	.L425:
 5875 1f5a A801      		movw r20,r16
 5876 1f5c 00C0      		rjmp .L421
 5877               	.LVL154:
 5878               	.L428:
 5879 1f5e A801      		movw r20,r16
 5880 1f60 00C0      		rjmp .L434
 5881               	.LVL155:
 5882               	.L423:
 5883 1f62 A901      		movw r20,r18
 5884               	.LVL156:
 5885               	.L434:
 5886 1f64 9B01      		movw r18,r22
 5887               	.LVL157:
 5888               	.L421:
 5889               	.LM792:
 5890 1f66 0894      		sec
 5891 1f68 611C      		adc r6,__zero_reg__
 5892 1f6a 711C      		adc r7,__zero_reg__
 5893 1f6c 84E0      		ldi r24,lo8(4)
 5894 1f6e 90E0      		ldi r25,hi8(4)
 5895 1f70 C80E      		add r12,r24
 5896 1f72 D91E      		adc r13,r25
 5897               	.LM793:
 5898 1f74 90E1      		ldi r25,lo8(16)
 5899 1f76 6916      		cp r6,r25
 5900 1f78 7104      		cpc r7,__zero_reg__
 5901 1f7a 04F0      		brlt .L429
 5902 1f7c 7092 0000 		sts (ipl)+1,r7
 5903 1f80 6092 0000 		sts ipl,r6
 5904               	.LM794:
 5905 1f84 81E0      		ldi r24,lo8(1)
 5906 1f86 60E0      		ldi r22,lo8(0)
 5907 1f88 0E94 0000 		call lcd_byte
 5908               	.LVL158:
 5909               	.LM795:
 5910 1f8c 80E0      		ldi r24,lo8(.LC1)
 5911 1f8e 90E0      		ldi r25,hi8(.LC1)
 5912 1f90 0E94 0000 		call lcd_write_string
 5913               	.LM796:
 5914 1f94 82E0      		ldi r24,lo8(2)
 5915 1f96 90E0      		ldi r25,hi8(2)
 5916 1f98 0E94 0000 		call delay_sec
 5917 1f9c 00C0      		rjmp .L432
 5918               	.LVL159:
 5919               	.L429:
 5920               	.LM797:
 5921 1f9e 8A01      		movw r16,r20
 5922 1fa0 B901      		movw r22,r18
 5923               	.LVL160:
 5924               	.L417:
 5925               	.LM798:
 5926 1fa2 D801      		movw r26,r16
 5927 1fa4 34E0      		ldi r19,4
 5928 1fa6 AA0F      	1:	lsl r26
 5929 1fa8 BB1F      		rol r27
 5930 1faa 3A95      		dec r19
 5931 1fac 01F4      		brne 1b
 5932 1fae A60F      		add r26,r22
 5933 1fb0 B71F      		adc r27,r23
 5934 1fb2 FD01      		movw r30,r26
 5935 1fb4 EE0F      		lsl r30
 5936 1fb6 FF1F      		rol r31
 5937 1fb8 E050      		subi r30,lo8(-(map_array))
 5938 1fba F040      		sbci r31,hi8(-(map_array))
 5939 1fbc A080      		ld r10,Z
 5940 1fbe B180      		ldd r11,Z+1
 5941 1fc0 A114      		cp r10,__zero_reg__
 5942 1fc2 B104      		cpc r11,__zero_reg__
 5943 1fc4 01F0      		breq .+2
 5944 1fc6 00C0      		rjmp .L431
 5945 1fc8 7092 0000 		sts (ipl)+1,r7
 5946 1fcc 6092 0000 		sts ipl,r6
 5947               	.L432:
 5948               	/* epilogue start */
 5949               	.LM799:
 5950 1fd0 DF91      		pop r29
 5951 1fd2 CF91      		pop r28
 5952 1fd4 1F91      		pop r17
 5953 1fd6 0F91      		pop r16
 5954               	.LVL161:
 5955 1fd8 FF90      		pop r15
 5956 1fda EF90      		pop r14
 5957 1fdc DF90      		pop r13
 5958 1fde CF90      		pop r12
 5959 1fe0 BF90      		pop r11
 5960 1fe2 AF90      		pop r10
 5961 1fe4 9F90      		pop r9
 5962 1fe6 8F90      		pop r8
 5963 1fe8 7F90      		pop r7
 5964 1fea 6F90      		pop r6
 5965 1fec 0895      		ret
 5966               	.LFE71:
 5968               		.data
 5969               	.LC2:
 5970 0016 4272 6F6B 		.string	"Broke build"
 5970      6520 6275 
 5970      696C 6400 
 5971               		.text
 5972               	.global	build_map
 5974               	build_map:
 5975               	.LFB72:
 5976               	.LM800:
 5977               	.LVL162:
 5978 1fee 4F92      		push r4
 5979 1ff0 5F92      		push r5
 5980 1ff2 6F92      		push r6
 5981 1ff4 7F92      		push r7
 5982 1ff6 8F92      		push r8
 5983 1ff8 9F92      		push r9
 5984 1ffa AF92      		push r10
 5985 1ffc BF92      		push r11
 5986 1ffe CF92      		push r12
 5987 2000 DF92      		push r13
 5988 2002 EF92      		push r14
 5989 2004 FF92      		push r15
 5990 2006 0F93      		push r16
 5991 2008 1F93      		push r17
 5992 200a CF93      		push r28
 5993 200c DF93      		push r29
 5994               	/* prologue: function */
 5995               	/* frame size = 0 */
 5996 200e 5C01      		movw r10,r24
 5997 2010 4B01      		movw r8,r22
 5998 2012 3A01      		movw r6,r20
 5999 2014 2901      		movw r4,r18
 6000               	.LM801:
 6001 2016 20E0      		ldi r18,lo8(0)
 6002 2018 30E0      		ldi r19,hi8(0)
 6003               	.LVL163:
 6004               	.LBB688:
 6005               	.LBB689:
 6006               	.LM802:
 6007 201a 44E6      		ldi r20,lo8(100)
 6008 201c 50E0      		ldi r21,hi8(100)
 6009               	.LVL164:
 6010 201e 00C0      		rjmp .L438
 6011               	.LVL165:
 6012               	.L439:
 6013 2020 4193      		st Z+,r20
 6014 2022 5193      		st Z+,r21
 6015               	.LM803:
 6016 2024 0196      		adiw r24,1
 6017 2026 8031      		cpi r24,16
 6018 2028 9105      		cpc r25,__zero_reg__
 6019 202a 01F4      		brne .L439
 6020               	.LBE689:
 6021               	.LM804:
 6022 202c 2F5F      		subi r18,lo8(-(1))
 6023 202e 3F4F      		sbci r19,hi8(-(1))
 6024 2030 2031      		cpi r18,16
 6025 2032 3105      		cpc r19,__zero_reg__
 6026 2034 01F0      		breq .L440
 6027               	.LVL166:
 6028               	.L438:
 6029 2036 F901      		movw r30,r18
 6030 2038 65E0      		ldi r22,5
 6031 203a EE0F      	1:	lsl r30
 6032 203c FF1F      		rol r31
 6033 203e 6A95      		dec r22
 6034 2040 01F4      		brne 1b
 6035 2042 E050      		subi r30,lo8(-(map_array))
 6036 2044 F040      		sbci r31,hi8(-(map_array))
 6037 2046 80E0      		ldi r24,lo8(0)
 6038 2048 90E0      		ldi r25,hi8(0)
 6039 204a 00C0      		rjmp .L439
 6040               	.L440:
 6041               	.LBE688:
 6042               	.LM805:
 6043 204c F301      		movw r30,r6
 6044 204e 54E0      		ldi r21,4
 6045 2050 EE0F      	1:	lsl r30
 6046 2052 FF1F      		rol r31
 6047 2054 5A95      		dec r21
 6048 2056 01F4      		brne 1b
 6049 2058 E40D      		add r30,r4
 6050 205a F51D      		adc r31,r5
 6051 205c EE0F      		lsl r30
 6052 205e FF1F      		rol r31
 6053 2060 E050      		subi r30,lo8(-(map_array))
 6054 2062 F040      		sbci r31,hi8(-(map_array))
 6055 2064 1182      		std Z+1,__zero_reg__
 6056 2066 1082      		st Z,__zero_reg__
 6057 2068 EE24      		clr r14
 6058 206a FF24      		clr r15
 6059               	.LVL167:
 6060               	.LM806:
 6061 206c A501      		movw r20,r10
 6062 206e 34E0      		ldi r19,4
 6063 2070 440F      	1:	lsl r20
 6064 2072 551F      		rol r21
 6065 2074 3A95      		dec r19
 6066 2076 01F4      		brne 1b
 6067 2078 480D      		add r20,r8
 6068 207a 591D      		adc r21,r9
 6069 207c 440F      		lsl r20
 6070 207e 551F      		rol r21
 6071               	.LVL168:
 6072 2080 4050      		subi r20,lo8(-(map_array))
 6073 2082 5040      		sbci r21,hi8(-(map_array))
 6074 2084 00C0      		rjmp .L441
 6075               	.LVL169:
 6076               	.L446:
 6077               	.LBB690:
 6078               	.LBB691:
 6079               	.LM807:
 6080 2086 9096      		adiw r26,32
 6081 2088 8D91      		ld r24,X+
 6082 208a 9C91      		ld r25,X
 6083 208c 9197      		sbiw r26,32+1
 6084 208e 8E15      		cp r24,r14
 6085 2090 9F05      		cpc r25,r15
 6086 2092 01F0      		breq .+2
 6087 2094 00C0      		rjmp .L442
 6088               	.LM808:
 6089 2096 8481      		ldd r24,Z+4
 6090 2098 8435      		cpi r24,lo8(84)
 6091 209a 01F4      		brne .L443
 6092 209c 8285      		ldd r24,Z+10
 6093 209e 8435      		cpi r24,lo8(84)
 6094 20a0 01F4      		brne .L443
 6095               	.LM809:
 6096 20a2 8881      		ld r24,Y
 6097 20a4 9981      		ldd r25,Y+1
 6098 20a6 8436      		cpi r24,100
 6099 20a8 9105      		cpc r25,__zero_reg__
 6100 20aa 01F4      		brne .L443
 6101               	.LM810:
 6102 20ac 1983      		std Y+1,r17
 6103 20ae 0883      		st Y,r16
 6104               	.L443:
 6105               	.LM811:
 6106 20b0 8581      		ldd r24,Z+5
 6107 20b2 8435      		cpi r24,lo8(84)
 6108 20b4 01F4      		brne .L444
 6109 20b6 E95B      		subi r30,lo8(-(71))
 6110 20b8 FF4F      		sbci r31,hi8(-(71))
 6111 20ba 8081      		ld r24,Z
 6112 20bc E754      		subi r30,lo8(-(-71))
 6113 20be F040      		sbci r31,hi8(-(-71))
 6114 20c0 8435      		cpi r24,lo8(84)
 6115 20c2 01F4      		brne .L444
 6116               	.LM812:
 6117 20c4 8E8D      		ldd r24,Y+30
 6118 20c6 9F8D      		ldd r25,Y+31
 6119 20c8 8436      		cpi r24,100
 6120 20ca 9105      		cpc r25,__zero_reg__
 6121 20cc 01F4      		brne .L444
 6122               	.LM813:
 6123 20ce 1F8F      		std Y+31,r17
 6124 20d0 0E8F      		std Y+30,r16
 6125               	.L444:
 6126               	.LM814:
 6127 20d2 8681      		ldd r24,Z+6
 6128 20d4 8435      		cpi r24,lo8(84)
 6129 20d6 01F4      		brne .L445
 6130 20d8 8081      		ld r24,Z
 6131 20da 8435      		cpi r24,lo8(84)
 6132 20dc 01F4      		brne .L445
 6133               	.LM815:
 6134 20de 5E96      		adiw r26,30
 6135 20e0 8D91      		ld r24,X+
 6136 20e2 9C91      		ld r25,X
 6137 20e4 5F97      		sbiw r26,30+1
 6138 20e6 8436      		cpi r24,100
 6139 20e8 9105      		cpc r25,__zero_reg__
 6140 20ea 01F4      		brne .L445
 6141               	.LM816:
 6142 20ec 5F96      		adiw r26,30+1
 6143 20ee 1C93      		st X,r17
 6144 20f0 0E93      		st -X,r16
 6145 20f2 5E97      		sbiw r26,30
 6146               	.L445:
 6147               	.LM817:
 6148 20f4 8781      		ldd r24,Z+7
 6149 20f6 8435      		cpi r24,lo8(84)
 6150 20f8 01F4      		brne .L442
 6151 20fa FB97      		sbiw r30,59
 6152 20fc 8081      		ld r24,Z
 6153 20fe FB96      		adiw r30,59
 6154 2100 8435      		cpi r24,lo8(84)
 6155 2102 01F4      		brne .L442
 6156               	.LM818:
 6157 2104 8D91      		ld r24,X+
 6158 2106 9C91      		ld r25,X
 6159 2108 1197      		sbiw r26,1
 6160 210a 8436      		cpi r24,100
 6161 210c 9105      		cpc r25,__zero_reg__
 6162 210e 01F4      		brne .L442
 6163               	.LM819:
 6164 2110 1196      		adiw r26,1
 6165 2112 1C93      		st X,r17
 6166 2114 0E93      		st -X,r16
 6167               	.L442:
 6168 2116 1296      		adiw r26,2
 6169 2118 3496      		adiw r30,4
 6170 211a 2296      		adiw r28,2
 6171               	.LM820:
 6172 211c AC15      		cp r26,r12
 6173 211e BD05      		cpc r27,r13
 6174 2120 01F0      		breq .+2
 6175 2122 00C0      		rjmp .L446
 6176               	.LBE691:
 6177               	.LM821:
 6178 2124 6F5F      		subi r22,lo8(-(1))
 6179 2126 7F4F      		sbci r23,hi8(-(1))
 6180 2128 90E2      		ldi r25,lo8(32)
 6181 212a C92E      		mov r12,r25
 6182 212c D12C      		mov r13,__zero_reg__
 6183 212e CA0E      		add r12,r26
 6184 2130 DB1E      		adc r13,r27
 6185 2132 6031      		cpi r22,16
 6186 2134 7105      		cpc r23,__zero_reg__
 6187 2136 01F0      		breq .L447
 6188               	.L449:
 6189 2138 DB01      		movw r26,r22
 6190 213a 85E0      		ldi r24,5
 6191 213c AA0F      	1:	lsl r26
 6192 213e BB1F      		rol r27
 6193 2140 8A95      		dec r24
 6194 2142 01F4      		brne 1b
 6195 2144 A050      		subi r26,lo8(-(map_array-32))
 6196 2146 B040      		sbci r27,hi8(-(map_array-32))
 6197 2148 9B01      		movw r18,r22
 6198 214a F4E0      		ldi r31,4
 6199 214c 220F      	1:	lsl r18
 6200 214e 331F      		rol r19
 6201 2150 FA95      		dec r31
 6202 2152 01F4      		brne 1b
 6203 2154 8827      		clr r24
 6204 2156 9927      		clr r25
 6205 2158 821B      		sub r24,r18
 6206 215a 930B      		sbc r25,r19
 6207 215c 0196      		adiw r24,1
 6208 215e 880F      		lsl r24
 6209 2160 991F      		rol r25
 6210 2162 880F      		lsl r24
 6211 2164 991F      		rol r25
 6212 2166 EE27      		clr r30
 6213 2168 FF27      		clr r31
 6214 216a E81B      		sub r30,r24
 6215 216c F90B      		sbc r31,r25
 6216 216e E050      		subi r30,lo8(-(dir_array))
 6217 2170 F040      		sbci r31,hi8(-(dir_array))
 6218 2172 E901      		movw r28,r18
 6219 2174 CC0F      		lsl r28
 6220 2176 DD1F      		rol r29
 6221 2178 C050      		subi r28,lo8(-(map_array+2))
 6222 217a D040      		sbci r29,hi8(-(map_array+2))
 6223 217c 00C0      		rjmp .L446
 6224               	.L447:
 6225               	.LBE690:
 6226               	.LM822:
 6227 217e 0894      		sec
 6228 2180 E11C      		adc r14,__zero_reg__
 6229 2182 F11C      		adc r15,__zero_reg__
 6230               	.LM823:
 6231 2184 83E3      		ldi r24,lo8(51)
 6232 2186 E816      		cp r14,r24
 6233 2188 F104      		cpc r15,__zero_reg__
 6234 218a 01F4      		brne .L441
 6235               	.LM824:
 6236 218c 81E0      		ldi r24,lo8(1)
 6237 218e 60E0      		ldi r22,lo8(0)
 6238               	.LVL170:
 6239 2190 0E94 0000 		call lcd_byte
 6240               	.LM825:
 6241 2194 80E0      		ldi r24,lo8(.LC2)
 6242 2196 90E0      		ldi r25,hi8(.LC2)
 6243 2198 0E94 0000 		call lcd_write_string
 6244               	.LM826:
 6245 219c 80E0      		ldi r24,lo8(0)
 6246 219e 90E0      		ldi r25,hi8(0)
 6247 21a0 61E0      		ldi r22,lo8(1)
 6248 21a2 70E0      		ldi r23,hi8(1)
 6249 21a4 A501      		movw r20,r10
 6250 21a6 22E0      		ldi r18,lo8(2)
 6251 21a8 30E0      		ldi r19,hi8(2)
 6252 21aa 0E94 0000 		call lcd_write_int_xy
 6253               	.LM827:
 6254 21ae 83E0      		ldi r24,lo8(3)
 6255 21b0 90E0      		ldi r25,hi8(3)
 6256 21b2 61E0      		ldi r22,lo8(1)
 6257 21b4 70E0      		ldi r23,hi8(1)
 6258 21b6 A401      		movw r20,r8
 6259 21b8 22E0      		ldi r18,lo8(2)
 6260 21ba 30E0      		ldi r19,hi8(2)
 6261 21bc 0E94 0000 		call lcd_write_int_xy
 6262               	.LM828:
 6263 21c0 88E0      		ldi r24,lo8(8)
 6264 21c2 90E0      		ldi r25,hi8(8)
 6265 21c4 61E0      		ldi r22,lo8(1)
 6266 21c6 70E0      		ldi r23,hi8(1)
 6267 21c8 A301      		movw r20,r6
 6268 21ca 22E0      		ldi r18,lo8(2)
 6269 21cc 30E0      		ldi r19,hi8(2)
 6270 21ce 0E94 0000 		call lcd_write_int_xy
 6271               	.LM829:
 6272 21d2 8BE0      		ldi r24,lo8(11)
 6273 21d4 90E0      		ldi r25,hi8(11)
 6274 21d6 61E0      		ldi r22,lo8(1)
 6275 21d8 70E0      		ldi r23,hi8(1)
 6276 21da A201      		movw r20,r4
 6277 21dc 22E0      		ldi r18,lo8(2)
 6278 21de 30E0      		ldi r19,hi8(2)
 6279 21e0 0E94 0000 		call lcd_write_int_xy
 6280               	.LM830:
 6281 21e4 82E0      		ldi r24,lo8(2)
 6282 21e6 90E0      		ldi r25,hi8(2)
 6283 21e8 0E94 0000 		call delay_sec
 6284 21ec 00C0      		rjmp .L450
 6285               	.LVL171:
 6286               	.L441:
 6287               	.LM831:
 6288 21ee FA01      		movw r30,r20
 6289 21f0 8081      		ld r24,Z
 6290 21f2 9181      		ldd r25,Z+1
 6291               	.LVL172:
 6292 21f4 8436      		cpi r24,100
 6293 21f6 9105      		cpc r25,__zero_reg__
 6294 21f8 01F4      		brne .L450
 6295 21fa A0E0      		ldi r26,lo8(map_array)
 6296 21fc CA2E      		mov r12,r26
 6297 21fe A0E0      		ldi r26,hi8(map_array)
 6298 2200 DA2E      		mov r13,r26
 6299 2202 60E0      		ldi r22,lo8(0)
 6300 2204 70E0      		ldi r23,hi8(0)
 6301               	.LBB693:
 6302               	.LBB692:
 6303               	.LM832:
 6304 2206 8701      		movw r16,r14
 6305 2208 0F5F      		subi r16,lo8(-(1))
 6306 220a 1F4F      		sbci r17,hi8(-(1))
 6307 220c 00C0      		rjmp .L449
 6308               	.L450:
 6309               	/* epilogue start */
 6310               	.LBE692:
 6311               	.LBE693:
 6312               	.LM833:
 6313 220e DF91      		pop r29
 6314 2210 CF91      		pop r28
 6315 2212 1F91      		pop r17
 6316 2214 0F91      		pop r16
 6317 2216 FF90      		pop r15
 6318 2218 EF90      		pop r14
 6319               	.LVL173:
 6320 221a DF90      		pop r13
 6321 221c CF90      		pop r12
 6322 221e BF90      		pop r11
 6323 2220 AF90      		pop r10
 6324               	.LVL174:
 6325 2222 9F90      		pop r9
 6326 2224 8F90      		pop r8
 6327               	.LVL175:
 6328 2226 7F90      		pop r7
 6329 2228 6F90      		pop r6
 6330               	.LVL176:
 6331 222a 5F90      		pop r5
 6332 222c 4F90      		pop r4
 6333               	.LVL177:
 6334 222e 0895      		ret
 6335               	.LFE72:
 6337               	.global	checkAndCorrectDirection
 6339               	checkAndCorrectDirection:
 6340               	.LFB74:
 6341               	.LM834:
 6342               	.LVL178:
 6343 2230 CF93      		push r28
 6344 2232 DF93      		push r29
 6345               	/* prologue: function */
 6346               	/* frame size = 0 */
 6347 2234 EC01      		movw r28,r24
 6348               	.LM835:
 6349 2236 8130      		cpi r24,1
 6350 2238 9105      		cpc r25,__zero_reg__
 6351 223a 01F4      		brne .L455
 6352               	.LM836:
 6353 223c 8091 0000 		lds r24,dir
 6354 2240 9091 0000 		lds r25,(dir)+1
 6355               	.LVL179:
 6356 2244 2FEF      		ldi r18,hi8(-1)
 6357 2246 8F3F      		cpi r24,lo8(-1)
 6358 2248 9207      		cpc r25,r18
 6359 224a 01F0      		breq .L458
 6360 224c 8230      		cpi r24,2
 6361 224e 9105      		cpc r25,__zero_reg__
 6362 2250 01F4      		brne .+2
 6363 2252 00C0      		rjmp .L467
 6364 2254 8E5F      		subi r24,lo8(-2)
 6365 2256 9F4F      		sbci r25,hi8(-2)
 6366 2258 01F0      		breq .+2
 6367 225a 00C0      		rjmp .L456
 6368 225c 00C0      		rjmp .L471
 6369               	.L458:
 6370               	.LM837:
 6371 225e E091 0000 		lds r30,x_coordinate
 6372 2262 F091 0000 		lds r31,(x_coordinate)+1
 6373 2266 44E0      		ldi r20,4
 6374 2268 EE0F      	1:	lsl r30
 6375 226a FF1F      		rol r31
 6376 226c 4A95      		dec r20
 6377 226e 01F4      		brne 1b
 6378 2270 8091 0000 		lds r24,y_coordinate
 6379 2274 9091 0000 		lds r25,(y_coordinate)+1
 6380 2278 E80F      		add r30,r24
 6381 227a F91F      		adc r31,r25
 6382 227c EE0F      		lsl r30
 6383 227e FF1F      		rol r31
 6384 2280 EE0F      		lsl r30
 6385 2282 FF1F      		rol r31
 6386 2284 E050      		subi r30,lo8(-(dir_array))
 6387 2286 F040      		sbci r31,hi8(-(dir_array))
 6388 2288 00C0      		rjmp .L482
 6389               	.LVL180:
 6390               	.L455:
 6391               	.LM838:
 6392 228a 8230      		cpi r24,2
 6393 228c 9105      		cpc r25,__zero_reg__
 6394 228e 01F4      		brne .L461
 6395               	.LM839:
 6396 2290 8091 0000 		lds r24,dir
 6397 2294 9091 0000 		lds r25,(dir)+1
 6398               	.LVL181:
 6399 2298 2FEF      		ldi r18,hi8(-1)
 6400 229a 8F3F      		cpi r24,lo8(-1)
 6401 229c 9207      		cpc r25,r18
 6402 229e 01F0      		breq .L467
 6403 22a0 8130      		cpi r24,1
 6404 22a2 9105      		cpc r25,__zero_reg__
 6405 22a4 01F4      		brne .+2
 6406 22a6 00C0      		rjmp .L471
 6407 22a8 8E5F      		subi r24,lo8(-2)
 6408 22aa 9F4F      		sbci r25,hi8(-2)
 6409 22ac 01F0      		breq .+2
 6410 22ae 00C0      		rjmp .L456
 6411               	.LM840:
 6412 22b0 E091 0000 		lds r30,x_coordinate
 6413 22b4 F091 0000 		lds r31,(x_coordinate)+1
 6414 22b8 24E0      		ldi r18,4
 6415 22ba EE0F      	1:	lsl r30
 6416 22bc FF1F      		rol r31
 6417 22be 2A95      		dec r18
 6418 22c0 01F4      		brne 1b
 6419 22c2 8091 0000 		lds r24,y_coordinate
 6420 22c6 9091 0000 		lds r25,(y_coordinate)+1
 6421 22ca E80F      		add r30,r24
 6422 22cc F91F      		adc r31,r25
 6423 22ce EE0F      		lsl r30
 6424 22d0 FF1F      		rol r31
 6425 22d2 EE0F      		lsl r30
 6426 22d4 FF1F      		rol r31
 6427 22d6 E050      		subi r30,lo8(-(dir_array))
 6428 22d8 F040      		sbci r31,hi8(-(dir_array))
 6429 22da 8381      		ldd r24,Z+3
 6430 22dc 00C0      		rjmp .L479
 6431               	.LVL182:
 6432               	.L461:
 6433               	.LM841:
 6434 22de 8FEF      		ldi r24,hi8(-1)
 6435 22e0 CF3F      		cpi r28,lo8(-1)
 6436 22e2 D807      		cpc r29,r24
 6437               	.LVL183:
 6438 22e4 01F4      		brne .L466
 6439               	.LM842:
 6440 22e6 8091 0000 		lds r24,dir
 6441 22ea 9091 0000 		lds r25,(dir)+1
 6442 22ee 8130      		cpi r24,1
 6443 22f0 9105      		cpc r25,__zero_reg__
 6444 22f2 01F0      		breq .L468
 6445 22f4 8230      		cpi r24,2
 6446 22f6 9105      		cpc r25,__zero_reg__
 6447 22f8 01F0      		breq .L471
 6448 22fa 8E5F      		subi r24,lo8(-2)
 6449 22fc 9F4F      		sbci r25,hi8(-2)
 6450 22fe 01F0      		breq .+2
 6451 2300 00C0      		rjmp .L456
 6452               	.L467:
 6453               	.LM843:
 6454 2302 0E94 0000 		call turn_right
 6455               	.L476:
 6456 2306 0E94 0000 		call sense_of_directon
 6457 230a 00C0      		rjmp .L456
 6458               	.L468:
 6459               	.LM844:
 6460 230c E091 0000 		lds r30,x_coordinate
 6461 2310 F091 0000 		lds r31,(x_coordinate)+1
 6462 2314 84E0      		ldi r24,4
 6463 2316 EE0F      	1:	lsl r30
 6464 2318 FF1F      		rol r31
 6465 231a 8A95      		dec r24
 6466 231c 01F4      		brne 1b
 6467 231e 8091 0000 		lds r24,y_coordinate
 6468 2322 9091 0000 		lds r25,(y_coordinate)+1
 6469 2326 E80F      		add r30,r24
 6470 2328 F91F      		adc r31,r25
 6471 232a EE0F      		lsl r30
 6472 232c FF1F      		rol r31
 6473 232e EE0F      		lsl r30
 6474 2330 FF1F      		rol r31
 6475 2332 E050      		subi r30,lo8(-(dir_array+2))
 6476 2334 F040      		sbci r31,hi8(-(dir_array+2))
 6477               	.L482:
 6478 2336 8081      		ld r24,Z
 6479 2338 00C0      		rjmp .L479
 6480               	.L466:
 6481               	.LM845:
 6482 233a 8FEF      		ldi r24,hi8(-2)
 6483 233c CE3F      		cpi r28,lo8(-2)
 6484 233e D807      		cpc r29,r24
 6485 2340 01F4      		brne .L456
 6486               	.LM846:
 6487 2342 8091 0000 		lds r24,dir
 6488 2346 9091 0000 		lds r25,(dir)+1
 6489 234a 8130      		cpi r24,1
 6490 234c 9105      		cpc r25,__zero_reg__
 6491 234e 01F0      		breq .L467
 6492 2350 8230      		cpi r24,2
 6493 2352 9105      		cpc r25,__zero_reg__
 6494 2354 01F0      		breq .L473
 6495 2356 8F5F      		subi r24,lo8(-1)
 6496 2358 9F4F      		sbci r25,hi8(-1)
 6497 235a 01F4      		brne .L456
 6498               	.L471:
 6499               	.LM847:
 6500 235c 0E94 0000 		call turn_left
 6501 2360 00C0      		rjmp .L476
 6502               	.L473:
 6503               	.LM848:
 6504 2362 E091 0000 		lds r30,x_coordinate
 6505 2366 F091 0000 		lds r31,(x_coordinate)+1
 6506 236a A4E0      		ldi r26,4
 6507 236c EE0F      	1:	lsl r30
 6508 236e FF1F      		rol r31
 6509 2370 AA95      		dec r26
 6510 2372 01F4      		brne 1b
 6511 2374 8091 0000 		lds r24,y_coordinate
 6512 2378 9091 0000 		lds r25,(y_coordinate)+1
 6513 237c E80F      		add r30,r24
 6514 237e F91F      		adc r31,r25
 6515 2380 EE0F      		lsl r30
 6516 2382 FF1F      		rol r31
 6517 2384 EE0F      		lsl r30
 6518 2386 FF1F      		rol r31
 6519 2388 E050      		subi r30,lo8(-(dir_array))
 6520 238a F040      		sbci r31,hi8(-(dir_array))
 6521 238c 8181      		ldd r24,Z+1
 6522               	.L479:
 6523 238e 8435      		cpi r24,lo8(84)
 6524 2390 01F4      		brne .L474
 6525               	.LM849:
 6526 2392 0E94 0000 		call turn_right
 6527               	.L474:
 6528               	.LM850:
 6529 2396 0E94 0000 		call turn_right
 6530               	.LM851:
 6531 239a D093 0000 		sts (dir)+1,r29
 6532 239e C093 0000 		sts dir,r28
 6533               	.L456:
 6534               	.LBB694:
 6535               	.LBB695:
 6536               	.LM852:
 6537 23a2 AC9A      		sbi 53-32,4
 6538               	.LM853:
 6539 23a4 AD9A      		sbi 53-32,5
 6540               	.LM854:
 6541 23a6 AE9A      		sbi 53-32,6
 6542               	.LM855:
 6543 23a8 AF9A      		sbi 53-32,7
 6544               	/* epilogue start */
 6545               	.LBE695:
 6546               	.LBE694:
 6547               	.LM856:
 6548 23aa DF91      		pop r29
 6549 23ac CF91      		pop r28
 6550               	.LVL184:
 6551 23ae 0895      		ret
 6552               	.LFE74:
 6554               	.global	go_to_coordinate
 6556               	go_to_coordinate:
 6557               	.LFB73:
 6558               	.LM857:
 6559               	.LVL185:
 6560 23b0 0F93      		push r16
 6561 23b2 1F93      		push r17
 6562 23b4 CF93      		push r28
 6563 23b6 DF93      		push r29
 6564               	/* prologue: function */
 6565               	/* frame size = 0 */
 6566 23b8 EC01      		movw r28,r24
 6567 23ba 8B01      		movw r16,r22
 6568               	.LM858:
 6569 23bc 8091 0000 		lds r24,x_coordinate
 6570 23c0 9091 0000 		lds r25,(x_coordinate)+1
 6571               	.LVL186:
 6572 23c4 8C17      		cp r24,r28
 6573 23c6 9D07      		cpc r25,r29
 6574 23c8 04F4      		brge .L484
 6575               	.LVL187:
 6576               	.LM859:
 6577 23ca 81E0      		ldi r24,lo8(1)
 6578 23cc 90E0      		ldi r25,hi8(1)
 6579 23ce 0E94 0000 		call checkAndCorrectDirection
 6580 23d2 00C0      		rjmp .L485
 6581               	.L487:
 6582               	.LM860:
 6583 23d4 0E94 0000 		call line_track_new
 6584               	.L485:
 6585               	.LM861:
 6586 23d8 CD9B      		sbis 57-32,5
 6587 23da 00C0      		rjmp .L509
 6588 23dc CF99      		sbic 57-32,7
 6589 23de 00C0      		rjmp .L487
 6590 23e0 00C0      		rjmp .L509
 6591               	.L489:
 6592               	.LM862:
 6593 23e2 0E94 0000 		call line_track_new
 6594               	.L509:
 6595               	.LM863:
 6596 23e6 CC9B      		sbis 57-32,4
 6597 23e8 00C0      		rjmp .L506
 6598 23ea 8799      		sbic 48-32,7
 6599 23ec 00C0      		rjmp .L489
 6600 23ee 00C0      		rjmp .L506
 6601               	.LVL188:
 6602               	.L484:
 6603               	.LM864:
 6604 23f0 C817      		cp r28,r24
 6605 23f2 D907      		cpc r29,r25
 6606 23f4 04F4      		brge .L491
 6607               	.LM865:
 6608 23f6 8FEF      		ldi r24,lo8(-1)
 6609 23f8 9FEF      		ldi r25,hi8(-1)
 6610 23fa 0E94 0000 		call checkAndCorrectDirection
 6611 23fe 00C0      		rjmp .L492
 6612               	.L494:
 6613               	.LM866:
 6614 2400 0E94 0000 		call line_track_new
 6615               	.L492:
 6616               	.LM867:
 6617 2404 CD9B      		sbis 57-32,5
 6618 2406 00C0      		rjmp .L510
 6619 2408 CF99      		sbic 57-32,7
 6620 240a 00C0      		rjmp .L494
 6621 240c 00C0      		rjmp .L510
 6622               	.L496:
 6623               	.LM868:
 6624 240e 0E94 0000 		call line_track_new
 6625               	.L510:
 6626               	.LM869:
 6627 2412 CC9B      		sbis 57-32,4
 6628 2414 00C0      		rjmp .L506
 6629 2416 8799      		sbic 48-32,7
 6630 2418 00C0      		rjmp .L496
 6631 241a 00C0      		rjmp .L506
 6632               	.LVL189:
 6633               	.L491:
 6634               	.LM870:
 6635 241c 8091 0000 		lds r24,y_coordinate
 6636 2420 9091 0000 		lds r25,(y_coordinate)+1
 6637 2424 8617      		cp r24,r22
 6638 2426 9707      		cpc r25,r23
 6639 2428 04F4      		brge .L497
 6640               	.LVL190:
 6641               	.LM871:
 6642 242a 82E0      		ldi r24,lo8(2)
 6643 242c 90E0      		ldi r25,hi8(2)
 6644 242e 0E94 0000 		call checkAndCorrectDirection
 6645               	.LVL191:
 6646 2432 00C0      		rjmp .L498
 6647               	.L500:
 6648               	.LM872:
 6649 2434 0E94 0000 		call line_track_new
 6650               	.L498:
 6651               	.LM873:
 6652 2438 CD9B      		sbis 57-32,5
 6653 243a 00C0      		rjmp .L511
 6654 243c CF99      		sbic 57-32,7
 6655 243e 00C0      		rjmp .L500
 6656 2440 00C0      		rjmp .L511
 6657               	.L502:
 6658               	.LM874:
 6659 2442 0E94 0000 		call line_track_new
 6660               	.L511:
 6661               	.LM875:
 6662 2446 CC9B      		sbis 57-32,4
 6663 2448 00C0      		rjmp .L506
 6664 244a 8799      		sbic 48-32,7
 6665 244c 00C0      		rjmp .L502
 6666 244e 00C0      		rjmp .L506
 6667               	.LVL192:
 6668               	.L497:
 6669               	.LM876:
 6670 2450 6817      		cp r22,r24
 6671 2452 7907      		cpc r23,r25
 6672 2454 04F4      		brge .L490
 6673               	.LM877:
 6674 2456 1092 0000 		sts (right)+1,__zero_reg__
 6675 245a 1092 0000 		sts right,__zero_reg__
 6676               	.LM878:
 6677 245e 8EEF      		ldi r24,lo8(-2)
 6678 2460 9FEF      		ldi r25,hi8(-2)
 6679 2462 0E94 0000 		call checkAndCorrectDirection
 6680               	.LVL193:
 6681 2466 00C0      		rjmp .L503
 6682               	.L505:
 6683               	.LM879:
 6684 2468 0E94 0000 		call line_track_new
 6685               	.L503:
 6686               	.LM880:
 6687 246c CD9B      		sbis 57-32,5
 6688 246e 00C0      		rjmp .L512
 6689 2470 CF99      		sbic 57-32,7
 6690 2472 00C0      		rjmp .L505
 6691 2474 00C0      		rjmp .L512
 6692               	.L507:
 6693               	.LM881:
 6694 2476 0E94 0000 		call line_track_new
 6695               	.L512:
 6696               	.LM882:
 6697 247a CC9B      		sbis 57-32,4
 6698 247c 00C0      		rjmp .L506
 6699 247e 8799      		sbic 48-32,7
 6700 2480 00C0      		rjmp .L507
 6701               	.L506:
 6702               	.LBB696:
 6703               	.LBB697:
 6704               	.LM883:
 6705 2482 8FE8      		ldi r24,lo8(399)
 6706 2484 91E0      		ldi r25,hi8(399)
 6707 2486 99BD      		out (72)+1-32,r25
 6708 2488 88BD      		out 72-32,r24
 6709               	.LBE697:
 6710               	.LBE696:
 6711               	.LBB698:
 6712               	.LBB699:
 6713               	.LM884:
 6714 248a 9BBD      		out (74)+1-32,r25
 6715 248c 8ABD      		out 74-32,r24
 6716               	.LBE699:
 6717               	.LBE698:
 6718               	.LBB700:
 6719               	.LBB701:
 6720               	.LM885:
 6721 248e AC9A      		sbi 53-32,4
 6722               	.LM886:
 6723 2490 AD9A      		sbi 53-32,5
 6724               	.LM887:
 6725 2492 AE9A      		sbi 53-32,6
 6726               	.LM888:
 6727 2494 AF9A      		sbi 53-32,7
 6728               	.LVL194:
 6729               	.L490:
 6730               	.LBE701:
 6731               	.LBE700:
 6732               	.LM889:
 6733 2496 D093 0000 		sts (x_coordinate)+1,r29
 6734 249a C093 0000 		sts x_coordinate,r28
 6735               	.LM890:
 6736 249e 1093 0000 		sts (y_coordinate)+1,r17
 6737 24a2 0093 0000 		sts y_coordinate,r16
 6738               	.LM891:
 6739 24a6 81E0      		ldi r24,lo8(1)
 6740 24a8 60E0      		ldi r22,lo8(0)
 6741 24aa 0E94 0000 		call lcd_byte
 6742               	.LM892:
 6743 24ae 4091 0000 		lds r20,x_coordinate
 6744 24b2 5091 0000 		lds r21,(x_coordinate)+1
 6745 24b6 80E0      		ldi r24,lo8(0)
 6746 24b8 90E0      		ldi r25,hi8(0)
 6747 24ba 61E0      		ldi r22,lo8(1)
 6748 24bc 70E0      		ldi r23,hi8(1)
 6749 24be 22E0      		ldi r18,lo8(2)
 6750 24c0 30E0      		ldi r19,hi8(2)
 6751 24c2 0E94 0000 		call lcd_write_int_xy
 6752               	.LM893:
 6753 24c6 4091 0000 		lds r20,y_coordinate
 6754 24ca 5091 0000 		lds r21,(y_coordinate)+1
 6755 24ce 85E0      		ldi r24,lo8(5)
 6756 24d0 90E0      		ldi r25,hi8(5)
 6757 24d2 61E0      		ldi r22,lo8(1)
 6758 24d4 70E0      		ldi r23,hi8(1)
 6759 24d6 22E0      		ldi r18,lo8(2)
 6760 24d8 30E0      		ldi r19,hi8(2)
 6761 24da 0E94 0000 		call lcd_write_int_xy
 6762               	.LM894:
 6763 24de 4091 0000 		lds r20,irc
 6764 24e2 5091 0000 		lds r21,(irc)+1
 6765 24e6 83E0      		ldi r24,lo8(3)
 6766 24e8 90E0      		ldi r25,hi8(3)
 6767 24ea 60E0      		ldi r22,lo8(0)
 6768 24ec 70E0      		ldi r23,hi8(0)
 6769 24ee 25E0      		ldi r18,lo8(5)
 6770 24f0 30E0      		ldi r19,hi8(5)
 6771 24f2 0E94 0000 		call lcd_write_int_xy
 6772               	.LBB702:
 6773               	.LBB703:
 6774               	.LM895:
 6775 24f6 AC9A      		sbi 53-32,4
 6776               	.LM896:
 6777 24f8 AD9A      		sbi 53-32,5
 6778               	.LM897:
 6779 24fa AE9A      		sbi 53-32,6
 6780               	.LM898:
 6781 24fc AF9A      		sbi 53-32,7
 6782               	/* epilogue start */
 6783               	.LBE703:
 6784               	.LBE702:
 6785               	.LM899:
 6786 24fe DF91      		pop r29
 6787 2500 CF91      		pop r28
 6788               	.LVL195:
 6789 2502 1F91      		pop r17
 6790 2504 0F91      		pop r16
 6791               	.LVL196:
 6792 2506 0895      		ret
 6793               	.LFE73:
 6795               	.global	print_path
 6797               	print_path:
 6798               	.LFB76:
 6799               	.LM900:
 6800 2508 CF92      		push r12
 6801 250a DF92      		push r13
 6802 250c EF92      		push r14
 6803 250e FF92      		push r15
 6804 2510 0F93      		push r16
 6805 2512 1F93      		push r17
 6806 2514 CF93      		push r28
 6807 2516 DF93      		push r29
 6808               	/* prologue: function */
 6809               	/* frame size = 0 */
 6810               	.LM901:
 6811 2518 81E0      		ldi r24,lo8(1)
 6812 251a 60E0      		ldi r22,lo8(0)
 6813 251c 0E94 0000 		call lcd_byte
 6814 2520 00E0      		ldi r16,lo8(path_array)
 6815 2522 10E0      		ldi r17,hi8(path_array)
 6816 2524 C0E0      		ldi r28,lo8(0)
 6817 2526 D0E0      		ldi r29,hi8(0)
 6818               	.LVL197:
 6819 2528 EE24      		clr r14
 6820 252a FF24      		clr r15
 6821               	.LVL198:
 6822 252c CC24      		clr r12
 6823 252e DD24      		clr r13
 6824               	.LVL199:
 6825 2530 00C0      		rjmp .L514
 6826               	.L516:
 6827               	.LBB704:
 6828               	.LM902:
 6829 2532 F801      		movw r30,r16
 6830 2534 4081      		ld r20,Z
 6831 2536 5181      		ldd r21,Z+1
 6832 2538 CE01      		movw r24,r28
 6833 253a B701      		movw r22,r14
 6834 253c 22E0      		ldi r18,lo8(2)
 6835 253e 30E0      		ldi r19,hi8(2)
 6836 2540 0E94 0000 		call lcd_write_int_xy
 6837               	.LM903:
 6838 2544 F801      		movw r30,r16
 6839 2546 4281      		ldd r20,Z+2
 6840 2548 5381      		ldd r21,Z+3
 6841 254a CE01      		movw r24,r28
 6842 254c 0296      		adiw r24,2
 6843 254e B701      		movw r22,r14
 6844 2550 22E0      		ldi r18,lo8(2)
 6845 2552 30E0      		ldi r19,hi8(2)
 6846 2554 0E94 0000 		call lcd_write_int_xy
 6847               	.LM904:
 6848 2558 2596      		adiw r28,5
 6849               	.LM905:
 6850 255a CE30      		cpi r28,14
 6851 255c D105      		cpc r29,__zero_reg__
 6852 255e 04F0      		brlt .L515
 6853 2560 C0E0      		ldi r28,lo8(0)
 6854 2562 D0E0      		ldi r29,hi8(0)
 6855 2564 51E0      		ldi r21,lo8(1)
 6856 2566 E52E      		mov r14,r21
 6857 2568 F12C      		mov r15,__zero_reg__
 6858               	.L515:
 6859               	.LM906:
 6860 256a 0894      		sec
 6861 256c C11C      		adc r12,__zero_reg__
 6862 256e D11C      		adc r13,__zero_reg__
 6863 2570 0C5F      		subi r16,lo8(-(4))
 6864 2572 1F4F      		sbci r17,hi8(-(4))
 6865               	.L514:
 6866 2574 8091 0000 		lds r24,ipl
 6867 2578 9091 0000 		lds r25,(ipl)+1
 6868 257c 8C15      		cp r24,r12
 6869 257e 9D05      		cpc r25,r13
 6870 2580 04F4      		brge .L516
 6871               	/* epilogue start */
 6872               	.LBE704:
 6873               	.LM907:
 6874 2582 DF91      		pop r29
 6875 2584 CF91      		pop r28
 6876               	.LVL200:
 6877 2586 1F91      		pop r17
 6878 2588 0F91      		pop r16
 6879 258a FF90      		pop r15
 6880 258c EF90      		pop r14
 6881               	.LVL201:
 6882 258e DF90      		pop r13
 6883 2590 CF90      		pop r12
 6884               	.LVL202:
 6885 2592 0895      		ret
 6886               	.LFE76:
 6888               		.data
 6889               	.LC3:
 6890 0022 6D78 3A20 		.string	"mx: "
 6890      00
 6891               	.LC4:
 6892 0027 6D79 3A20 		.string	"my: "
 6892      00
 6893               	.LC5:
 6894 002c 783A 2000 		.string	"x: "
 6895               	.LC6:
 6896 0030 793A 2000 		.string	"y: "
 6897               	.LC7:
 6898 0034 5072 6573 		.string	"Press Any Key"
 6898      7320 416E 
 6898      7920 4B65 
 6898      7900 
 6899               	.LC8:
 6900 0042 5374 6F72 		.string	"Stored In EP"
 6900      6564 2049 
 6900      6E20 4550 
 6900      00
 6901               		.text
 6902               	.global	end_zone
 6904               	end_zone:
 6905               	.LFB77:
 6906               	.LM908:
 6907 2594 6F92      		push r6
 6908 2596 7F92      		push r7
 6909 2598 8F92      		push r8
 6910 259a 9F92      		push r9
 6911 259c AF92      		push r10
 6912 259e BF92      		push r11
 6913 25a0 CF92      		push r12
 6914 25a2 DF92      		push r13
 6915 25a4 EF92      		push r14
 6916 25a6 FF92      		push r15
 6917 25a8 0F93      		push r16
 6918 25aa 1F93      		push r17
 6919 25ac CF93      		push r28
 6920 25ae DF93      		push r29
 6921               	/* prologue: function */
 6922               	/* frame size = 0 */
 6923               	.LM909:
 6924 25b0 6090 0000 		lds r6,x_coordinate
 6925 25b4 7090 0000 		lds r7,(x_coordinate)+1
 6926               	.LVL203:
 6927 25b8 8090 0000 		lds r8,y_coordinate
 6928 25bc 9090 0000 		lds r9,(y_coordinate)+1
 6929               	.LVL204:
 6930               	.LM910:
 6931 25c0 86E4      		ldi r24,lo8(70)
 6932 25c2 66E4      		ldi r22,lo8(70)
 6933 25c4 44E5      		ldi r20,lo8(84)
 6934 25c6 26E4      		ldi r18,lo8(70)
 6935 25c8 0E94 0000 		call update_array
 6936               	.LM911:
 6937 25cc 81E0      		ldi r24,lo8(1)
 6938 25ce 60E0      		ldi r22,lo8(0)
 6939 25d0 0E94 0000 		call lcd_byte
 6940               	.LBB705:
 6941               	.LBB706:
 6942               	.LM912:
 6943 25d4 8FE8      		ldi r24,lo8(399)
 6944 25d6 91E0      		ldi r25,hi8(399)
 6945 25d8 9BBD      		out (74)+1-32,r25
 6946 25da 8ABD      		out 74-32,r24
 6947               	.LBE706:
 6948               	.LBE705:
 6949               	.LBB707:
 6950               	.LBB708:
 6951               	.LM913:
 6952 25dc 99BD      		out (72)+1-32,r25
 6953 25de 88BD      		out 72-32,r24
 6954               	.LBE708:
 6955               	.LBE707:
 6956               	.LBB709:
 6957               	.LBB710:
 6958               	.LM914:
 6959 25e0 AC9A      		sbi 53-32,4
 6960               	.LM915:
 6961 25e2 AD9A      		sbi 53-32,5
 6962               	.LM916:
 6963 25e4 AE9A      		sbi 53-32,6
 6964               	.LM917:
 6965 25e6 AF9A      		sbi 53-32,7
 6966               	.LBE710:
 6967               	.LBE709:
 6968               	.LM918:
 6969 25e8 0E94 0000 		call flick
 6970               	.LM919:
 6971 25ec 87E0      		ldi r24,lo8(7)
 6972 25ee 90E0      		ldi r25,hi8(7)
 6973 25f0 67E0      		ldi r22,lo8(7)
 6974 25f2 70E0      		ldi r23,hi8(7)
 6975 25f4 A301      		movw r20,r6
 6976 25f6 9401      		movw r18,r8
 6977 25f8 0E94 0000 		call build_map
 6978               	.LM920:
 6979 25fc A090 0000 		lds r10,x_coordinate
 6980 2600 B090 0000 		lds r11,(x_coordinate)+1
 6981               	.LVL205:
 6982 2604 C090 0000 		lds r12,y_coordinate
 6983 2608 D090 0000 		lds r13,(y_coordinate)+1
 6984               	.LVL206:
 6985               	.LM921:
 6986 260c 87E0      		ldi r24,lo8(7)
 6987 260e 90E0      		ldi r25,hi8(7)
 6988 2610 9093 0000 		sts (x_coordinate)+1,r25
 6989 2614 8093 0000 		sts x_coordinate,r24
 6990               	.LM922:
 6991 2618 9093 0000 		sts (y_coordinate)+1,r25
 6992 261c 8093 0000 		sts y_coordinate,r24
 6993               	.LM923:
 6994 2620 0E94 0000 		call get_path
 6995 2624 60E0      		ldi r22,lo8(path_array)
 6996 2626 E62E      		mov r14,r22
 6997 2628 60E0      		ldi r22,hi8(path_array)
 6998 262a F62E      		mov r15,r22
 6999 262c 8701      		movw r16,r14
 7000 262e C0E0      		ldi r28,lo8(0)
 7001 2630 D0E0      		ldi r29,hi8(0)
 7002               	.L519:
 7003               	.LBB711:
 7004               	.LM924:
 7005 2632 F801      		movw r30,r16
 7006 2634 6081      		ld r22,Z
 7007 2636 7181      		ldd r23,Z+1
 7008 2638 CE01      		movw r24,r28
 7009 263a 0E94 0000 		call __eewr_word_m32
 7010               	.LM925:
 7011 263e F801      		movw r30,r16
 7012 2640 6281      		ldd r22,Z+2
 7013 2642 7381      		ldd r23,Z+3
 7014 2644 CE01      		movw r24,r28
 7015 2646 0296      		adiw r24,2
 7016 2648 0E94 0000 		call __eewr_word_m32
 7017 264c 0C5F      		subi r16,lo8(-(4))
 7018 264e 1F4F      		sbci r17,hi8(-(4))
 7019 2650 2496      		adiw r28,4
 7020               	.LM926:
 7021 2652 CC33      		cpi r28,60
 7022 2654 D105      		cpc r29,__zero_reg__
 7023 2656 01F4      		brne .L519
 7024               	.LBE711:
 7025               	.LM927:
 7026 2658 B092 0000 		sts (x_coordinate)+1,r11
 7027 265c A092 0000 		sts x_coordinate,r10
 7028               	.LM928:
 7029 2660 D092 0000 		sts (y_coordinate)+1,r13
 7030 2664 C092 0000 		sts y_coordinate,r12
 7031               	.LM929:
 7032 2668 0E94 0000 		call end_zone_uturn
 7033               	.LM930:
 7034 266c 0E94 0000 		call sense_of_directon
 7035               	.LM931:
 7036 2670 0E94 0000 		call fill_missed_array
 7037               	.LM932:
 7038 2674 0E94 0000 		call coordinates_tobe_reached
 7039               	.LM933:
 7040 2678 81E0      		ldi r24,lo8(1)
 7041 267a 60E0      		ldi r22,lo8(0)
 7042 267c 0E94 0000 		call lcd_byte
 7043               	.LM934:
 7044 2680 80E0      		ldi r24,lo8(0)
 7045 2682 90E0      		ldi r25,hi8(0)
 7046 2684 60E0      		ldi r22,lo8(0)
 7047 2686 70E0      		ldi r23,hi8(0)
 7048 2688 40E0      		ldi r20,lo8(.LC3)
 7049 268a 50E0      		ldi r21,hi8(.LC3)
 7050 268c 0E94 0000 		call lcd_write_string_xy
 7051               	.LM935:
 7052 2690 4091 0000 		lds r20,mx
 7053 2694 5091 0000 		lds r21,(mx)+1
 7054 2698 84E0      		ldi r24,lo8(4)
 7055 269a 90E0      		ldi r25,hi8(4)
 7056 269c 60E0      		ldi r22,lo8(0)
 7057 269e 70E0      		ldi r23,hi8(0)
 7058 26a0 22E0      		ldi r18,lo8(2)
 7059 26a2 30E0      		ldi r19,hi8(2)
 7060 26a4 0E94 0000 		call lcd_write_int_xy
 7061               	.LM936:
 7062 26a8 87E0      		ldi r24,lo8(7)
 7063 26aa 90E0      		ldi r25,hi8(7)
 7064 26ac 60E0      		ldi r22,lo8(0)
 7065 26ae 70E0      		ldi r23,hi8(0)
 7066 26b0 40E0      		ldi r20,lo8(.LC4)
 7067 26b2 50E0      		ldi r21,hi8(.LC4)
 7068 26b4 0E94 0000 		call lcd_write_string_xy
 7069               	.LM937:
 7070 26b8 4091 0000 		lds r20,my
 7071 26bc 5091 0000 		lds r21,(my)+1
 7072 26c0 8BE0      		ldi r24,lo8(11)
 7073 26c2 90E0      		ldi r25,hi8(11)
 7074 26c4 60E0      		ldi r22,lo8(0)
 7075 26c6 70E0      		ldi r23,hi8(0)
 7076 26c8 22E0      		ldi r18,lo8(2)
 7077 26ca 30E0      		ldi r19,hi8(2)
 7078 26cc 0E94 0000 		call lcd_write_int_xy
 7079               	.LM938:
 7080 26d0 80E0      		ldi r24,lo8(0)
 7081 26d2 90E0      		ldi r25,hi8(0)
 7082 26d4 61E0      		ldi r22,lo8(1)
 7083 26d6 70E0      		ldi r23,hi8(1)
 7084 26d8 40E0      		ldi r20,lo8(.LC5)
 7085 26da 50E0      		ldi r21,hi8(.LC5)
 7086 26dc 0E94 0000 		call lcd_write_string_xy
 7087               	.LM939:
 7088 26e0 4091 0000 		lds r20,x_coordinate
 7089 26e4 5091 0000 		lds r21,(x_coordinate)+1
 7090 26e8 84E0      		ldi r24,lo8(4)
 7091 26ea 90E0      		ldi r25,hi8(4)
 7092 26ec 61E0      		ldi r22,lo8(1)
 7093 26ee 70E0      		ldi r23,hi8(1)
 7094 26f0 22E0      		ldi r18,lo8(2)
 7095 26f2 30E0      		ldi r19,hi8(2)
 7096 26f4 0E94 0000 		call lcd_write_int_xy
 7097               	.LM940:
 7098 26f8 87E0      		ldi r24,lo8(7)
 7099 26fa 90E0      		ldi r25,hi8(7)
 7100 26fc 61E0      		ldi r22,lo8(1)
 7101 26fe 70E0      		ldi r23,hi8(1)
 7102 2700 40E0      		ldi r20,lo8(.LC6)
 7103 2702 50E0      		ldi r21,hi8(.LC6)
 7104 2704 0E94 0000 		call lcd_write_string_xy
 7105               	.LM941:
 7106 2708 4091 0000 		lds r20,y_coordinate
 7107 270c 5091 0000 		lds r21,(y_coordinate)+1
 7108 2710 8BE0      		ldi r24,lo8(11)
 7109 2712 90E0      		ldi r25,hi8(11)
 7110 2714 61E0      		ldi r22,lo8(1)
 7111 2716 70E0      		ldi r23,hi8(1)
 7112 2718 22E0      		ldi r18,lo8(2)
 7113 271a 30E0      		ldi r19,hi8(2)
 7114 271c 0E94 0000 		call lcd_write_int_xy
 7115               	.LM942:
 7116 2720 8091 0000 		lds r24,mx
 7117 2724 9091 0000 		lds r25,(mx)+1
 7118 2728 892B      		or r24,r25
 7119 272a 01F0      		breq .L520
 7120 272c 8091 0000 		lds r24,my
 7121 2730 9091 0000 		lds r25,(my)+1
 7122 2734 892B      		or r24,r25
 7123 2736 01F0      		breq .L520
 7124               	.LM943:
 7125 2738 0E94 0000 		call map_all
 7126               	.L520:
 7127               	.LM944:
 7128 273c 87E0      		ldi r24,lo8(7)
 7129 273e 90E0      		ldi r25,hi8(7)
 7130 2740 9093 0000 		sts (x_coordinate)+1,r25
 7131 2744 8093 0000 		sts x_coordinate,r24
 7132               	.LM945:
 7133 2748 9093 0000 		sts (y_coordinate)+1,r25
 7134 274c 8093 0000 		sts y_coordinate,r24
 7135               	.LM946:
 7136 2750 82E0      		ldi r24,lo8(2)
 7137 2752 90E0      		ldi r25,hi8(2)
 7138 2754 9093 0000 		sts (dir)+1,r25
 7139 2758 8093 0000 		sts dir,r24
 7140               	.LM947:
 7141 275c 80E0      		ldi r24,lo8(.LC7)
 7142 275e 90E0      		ldi r25,hi8(.LC7)
 7143 2760 0E94 0000 		call lcd_write_string
 7144               	.L528:
 7145               	.LBB712:
 7146               	.LBB713:
 7147               	.LM948:
 7148 2764 8299      		sbic 48-32,2
 7149 2766 00C0      		rjmp .L521
 7150               	.L527:
 7151               	.LBE713:
 7152               	.LBE712:
 7153               	.LBB714:
 7154               	.LM949:
 7155 2768 87E0      		ldi r24,lo8(7)
 7156 276a 90E0      		ldi r25,hi8(7)
 7157 276c 67E0      		ldi r22,lo8(7)
 7158 276e 70E0      		ldi r23,hi8(7)
 7159 2770 A301      		movw r20,r6
 7160 2772 9401      		movw r18,r8
 7161 2774 0E94 0000 		call build_map
 7162               	.LM950:
 7163 2778 0E94 0000 		call get_path
 7164 277c 00E0      		ldi r16,lo8(path_array)
 7165 277e 10E0      		ldi r17,hi8(path_array)
 7166 2780 C0E0      		ldi r28,lo8(0)
 7167 2782 D0E0      		ldi r29,hi8(0)
 7168               	.L522:
 7169               	.LBB722:
 7170               	.LM951:
 7171 2784 F801      		movw r30,r16
 7172 2786 6081      		ld r22,Z
 7173 2788 7181      		ldd r23,Z+1
 7174 278a CE01      		movw r24,r28
 7175 278c 0E94 0000 		call __eewr_word_m32
 7176               	.LM952:
 7177 2790 F801      		movw r30,r16
 7178 2792 6281      		ldd r22,Z+2
 7179 2794 7381      		ldd r23,Z+3
 7180 2796 CE01      		movw r24,r28
 7181 2798 0296      		adiw r24,2
 7182 279a 0E94 0000 		call __eewr_word_m32
 7183 279e 0C5F      		subi r16,lo8(-(4))
 7184 27a0 1F4F      		sbci r17,hi8(-(4))
 7185 27a2 2496      		adiw r28,4
 7186               	.LM953:
 7187 27a4 CC33      		cpi r28,60
 7188 27a6 D105      		cpc r29,__zero_reg__
 7189 27a8 01F4      		brne .L522
 7190               	.LBE722:
 7191               	.LM954:
 7192 27aa 81E0      		ldi r24,lo8(1)
 7193 27ac 60E0      		ldi r22,lo8(0)
 7194 27ae 0E94 0000 		call lcd_byte
 7195               	.LM955:
 7196 27b2 80E0      		ldi r24,lo8(.LC8)
 7197 27b4 90E0      		ldi r25,hi8(.LC8)
 7198 27b6 0E94 0000 		call lcd_write_string
 7199               	.LM956:
 7200 27ba 81E0      		ldi r24,lo8(1)
 7201 27bc 90E0      		ldi r25,hi8(1)
 7202 27be 0E94 0000 		call delay_sec
 7203               	.LM957:
 7204 27c2 1092 0000 		sts (right)+1,__zero_reg__
 7205 27c6 1092 0000 		sts right,__zero_reg__
 7206               	.LM958:
 7207 27ca 0E94 0000 		call print_path
 7208               	.LBB720:
 7209               	.LBB721:
 7210               	.LM959:
 7211 27ce AC9A      		sbi 53-32,4
 7212               	.LM960:
 7213 27d0 AD9A      		sbi 53-32,5
 7214               	.LM961:
 7215 27d2 AE9A      		sbi 53-32,6
 7216               	.LM962:
 7217 27d4 AF9A      		sbi 53-32,7
 7218               	.L530:
 7219               	.LBE721:
 7220               	.LBE720:
 7221               	.LBB718:
 7222               	.LBB719:
 7223               	.LM963:
 7224 27d6 8299      		sbic 48-32,2
 7225 27d8 00C0      		rjmp .L523
 7226               	.L529:
 7227               	.LBE719:
 7228               	.LBE718:
 7229               	.LM964:
 7230 27da 81E0      		ldi r24,lo8(1)
 7231 27dc 60E0      		ldi r22,lo8(0)
 7232 27de 0E94 0000 		call lcd_byte
 7233               	.LM965:
 7234 27e2 81E0      		ldi r24,lo8(1)
 7235 27e4 90E0      		ldi r25,hi8(1)
 7236 27e6 0E94 0000 		call delay_sec
 7237               	.L526:
 7238               	.LBB717:
 7239               	.LM966:
 7240 27ea F701      		movw r30,r14
 7241 27ec 2081      		ld r18,Z
 7242 27ee 3181      		ldd r19,Z+1
 7243 27f0 2115      		cp r18,__zero_reg__
 7244 27f2 3105      		cpc r19,__zero_reg__
 7245 27f4 01F4      		brne .L524
 7246 27f6 8281      		ldd r24,Z+2
 7247 27f8 9381      		ldd r25,Z+3
 7248 27fa 892B      		or r24,r25
 7249 27fc 01F0      		breq .L535
 7250               	.L524:
 7251               	.LM967:
 7252 27fe F701      		movw r30,r14
 7253 2800 6281      		ldd r22,Z+2
 7254 2802 7381      		ldd r23,Z+3
 7255 2804 C901      		movw r24,r18
 7256 2806 0E94 0000 		call go_to_coordinate
 7257 280a 84E0      		ldi r24,lo8(4)
 7258 280c 90E0      		ldi r25,hi8(4)
 7259 280e E80E      		add r14,r24
 7260 2810 F91E      		adc r15,r25
 7261               	.LM968:
 7262 2812 90E0      		ldi r25,lo8(path_array+60)
 7263 2814 E916      		cp r14,r25
 7264 2816 90E0      		ldi r25,hi8(path_array+60)
 7265 2818 F906      		cpc r15,r25
 7266 281a 01F4      		brne .L526
 7267               	.L535:
 7268               	.LBE717:
 7269               	.LBB715:
 7270               	.LBB716:
 7271               	.LM969:
 7272 281c AC98      		cbi 53-32,4
 7273               	.LM970:
 7274 281e AD98      		cbi 53-32,5
 7275               	.LM971:
 7276 2820 AE98      		cbi 53-32,6
 7277               	.LM972:
 7278 2822 AF98      		cbi 53-32,7
 7279               	.LBE716:
 7280               	.LBE715:
 7281               	.LM973:
 7282 2824 0E94 0000 		call flick
 7283 2828 00C0      		rjmp .L535
 7284               	.L521:
 7285               	.LBE714:
 7286               	.LBB729:
 7287               	.LBB730:
 7288               	.LM974:
 7289 282a 809B      		sbis 48-32,0
 7290 282c 00C0      		rjmp .L527
 7291               	.LBE730:
 7292               	.LBE729:
 7293               	.LBB731:
 7294               	.LBB732:
 7295               	.LM975:
 7296 282e 819B      		sbis 48-32,1
 7297 2830 00C0      		rjmp .L527
 7298               	.LBE732:
 7299               	.LBE731:
 7300               	.LBB733:
 7301               	.LBB734:
 7302               	.LM976:
 7303 2832 839B      		sbis 48-32,3
 7304 2834 00C0      		rjmp .L527
 7305 2836 00C0      		rjmp .L528
 7306               	.L523:
 7307               	.LBE734:
 7308               	.LBE733:
 7309               	.LBB735:
 7310               	.LBB723:
 7311               	.LBB724:
 7312               	.LM977:
 7313 2838 809B      		sbis 48-32,0
 7314 283a 00C0      		rjmp .L529
 7315               	.LBE724:
 7316               	.LBE723:
 7317               	.LBB725:
 7318               	.LBB726:
 7319               	.LM978:
 7320 283c 819B      		sbis 48-32,1
 7321 283e 00C0      		rjmp .L529
 7322               	.LBE726:
 7323               	.LBE725:
 7324               	.LBB727:
 7325               	.LBB728:
 7326               	.LM979:
 7327 2840 839B      		sbis 48-32,3
 7328 2842 00C0      		rjmp .L529
 7329 2844 00C0      		rjmp .L530
 7330               	.LBE728:
 7331               	.LBE727:
 7332               	.LBE735:
 7333               	.LFE77:
 7335               		.data
 7336               	.LC9:
 7337 004f 2B20 4465 		.string	"+ Detected"
 7337      7465 6374 
 7337      6564 00
 7338               	.LC10:
 7339 005a 5454 5446 		.string	"TTTF"
 7339      00
 7340               	.LC11:
 7341 005f 5420 4465 		.string	"T Detected"
 7341      7465 6374 
 7341      6564 00
 7342               	.LC12:
 7343 006a 4654 5454 		.string	"FTTT"
 7343      00
 7344               	.LC13:
 7345 006f 4C20 4465 		.string	"L Detected"
 7345      7465 6374 
 7345      6564 00
 7346               	.LC14:
 7347 007a 4654 5446 		.string	"FTTF"
 7347      00
 7348               	.LC15:
 7349 007f 7C2D 2044 		.string	"|- Detected"
 7349      6574 6563 
 7349      7465 6400 
 7350               		.text
 7351               	.global	right_junc_check
 7353               	right_junc_check:
 7354               	.LFB61:
 7355               	.LM980:
 7356               	/* prologue: function */
 7357               	/* frame size = 0 */
 7358               	.LBB736:
 7359               	.LBB737:
 7360               	.LM981:
 7361 2846 8FE8      		ldi r24,lo8(399)
 7362 2848 91E0      		ldi r25,hi8(399)
 7363 284a 9BBD      		out (74)+1-32,r25
 7364 284c 8ABD      		out 74-32,r24
 7365               	.LBE737:
 7366               	.LBE736:
 7367               	.LBB738:
 7368               	.LBB739:
 7369               	.LM982:
 7370 284e 99BD      		out (72)+1-32,r25
 7371 2850 88BD      		out 72-32,r24
 7372               	.LBE739:
 7373               	.LBE738:
 7374               	.LBB740:
 7375               	.LBB741:
 7376               	.LM983:
 7377 2852 AC9A      		sbi 53-32,4
 7378               	.LM984:
 7379 2854 AD9A      		sbi 53-32,5
 7380               	.LM985:
 7381 2856 AE9A      		sbi 53-32,6
 7382               	.LM986:
 7383 2858 AF9A      		sbi 53-32,7
 7384               	.LBE741:
 7385               	.LBE740:
 7386               	.LM987:
 7387 285a 81E0      		ldi r24,lo8(1)
 7388 285c 60E0      		ldi r22,lo8(0)
 7389 285e 0E94 0000 		call lcd_byte
 7390               	.LM988:
 7391 2862 2091 0000 		lds r18,irc
 7392 2866 3091 0000 		lds r19,(irc)+1
 7393 286a 87E0      		ldi r24,hi8(2001)
 7394 286c 213D      		cpi r18,lo8(2001)
 7395 286e 3807      		cpc r19,r24
 7396 2870 04F0      		brlt .L537
 7397               	.LM989:
 7398 2872 215A      		subi r18,lo8(4001)
 7399 2874 3F40      		sbci r19,hi8(4001)
 7400 2876 04F0      		brlt .L538
 7401               	.LM990:
 7402 2878 83E0      		ldi r24,lo8(3)
 7403 287a 90E0      		ldi r25,hi8(3)
 7404 287c 00C0      		rjmp .L552
 7405               	.L538:
 7406               	.LM991:
 7407 287e 82E0      		ldi r24,lo8(2)
 7408 2880 90E0      		ldi r25,hi8(2)
 7409               	.L552:
 7410 2882 9093 0000 		sts (Coordinates_changed_by)+1,r25
 7411 2886 8093 0000 		sts Coordinates_changed_by,r24
 7412 288a 00C0      		rjmp .L539
 7413               	.L537:
 7414               	.LM992:
 7415 288c 81E0      		ldi r24,lo8(1)
 7416 288e 90E0      		ldi r25,hi8(1)
 7417 2890 9093 0000 		sts (Coordinates_changed_by)+1,r25
 7418 2894 8093 0000 		sts Coordinates_changed_by,r24
 7419               	.LM993:
 7420 2898 232B      		or r18,r19
 7421 289a 01F4      		brne .L539
 7422               	.LM994:
 7423 289c 1092 0000 		sts (Coordinates_changed_by)+1,__zero_reg__
 7424 28a0 1092 0000 		sts Coordinates_changed_by,__zero_reg__
 7425               	.L539:
 7426               	.LM995:
 7427 28a4 0E94 0000 		call update_coordinates
 7428               	.LM996:
 7429 28a8 8091 0000 		lds r24,lcount
 7430 28ac 9091 0000 		lds r25,(lcount)+1
 7431 28b0 9093 0000 		sts (lcountPrev)+1,r25
 7432 28b4 8093 0000 		sts lcountPrev,r24
 7433 28b8 00C0      		rjmp .L540
 7434               	.L541:
 7435               	.LM997:
 7436 28ba 0E94 0000 		call line_track_new
 7437               	.LM998:
 7438 28be 0E94 0000 		call left_count
 7439               	.L540:
 7440               	.LM999:
 7441 28c2 8799      		sbic 48-32,7
 7442 28c4 00C0      		rjmp .L541
 7443               	.LM1000:
 7444 28c6 CE99      		sbic 57-32,6
 7445 28c8 00C0      		rjmp .L542
 7446 28ca 8699      		sbic 48-32,6
 7447 28cc 00C0      		rjmp .L542
 7448 28ce CD99      		sbic 57-32,5
 7449 28d0 00C0      		rjmp .L542
 7450 28d2 CF99      		sbic 57-32,7
 7451 28d4 00C0      		rjmp .L542
 7452               	.LM1001:
 7453 28d6 0E94 0000 		call end_zone
 7454               	.L542:
 7455               	.LBB742:
 7456               	.LBB743:
 7457               	.LM1002:
 7458 28da 8FE8      		ldi r24,lo8(399)
 7459 28dc 91E0      		ldi r25,hi8(399)
 7460 28de 9BBD      		out (74)+1-32,r25
 7461 28e0 8ABD      		out 74-32,r24
 7462               	.LBE743:
 7463               	.LBE742:
 7464               	.LBB744:
 7465               	.LBB745:
 7466               	.LM1003:
 7467 28e2 99BD      		out (72)+1-32,r25
 7468 28e4 88BD      		out 72-32,r24
 7469               	.LBE745:
 7470               	.LBE744:
 7471               	.LBB746:
 7472               	.LBB747:
 7473               	.LM1004:
 7474 28e6 AC9A      		sbi 53-32,4
 7475               	.LM1005:
 7476 28e8 AD9A      		sbi 53-32,5
 7477               	.LM1006:
 7478 28ea AE9A      		sbi 53-32,6
 7479               	.LM1007:
 7480 28ec AF9A      		sbi 53-32,7
 7481               	.LBE747:
 7482               	.LBE746:
 7483               	.LM1008:
 7484 28ee 81E0      		ldi r24,lo8(1)
 7485 28f0 60E0      		ldi r22,lo8(0)
 7486 28f2 0E94 0000 		call lcd_byte
 7487               	.LM1009:
 7488 28f6 4091 0000 		lds r20,lcount
 7489 28fa 5091 0000 		lds r21,(lcount)+1
 7490 28fe 80E0      		ldi r24,lo8(0)
 7491 2900 90E0      		ldi r25,hi8(0)
 7492 2902 60E0      		ldi r22,lo8(0)
 7493 2904 70E0      		ldi r23,hi8(0)
 7494 2906 21E0      		ldi r18,lo8(1)
 7495 2908 30E0      		ldi r19,hi8(1)
 7496 290a 0E94 0000 		call lcd_write_int_xy
 7497               	.LM1010:
 7498 290e 8091 0000 		lds r24,repeat
 7499 2912 9091 0000 		lds r25,(repeat)+1
 7500 2916 0397      		sbiw r24,3
 7501 2918 04F0      		brlt .+2
 7502 291a 00C0      		rjmp .L551
 7503               	.LM1011:
 7504 291c CE9B      		sbis 57-32,6
 7505 291e 00C0      		rjmp .L544
 7506 2920 8699      		sbic 48-32,6
 7507 2922 00C0      		rjmp .L545
 7508               	.L544:
 7509               	.LM1012:
 7510 2924 81E0      		ldi r24,lo8(1)
 7511 2926 90E0      		ldi r25,hi8(1)
 7512 2928 9093 0000 		sts (straight)+1,r25
 7513 292c 8093 0000 		sts straight,r24
 7514 2930 00C0      		rjmp .L546
 7515               	.L545:
 7516               	.LM1013:
 7517 2932 1092 0000 		sts (straight)+1,__zero_reg__
 7518 2936 1092 0000 		sts straight,__zero_reg__
 7519               	.L546:
 7520               	.LM1014:
 7521 293a 0E94 0000 		call turn_right
 7522               	.LM1015:
 7523 293e 1092 0000 		sts (l)+1,__zero_reg__
 7524 2942 1092 0000 		sts l,__zero_reg__
 7525               	.LBB748:
 7526               	.LBB749:
 7527               	.LM1016:
 7528 2946 AC9A      		sbi 53-32,4
 7529               	.LM1017:
 7530 2948 AD9A      		sbi 53-32,5
 7531               	.LM1018:
 7532 294a AE9A      		sbi 53-32,6
 7533               	.LM1019:
 7534 294c AF9A      		sbi 53-32,7
 7535               	.LBE749:
 7536               	.LBE748:
 7537               	.LM1020:
 7538 294e 1092 0000 		sts (flag1)+1,__zero_reg__
 7539 2952 1092 0000 		sts flag1,__zero_reg__
 7540               	.LM1021:
 7541 2956 1092 0000 		sts (irc)+1,__zero_reg__
 7542 295a 1092 0000 		sts irc,__zero_reg__
 7543               	.LM1022:
 7544 295e 2091 0000 		lds r18,lcount
 7545 2962 3091 0000 		lds r19,(lcount)+1
 7546 2966 8091 0000 		lds r24,lcountPrev
 7547 296a 9091 0000 		lds r25,(lcountPrev)+1
 7548 296e 281B      		sub r18,r24
 7549 2970 390B      		sbc r19,r25
 7550 2972 3093 0000 		sts (temp)+1,r19
 7551 2976 2093 0000 		sts temp,r18
 7552               	.LM1023:
 7553 297a 8091 0000 		lds r24,straight
 7554 297e 9091 0000 		lds r25,(straight)+1
 7555 2982 8130      		cpi r24,1
 7556 2984 9105      		cpc r25,__zero_reg__
 7557 2986 01F4      		brne .L547
 7558 2988 1216      		cp __zero_reg__,r18
 7559 298a 1306      		cpc __zero_reg__,r19
 7560 298c 04F0      		brlt .+2
 7561 298e 00C0      		rjmp .L548
 7562               	.LM1024:
 7563 2990 80E0      		ldi r24,lo8(0)
 7564 2992 90E0      		ldi r25,hi8(0)
 7565 2994 61E0      		ldi r22,lo8(1)
 7566 2996 70E0      		ldi r23,hi8(1)
 7567 2998 40E0      		ldi r20,lo8(.LC9)
 7568 299a 50E0      		ldi r21,hi8(.LC9)
 7569 299c 0E94 0000 		call lcd_write_string_xy
 7570               	.LM1025:
 7571 29a0 84E5      		ldi r24,lo8(84)
 7572 29a2 90E0      		ldi r25,hi8(84)
 7573 29a4 64E5      		ldi r22,lo8(84)
 7574 29a6 70E0      		ldi r23,hi8(84)
 7575 29a8 44E5      		ldi r20,lo8(84)
 7576 29aa 50E0      		ldi r21,hi8(84)
 7577 29ac 24E5      		ldi r18,lo8(84)
 7578 29ae 30E0      		ldi r19,hi8(84)
 7579 29b0 00C0      		rjmp .L553
 7580               	.L547:
 7581               	.LM1026:
 7582 29b2 892B      		or r24,r25
 7583 29b4 01F0      		breq .+2
 7584 29b6 00C0      		rjmp .L549
 7585 29b8 1216      		cp __zero_reg__,r18
 7586 29ba 1306      		cpc __zero_reg__,r19
 7587 29bc 04F4      		brge .L550
 7588               	.LM1027:
 7589 29be 80E0      		ldi r24,lo8(0)
 7590 29c0 90E0      		ldi r25,hi8(0)
 7591 29c2 61E0      		ldi r22,lo8(1)
 7592 29c4 70E0      		ldi r23,hi8(1)
 7593 29c6 40E0      		ldi r20,lo8(.LC11)
 7594 29c8 50E0      		ldi r21,hi8(.LC11)
 7595 29ca 0E94 0000 		call lcd_write_string_xy
 7596               	.LM1028:
 7597 29ce 86E4      		ldi r24,lo8(70)
 7598 29d0 90E0      		ldi r25,hi8(70)
 7599 29d2 64E5      		ldi r22,lo8(84)
 7600 29d4 70E0      		ldi r23,hi8(84)
 7601 29d6 44E5      		ldi r20,lo8(84)
 7602 29d8 50E0      		ldi r21,hi8(84)
 7603 29da 24E5      		ldi r18,lo8(84)
 7604 29dc 30E0      		ldi r19,hi8(84)
 7605 29de 0E94 0000 		call update_array
 7606               	.LM1029:
 7607 29e2 84E0      		ldi r24,lo8(4)
 7608 29e4 90E0      		ldi r25,hi8(4)
 7609 29e6 60E0      		ldi r22,lo8(0)
 7610 29e8 70E0      		ldi r23,hi8(0)
 7611 29ea 40E0      		ldi r20,lo8(.LC12)
 7612 29ec 50E0      		ldi r21,hi8(.LC12)
 7613 29ee 00C0      		rjmp .L554
 7614               	.L550:
 7615               	.LM1030:
 7616 29f0 232B      		or r18,r19
 7617 29f2 01F4      		brne .L549
 7618               	.LM1031:
 7619 29f4 80E0      		ldi r24,lo8(0)
 7620 29f6 90E0      		ldi r25,hi8(0)
 7621 29f8 61E0      		ldi r22,lo8(1)
 7622 29fa 70E0      		ldi r23,hi8(1)
 7623 29fc 40E0      		ldi r20,lo8(.LC13)
 7624 29fe 50E0      		ldi r21,hi8(.LC13)
 7625 2a00 0E94 0000 		call lcd_write_string_xy
 7626               	.LM1032:
 7627 2a04 86E4      		ldi r24,lo8(70)
 7628 2a06 90E0      		ldi r25,hi8(70)
 7629 2a08 64E5      		ldi r22,lo8(84)
 7630 2a0a 70E0      		ldi r23,hi8(84)
 7631 2a0c 44E5      		ldi r20,lo8(84)
 7632 2a0e 50E0      		ldi r21,hi8(84)
 7633 2a10 26E4      		ldi r18,lo8(70)
 7634 2a12 30E0      		ldi r19,hi8(70)
 7635 2a14 0E94 0000 		call update_array
 7636               	.LM1033:
 7637 2a18 84E0      		ldi r24,lo8(4)
 7638 2a1a 90E0      		ldi r25,hi8(4)
 7639 2a1c 60E0      		ldi r22,lo8(0)
 7640 2a1e 70E0      		ldi r23,hi8(0)
 7641 2a20 40E0      		ldi r20,lo8(.LC14)
 7642 2a22 50E0      		ldi r21,hi8(.LC14)
 7643 2a24 00C0      		rjmp .L554
 7644               	.L548:
 7645               	.LM1034:
 7646 2a26 232B      		or r18,r19
 7647 2a28 01F4      		brne .L549
 7648               	.LM1035:
 7649 2a2a 80E0      		ldi r24,lo8(0)
 7650 2a2c 90E0      		ldi r25,hi8(0)
 7651 2a2e 61E0      		ldi r22,lo8(1)
 7652 2a30 70E0      		ldi r23,hi8(1)
 7653 2a32 40E0      		ldi r20,lo8(.LC15)
 7654 2a34 50E0      		ldi r21,hi8(.LC15)
 7655 2a36 0E94 0000 		call lcd_write_string_xy
 7656               	.LM1036:
 7657 2a3a 84E5      		ldi r24,lo8(84)
 7658 2a3c 90E0      		ldi r25,hi8(84)
 7659 2a3e 64E5      		ldi r22,lo8(84)
 7660 2a40 70E0      		ldi r23,hi8(84)
 7661 2a42 44E5      		ldi r20,lo8(84)
 7662 2a44 50E0      		ldi r21,hi8(84)
 7663 2a46 26E4      		ldi r18,lo8(70)
 7664 2a48 30E0      		ldi r19,hi8(70)
 7665               	.L553:
 7666 2a4a 0E94 0000 		call update_array
 7667               	.LM1037:
 7668 2a4e 84E0      		ldi r24,lo8(4)
 7669 2a50 90E0      		ldi r25,hi8(4)
 7670 2a52 60E0      		ldi r22,lo8(0)
 7671 2a54 70E0      		ldi r23,hi8(0)
 7672 2a56 40E0      		ldi r20,lo8(.LC10)
 7673 2a58 50E0      		ldi r21,hi8(.LC10)
 7674               	.L554:
 7675 2a5a 0E94 0000 		call lcd_write_string_xy
 7676               	.L549:
 7677               	.LM1038:
 7678 2a5e 1092 0000 		sts (temp)+1,__zero_reg__
 7679 2a62 1092 0000 		sts temp,__zero_reg__
 7680               	.LM1039:
 7681 2a66 0E94 0000 		call sense_of_directon
 7682               	.L551:
 7683 2a6a 0895      		ret
 7684               	.LFE61:
 7686               		.data
 7687               	.LC16:
 7688 008b 4433 2066 		.string	"D3 for dry run"
 7688      6F72 2064 
 7688      7279 2072 
 7688      756E 00
 7689               	.LC17:
 7690 009a 4430 2066 		.string	"D0 for Stst path"
 7690      6F72 2053 
 7690      7473 7420 
 7690      7061 7468 
 7690      00
 7691               		.text
 7692               	.global	main
 7694               	main:
 7695               	.LFB78:
 7696               	.LM1040:
 7697 2a6c EF92      		push r14
 7698 2a6e FF92      		push r15
 7699 2a70 0F93      		push r16
 7700 2a72 1F93      		push r17
 7701 2a74 CF93      		push r28
 7702 2a76 DF93      		push r29
 7703               	/* prologue: function */
 7704               	/* frame size = 0 */
 7705               	.LM1041:
 7706 2a78 0E94 0000 		call init_devices
 7707               	.LM1042:
 7708 2a7c 81E0      		ldi r24,lo8(1)
 7709 2a7e 60E0      		ldi r22,lo8(0)
 7710 2a80 0E94 0000 		call lcd_byte
 7711 2a84 20E0      		ldi r18,lo8(0)
 7712 2a86 30E0      		ldi r19,hi8(0)
 7713               	.LVL207:
 7714               	.LM1043:
 7715 2a88 46E4      		ldi r20,lo8(70)
 7716 2a8a 00C0      		rjmp .L556
 7717               	.LVL208:
 7718               	.L557:
 7719 2a8c 4083      		st Z,r20
 7720 2a8e 4183      		std Z+1,r20
 7721 2a90 4283      		std Z+2,r20
 7722 2a92 4383      		std Z+3,r20
 7723               	.LM1044:
 7724 2a94 0196      		adiw r24,1
 7725 2a96 3496      		adiw r30,4
 7726 2a98 8031      		cpi r24,16
 7727 2a9a 9105      		cpc r25,__zero_reg__
 7728 2a9c 01F4      		brne .L557
 7729               	.LM1045:
 7730 2a9e 2F5F      		subi r18,lo8(-(1))
 7731 2aa0 3F4F      		sbci r19,hi8(-(1))
 7732 2aa2 2031      		cpi r18,16
 7733 2aa4 3105      		cpc r19,__zero_reg__
 7734 2aa6 01F0      		breq .L558
 7735               	.L556:
 7736 2aa8 F901      		movw r30,r18
 7737 2aaa 66E0      		ldi r22,6
 7738 2aac EE0F      	1:	lsl r30
 7739 2aae FF1F      		rol r31
 7740 2ab0 6A95      		dec r22
 7741 2ab2 01F4      		brne 1b
 7742 2ab4 E050      		subi r30,lo8(-(dir_array))
 7743 2ab6 F040      		sbci r31,hi8(-(dir_array))
 7744 2ab8 80E0      		ldi r24,lo8(0)
 7745 2aba 90E0      		ldi r25,hi8(0)
 7746 2abc 00C0      		rjmp .L557
 7747               	.L558:
 7748               	.LM1046:
 7749 2abe 81E0      		ldi r24,lo8(1)
 7750               	.LVL209:
 7751 2ac0 60E0      		ldi r22,lo8(0)
 7752 2ac2 0E94 0000 		call lcd_byte
 7753               	.LVL210:
 7754               	.LM1047:
 7755 2ac6 80E0      		ldi r24,lo8(.LC16)
 7756 2ac8 90E0      		ldi r25,hi8(.LC16)
 7757 2aca 0E94 0000 		call lcd_write_string
 7758               	.LM1048:
 7759 2ace 80E0      		ldi r24,lo8(0)
 7760 2ad0 90E0      		ldi r25,hi8(0)
 7761 2ad2 61E0      		ldi r22,lo8(1)
 7762 2ad4 70E0      		ldi r23,hi8(1)
 7763 2ad6 40E0      		ldi r20,lo8(.LC17)
 7764 2ad8 50E0      		ldi r21,hi8(.LC17)
 7765 2ada 0E94 0000 		call lcd_write_string_xy
 7766               	.LM1049:
 7767 2ade 84E5      		ldi r24,lo8(84)
 7768 2ae0 66E4      		ldi r22,lo8(70)
 7769 2ae2 46E4      		ldi r20,lo8(70)
 7770 2ae4 26E4      		ldi r18,lo8(70)
 7771 2ae6 0E94 0000 		call update_array
 7772               	.L577:
 7773               	.LBB750:
 7774               	.LBB751:
 7775               	.LM1050:
 7776 2aea 8399      		sbic 48-32,3
 7777 2aec 00C0      		rjmp .L559
 7778               	.L588:
 7779               	.LBE751:
 7780               	.LBE750:
 7781               	.LM1051:
 7782 2aee 1092 0000 		sts (repeat)+1,__zero_reg__
 7783 2af2 1092 0000 		sts repeat,__zero_reg__
 7784 2af6 00C0      		rjmp .L560
 7785               	.L562:
 7786               	.LM1052:
 7787 2af8 0E94 0000 		call line_track_new
 7788               	.LM1053:
 7789 2afc 85B3      		in r24,53-32
 7790 2afe 807F      		andi r24,lo8(-16)
 7791 2b00 85BB      		out 53-32,r24
 7792               	.LM1054:
 7793 2b02 85B3      		in r24,53-32
 7794 2b04 9091 0000 		lds r25,sensorbyte
 7795 2b08 892B      		or r24,r25
 7796 2b0a 85BB      		out 53-32,r24
 7797               	.LM1055:
 7798 2b0c CF99      		sbic 57-32,7
 7799 2b0e 00C0      		rjmp .L561
 7800               	.LM1056:
 7801 2b10 0E94 0000 		call right_junc_check
 7802               	.L561:
 7803               	.LM1057:
 7804 2b14 0E94 0000 		call left_junc_check
 7805               	.LM1058:
 7806 2b18 0E94 0000 		call frSensorCheck
 7807               	.LM1059:
 7808 2b1c 8091 0000 		lds r24,irc
 7809 2b20 9091 0000 		lds r25,(irc)+1
 7810 2b24 0196      		adiw r24,1
 7811 2b26 9093 0000 		sts (irc)+1,r25
 7812 2b2a 8093 0000 		sts irc,r24
 7813               	.L560:
 7814               	.LM1060:
 7815 2b2e 8091 0000 		lds r24,repeat
 7816 2b32 9091 0000 		lds r25,(repeat)+1
 7817 2b36 0397      		sbiw r24,3
 7818 2b38 04F0      		brlt .L562
 7819               	.LBB752:
 7820               	.LBB753:
 7821               	.LM1061:
 7822 2b3a AC9A      		sbi 53-32,4
 7823               	.LM1062:
 7824 2b3c AD9A      		sbi 53-32,5
 7825               	.LM1063:
 7826 2b3e AE9A      		sbi 53-32,6
 7827               	.LM1064:
 7828 2b40 AF9A      		sbi 53-32,7
 7829               	.LBE753:
 7830               	.LBE752:
 7831               	.LM1065:
 7832 2b42 0E94 0000 		call fill_missed_array
 7833               	.LM1066:
 7834 2b46 1092 0000 		sts (mx)+1,__zero_reg__
 7835 2b4a 1092 0000 		sts mx,__zero_reg__
 7836               	.LM1067:
 7837 2b4e 1092 0000 		sts (my)+1,__zero_reg__
 7838 2b52 1092 0000 		sts my,__zero_reg__
 7839               	.LM1068:
 7840 2b56 0E94 0000 		call coordinates_tobe_reached
 7841               	.LM1069:
 7842 2b5a 6091 0000 		lds r22,y_coordinate
 7843 2b5e 7091 0000 		lds r23,(y_coordinate)+1
 7844 2b62 4091 0000 		lds r20,mx
 7845 2b66 5091 0000 		lds r21,(mx)+1
 7846 2b6a 2091 0000 		lds r18,my
 7847 2b6e 3091 0000 		lds r19,(my)+1
 7848 2b72 8091 0000 		lds r24,x_coordinate
 7849 2b76 9091 0000 		lds r25,(x_coordinate)+1
 7850 2b7a 0E94 0000 		call build_map
 7851               	.LM1070:
 7852 2b7e 0E94 0000 		call get_path
 7853               	.LM1071:
 7854 2b82 1092 0000 		sts (right)+1,__zero_reg__
 7855 2b86 1092 0000 		sts right,__zero_reg__
 7856               	.LM1072:
 7857 2b8a 0E94 0000 		call print_path
 7858 2b8e C0E0      		ldi r28,lo8(path_array)
 7859 2b90 D0E0      		ldi r29,hi8(path_array)
 7860               	.L565:
 7861               	.LBB754:
 7862               	.LM1073:
 7863 2b92 2881      		ld r18,Y
 7864 2b94 3981      		ldd r19,Y+1
 7865 2b96 2115      		cp r18,__zero_reg__
 7866 2b98 3105      		cpc r19,__zero_reg__
 7867 2b9a 01F4      		brne .L563
 7868 2b9c 8A81      		ldd r24,Y+2
 7869 2b9e 9B81      		ldd r25,Y+3
 7870 2ba0 892B      		or r24,r25
 7871 2ba2 01F0      		breq .L564
 7872               	.L563:
 7873               	.LM1074:
 7874 2ba4 6A81      		ldd r22,Y+2
 7875 2ba6 7B81      		ldd r23,Y+3
 7876 2ba8 C901      		movw r24,r18
 7877 2baa 0E94 0000 		call go_to_coordinate
 7878 2bae 2496      		adiw r28,4
 7879               	.LM1075:
 7880 2bb0 80E0      		ldi r24,hi8(path_array+60)
 7881 2bb2 C030      		cpi r28,lo8(path_array+60)
 7882 2bb4 D807      		cpc r29,r24
 7883 2bb6 01F4      		brne .L565
 7884               	.L564:
 7885               	.LBE754:
 7886               	.LM1076:
 7887 2bb8 0091 0000 		lds r16,x_coordinate
 7888 2bbc 1091 0000 		lds r17,(x_coordinate)+1
 7889 2bc0 C091 0000 		lds r28,y_coordinate
 7890 2bc4 D091 0000 		lds r29,(y_coordinate)+1
 7891 2bc8 F801      		movw r30,r16
 7892 2bca 54E0      		ldi r21,4
 7893 2bcc EE0F      	1:	lsl r30
 7894 2bce FF1F      		rol r31
 7895 2bd0 5A95      		dec r21
 7896 2bd2 01F4      		brne 1b
 7897 2bd4 EC0F      		add r30,r28
 7898 2bd6 FD1F      		adc r31,r29
 7899 2bd8 EE0F      		lsl r30
 7900 2bda FF1F      		rol r31
 7901 2bdc EE0F      		lsl r30
 7902 2bde FF1F      		rol r31
 7903 2be0 E050      		subi r30,lo8(-(dir_array))
 7904 2be2 F040      		sbci r31,hi8(-(dir_array))
 7905 2be4 8081      		ld r24,Z
 7906 2be6 8435      		cpi r24,lo8(84)
 7907 2be8 01F4      		brne .L566
 7908 2bea BE01      		movw r22,r28
 7909 2bec 6F5F      		subi r22,lo8(-(1))
 7910 2bee 7F4F      		sbci r23,hi8(-(1))
 7911 2bf0 C801      		movw r24,r16
 7912 2bf2 0E94 0000 		call is_coordinate_null
 7913 2bf6 892B      		or r24,r25
 7914 2bf8 01F0      		breq .L566
 7915               	.LM1077:
 7916 2bfa 82E0      		ldi r24,lo8(2)
 7917 2bfc 90E0      		ldi r25,hi8(2)
 7918 2bfe 00C0      		rjmp .L589
 7919               	.L566:
 7920               	.LM1078:
 7921 2c00 F801      		movw r30,r16
 7922 2c02 34E0      		ldi r19,4
 7923 2c04 EE0F      	1:	lsl r30
 7924 2c06 FF1F      		rol r31
 7925 2c08 3A95      		dec r19
 7926 2c0a 01F4      		brne 1b
 7927 2c0c EC0F      		add r30,r28
 7928 2c0e FD1F      		adc r31,r29
 7929 2c10 EE0F      		lsl r30
 7930 2c12 FF1F      		rol r31
 7931 2c14 EE0F      		lsl r30
 7932 2c16 FF1F      		rol r31
 7933 2c18 E050      		subi r30,lo8(-(dir_array))
 7934 2c1a F040      		sbci r31,hi8(-(dir_array))
 7935 2c1c 8181      		ldd r24,Z+1
 7936 2c1e 8435      		cpi r24,lo8(84)
 7937 2c20 01F4      		brne .L568
 7938 2c22 C801      		movw r24,r16
 7939 2c24 0196      		adiw r24,1
 7940 2c26 BE01      		movw r22,r28
 7941 2c28 0E94 0000 		call is_coordinate_null
 7942 2c2c 892B      		or r24,r25
 7943 2c2e 01F0      		breq .L568
 7944               	.LM1079:
 7945 2c30 81E0      		ldi r24,lo8(1)
 7946 2c32 90E0      		ldi r25,hi8(1)
 7947 2c34 00C0      		rjmp .L589
 7948               	.L568:
 7949               	.LM1080:
 7950 2c36 F801      		movw r30,r16
 7951 2c38 94E0      		ldi r25,4
 7952 2c3a EE0F      	1:	lsl r30
 7953 2c3c FF1F      		rol r31
 7954 2c3e 9A95      		dec r25
 7955 2c40 01F4      		brne 1b
 7956 2c42 EC0F      		add r30,r28
 7957 2c44 FD1F      		adc r31,r29
 7958 2c46 EE0F      		lsl r30
 7959 2c48 FF1F      		rol r31
 7960 2c4a EE0F      		lsl r30
 7961 2c4c FF1F      		rol r31
 7962 2c4e E050      		subi r30,lo8(-(dir_array+2))
 7963 2c50 F040      		sbci r31,hi8(-(dir_array+2))
 7964 2c52 8081      		ld r24,Z
 7965 2c54 8435      		cpi r24,lo8(84)
 7966 2c56 01F4      		brne .L569
 7967 2c58 BE01      		movw r22,r28
 7968 2c5a 6150      		subi r22,lo8(-(-1))
 7969 2c5c 7040      		sbci r23,hi8(-(-1))
 7970 2c5e C801      		movw r24,r16
 7971 2c60 0E94 0000 		call is_coordinate_null
 7972 2c64 892B      		or r24,r25
 7973 2c66 01F0      		breq .L569
 7974               	.LM1081:
 7975 2c68 8EEF      		ldi r24,lo8(-2)
 7976 2c6a 9FEF      		ldi r25,hi8(-2)
 7977 2c6c 00C0      		rjmp .L589
 7978               	.L569:
 7979               	.LM1082:
 7980 2c6e F801      		movw r30,r16
 7981 2c70 B4E0      		ldi r27,4
 7982 2c72 EE0F      	1:	lsl r30
 7983 2c74 FF1F      		rol r31
 7984 2c76 BA95      		dec r27
 7985 2c78 01F4      		brne 1b
 7986 2c7a EC0F      		add r30,r28
 7987 2c7c FD1F      		adc r31,r29
 7988 2c7e EE0F      		lsl r30
 7989 2c80 FF1F      		rol r31
 7990 2c82 EE0F      		lsl r30
 7991 2c84 FF1F      		rol r31
 7992 2c86 E050      		subi r30,lo8(-(dir_array))
 7993 2c88 F040      		sbci r31,hi8(-(dir_array))
 7994 2c8a 8381      		ldd r24,Z+3
 7995 2c8c 8435      		cpi r24,lo8(84)
 7996 2c8e 01F4      		brne .L586
 7997 2c90 C801      		movw r24,r16
 7998 2c92 0197      		sbiw r24,1
 7999 2c94 BE01      		movw r22,r28
 8000 2c96 0E94 0000 		call is_coordinate_null
 8001 2c9a 892B      		or r24,r25
 8002 2c9c 01F0      		breq .L586
 8003               	.LM1083:
 8004 2c9e 8FEF      		ldi r24,lo8(-1)
 8005 2ca0 9FEF      		ldi r25,hi8(-1)
 8006               	.L589:
 8007 2ca2 0E94 0000 		call checkAndCorrectDirection
 8008 2ca6 00C0      		rjmp .L586
 8009               	.L570:
 8010               	.LM1084:
 8011 2ca8 0E94 0000 		call line_track_new
 8012               	.L586:
 8013               	.LM1085:
 8014 2cac CC9B      		sbis 57-32,4
 8015 2cae 00C0      		rjmp .L570
 8016 2cb0 879B      		sbis 48-32,7
 8017 2cb2 00C0      		rjmp .L570
 8018               	.LBB755:
 8019               	.LBB756:
 8020               	.LM1086:
 8021 2cb4 AC9A      		sbi 53-32,4
 8022               	.LM1087:
 8023 2cb6 AD9A      		sbi 53-32,5
 8024               	.LM1088:
 8025 2cb8 AE9A      		sbi 53-32,6
 8026               	.LM1089:
 8027 2cba AF9A      		sbi 53-32,7
 8028               	.LBE756:
 8029               	.LBE755:
 8030               	.LM1090:
 8031 2cbc 1092 0000 		sts (Coordinates_changed_by)+1,__zero_reg__
 8032 2cc0 1092 0000 		sts Coordinates_changed_by,__zero_reg__
 8033               	.LM1091:
 8034 2cc4 1092 0000 		sts (irc)+1,__zero_reg__
 8035 2cc8 1092 0000 		sts irc,__zero_reg__
 8036               	.LM1092:
 8037 2ccc 1092 0000 		sts (special_flag)+1,__zero_reg__
 8038 2cd0 1092 0000 		sts special_flag,__zero_reg__
 8039 2cd4 00C0      		rjmp .L588
 8040               	.L572:
 8041               	.LBB757:
 8042               	.LBB763:
 8043               	.LM1093:
 8044 2cd6 CE01      		movw r24,r28
 8045 2cd8 0E94 0000 		call __eerd_word_m32
 8046 2cdc F801      		movw r30,r16
 8047 2cde 9183      		std Z+1,r25
 8048 2ce0 8083      		st Z,r24
 8049               	.LM1094:
 8050 2ce2 CE01      		movw r24,r28
 8051 2ce4 0296      		adiw r24,2
 8052 2ce6 0E94 0000 		call __eerd_word_m32
 8053 2cea F801      		movw r30,r16
 8054 2cec 9383      		std Z+3,r25
 8055 2cee 8283      		std Z+2,r24
 8056 2cf0 2496      		adiw r28,4
 8057 2cf2 0C5F      		subi r16,lo8(-(4))
 8058 2cf4 1F4F      		sbci r17,hi8(-(4))
 8059               	.LM1095:
 8060 2cf6 CC33      		cpi r28,60
 8061 2cf8 D105      		cpc r29,__zero_reg__
 8062 2cfa 01F4      		brne .L572
 8063               	.LBE763:
 8064               	.LM1096:
 8065 2cfc 81E0      		ldi r24,lo8(1)
 8066 2cfe 60E0      		ldi r22,lo8(0)
 8067 2d00 0E94 0000 		call lcd_byte
 8068               	.LM1097:
 8069 2d04 4091 0000 		lds r20,path_array
 8070 2d08 5091 0000 		lds r21,(path_array)+1
 8071 2d0c 80E0      		ldi r24,lo8(0)
 8072 2d0e 90E0      		ldi r25,hi8(0)
 8073 2d10 60E0      		ldi r22,lo8(0)
 8074 2d12 70E0      		ldi r23,hi8(0)
 8075 2d14 21E0      		ldi r18,lo8(1)
 8076 2d16 30E0      		ldi r19,hi8(1)
 8077 2d18 0E94 0000 		call lcd_write_int_xy
 8078               	.LM1098:
 8079 2d1c 4091 0000 		lds r20,path_array+2
 8080 2d20 5091 0000 		lds r21,(path_array+2)+1
 8081 2d24 81E0      		ldi r24,lo8(1)
 8082 2d26 90E0      		ldi r25,hi8(1)
 8083 2d28 60E0      		ldi r22,lo8(0)
 8084 2d2a 70E0      		ldi r23,hi8(0)
 8085 2d2c 21E0      		ldi r18,lo8(1)
 8086 2d2e 30E0      		ldi r19,hi8(1)
 8087 2d30 0E94 0000 		call lcd_write_int_xy
 8088               	.LM1099:
 8089 2d34 4091 0000 		lds r20,path_array+4
 8090 2d38 5091 0000 		lds r21,(path_array+4)+1
 8091 2d3c 83E0      		ldi r24,lo8(3)
 8092 2d3e 90E0      		ldi r25,hi8(3)
 8093 2d40 60E0      		ldi r22,lo8(0)
 8094 2d42 70E0      		ldi r23,hi8(0)
 8095 2d44 21E0      		ldi r18,lo8(1)
 8096 2d46 30E0      		ldi r19,hi8(1)
 8097 2d48 0E94 0000 		call lcd_write_int_xy
 8098               	.LM1100:
 8099 2d4c 4091 0000 		lds r20,path_array+6
 8100 2d50 5091 0000 		lds r21,(path_array+6)+1
 8101 2d54 84E0      		ldi r24,lo8(4)
 8102 2d56 90E0      		ldi r25,hi8(4)
 8103 2d58 60E0      		ldi r22,lo8(0)
 8104 2d5a 70E0      		ldi r23,hi8(0)
 8105 2d5c 21E0      		ldi r18,lo8(1)
 8106 2d5e 30E0      		ldi r19,hi8(1)
 8107 2d60 0E94 0000 		call lcd_write_int_xy
 8108               	.LM1101:
 8109 2d64 4091 0000 		lds r20,path_array+8
 8110 2d68 5091 0000 		lds r21,(path_array+8)+1
 8111 2d6c 86E0      		ldi r24,lo8(6)
 8112 2d6e 90E0      		ldi r25,hi8(6)
 8113 2d70 60E0      		ldi r22,lo8(0)
 8114 2d72 70E0      		ldi r23,hi8(0)
 8115 2d74 21E0      		ldi r18,lo8(1)
 8116 2d76 30E0      		ldi r19,hi8(1)
 8117 2d78 0E94 0000 		call lcd_write_int_xy
 8118               	.LM1102:
 8119 2d7c 4091 0000 		lds r20,path_array+10
 8120 2d80 5091 0000 		lds r21,(path_array+10)+1
 8121 2d84 87E0      		ldi r24,lo8(7)
 8122 2d86 90E0      		ldi r25,hi8(7)
 8123 2d88 60E0      		ldi r22,lo8(0)
 8124 2d8a 70E0      		ldi r23,hi8(0)
 8125 2d8c 21E0      		ldi r18,lo8(1)
 8126 2d8e 30E0      		ldi r19,hi8(1)
 8127 2d90 0E94 0000 		call lcd_write_int_xy
 8128               	.LM1103:
 8129 2d94 4091 0000 		lds r20,path_array+12
 8130 2d98 5091 0000 		lds r21,(path_array+12)+1
 8131 2d9c 89E0      		ldi r24,lo8(9)
 8132 2d9e 90E0      		ldi r25,hi8(9)
 8133 2da0 60E0      		ldi r22,lo8(0)
 8134 2da2 70E0      		ldi r23,hi8(0)
 8135 2da4 21E0      		ldi r18,lo8(1)
 8136 2da6 30E0      		ldi r19,hi8(1)
 8137 2da8 0E94 0000 		call lcd_write_int_xy
 8138               	.LM1104:
 8139 2dac 4091 0000 		lds r20,path_array+14
 8140 2db0 5091 0000 		lds r21,(path_array+14)+1
 8141 2db4 8AE0      		ldi r24,lo8(10)
 8142 2db6 90E0      		ldi r25,hi8(10)
 8143 2db8 60E0      		ldi r22,lo8(0)
 8144 2dba 70E0      		ldi r23,hi8(0)
 8145 2dbc 21E0      		ldi r18,lo8(1)
 8146 2dbe 30E0      		ldi r19,hi8(1)
 8147 2dc0 0E94 0000 		call lcd_write_int_xy
 8148               	.LM1105:
 8149 2dc4 4091 0000 		lds r20,path_array+16
 8150 2dc8 5091 0000 		lds r21,(path_array+16)+1
 8151 2dcc 8CE0      		ldi r24,lo8(12)
 8152 2dce 90E0      		ldi r25,hi8(12)
 8153 2dd0 60E0      		ldi r22,lo8(0)
 8154 2dd2 70E0      		ldi r23,hi8(0)
 8155 2dd4 21E0      		ldi r18,lo8(1)
 8156 2dd6 30E0      		ldi r19,hi8(1)
 8157 2dd8 0E94 0000 		call lcd_write_int_xy
 8158               	.LM1106:
 8159 2ddc 4091 0000 		lds r20,path_array+18
 8160 2de0 5091 0000 		lds r21,(path_array+18)+1
 8161 2de4 8DE0      		ldi r24,lo8(13)
 8162 2de6 90E0      		ldi r25,hi8(13)
 8163 2de8 60E0      		ldi r22,lo8(0)
 8164 2dea 70E0      		ldi r23,hi8(0)
 8165 2dec 21E0      		ldi r18,lo8(1)
 8166 2dee 30E0      		ldi r19,hi8(1)
 8167 2df0 0E94 0000 		call lcd_write_int_xy
 8168               	.LM1107:
 8169 2df4 4091 0000 		lds r20,path_array+20
 8170 2df8 5091 0000 		lds r21,(path_array+20)+1
 8171 2dfc 80E0      		ldi r24,lo8(0)
 8172 2dfe 90E0      		ldi r25,hi8(0)
 8173 2e00 61E0      		ldi r22,lo8(1)
 8174 2e02 70E0      		ldi r23,hi8(1)
 8175 2e04 21E0      		ldi r18,lo8(1)
 8176 2e06 30E0      		ldi r19,hi8(1)
 8177 2e08 0E94 0000 		call lcd_write_int_xy
 8178               	.LM1108:
 8179 2e0c 4091 0000 		lds r20,path_array+22
 8180 2e10 5091 0000 		lds r21,(path_array+22)+1
 8181 2e14 81E0      		ldi r24,lo8(1)
 8182 2e16 90E0      		ldi r25,hi8(1)
 8183 2e18 61E0      		ldi r22,lo8(1)
 8184 2e1a 70E0      		ldi r23,hi8(1)
 8185 2e1c 21E0      		ldi r18,lo8(1)
 8186 2e1e 30E0      		ldi r19,hi8(1)
 8187 2e20 0E94 0000 		call lcd_write_int_xy
 8188               	.L579:
 8189               	.LBB761:
 8190               	.LBB762:
 8191               	.LM1109:
 8192 2e24 8299      		sbic 48-32,2
 8193 2e26 00C0      		rjmp .L573
 8194               	.L578:
 8195               	.LBE762:
 8196               	.LBE761:
 8197               	.LM1110:
 8198 2e28 81E0      		ldi r24,lo8(1)
 8199 2e2a 60E0      		ldi r22,lo8(0)
 8200 2e2c 0E94 0000 		call lcd_byte
 8201               	.LM1111:
 8202 2e30 81E0      		ldi r24,lo8(1)
 8203 2e32 90E0      		ldi r25,hi8(1)
 8204 2e34 0E94 0000 		call delay_sec
 8205               	.L576:
 8206               	.LBB760:
 8207               	.LM1112:
 8208 2e38 F701      		movw r30,r14
 8209 2e3a 2081      		ld r18,Z
 8210 2e3c 3181      		ldd r19,Z+1
 8211 2e3e 2115      		cp r18,__zero_reg__
 8212 2e40 3105      		cpc r19,__zero_reg__
 8213 2e42 01F4      		brne .L574
 8214 2e44 8281      		ldd r24,Z+2
 8215 2e46 9381      		ldd r25,Z+3
 8216 2e48 892B      		or r24,r25
 8217 2e4a 01F0      		breq .L587
 8218               	.L574:
 8219               	.LM1113:
 8220 2e4c F701      		movw r30,r14
 8221 2e4e 6281      		ldd r22,Z+2
 8222 2e50 7381      		ldd r23,Z+3
 8223 2e52 C901      		movw r24,r18
 8224 2e54 0E94 0000 		call go_to_coordinate
 8225 2e58 84E0      		ldi r24,lo8(4)
 8226 2e5a 90E0      		ldi r25,hi8(4)
 8227 2e5c E80E      		add r14,r24
 8228 2e5e F91E      		adc r15,r25
 8229               	.LM1114:
 8230 2e60 90E0      		ldi r25,lo8(path_array+60)
 8231 2e62 E916      		cp r14,r25
 8232 2e64 90E0      		ldi r25,hi8(path_array+60)
 8233 2e66 F906      		cpc r15,r25
 8234 2e68 01F4      		brne .L576
 8235               	.L587:
 8236               	.LBE760:
 8237               	.LBB758:
 8238               	.LBB759:
 8239               	.LM1115:
 8240 2e6a AC98      		cbi 53-32,4
 8241               	.LM1116:
 8242 2e6c AD98      		cbi 53-32,5
 8243               	.LM1117:
 8244 2e6e AE98      		cbi 53-32,6
 8245               	.LM1118:
 8246 2e70 AF98      		cbi 53-32,7
 8247               	.LBE759:
 8248               	.LBE758:
 8249               	.LM1119:
 8250 2e72 0E94 0000 		call flick
 8251 2e76 00C0      		rjmp .L587
 8252               	.L559:
 8253               	.LBE757:
 8254               	.LBB770:
 8255               	.LBB771:
 8256               	.LM1120:
 8257 2e78 8099      		sbic 48-32,0
 8258 2e7a 00C0      		rjmp .L577
 8259 2e7c 70E0      		ldi r23,lo8(path_array)
 8260 2e7e E72E      		mov r14,r23
 8261 2e80 70E0      		ldi r23,hi8(path_array)
 8262 2e82 F72E      		mov r15,r23
 8263 2e84 8701      		movw r16,r14
 8264 2e86 C0E0      		ldi r28,lo8(0)
 8265 2e88 D0E0      		ldi r29,hi8(0)
 8266 2e8a 00C0      		rjmp .L572
 8267               	.L573:
 8268               	.LBE771:
 8269               	.LBE770:
 8270               	.LBB772:
 8271               	.LBB764:
 8272               	.LBB765:
 8273 2e8c 809B      		sbis 48-32,0
 8274 2e8e 00C0      		rjmp .L578
 8275               	.LBE765:
 8276               	.LBE764:
 8277               	.LBB766:
 8278               	.LBB767:
 8279               	.LM1121:
 8280 2e90 819B      		sbis 48-32,1
 8281 2e92 00C0      		rjmp .L578
 8282               	.LBE767:
 8283               	.LBE766:
 8284               	.LBB768:
 8285               	.LBB769:
 8286               	.LM1122:
 8287 2e94 839B      		sbis 48-32,3
 8288 2e96 00C0      		rjmp .L578
 8289 2e98 00C0      		rjmp .L579
 8290               	.LBE769:
 8291               	.LBE768:
 8292               	.LBE772:
 8293               	.LFE78:
 8295               	.global	map_all
 8297               	map_all:
 8298               	.LFB75:
 8299               	.LM1123:
 8300 2e9a EF92      		push r14
 8301 2e9c FF92      		push r15
 8302 2e9e 0F93      		push r16
 8303 2ea0 1F93      		push r17
 8304 2ea2 CF93      		push r28
 8305 2ea4 DF93      		push r29
 8306               	/* prologue: function */
 8307               	/* frame size = 0 */
 8308               	.LBB773:
 8309               	.LBB774:
 8310               	.LM1124:
 8311 2ea6 5FE8      		ldi r21,lo8(399)
 8312 2ea8 E52E      		mov r14,r21
 8313 2eaa 51E0      		ldi r21,hi8(399)
 8314 2eac F52E      		mov r15,r21
 8315               	.L608:
 8316               	.LBE774:
 8317               	.LBE773:
 8318               	.LBB776:
 8319               	.LBB777:
 8320               	.LM1125:
 8321 2eae AC9A      		sbi 53-32,4
 8322               	.LM1126:
 8323 2eb0 AD9A      		sbi 53-32,5
 8324               	.LM1127:
 8325 2eb2 AE9A      		sbi 53-32,6
 8326               	.LM1128:
 8327 2eb4 AF9A      		sbi 53-32,7
 8328               	.LBE777:
 8329               	.LBE776:
 8330               	.LM1129:
 8331 2eb6 6091 0000 		lds r22,y_coordinate
 8332 2eba 7091 0000 		lds r23,(y_coordinate)+1
 8333 2ebe 4091 0000 		lds r20,mx
 8334 2ec2 5091 0000 		lds r21,(mx)+1
 8335 2ec6 2091 0000 		lds r18,my
 8336 2eca 3091 0000 		lds r19,(my)+1
 8337 2ece 8091 0000 		lds r24,x_coordinate
 8338 2ed2 9091 0000 		lds r25,(x_coordinate)+1
 8339 2ed6 0E94 0000 		call build_map
 8340               	.LM1130:
 8341 2eda 0E94 0000 		call get_path
 8342               	.LM1131:
 8343 2ede 1092 0000 		sts (right)+1,__zero_reg__
 8344 2ee2 1092 0000 		sts right,__zero_reg__
 8345               	.LM1132:
 8346 2ee6 0E94 0000 		call print_path
 8347 2eea C0E0      		ldi r28,lo8(path_array)
 8348 2eec D0E0      		ldi r29,hi8(path_array)
 8349               	.L593:
 8350               	.LBB778:
 8351               	.LM1133:
 8352 2eee 2881      		ld r18,Y
 8353 2ef0 3981      		ldd r19,Y+1
 8354 2ef2 2115      		cp r18,__zero_reg__
 8355 2ef4 3105      		cpc r19,__zero_reg__
 8356 2ef6 01F4      		brne .L591
 8357 2ef8 8A81      		ldd r24,Y+2
 8358 2efa 9B81      		ldd r25,Y+3
 8359 2efc 892B      		or r24,r25
 8360 2efe 01F0      		breq .L592
 8361               	.L591:
 8362               	.LM1134:
 8363 2f00 6A81      		ldd r22,Y+2
 8364 2f02 7B81      		ldd r23,Y+3
 8365 2f04 C901      		movw r24,r18
 8366 2f06 0E94 0000 		call go_to_coordinate
 8367 2f0a 2496      		adiw r28,4
 8368               	.LM1135:
 8369 2f0c 80E0      		ldi r24,hi8(path_array+60)
 8370 2f0e C030      		cpi r28,lo8(path_array+60)
 8371 2f10 D807      		cpc r29,r24
 8372 2f12 01F4      		brne .L593
 8373               	.L592:
 8374               	.LBE778:
 8375               	.LM1136:
 8376 2f14 0091 0000 		lds r16,x_coordinate
 8377 2f18 1091 0000 		lds r17,(x_coordinate)+1
 8378 2f1c C091 0000 		lds r28,y_coordinate
 8379 2f20 D091 0000 		lds r29,(y_coordinate)+1
 8380 2f24 F801      		movw r30,r16
 8381 2f26 44E0      		ldi r20,4
 8382 2f28 EE0F      	1:	lsl r30
 8383 2f2a FF1F      		rol r31
 8384 2f2c 4A95      		dec r20
 8385 2f2e 01F4      		brne 1b
 8386 2f30 EC0F      		add r30,r28
 8387 2f32 FD1F      		adc r31,r29
 8388 2f34 EE0F      		lsl r30
 8389 2f36 FF1F      		rol r31
 8390 2f38 EE0F      		lsl r30
 8391 2f3a FF1F      		rol r31
 8392 2f3c E050      		subi r30,lo8(-(dir_array))
 8393 2f3e F040      		sbci r31,hi8(-(dir_array))
 8394 2f40 8081      		ld r24,Z
 8395 2f42 8435      		cpi r24,lo8(84)
 8396 2f44 01F4      		brne .L594
 8397 2f46 BE01      		movw r22,r28
 8398 2f48 6F5F      		subi r22,lo8(-(1))
 8399 2f4a 7F4F      		sbci r23,hi8(-(1))
 8400 2f4c C801      		movw r24,r16
 8401 2f4e 0E94 0000 		call is_coordinate_null
 8402 2f52 892B      		or r24,r25
 8403 2f54 01F0      		breq .L594
 8404               	.LM1137:
 8405 2f56 82E0      		ldi r24,lo8(2)
 8406 2f58 90E0      		ldi r25,hi8(2)
 8407 2f5a 00C0      		rjmp .L609
 8408               	.L594:
 8409               	.LM1138:
 8410 2f5c F801      		movw r30,r16
 8411 2f5e 24E0      		ldi r18,4
 8412 2f60 EE0F      	1:	lsl r30
 8413 2f62 FF1F      		rol r31
 8414 2f64 2A95      		dec r18
 8415 2f66 01F4      		brne 1b
 8416 2f68 EC0F      		add r30,r28
 8417 2f6a FD1F      		adc r31,r29
 8418 2f6c EE0F      		lsl r30
 8419 2f6e FF1F      		rol r31
 8420 2f70 EE0F      		lsl r30
 8421 2f72 FF1F      		rol r31
 8422 2f74 E050      		subi r30,lo8(-(dir_array))
 8423 2f76 F040      		sbci r31,hi8(-(dir_array))
 8424 2f78 8181      		ldd r24,Z+1
 8425 2f7a 8435      		cpi r24,lo8(84)
 8426 2f7c 01F4      		brne .L596
 8427 2f7e C801      		movw r24,r16
 8428 2f80 0196      		adiw r24,1
 8429 2f82 BE01      		movw r22,r28
 8430 2f84 0E94 0000 		call is_coordinate_null
 8431 2f88 892B      		or r24,r25
 8432 2f8a 01F0      		breq .L596
 8433               	.LM1139:
 8434 2f8c 81E0      		ldi r24,lo8(1)
 8435 2f8e 90E0      		ldi r25,hi8(1)
 8436 2f90 00C0      		rjmp .L609
 8437               	.L596:
 8438               	.LM1140:
 8439 2f92 F801      		movw r30,r16
 8440 2f94 84E0      		ldi r24,4
 8441 2f96 EE0F      	1:	lsl r30
 8442 2f98 FF1F      		rol r31
 8443 2f9a 8A95      		dec r24
 8444 2f9c 01F4      		brne 1b
 8445 2f9e EC0F      		add r30,r28
 8446 2fa0 FD1F      		adc r31,r29
 8447 2fa2 EE0F      		lsl r30
 8448 2fa4 FF1F      		rol r31
 8449 2fa6 EE0F      		lsl r30
 8450 2fa8 FF1F      		rol r31
 8451 2faa E050      		subi r30,lo8(-(dir_array+2))
 8452 2fac F040      		sbci r31,hi8(-(dir_array+2))
 8453 2fae 8081      		ld r24,Z
 8454 2fb0 8435      		cpi r24,lo8(84)
 8455 2fb2 01F4      		brne .L597
 8456 2fb4 BE01      		movw r22,r28
 8457 2fb6 6150      		subi r22,lo8(-(-1))
 8458 2fb8 7040      		sbci r23,hi8(-(-1))
 8459 2fba C801      		movw r24,r16
 8460 2fbc 0E94 0000 		call is_coordinate_null
 8461 2fc0 892B      		or r24,r25
 8462 2fc2 01F0      		breq .L597
 8463               	.LM1141:
 8464 2fc4 8EEF      		ldi r24,lo8(-2)
 8465 2fc6 9FEF      		ldi r25,hi8(-2)
 8466 2fc8 00C0      		rjmp .L609
 8467               	.L597:
 8468               	.LM1142:
 8469 2fca F801      		movw r30,r16
 8470 2fcc A4E0      		ldi r26,4
 8471 2fce EE0F      	1:	lsl r30
 8472 2fd0 FF1F      		rol r31
 8473 2fd2 AA95      		dec r26
 8474 2fd4 01F4      		brne 1b
 8475 2fd6 EC0F      		add r30,r28
 8476 2fd8 FD1F      		adc r31,r29
 8477 2fda EE0F      		lsl r30
 8478 2fdc FF1F      		rol r31
 8479 2fde EE0F      		lsl r30
 8480 2fe0 FF1F      		rol r31
 8481 2fe2 E050      		subi r30,lo8(-(dir_array))
 8482 2fe4 F040      		sbci r31,hi8(-(dir_array))
 8483 2fe6 8381      		ldd r24,Z+3
 8484 2fe8 8435      		cpi r24,lo8(84)
 8485 2fea 01F4      		brne .L606
 8486 2fec C801      		movw r24,r16
 8487 2fee 0197      		sbiw r24,1
 8488 2ff0 BE01      		movw r22,r28
 8489 2ff2 0E94 0000 		call is_coordinate_null
 8490 2ff6 892B      		or r24,r25
 8491 2ff8 01F0      		breq .L606
 8492               	.LM1143:
 8493 2ffa 8FEF      		ldi r24,lo8(-1)
 8494 2ffc 9FEF      		ldi r25,hi8(-1)
 8495               	.L609:
 8496 2ffe 0E94 0000 		call checkAndCorrectDirection
 8497 3002 00C0      		rjmp .L606
 8498               	.L598:
 8499               	.LM1144:
 8500 3004 0E94 0000 		call line_track_new
 8501               	.L606:
 8502               	.LM1145:
 8503 3008 CC9B      		sbis 57-32,4
 8504 300a 00C0      		rjmp .L598
 8505 300c 879B      		sbis 48-32,7
 8506 300e 00C0      		rjmp .L598
 8507               	.LBB779:
 8508               	.LBB780:
 8509               	.LM1146:
 8510 3010 AC9A      		sbi 53-32,4
 8511               	.LM1147:
 8512 3012 AD9A      		sbi 53-32,5
 8513               	.LM1148:
 8514 3014 AE9A      		sbi 53-32,6
 8515               	.LM1149:
 8516 3016 AF9A      		sbi 53-32,7
 8517               	.LBE780:
 8518               	.LBE779:
 8519               	.LM1150:
 8520 3018 1092 0000 		sts (Coordinates_changed_by)+1,__zero_reg__
 8521 301c 1092 0000 		sts Coordinates_changed_by,__zero_reg__
 8522               	.LM1151:
 8523 3020 1092 0000 		sts (irc)+1,__zero_reg__
 8524 3024 1092 0000 		sts irc,__zero_reg__
 8525               	.LM1152:
 8526 3028 1092 0000 		sts (special_flag)+1,__zero_reg__
 8527 302c 1092 0000 		sts special_flag,__zero_reg__
 8528               	.LM1153:
 8529 3030 1092 0000 		sts (repeat)+1,__zero_reg__
 8530 3034 1092 0000 		sts repeat,__zero_reg__
 8531 3038 00C0      		rjmp .L599
 8532               	.L601:
 8533               	.LM1154:
 8534 303a 0E94 0000 		call line_track_new
 8535               	.LM1155:
 8536 303e 85B3      		in r24,53-32
 8537 3040 807F      		andi r24,lo8(-16)
 8538 3042 85BB      		out 53-32,r24
 8539               	.LM1156:
 8540 3044 85B3      		in r24,53-32
 8541 3046 9091 0000 		lds r25,sensorbyte
 8542 304a 892B      		or r24,r25
 8543 304c 85BB      		out 53-32,r24
 8544               	.LM1157:
 8545 304e CF99      		sbic 57-32,7
 8546 3050 00C0      		rjmp .L600
 8547               	.LM1158:
 8548 3052 0E94 0000 		call right_junc_check
 8549               	.L600:
 8550               	.LM1159:
 8551 3056 0E94 0000 		call left_junc_check
 8552               	.LM1160:
 8553 305a 0E94 0000 		call frSensorCheck
 8554               	.LM1161:
 8555 305e 8091 0000 		lds r24,irc
 8556 3062 9091 0000 		lds r25,(irc)+1
 8557 3066 0196      		adiw r24,1
 8558 3068 9093 0000 		sts (irc)+1,r25
 8559 306c 8093 0000 		sts irc,r24
 8560               	.L599:
 8561               	.LM1162:
 8562 3070 8091 0000 		lds r24,repeat
 8563 3074 9091 0000 		lds r25,(repeat)+1
 8564 3078 0397      		sbiw r24,3
 8565 307a 04F0      		brlt .L601
 8566               	.LBB781:
 8567               	.LBB775:
 8568               	.LM1163:
 8569 307c FBBC      		out (74)+1-32,r15
 8570 307e EABC      		out 74-32,r14
 8571               	.LBE775:
 8572               	.LBE781:
 8573               	.LBB782:
 8574               	.LBB783:
 8575               	.LM1164:
 8576 3080 F9BC      		out (72)+1-32,r15
 8577 3082 E8BC      		out 72-32,r14
 8578               	.LBE783:
 8579               	.LBE782:
 8580               	.LBB784:
 8581               	.LBB785:
 8582               	.LM1165:
 8583 3084 AC9A      		sbi 53-32,4
 8584               	.LM1166:
 8585 3086 AD9A      		sbi 53-32,5
 8586               	.LM1167:
 8587 3088 AE9A      		sbi 53-32,6
 8588               	.LM1168:
 8589 308a AF9A      		sbi 53-32,7
 8590               	.LBE785:
 8591               	.LBE784:
 8592               	.LM1169:
 8593 308c 0E94 0000 		call fill_missed_array
 8594               	.LM1170:
 8595 3090 1092 0000 		sts (mx)+1,__zero_reg__
 8596 3094 1092 0000 		sts mx,__zero_reg__
 8597               	.LM1171:
 8598 3098 1092 0000 		sts (my)+1,__zero_reg__
 8599 309c 1092 0000 		sts my,__zero_reg__
 8600               	.LM1172:
 8601 30a0 0E94 0000 		call coordinates_tobe_reached
 8602               	.LM1173:
 8603 30a4 8091 0000 		lds r24,mx
 8604 30a8 9091 0000 		lds r25,(mx)+1
 8605 30ac 892B      		or r24,r25
 8606 30ae 01F0      		breq .+2
 8607 30b0 00C0      		rjmp .L608
 8608 30b2 8091 0000 		lds r24,my
 8609 30b6 9091 0000 		lds r25,(my)+1
 8610 30ba 892B      		or r24,r25
 8611 30bc 01F0      		breq .+2
 8612 30be 00C0      		rjmp .L608
 8613               	/* epilogue start */
 8614               	.LM1174:
 8615 30c0 DF91      		pop r29
 8616 30c2 CF91      		pop r28
 8617 30c4 1F91      		pop r17
 8618 30c6 0F91      		pop r16
 8619 30c8 FF90      		pop r15
 8620 30ca EF90      		pop r14
 8621 30cc 0895      		ret
 8622               	.LFE75:
 8624               	.global	retrieve_threshold
 8626               	retrieve_threshold:
 8627               	.LFB52:
 8628               	.LM1175:
 8629               	/* prologue: function */
 8630               	/* frame size = 0 */
 8631               	.LBB786:
 8632               	.LM1176:
 8633 30ce 80E0      		ldi r24,lo8(0)
 8634 30d0 90E0      		ldi r25,hi8(0)
 8635 30d2 0E94 0000 		call __eerd_byte_m32
 8636 30d6 8093 0000 		sts threshold1,r24
 8637 30da 81E0      		ldi r24,lo8(1)
 8638 30dc 90E0      		ldi r25,hi8(1)
 8639 30de 0E94 0000 		call __eerd_byte_m32
 8640 30e2 8093 0000 		sts threshold1+1,r24
 8641 30e6 82E0      		ldi r24,lo8(2)
 8642 30e8 90E0      		ldi r25,hi8(2)
 8643 30ea 0E94 0000 		call __eerd_byte_m32
 8644 30ee 8093 0000 		sts threshold1+2,r24
 8645 30f2 83E0      		ldi r24,lo8(3)
 8646 30f4 90E0      		ldi r25,hi8(3)
 8647 30f6 0E94 0000 		call __eerd_byte_m32
 8648 30fa 8093 0000 		sts threshold1+3,r24
 8649               	/* epilogue start */
 8650               	.LBE786:
 8651               	.LM1177:
 8652 30fe 0895      		ret
 8653               	.LFE52:
 8655               	.global	set_threshold
 8657               	set_threshold:
 8658               	.LFB17:
 8659               	.LM1178:
 8660 3100 CF93      		push r28
 8661 3102 DF93      		push r29
 8662               	/* prologue: function */
 8663               	/* frame size = 0 */
 8664               	.LM1179:
 8665 3104 2091 0000 		lds r18,min
 8666 3108 8091 0000 		lds r24,max
 8667 310c 90E0      		ldi r25,lo8(0)
 8668 310e 820F      		add r24,r18
 8669 3110 911D      		adc r25,__zero_reg__
 8670 3112 9595      		asr r25
 8671 3114 8795      		ror r24
 8672 3116 8093 0000 		sts threshold1,r24
 8673 311a 2091 0000 		lds r18,min+1
 8674 311e 8091 0000 		lds r24,max+1
 8675 3122 90E0      		ldi r25,lo8(0)
 8676 3124 820F      		add r24,r18
 8677 3126 911D      		adc r25,__zero_reg__
 8678 3128 9595      		asr r25
 8679 312a 8795      		ror r24
 8680 312c 8093 0000 		sts threshold1+1,r24
 8681 3130 2091 0000 		lds r18,min+2
 8682 3134 8091 0000 		lds r24,max+2
 8683 3138 90E0      		ldi r25,lo8(0)
 8684 313a 820F      		add r24,r18
 8685 313c 911D      		adc r25,__zero_reg__
 8686 313e 9595      		asr r25
 8687 3140 8795      		ror r24
 8688 3142 8093 0000 		sts threshold1+2,r24
 8689 3146 2091 0000 		lds r18,min+3
 8690 314a 8091 0000 		lds r24,max+3
 8691 314e 90E0      		ldi r25,lo8(0)
 8692 3150 820F      		add r24,r18
 8693 3152 911D      		adc r25,__zero_reg__
 8694 3154 9595      		asr r25
 8695 3156 8795      		ror r24
 8696 3158 8093 0000 		sts threshold1+3,r24
 8697 315c C0E0      		ldi r28,lo8(0)
 8698 315e D0E0      		ldi r29,hi8(0)
 8699               	.LVL211:
 8700               	.L613:
 8701               	.LBB787:
 8702               	.LM1180:
 8703 3160 FE01      		movw r30,r28
 8704 3162 E050      		subi r30,lo8(-(threshold1))
 8705 3164 F040      		sbci r31,hi8(-(threshold1))
 8706 3166 CE01      		movw r24,r28
 8707 3168 6081      		ld r22,Z
 8708 316a 0E94 0000 		call __eewr_byte_m32
 8709               	.LM1181:
 8710 316e 2196      		adiw r28,1
 8711 3170 C430      		cpi r28,4
 8712 3172 D105      		cpc r29,__zero_reg__
 8713 3174 01F4      		brne .L613
 8714               	/* epilogue start */
 8715               	.LBE787:
 8716               	.LM1182:
 8717 3176 DF91      		pop r29
 8718 3178 CF91      		pop r28
 8719               	.LVL212:
 8720 317a 0895      		ret
 8721               	.LFE17:
 8723               	.global	sensorbyte
 8724               	.global	sensorbyte
 8725               		.section .bss
 8728               	sensorbyte:
 8729 0000 00        		.skip 1,0
 8730               	.global	mpos
 8731               	.global	mpos
 8734               	mpos:
 8735 0001 0000      		.skip 2,0
 8736               	.global	opt
 8737               		.data
 8740               	opt:
 8741 00ab 0401      		.word	260
 8742               	.global	kp
 8745               	kp:
 8746 00ad 00        		.byte	0
 8747 00ae 00        		.byte	0
 8748 00af 70        		.byte	112
 8749 00b0 41        		.byte	65
 8750               	.global	kd
 8753               	kd:
 8754 00b1 66        		.byte	102
 8755 00b2 66        		.byte	102
 8756 00b3 46        		.byte	70
 8757 00b4 40        		.byte	64
 8758               	.global	flcount
 8759               	.global	flcount
 8760               		.section .bss
 8763               	flcount:
 8764 0003 0000      		.skip 2,0
 8765               	.global	l
 8766               	.global	l
 8769               	l:
 8770 0005 0000      		.skip 2,0
 8771               	.global	lcount
 8772               	.global	lcount
 8775               	lcount:
 8776 0007 0000      		.skip 2,0
 8777               	.global	straight
 8778               	.global	straight
 8781               	straight:
 8782 0009 0000      		.skip 2,0
 8783               	.global	lcountPrev
 8784               	.global	lcountPrev
 8787               	lcountPrev:
 8788 000b 0000      		.skip 2,0
 8789               	.global	flag1
 8790               	.global	flag1
 8793               	flag1:
 8794 000d 0000      		.skip 2,0
 8795               	.global	irc
 8796               	.global	irc
 8799               	irc:
 8800 000f 0000      		.skip 2,0
 8801               	.global	temp
 8802               	.global	temp
 8805               	temp:
 8806 0011 0000      		.skip 2,0
 8807               	.global	turn
 8808               		.data
 8811               	turn:
 8812 00b5 73        		.byte	115
 8813               	.global	dir
 8816               	dir:
 8817 00b6 0200      		.word	2
 8818               	.global	Coordinates_changed_by
 8819               	.global	Coordinates_changed_by
 8820               		.section .bss
 8823               	Coordinates_changed_by:
 8824 0013 0000      		.skip 2,0
 8825               	.global	x_coordinate
 8826               		.data
 8829               	x_coordinate:
 8830 00b8 0700      		.word	7
 8831               	.global	y_coordinate
 8834               	y_coordinate:
 8835 00ba 0700      		.word	7
 8836               	.global	mx
 8837               	.global	mx
 8838               		.section .bss
 8841               	mx:
 8842 0015 0000      		.skip 2,0
 8843               	.global	my
 8844               	.global	my
 8847               	my:
 8848 0017 0000      		.skip 2,0
 8849               	.global	special_flag
 8850               	.global	special_flag
 8853               	special_flag:
 8854 0019 0000      		.skip 2,0
 8855               	.global	repeat
 8856               	.global	repeat
 8859               	repeat:
 8860 001b 0000      		.skip 2,0
 8861               	.global	ipl
 8862               	.global	ipl
 8865               	ipl:
 8866 001d 0000      		.skip 2,0
 8867               		.comm min,4,1
 8868               		.comm max,4,1
 8869               		.comm threshold1,4,1
 8870               		.comm control,4,1
 8871               		.comm prev_error,4,1
 8872               		.comm act_error,4,1
 8873               		.comm dir_array,1024,1
 8874               		.comm map_array,512,1
 8875               		.comm path_array,60,1
 8876               		.comm right,2,1
 9469               	.Letext0:
DEFINED SYMBOLS
                            *ABS*:00000000 main.c
C:\Users\Chirag\AppData\Local\Temp/cchxBKMw.s:2      *ABS*:0000003f __SREG__
C:\Users\Chirag\AppData\Local\Temp/cchxBKMw.s:3      *ABS*:0000003e __SP_H__
C:\Users\Chirag\AppData\Local\Temp/cchxBKMw.s:4      *ABS*:0000003d __SP_L__
C:\Users\Chirag\AppData\Local\Temp/cchxBKMw.s:5      *ABS*:00000034 __CCP__
C:\Users\Chirag\AppData\Local\Temp/cchxBKMw.s:6      *ABS*:00000000 __tmp_reg__
C:\Users\Chirag\AppData\Local\Temp/cchxBKMw.s:7      *ABS*:00000001 __zero_reg__
C:\Users\Chirag\AppData\Local\Temp/cchxBKMw.s:18     .text:00000000 port_init
C:\Users\Chirag\AppData\Local\Temp/cchxBKMw.s:47     .text:00000014 pwm1_init
C:\Users\Chirag\AppData\Local\Temp/cchxBKMw.s:89     .text:00000038 adc_init
C:\Users\Chirag\AppData\Local\Temp/cchxBKMw.s:114    .text:0000004a adc_start
C:\Users\Chirag\AppData\Local\Temp/cchxBKMw.s:144    .text:0000005c delay_sec
C:\Users\Chirag\AppData\Local\Temp/cchxBKMw.s:208    .text:0000008e delay_millisec
C:\Users\Chirag\AppData\Local\Temp/cchxBKMw.s:343    .text:00000138 delay_microsec
C:\Users\Chirag\AppData\Local\Temp/cchxBKMw.s:544    .text:0000023e check_sensors
C:\Users\Chirag\AppData\Local\Temp/cchxBKMw.s:8728   .bss:00000000 sensorbyte
C:\Users\Chirag\AppData\Local\Temp/cchxBKMw.s:595    .text:00000286 calibrate_white
                            *COM*:00000004 max
C:\Users\Chirag\AppData\Local\Temp/cchxBKMw.s:620    .text:000002b0 calibrate_black
                            *COM*:00000004 min
C:\Users\Chirag\AppData\Local\Temp/cchxBKMw.s:645    .text:000002da flick
C:\Users\Chirag\AppData\Local\Temp/cchxBKMw.s:687    .text:0000030a set_pwm1a
C:\Users\Chirag\AppData\Local\Temp/cchxBKMw.s:704    .text:00000310 set_pwm1b
C:\Users\Chirag\AppData\Local\Temp/cchxBKMw.s:721    .text:00000316 lcd_busy_loop
C:\Users\Chirag\AppData\Local\Temp/cchxBKMw.s:906    .text:0000036c lcd_byte
C:\Users\Chirag\AppData\Local\Temp/cchxBKMw.s:1045   .text:000003bc lcd_init
C:\Users\Chirag\AppData\Local\Temp/cchxBKMw.s:1181   .text:0000041c lcd_write_string
C:\Users\Chirag\AppData\Local\Temp/cchxBKMw.s:1214   .text:00000438 lcd_write_int
C:\Users\Chirag\AppData\Local\Temp/cchxBKMw.s:1345   .text:000004f4 lcd_goto_xy
C:\Users\Chirag\AppData\Local\Temp/cchxBKMw.s:1372   .text:00000506 lcd_write_string_xy
C:\Users\Chirag\AppData\Local\Temp/cchxBKMw.s:1397   .text:0000051c lcd_write_int_xy
C:\Users\Chirag\AppData\Local\Temp/cchxBKMw.s:1429   .text:0000053e usart_init
C:\Users\Chirag\AppData\Local\Temp/cchxBKMw.s:1456   .text:00000552 usart_transmit_char
C:\Users\Chirag\AppData\Local\Temp/cchxBKMw.s:1475   .text:0000055a usart_transmit_string
C:\Users\Chirag\AppData\Local\Temp/cchxBKMw.s:1509   .text:0000056e usart_transmit_newline
C:\Users\Chirag\AppData\Local\Temp/cchxBKMw.s:1543   .text:00000580 usart_receive_char
C:\Users\Chirag\AppData\Local\Temp/cchxBKMw.s:1561   .text:00000588 bot_motion_init
C:\Users\Chirag\AppData\Local\Temp/cchxBKMw.s:1576   .text:0000058e bot_left_forward
C:\Users\Chirag\AppData\Local\Temp/cchxBKMw.s:1596   .text:00000598 bot_left_backward
C:\Users\Chirag\AppData\Local\Temp/cchxBKMw.s:1616   .text:000005a2 bot_right_forward
C:\Users\Chirag\AppData\Local\Temp/cchxBKMw.s:1636   .text:000005ac bot_left
C:\Users\Chirag\AppData\Local\Temp/cchxBKMw.s:1660   .text:000005b6 bot_right
C:\Users\Chirag\AppData\Local\Temp/cchxBKMw.s:1684   .text:000005c0 bot_right_backward
C:\Users\Chirag\AppData\Local\Temp/cchxBKMw.s:1704   .text:000005ca bot_forward
C:\Users\Chirag\AppData\Local\Temp/cchxBKMw.s:1724   .text:000005d4 bot_backward
C:\Users\Chirag\AppData\Local\Temp/cchxBKMw.s:1744   .text:000005de bot_spot_left
C:\Users\Chirag\AppData\Local\Temp/cchxBKMw.s:1764   .text:000005e8 bot_spot_right
C:\Users\Chirag\AppData\Local\Temp/cchxBKMw.s:1784   .text:000005f2 bot_stop
C:\Users\Chirag\AppData\Local\Temp/cchxBKMw.s:1804   .text:000005fc bot_brake
C:\Users\Chirag\AppData\Local\Temp/cchxBKMw.s:1824   .text:00000606 switch_init
C:\Users\Chirag\AppData\Local\Temp/cchxBKMw.s:1844   .text:00000614 pressed_switch0
C:\Users\Chirag\AppData\Local\Temp/cchxBKMw.s:1864   .text:00000624 pressed_switch1
C:\Users\Chirag\AppData\Local\Temp/cchxBKMw.s:1886   .text:00000638 pressed_switch2
C:\Users\Chirag\AppData\Local\Temp/cchxBKMw.s:1910   .text:00000650 pressed_switch3
C:\Users\Chirag\AppData\Local\Temp/cchxBKMw.s:1935   .text:0000066a line_track
C:\Users\Chirag\AppData\Local\Temp/cchxBKMw.s:8734   .bss:00000001 mpos
C:\Users\Chirag\AppData\Local\Temp/cchxBKMw.s:8793   .bss:0000000d flag1
                            *COM*:00000004 prev_error
                            *COM*:00000004 act_error
C:\Users\Chirag\AppData\Local\Temp/cchxBKMw.s:8745   .data:000000ad kp
C:\Users\Chirag\AppData\Local\Temp/cchxBKMw.s:8753   .data:000000b1 kd
                            *COM*:00000004 control
C:\Users\Chirag\AppData\Local\Temp/cchxBKMw.s:8740   .data:000000ab opt
C:\Users\Chirag\AppData\Local\Temp/cchxBKMw.s:2155   .text:0000080c init_devices
C:\Users\Chirag\AppData\Local\Temp/cchxBKMw.s:2210   .text:0000083c Uturn
C:\Users\Chirag\AppData\Local\Temp/cchxBKMw.s:8811   .data:000000b5 turn
C:\Users\Chirag\AppData\Local\Temp/cchxBKMw.s:2354   .text:000008a2 left_count
C:\Users\Chirag\AppData\Local\Temp/cchxBKMw.s:8769   .bss:00000005 l
C:\Users\Chirag\AppData\Local\Temp/cchxBKMw.s:8775   .bss:00000007 lcount
C:\Users\Chirag\AppData\Local\Temp/cchxBKMw.s:2389   .text:000008dc special_case_check
C:\Users\Chirag\AppData\Local\Temp/cchxBKMw.s:2488   .text:0000094c line_track_new
C:\Users\Chirag\AppData\Local\Temp/cchxBKMw.s:2591   .text:000009bc end_zone_uturn
C:\Users\Chirag\AppData\Local\Temp/cchxBKMw.s:2748   .text:00000a38 turn_left
C:\Users\Chirag\AppData\Local\Temp/cchxBKMw.s:2942   .text:00000ad4 turn_right
C:\Users\Chirag\AppData\Local\Temp/cchxBKMw.s:3138   .text:00000b74 sense_of_directon
C:\Users\Chirag\AppData\Local\Temp/cchxBKMw.s:8816   .data:000000b6 dir
C:\Users\Chirag\AppData\Local\Temp/cchxBKMw.s:3262   .text:00000c42 is_coordinate_null
                            *COM*:00000400 dir_array
C:\Users\Chirag\AppData\Local\Temp/cchxBKMw.s:3327   .text:00000ca0 update_array
C:\Users\Chirag\AppData\Local\Temp/cchxBKMw.s:8829   .data:000000b8 x_coordinate
C:\Users\Chirag\AppData\Local\Temp/cchxBKMw.s:8834   .data:000000ba y_coordinate
C:\Users\Chirag\AppData\Local\Temp/cchxBKMw.s:3520   .text:00000ddc update_coordinates
C:\Users\Chirag\AppData\Local\Temp/cchxBKMw.s:8823   .bss:00000013 Coordinates_changed_by
C:\Users\Chirag\AppData\Local\Temp/cchxBKMw.s:8859   .bss:0000001b repeat
C:\Users\Chirag\AppData\Local\Temp/cchxBKMw.s:4018   .text:00001246 left_junc_check
C:\Users\Chirag\AppData\Local\Temp/cchxBKMw.s:8799   .bss:0000000f irc
C:\Users\Chirag\AppData\Local\Temp/cchxBKMw.s:8853   .bss:00000019 special_flag
C:\Users\Chirag\AppData\Local\Temp/cchxBKMw.s:4170   .text:00001344 frSensorCheck
C:\Users\Chirag\AppData\Local\Temp/cchxBKMw.s:4273   .text:000013e0 fill_missed_array
C:\Users\Chirag\AppData\Local\Temp/cchxBKMw.s:4475   .text:00001518 coordinates_tobe_reached
C:\Users\Chirag\AppData\Local\Temp/cchxBKMw.s:8841   .bss:00000015 mx
C:\Users\Chirag\AppData\Local\Temp/cchxBKMw.s:8847   .bss:00000017 my
C:\Users\Chirag\AppData\Local\Temp/cchxBKMw.s:5052   .text:00001972 get_path
                            *COM*:0000003c path_array
C:\Users\Chirag\AppData\Local\Temp/cchxBKMw.s:8865   .bss:0000001d ipl
                            *COM*:00000200 map_array
C:\Users\Chirag\AppData\Local\Temp/cchxBKMw.s:5974   .text:00001fee build_map
C:\Users\Chirag\AppData\Local\Temp/cchxBKMw.s:6339   .text:00002230 checkAndCorrectDirection
C:\Users\Chirag\AppData\Local\Temp/cchxBKMw.s:6556   .text:000023b0 go_to_coordinate
                            *COM*:00000002 right
C:\Users\Chirag\AppData\Local\Temp/cchxBKMw.s:6797   .text:00002508 print_path
C:\Users\Chirag\AppData\Local\Temp/cchxBKMw.s:6904   .text:00002594 end_zone
C:\Users\Chirag\AppData\Local\Temp/cchxBKMw.s:8297   .text:00002e9a map_all
C:\Users\Chirag\AppData\Local\Temp/cchxBKMw.s:7353   .text:00002846 right_junc_check
C:\Users\Chirag\AppData\Local\Temp/cchxBKMw.s:8787   .bss:0000000b lcountPrev
C:\Users\Chirag\AppData\Local\Temp/cchxBKMw.s:8781   .bss:00000009 straight
C:\Users\Chirag\AppData\Local\Temp/cchxBKMw.s:8805   .bss:00000011 temp
C:\Users\Chirag\AppData\Local\Temp/cchxBKMw.s:7694   .text:00002a6c main
C:\Users\Chirag\AppData\Local\Temp/cchxBKMw.s:8626   .text:000030ce retrieve_threshold
                            *COM*:00000004 threshold1
C:\Users\Chirag\AppData\Local\Temp/cchxBKMw.s:8657   .text:00003100 set_threshold
C:\Users\Chirag\AppData\Local\Temp/cchxBKMw.s:8763   .bss:00000003 flcount

UNDEFINED SYMBOLS
__floatsisf
__mulsf3
__ltsf2
__gtsf2
__fixunssfsi
__divsf3
__divmodhi4
__subsf3
__floatunsisf
__fixsfsi
__addsf3
__eewr_word_m32
__eerd_word_m32
__eerd_byte_m32
__eewr_byte_m32
__do_copy_data
__do_clear_bss
