   1               		.file	"main.c"
   2               	__SREG__ = 0x3f
   3               	__SP_H__ = 0x3e
   4               	__SP_L__ = 0x3d
   5               	__CCP__  = 0x34
   6               	__tmp_reg__ = 0
   7               	__zero_reg__ = 1
  15               	.Ltext0:
  16               	.global	port_init
  18               	port_init:
  19               	.LFB7:
  20               	.LM1:
  21               	/* prologue: function */
  22               	/* frame size = 0 */
  23               	.LM2:
  24 0000 8FEF      		ldi r24,lo8(-1)
  25 0002 8BBB      		out 59-32,r24
  26               	.LM3:
  27 0004 1ABA      		out 58-32,__zero_reg__
  28               	.LM4:
  29 0006 88BB      		out 56-32,r24
  30               	.LM5:
  31 0008 17BA      		out 55-32,__zero_reg__
  32               	.LM6:
  33 000a 15BA      		out 53-32,__zero_reg__
  34               	.LM7:
  35 000c 84BB      		out 52-32,r24
  36               	.LM8:
  37 000e 82BB      		out 50-32,r24
  38               	.LM9:
  39 0010 11BA      		out 49-32,__zero_reg__
  40               	/* epilogue start */
  41               	.LM10:
  42 0012 0895      		ret
  43               	.LFE7:
  45               	.global	pwm1_init
  47               	pwm1_init:
  48               	.LFB8:
  49               	.LM11:
  50               	/* prologue: function */
  51               	/* frame size = 0 */
  52               	.LM12:
  53 0014 8C9A      		sbi 49-32,4
  54               	.LM13:
  55 0016 8D9A      		sbi 49-32,5
  56               	.LM14:
  57 0018 1EBC      		out 78-32,__zero_reg__
  58               	.LM15:
  59 001a 1DBC      		out 77-32,__zero_reg__
  60               	.LM16:
  61 001c 1CBC      		out 76-32,__zero_reg__
  62               	.LM17:
  63 001e 1BBC      		out 75-32,__zero_reg__
  64               	.LM18:
  65 0020 1ABC      		out 74-32,__zero_reg__
  66               	.LM19:
  67 0022 19BC      		out 73-32,__zero_reg__
  68               	.LM20:
  69 0024 18BC      		out 72-32,__zero_reg__
  70               	.LM21:
  71 0026 81E0      		ldi r24,lo8(1)
  72 0028 87BD      		out 71-32,r24
  73               	.LM22:
  74 002a 8FE8      		ldi r24,lo8(-113)
  75 002c 86BD      		out 70-32,r24
  76               	.LM23:
  77 002e 82EA      		ldi r24,lo8(-94)
  78 0030 8FBD      		out 79-32,r24
  79               	.LM24:
  80 0032 89E1      		ldi r24,lo8(25)
  81 0034 8EBD      		out 78-32,r24
  82               	/* epilogue start */
  83               	.LM25:
  84 0036 0895      		ret
  85               	.LFE8:
  87               	.global	adc_init
  89               	adc_init:
  90               	.LFB9:
  91               	.LM26:
  92               	/* prologue: function */
  93               	/* frame size = 0 */
  94               	.LM27:
  95 0038 1ABA      		out 58-32,__zero_reg__
  96               	.LM28:
  97 003a 16B8      		out 38-32,__zero_reg__
  98               	.LM29:
  99 003c 80E6      		ldi r24,lo8(96)
 100 003e 87B9      		out 39-32,r24
 101               	.LM30:
 102 0040 87E8      		ldi r24,lo8(-121)
 103 0042 86B9      		out 38-32,r24
 104               	.LM31:
 105 0044 80E8      		ldi r24,lo8(-128)
 106 0046 88B9      		out 40-32,r24
 107               	/* epilogue start */
 108               	.LM32:
 109 0048 0895      		ret
 110               	.LFE9:
 112               	.global	adc_start
 114               	adc_start:
 115               	.LFB10:
 116               	.LM33:
 117               	.LVL0:
 118               	/* prologue: function */
 119               	/* frame size = 0 */
 120               	.LM34:
 121 004a 15B8      		out 37-32,__zero_reg__
 122               	.LM35:
 123 004c 8770      		andi r24,lo8(7)
 124               	.LVL1:
 125 004e 8066      		ori r24,lo8(96)
 126 0050 87B9      		out 39-32,r24
 127               	.LM36:
 128 0052 369A      		sbi 38-32,6
 129               	.L8:
 130               	.LM37:
 131 0054 3699      		sbic 38-32,6
 132 0056 00C0      		rjmp .L8
 133               	.LM38:
 134 0058 85B1      		in r24,37-32
 135               	.LVL2:
 136               	.LVL3:
 137               	/* epilogue start */
 138               	.LM39:
 139 005a 0895      		ret
 140               	.LFE10:
 142               	.global	delay_sec
 144               	delay_sec:
 145               	.LFB11:
 146               	.LM40:
 147               	.LVL4:
 148               	/* prologue: function */
 149               	/* frame size = 0 */
 150 005c AC01      		movw r20,r24
 151               	.LM41:
 152 005e 30E0      		ldi r19,lo8(0)
 153               	.LVL5:
 154               	.LBB429:
 155               	.LBB430:
 156               	.LBB431:
 157               	.LBB432:
 158               	.LM42:
 159 0060 60E9      		ldi r22,lo8(400)
 160 0062 71E0      		ldi r23,hi8(400)
 161 0064 00C0      		rjmp .L12
 162               	.LVL6:
 163               	.L13:
 164 0066 FB01      		movw r30,r22
 165               	/* #APP */
 166               	 ;  105 "c:/winavr-20100110/lib/gcc/../../avr/include/util/delay_basic.h" 1
 167 0068 3197      		1: sbiw r30,1
 168 006a 01F4      		brne 1b
 169               	 ;  0 "" 2
 170               	/* #NOAPP */
 171               	.LBE432:
 172               	.LBE431:
 173               	.LM43:
 174 006c 0197      		sbiw r24,1
 175               	.LM44:
 176 006e 01F4      		brne .L13
 177               	.LBE430:
 178               	.LBE429:
 179               	.LM45:
 180 0070 2F5F      		subi r18,lo8(-(1))
 181 0072 2430      		cpi r18,lo8(4)
 182 0074 01F0      		breq .L14
 183               	.LVL7:
 184               	.L16:
 185 0076 84EC      		ldi r24,lo8(2500)
 186 0078 99E0      		ldi r25,hi8(2500)
 187 007a 00C0      		rjmp .L13
 188               	.L14:
 189               	.LM46:
 190 007c 3F5F      		subi r19,lo8(-(1))
 191               	.LVL8:
 192               	.L12:
 193 007e 832F      		mov r24,r19
 194               	.LVL9:
 195 0080 90E0      		ldi r25,lo8(0)
 196 0082 8417      		cp r24,r20
 197 0084 9507      		cpc r25,r21
 198 0086 04F4      		brge .L17
 199               	.LVL10:
 200 0088 20E0      		ldi r18,lo8(0)
 201 008a 00C0      		rjmp .L16
 202               	.L17:
 203 008c 0895      		ret
 204               	.LFE11:
 206               	.global	delay_millisec
 208               	delay_millisec:
 209               	.LFB12:
 210               	.LM47:
 211               	.LVL11:
 212 008e AF92      		push r10
 213 0090 BF92      		push r11
 214 0092 CF92      		push r12
 215 0094 DF92      		push r13
 216 0096 EF92      		push r14
 217 0098 FF92      		push r15
 218 009a 0F93      		push r16
 219 009c 1F93      		push r17
 220               	/* prologue: function */
 221               	/* frame size = 0 */
 222               	.LM48:
 223 009e AA27      		clr r26
 224 00a0 97FD      		sbrc r25,7
 225 00a2 A095      		com r26
 226 00a4 BA2F      		mov r27,r26
 227               	.LVL12:
 228 00a6 BC01      		movw r22,r24
 229 00a8 CD01      		movw r24,r26
 230 00aa 0E94 0000 		call __floatsisf
 231               	.LVL13:
 232 00ae 5B01      		movw r10,r22
 233 00b0 6C01      		movw r12,r24
 234               	.LBB433:
 235               	.LBB434:
 236               	.LM49:
 237 00b2 20E0      		ldi r18,lo8(0x457a0000)
 238 00b4 30E0      		ldi r19,hi8(0x457a0000)
 239 00b6 4AE7      		ldi r20,hlo8(0x457a0000)
 240 00b8 55E4      		ldi r21,hhi8(0x457a0000)
 241 00ba 0E94 0000 		call __mulsf3
 242 00be 7B01      		movw r14,r22
 243 00c0 8C01      		movw r16,r24
 244               	.LM50:
 245 00c2 20E0      		ldi r18,lo8(0x3f800000)
 246 00c4 30E0      		ldi r19,hi8(0x3f800000)
 247 00c6 40E8      		ldi r20,hlo8(0x3f800000)
 248 00c8 5FE3      		ldi r21,hhi8(0x3f800000)
 249 00ca 0E94 0000 		call __ltsf2
 250 00ce 8823      		tst r24
 251 00d0 04F4      		brge .L31
 252 00d2 61E0      		ldi r22,lo8(1)
 253 00d4 70E0      		ldi r23,hi8(1)
 254               	.LVL14:
 255 00d6 00C0      		rjmp .L22
 256               	.LVL15:
 257               	.L31:
 258               	.LM51:
 259 00d8 C801      		movw r24,r16
 260 00da B701      		movw r22,r14
 261 00dc 20E0      		ldi r18,lo8(0x477fff00)
 262 00de 3FEF      		ldi r19,hi8(0x477fff00)
 263 00e0 4FE7      		ldi r20,hlo8(0x477fff00)
 264 00e2 57E4      		ldi r21,hhi8(0x477fff00)
 265 00e4 0E94 0000 		call __gtsf2
 266 00e8 1816      		cp __zero_reg__,r24
 267 00ea 04F4      		brge .L32
 268               	.LM52:
 269 00ec C601      		movw r24,r12
 270 00ee B501      		movw r22,r10
 271 00f0 20E0      		ldi r18,lo8(0x41200000)
 272 00f2 30E0      		ldi r19,hi8(0x41200000)
 273 00f4 40E2      		ldi r20,hlo8(0x41200000)
 274 00f6 51E4      		ldi r21,hhi8(0x41200000)
 275 00f8 0E94 0000 		call __mulsf3
 276 00fc 0E94 0000 		call __fixunssfsi
 277               	.LBB435:
 278               	.LBB436:
 279               	.LM53:
 280 0100 80E9      		ldi r24,lo8(400)
 281 0102 91E0      		ldi r25,hi8(400)
 282 0104 00C0      		rjmp .L25
 283               	.LVL16:
 284               	.L26:
 285 0106 FC01      		movw r30,r24
 286               	/* #APP */
 287               	 ;  105 "c:/winavr-20100110/lib/gcc/../../avr/include/util/delay_basic.h" 1
 288 0108 3197      		1: sbiw r30,1
 289 010a 01F4      		brne 1b
 290               	 ;  0 "" 2
 291               	/* #NOAPP */
 292               	.LBE436:
 293               	.LBE435:
 294               	.LM54:
 295 010c 6150      		subi r22,lo8(-(-1))
 296 010e 7040      		sbci r23,hi8(-(-1))
 297               	.L25:
 298               	.LM55:
 299 0110 6115      		cp r22,__zero_reg__
 300 0112 7105      		cpc r23,__zero_reg__
 301 0114 01F4      		brne .L26
 302 0116 00C0      		rjmp .L28
 303               	.LVL17:
 304               	.L32:
 305               	.LM56:
 306 0118 C801      		movw r24,r16
 307 011a B701      		movw r22,r14
 308 011c 0E94 0000 		call __fixunssfsi
 309               	.LVL18:
 310               	.L22:
 311               	.LBB437:
 312               	.LBB438:
 313               	.LM57:
 314 0120 CB01      		movw r24,r22
 315               	.LVL19:
 316               	/* #APP */
 317               	 ;  105 "c:/winavr-20100110/lib/gcc/../../avr/include/util/delay_basic.h" 1
 318 0122 0197      		1: sbiw r24,1
 319 0124 01F4      		brne 1b
 320               	 ;  0 "" 2
 321               	.LVL20:
 322               	/* #NOAPP */
 323               	.L28:
 324               	/* epilogue start */
 325               	.LBE438:
 326               	.LBE437:
 327               	.LBE434:
 328               	.LBE433:
 329               	.LM58:
 330 0126 1F91      		pop r17
 331 0128 0F91      		pop r16
 332 012a FF90      		pop r15
 333 012c EF90      		pop r14
 334 012e DF90      		pop r13
 335 0130 CF90      		pop r12
 336 0132 BF90      		pop r11
 337 0134 AF90      		pop r10
 338 0136 0895      		ret
 339               	.LFE12:
 341               	.global	delay_microsec
 343               	delay_microsec:
 344               	.LFB13:
 345               	.LM59:
 346               	.LVL21:
 347 0138 AF92      		push r10
 348 013a BF92      		push r11
 349 013c CF92      		push r12
 350 013e DF92      		push r13
 351 0140 EF92      		push r14
 352 0142 FF92      		push r15
 353 0144 0F93      		push r16
 354 0146 1F93      		push r17
 355               	/* prologue: function */
 356               	/* frame size = 0 */
 357               	.LM60:
 358 0148 AA27      		clr r26
 359 014a 97FD      		sbrc r25,7
 360 014c A095      		com r26
 361 014e BA2F      		mov r27,r26
 362               	.LVL22:
 363 0150 BC01      		movw r22,r24
 364 0152 CD01      		movw r24,r26
 365 0154 0E94 0000 		call __floatsisf
 366               	.LVL23:
 367 0158 5B01      		movw r10,r22
 368 015a 6C01      		movw r12,r24
 369               	.LBB439:
 370               	.LBB440:
 371               	.LM61:
 372 015c 2BEA      		ldi r18,lo8(0x40aaaaab)
 373 015e 3AEA      		ldi r19,hi8(0x40aaaaab)
 374 0160 4AEA      		ldi r20,hlo8(0x40aaaaab)
 375 0162 50E4      		ldi r21,hhi8(0x40aaaaab)
 376 0164 0E94 0000 		call __mulsf3
 377 0168 7B01      		movw r14,r22
 378 016a 8C01      		movw r16,r24
 379               	.LM62:
 380 016c 20E0      		ldi r18,lo8(0x3f800000)
 381 016e 30E0      		ldi r19,hi8(0x3f800000)
 382 0170 40E8      		ldi r20,hlo8(0x3f800000)
 383 0172 5FE3      		ldi r21,hhi8(0x3f800000)
 384 0174 0E94 0000 		call __ltsf2
 385 0178 8823      		tst r24
 386 017a 04F4      		brge .L52
 387 017c 61E0      		ldi r22,lo8(1)
 388               	.LVL24:
 389 017e 00C0      		rjmp .L36
 390               	.LVL25:
 391               	.L52:
 392               	.LM63:
 393 0180 C801      		movw r24,r16
 394 0182 B701      		movw r22,r14
 395 0184 20E0      		ldi r18,lo8(0x437f0000)
 396 0186 30E0      		ldi r19,hi8(0x437f0000)
 397 0188 4FE7      		ldi r20,hlo8(0x437f0000)
 398 018a 53E4      		ldi r21,hhi8(0x437f0000)
 399 018c 0E94 0000 		call __gtsf2
 400 0190 1816      		cp __zero_reg__,r24
 401 0192 04F0      		brlt .+2
 402 0194 00C0      		rjmp .L53
 403               	.LM64:
 404 0196 C601      		movw r24,r12
 405 0198 B501      		movw r22,r10
 406 019a 20E0      		ldi r18,lo8(0x447a0000)
 407 019c 30E0      		ldi r19,hi8(0x447a0000)
 408 019e 4AE7      		ldi r20,hlo8(0x447a0000)
 409 01a0 54E4      		ldi r21,hhi8(0x447a0000)
 410 01a2 0E94 0000 		call __divsf3
 411 01a6 5B01      		movw r10,r22
 412 01a8 6C01      		movw r12,r24
 413               	.LBB441:
 414               	.LBB442:
 415               	.LM65:
 416 01aa 20E0      		ldi r18,lo8(0x457a0000)
 417 01ac 30E0      		ldi r19,hi8(0x457a0000)
 418 01ae 4AE7      		ldi r20,hlo8(0x457a0000)
 419 01b0 55E4      		ldi r21,hhi8(0x457a0000)
 420 01b2 0E94 0000 		call __mulsf3
 421 01b6 7B01      		movw r14,r22
 422 01b8 8C01      		movw r16,r24
 423               	.LM66:
 424 01ba 20E0      		ldi r18,lo8(0x3f800000)
 425 01bc 30E0      		ldi r19,hi8(0x3f800000)
 426 01be 40E8      		ldi r20,hlo8(0x3f800000)
 427 01c0 5FE3      		ldi r21,hhi8(0x3f800000)
 428 01c2 0E94 0000 		call __ltsf2
 429 01c6 8823      		tst r24
 430 01c8 04F4      		brge .L54
 431 01ca 61E0      		ldi r22,lo8(1)
 432 01cc 70E0      		ldi r23,hi8(1)
 433               	.LVL26:
 434 01ce 00C0      		rjmp .L41
 435               	.LVL27:
 436               	.L54:
 437               	.LM67:
 438 01d0 C801      		movw r24,r16
 439 01d2 B701      		movw r22,r14
 440 01d4 20E0      		ldi r18,lo8(0x477fff00)
 441 01d6 3FEF      		ldi r19,hi8(0x477fff00)
 442 01d8 4FE7      		ldi r20,hlo8(0x477fff00)
 443 01da 57E4      		ldi r21,hhi8(0x477fff00)
 444 01dc 0E94 0000 		call __gtsf2
 445 01e0 1816      		cp __zero_reg__,r24
 446 01e2 04F4      		brge .L55
 447               	.LM68:
 448 01e4 C601      		movw r24,r12
 449 01e6 B501      		movw r22,r10
 450 01e8 20E0      		ldi r18,lo8(0x41200000)
 451 01ea 30E0      		ldi r19,hi8(0x41200000)
 452 01ec 40E2      		ldi r20,hlo8(0x41200000)
 453 01ee 51E4      		ldi r21,hhi8(0x41200000)
 454 01f0 0E94 0000 		call __mulsf3
 455 01f4 0E94 0000 		call __fixunssfsi
 456               	.LBB443:
 457               	.LBB444:
 458               	.LM69:
 459 01f8 80E9      		ldi r24,lo8(400)
 460 01fa 91E0      		ldi r25,hi8(400)
 461 01fc 00C0      		rjmp .L44
 462               	.LVL28:
 463               	.L45:
 464 01fe FC01      		movw r30,r24
 465               	/* #APP */
 466               	 ;  105 "c:/winavr-20100110/lib/gcc/../../avr/include/util/delay_basic.h" 1
 467 0200 3197      		1: sbiw r30,1
 468 0202 01F4      		brne 1b
 469               	 ;  0 "" 2
 470               	/* #NOAPP */
 471               	.LBE444:
 472               	.LBE443:
 473               	.LM70:
 474 0204 6150      		subi r22,lo8(-(-1))
 475 0206 7040      		sbci r23,hi8(-(-1))
 476               	.L44:
 477               	.LM71:
 478 0208 6115      		cp r22,__zero_reg__
 479 020a 7105      		cpc r23,__zero_reg__
 480 020c 01F4      		brne .L45
 481 020e 00C0      		rjmp .L47
 482               	.LVL29:
 483               	.L55:
 484               	.LM72:
 485 0210 C801      		movw r24,r16
 486 0212 B701      		movw r22,r14
 487 0214 0E94 0000 		call __fixunssfsi
 488               	.LVL30:
 489               	.L41:
 490               	.LBB445:
 491               	.LBB446:
 492               	.LM73:
 493 0218 CB01      		movw r24,r22
 494               	.LVL31:
 495               	/* #APP */
 496               	 ;  105 "c:/winavr-20100110/lib/gcc/../../avr/include/util/delay_basic.h" 1
 497 021a 0197      		1: sbiw r24,1
 498 021c 01F4      		brne 1b
 499               	 ;  0 "" 2
 500               	/* #NOAPP */
 501 021e 00C0      		rjmp .L47
 502               	.LVL32:
 503               	.L53:
 504               	.LBE446:
 505               	.LBE445:
 506               	.LBE442:
 507               	.LBE441:
 508               	.LM74:
 509 0220 C801      		movw r24,r16
 510 0222 B701      		movw r22,r14
 511 0224 0E94 0000 		call __fixunssfsi
 512               	.LVL33:
 513               	.L36:
 514               	.LBB447:
 515               	.LBB448:
 516               	.LM75:
 517               	/* #APP */
 518               	 ;  83 "c:/winavr-20100110/lib/gcc/../../avr/include/util/delay_basic.h" 1
 519 0228 6A95      		1: dec r22
 520 022a 01F4      		brne 1b
 521               	 ;  0 "" 2
 522               	.LVL34:
 523               	/* #NOAPP */
 524               	.L47:
 525               	/* epilogue start */
 526               	.LBE448:
 527               	.LBE447:
 528               	.LBE440:
 529               	.LBE439:
 530               	.LM76:
 531 022c 1F91      		pop r17
 532 022e 0F91      		pop r16
 533 0230 FF90      		pop r15
 534 0232 EF90      		pop r14
 535 0234 DF90      		pop r13
 536 0236 CF90      		pop r12
 537 0238 BF90      		pop r11
 538 023a AF90      		pop r10
 539 023c 0895      		ret
 540               	.LFE13:
 542               	.global	check_sensors
 544               	check_sensors:
 545               	.LFB14:
 546               	.LM77:
 547 023e 0F93      		push r16
 548 0240 1F93      		push r17
 549 0242 CF93      		push r28
 550 0244 DF93      		push r29
 551               	/* prologue: function */
 552               	/* frame size = 0 */
 553               	.LM78:
 554 0246 1092 0000 		sts sensorbyte,__zero_reg__
 555 024a C0E0      		ldi r28,lo8(0)
 556 024c D0E0      		ldi r29,hi8(0)
 557               	.LM79:
 558 024e 01E0      		ldi r16,lo8(1)
 559 0250 10E0      		ldi r17,hi8(1)
 560               	.L58:
 561               	.LM80:
 562 0252 8C2F      		mov r24,r28
 563 0254 0E94 0000 		call adc_start
 564               	.LM81:
 565 0258 8634      		cpi r24,lo8(70)
 566 025a 00F4      		brsh .L57
 567               	.LM82:
 568 025c 9801      		movw r18,r16
 569 025e 0C2E      		mov r0,r28
 570 0260 00C0      		rjmp 2f
 571 0262 220F      	1:	lsl r18
 572 0264 331F      		rol r19
 573 0266 0A94      	2:	dec r0
 574 0268 02F4      		brpl 1b
 575 026a 8091 0000 		lds r24,sensorbyte
 576 026e 822B      		or r24,r18
 577 0270 8093 0000 		sts sensorbyte,r24
 578               	.L57:
 579 0274 2196      		adiw r28,1
 580               	.LM83:
 581 0276 C430      		cpi r28,4
 582 0278 D105      		cpc r29,__zero_reg__
 583 027a 01F4      		brne .L58
 584               	/* epilogue start */
 585               	.LM84:
 586 027c DF91      		pop r29
 587 027e CF91      		pop r28
 588 0280 1F91      		pop r17
 589 0282 0F91      		pop r16
 590 0284 0895      		ret
 591               	.LFE14:
 593               	.global	calibrate_white
 595               	calibrate_white:
 596               	.LFB15:
 597               	.LM85:
 598               	/* prologue: function */
 599               	/* frame size = 0 */
 600               	.LM86:
 601 0286 80E0      		ldi r24,lo8(0)
 602 0288 0E94 0000 		call adc_start
 603 028c 8093 0000 		sts max,r24
 604 0290 81E0      		ldi r24,lo8(1)
 605 0292 0E94 0000 		call adc_start
 606 0296 8093 0000 		sts max+1,r24
 607 029a 82E0      		ldi r24,lo8(2)
 608 029c 0E94 0000 		call adc_start
 609 02a0 8093 0000 		sts max+2,r24
 610 02a4 83E0      		ldi r24,lo8(3)
 611 02a6 0E94 0000 		call adc_start
 612 02aa 8093 0000 		sts max+3,r24
 613               	/* epilogue start */
 614               	.LM87:
 615 02ae 0895      		ret
 616               	.LFE15:
 618               	.global	calibrate_black
 620               	calibrate_black:
 621               	.LFB16:
 622               	.LM88:
 623               	/* prologue: function */
 624               	/* frame size = 0 */
 625               	.LM89:
 626 02b0 80E0      		ldi r24,lo8(0)
 627 02b2 0E94 0000 		call adc_start
 628 02b6 8093 0000 		sts min,r24
 629 02ba 81E0      		ldi r24,lo8(1)
 630 02bc 0E94 0000 		call adc_start
 631 02c0 8093 0000 		sts min+1,r24
 632 02c4 82E0      		ldi r24,lo8(2)
 633 02c6 0E94 0000 		call adc_start
 634 02ca 8093 0000 		sts min+2,r24
 635 02ce 83E0      		ldi r24,lo8(3)
 636 02d0 0E94 0000 		call adc_start
 637 02d4 8093 0000 		sts min+3,r24
 638               	/* epilogue start */
 639               	.LM90:
 640 02d8 0895      		ret
 641               	.LFE16:
 643               	.global	flick
 645               	flick:
 646               	.LFB18:
 647               	.LM91:
 648 02da 1F93      		push r17
 649 02dc CF93      		push r28
 650 02de DF93      		push r29
 651               	/* prologue: function */
 652               	/* frame size = 0 */
 653               	.LM92:
 654 02e0 C0E0      		ldi r28,lo8(0)
 655 02e2 D0E0      		ldi r29,hi8(0)
 656               	.LVL35:
 657               	.LM93:
 658 02e4 1FEF      		ldi r17,lo8(-1)
 659               	.L66:
 660 02e6 15BB      		out 53-32,r17
 661               	.LM94:
 662 02e8 84E6      		ldi r24,lo8(100)
 663 02ea 90E0      		ldi r25,hi8(100)
 664 02ec 0E94 0000 		call delay_millisec
 665               	.LM95:
 666 02f0 15BA      		out 53-32,__zero_reg__
 667               	.LM96:
 668 02f2 84E6      		ldi r24,lo8(100)
 669 02f4 90E0      		ldi r25,hi8(100)
 670 02f6 0E94 0000 		call delay_millisec
 671               	.LM97:
 672 02fa 2196      		adiw r28,1
 673 02fc C530      		cpi r28,5
 674 02fe D105      		cpc r29,__zero_reg__
 675 0300 01F4      		brne .L66
 676               	/* epilogue start */
 677               	.LM98:
 678 0302 DF91      		pop r29
 679 0304 CF91      		pop r28
 680               	.LVL36:
 681 0306 1F91      		pop r17
 682 0308 0895      		ret
 683               	.LFE18:
 685               	.global	set_pwm1a
 687               	set_pwm1a:
 688               	.LFB19:
 689               	.LM99:
 690               	.LVL37:
 691               	/* prologue: function */
 692               	/* frame size = 0 */
 693               	.LM100:
 694 030a 9BBD      		out (74)+1-32,r25
 695 030c 8ABD      		out 74-32,r24
 696               	.LVL38:
 697               	/* epilogue start */
 698               	.LM101:
 699 030e 0895      		ret
 700               	.LFE19:
 702               	.global	set_pwm1b
 704               	set_pwm1b:
 705               	.LFB20:
 706               	.LM102:
 707               	.LVL39:
 708               	/* prologue: function */
 709               	/* frame size = 0 */
 710               	.LM103:
 711 0310 99BD      		out (72)+1-32,r25
 712 0312 88BD      		out 72-32,r24
 713               	.LVL40:
 714               	/* epilogue start */
 715               	.LM104:
 716 0314 0895      		ret
 717               	.LFE20:
 719               	.global	lcd_busy_loop
 721               	lcd_busy_loop:
 722               	.LFB22:
 723               	.LM105:
 724               	/* prologue: function */
 725               	/* frame size = 0 */
 726               	.LM106:
 727 0316 87B3      		in r24,55-32
 728 0318 807F      		andi r24,lo8(-16)
 729 031a 87BB      		out 55-32,r24
 730               	.LM107:
 731 031c C69A      		sbi 56-32,6
 732               	.LM108:
 733 031e C598      		cbi 56-32,5
 734               	.LBB449:
 735               	.LBB450:
 736               	.LBB451:
 737               	.LBB452:
 738               	.LM109:
 739 0320 82E0      		ldi r24,lo8(2)
 740               	.LVL41:
 741               	/* #APP */
 742               	 ;  83 "c:/winavr-20100110/lib/gcc/../../avr/include/util/delay_basic.h" 1
 743 0322 8A95      		1: dec r24
 744 0324 01F4      		brne 1b
 745               	 ;  0 "" 2
 746               	/* #NOAPP */
 747               	.LBE452:
 748               	.LBE451:
 749               	.LBE450:
 750               	.LBE449:
 751               	.LBB453:
 752               	.LBB454:
 753               	.LBB455:
 754               	.LBB456:
 755 0326 22E0      		ldi r18,lo8(2)
 756               	.LBE456:
 757               	.LBE455:
 758               	.LBE454:
 759               	.LBE453:
 760               	.LBB460:
 761               	.LBB461:
 762               	.LBB462:
 763               	.LBB463:
 764 0328 35E0      		ldi r19,lo8(5)
 765               	.L74:
 766               	.LBE463:
 767               	.LBE462:
 768               	.LBE461:
 769               	.LBE460:
 770               	.LM110:
 771 032a C79A      		sbi 56-32,7
 772               	.LBB467:
 773               	.LBB459:
 774               	.LBB458:
 775               	.LBB457:
 776               	.LM111:
 777 032c 822F      		mov r24,r18
 778               	.LVL42:
 779               	/* #APP */
 780               	 ;  83 "c:/winavr-20100110/lib/gcc/../../avr/include/util/delay_basic.h" 1
 781 032e 8A95      		1: dec r24
 782 0330 01F4      		brne 1b
 783               	 ;  0 "" 2
 784               	/* #NOAPP */
 785               	.LBE457:
 786               	.LBE458:
 787               	.LBE459:
 788               	.LBE467:
 789               	.LM112:
 790 0332 86B3      		in r24,54-32
 791               	.LVL43:
 792               	.LM113:
 793 0334 8295      		swap r24
 794 0336 807F      		andi r24,lo8(-16)
 795               	.LBB468:
 796               	.LBB469:
 797               	.LBB470:
 798               	.LBB471:
 799               	.LM114:
 800 0338 922F      		mov r25,r18
 801               	.LVL44:
 802               	/* #APP */
 803               	 ;  83 "c:/winavr-20100110/lib/gcc/../../avr/include/util/delay_basic.h" 1
 804 033a 9A95      		1: dec r25
 805 033c 01F4      		brne 1b
 806               	 ;  0 "" 2
 807               	/* #NOAPP */
 808               	.LBE471:
 809               	.LBE470:
 810               	.LBE469:
 811               	.LBE468:
 812               	.LM115:
 813 033e C798      		cbi 56-32,7
 814               	.LBB472:
 815               	.LBB466:
 816               	.LBB465:
 817               	.LBB464:
 818               	.LM116:
 819 0340 932F      		mov r25,r19
 820               	.LVL45:
 821               	/* #APP */
 822               	 ;  83 "c:/winavr-20100110/lib/gcc/../../avr/include/util/delay_basic.h" 1
 823 0342 9A95      		1: dec r25
 824 0344 01F4      		brne 1b
 825               	 ;  0 "" 2
 826               	/* #NOAPP */
 827               	.LBE464:
 828               	.LBE465:
 829               	.LBE466:
 830               	.LBE472:
 831               	.LM117:
 832 0346 C79A      		sbi 56-32,7
 833               	.LBB473:
 834               	.LBB474:
 835               	.LBB475:
 836               	.LBB476:
 837               	.LM118:
 838 0348 922F      		mov r25,r18
 839               	.LVL46:
 840               	/* #APP */
 841               	 ;  83 "c:/winavr-20100110/lib/gcc/../../avr/include/util/delay_basic.h" 1
 842 034a 9A95      		1: dec r25
 843 034c 01F4      		brne 1b
 844               	 ;  0 "" 2
 845               	/* #NOAPP */
 846               	.LBE476:
 847               	.LBE475:
 848               	.LBE474:
 849               	.LBE473:
 850               	.LM119:
 851 034e 96B3      		in r25,54-32
 852               	.LVL47:
 853               	.LBB477:
 854               	.LBB478:
 855               	.LBB479:
 856               	.LBB480:
 857               	.LM120:
 858 0350 922F      		mov r25,r18
 859               	.LVL48:
 860               	/* #APP */
 861               	 ;  83 "c:/winavr-20100110/lib/gcc/../../avr/include/util/delay_basic.h" 1
 862 0352 9A95      		1: dec r25
 863 0354 01F4      		brne 1b
 864               	 ;  0 "" 2
 865               	/* #NOAPP */
 866               	.LBE480:
 867               	.LBE479:
 868               	.LBE478:
 869               	.LBE477:
 870               	.LM121:
 871 0356 C798      		cbi 56-32,7
 872               	.LBB481:
 873               	.LBB482:
 874               	.LBB483:
 875               	.LBB484:
 876               	.LM122:
 877 0358 932F      		mov r25,r19
 878               	.LVL49:
 879               	/* #APP */
 880               	 ;  83 "c:/winavr-20100110/lib/gcc/../../avr/include/util/delay_basic.h" 1
 881 035a 9A95      		1: dec r25
 882 035c 01F4      		brne 1b
 883               	 ;  0 "" 2
 884               	/* #NOAPP */
 885               	.LBE484:
 886               	.LBE483:
 887               	.LBE482:
 888               	.LBE481:
 889               	.LM123:
 890 035e 87FD      		sbrc r24,7
 891 0360 00C0      		rjmp .L74
 892               	.LM124:
 893 0362 C698      		cbi 56-32,6
 894               	.LM125:
 895 0364 87B3      		in r24,55-32
 896               	.LVL50:
 897 0366 8F60      		ori r24,lo8(15)
 898 0368 87BB      		out 55-32,r24
 899               	/* epilogue start */
 900               	.LM126:
 901 036a 0895      		ret
 902               	.LFE22:
 904               	.global	lcd_byte
 906               	lcd_byte:
 907               	.LFB21:
 908               	.LM127:
 909               	.LVL51:
 910               	/* prologue: function */
 911               	/* frame size = 0 */
 912 036c 282F      		mov r18,r24
 913               	.LM128:
 914 036e 6623      		tst r22
 915 0370 01F4      		brne .L78
 916               	.LVL52:
 917               	.LM129:
 918 0372 C598      		cbi 56-32,5
 919 0374 00C0      		rjmp .L79
 920               	.L78:
 921               	.LM130:
 922 0376 C59A      		sbi 56-32,5
 923               	.L79:
 924               	.LBB485:
 925               	.LBB486:
 926               	.LBB487:
 927               	.LBB488:
 928               	.LM131:
 929 0378 82E0      		ldi r24,lo8(2)
 930               	.LVL53:
 931               	/* #APP */
 932               	 ;  83 "c:/winavr-20100110/lib/gcc/../../avr/include/util/delay_basic.h" 1
 933 037a 8A95      		1: dec r24
 934 037c 01F4      		brne 1b
 935               	 ;  0 "" 2
 936               	/* #NOAPP */
 937               	.LBE488:
 938               	.LBE487:
 939               	.LBE486:
 940               	.LBE485:
 941               	.LM132:
 942 037e C79A      		sbi 56-32,7
 943               	.LM133:
 944 0380 88B3      		in r24,56-32
 945               	.LVL54:
 946 0382 922F      		mov r25,r18
 947 0384 9295      		swap r25
 948 0386 9F70      		andi r25,lo8(15)
 949 0388 807F      		andi r24,lo8(-16)
 950 038a 982B      		or r25,r24
 951               	.LM134:
 952 038c 98BB      		out 56-32,r25
 953               	.LBB489:
 954               	.LBB490:
 955               	.LBB491:
 956               	.LBB492:
 957               	.LM135:
 958 038e 95E0      		ldi r25,lo8(5)
 959 0390 892F      		mov r24,r25
 960               	.LVL55:
 961               	/* #APP */
 962               	 ;  83 "c:/winavr-20100110/lib/gcc/../../avr/include/util/delay_basic.h" 1
 963 0392 8A95      		1: dec r24
 964 0394 01F4      		brne 1b
 965               	 ;  0 "" 2
 966               	/* #NOAPP */
 967               	.LBE492:
 968               	.LBE491:
 969               	.LBE490:
 970               	.LBE489:
 971               	.LM136:
 972 0396 C798      		cbi 56-32,7
 973               	.LBB493:
 974               	.LBB494:
 975               	.LBB495:
 976               	.LBB496:
 977               	.LM137:
 978 0398 892F      		mov r24,r25
 979               	.LVL56:
 980               	/* #APP */
 981               	 ;  83 "c:/winavr-20100110/lib/gcc/../../avr/include/util/delay_basic.h" 1
 982 039a 8A95      		1: dec r24
 983 039c 01F4      		brne 1b
 984               	 ;  0 "" 2
 985               	/* #NOAPP */
 986               	.LBE496:
 987               	.LBE495:
 988               	.LBE494:
 989               	.LBE493:
 990               	.LM138:
 991 039e C79A      		sbi 56-32,7
 992               	.LM139:
 993 03a0 88B3      		in r24,56-32
 994               	.LVL57:
 995 03a2 2F70      		andi r18,lo8(15)
 996 03a4 807F      		andi r24,lo8(-16)
 997 03a6 822B      		or r24,r18
 998               	.LM140:
 999 03a8 88BB      		out 56-32,r24
 1000               	.LBB497:
 1001               	.LBB498:
 1002               	.LBB499:
 1003               	.LBB500:
 1004               	.LM141:
 1005 03aa 892F      		mov r24,r25
 1006               	.LVL58:
 1007               	/* #APP */
 1008               	 ;  83 "c:/winavr-20100110/lib/gcc/../../avr/include/util/delay_basic.h" 1
 1009 03ac 8A95      		1: dec r24
 1010 03ae 01F4      		brne 1b
 1011               	 ;  0 "" 2
 1012               	/* #NOAPP */
 1013               	.LBE500:
 1014               	.LBE499:
 1015               	.LBE498:
 1016               	.LBE497:
 1017               	.LM142:
 1018 03b0 C798      		cbi 56-32,7
 1019               	.LBB501:
 1020               	.LBB502:
 1021               	.LBB503:
 1022               	.LBB504:
 1023               	.LM143:
 1024               	/* #APP */
 1025               	 ;  83 "c:/winavr-20100110/lib/gcc/../../avr/include/util/delay_basic.h" 1
 1026 03b2 9A95      		1: dec r25
 1027 03b4 01F4      		brne 1b
 1028               	 ;  0 "" 2
 1029               	.LVL59:
 1030               	/* #NOAPP */
 1031               	.LBE504:
 1032               	.LBE503:
 1033               	.LBE502:
 1034               	.LBE501:
 1035               	.LM144:
 1036 03b6 0E94 0000 		call lcd_busy_loop
 1037               	.LVL60:
 1038               	/* epilogue start */
 1039               	.LM145:
 1040 03ba 0895      		ret
 1041               	.LFE21:
 1043               	.global	lcd_init
 1045               	lcd_init:
 1046               	.LFB23:
 1047               	.LM146:
 1048               	.LVL61:
 1049 03bc 1F93      		push r17
 1050               	/* prologue: function */
 1051               	/* frame size = 0 */
 1052 03be 182F      		mov r17,r24
 1053               	.LM147:
 1054 03c0 8CE2      		ldi r24,lo8(300)
 1055 03c2 91E0      		ldi r25,hi8(300)
 1056               	.LVL62:
 1057               	.LBB505:
 1058               	.LBB506:
 1059               	.LBB507:
 1060               	.LBB508:
 1061               	.LM148:
 1062 03c4 20E9      		ldi r18,lo8(400)
 1063 03c6 31E0      		ldi r19,hi8(400)
 1064               	.L82:
 1065 03c8 F901      		movw r30,r18
 1066               	.LVL63:
 1067               	/* #APP */
 1068               	 ;  105 "c:/winavr-20100110/lib/gcc/../../avr/include/util/delay_basic.h" 1
 1069 03ca 3197      		1: sbiw r30,1
 1070 03cc 01F4      		brne 1b
 1071               	 ;  0 "" 2
 1072               	/* #NOAPP */
 1073               	.LBE508:
 1074               	.LBE507:
 1075               	.LM149:
 1076 03ce 0197      		sbiw r24,1
 1077               	.LM150:
 1078 03d0 01F4      		brne .L82
 1079               	.LBE506:
 1080               	.LBE505:
 1081               	.LM151:
 1082 03d2 87B3      		in r24,55-32
 1083               	.LVL64:
 1084 03d4 8F60      		ori r24,lo8(15)
 1085 03d6 87BB      		out 55-32,r24
 1086               	.LM152:
 1087 03d8 BF9A      		sbi 55-32,7
 1088               	.LM153:
 1089 03da BD9A      		sbi 55-32,5
 1090               	.LM154:
 1091 03dc BE9A      		sbi 55-32,6
 1092               	.LM155:
 1093 03de 88B3      		in r24,56-32
 1094 03e0 807F      		andi r24,lo8(-16)
 1095 03e2 88BB      		out 56-32,r24
 1096               	.LM156:
 1097 03e4 C798      		cbi 56-32,7
 1098               	.LM157:
 1099 03e6 C698      		cbi 56-32,6
 1100               	.LM158:
 1101 03e8 C598      		cbi 56-32,5
 1102               	.LBB509:
 1103               	.LBB510:
 1104               	.LBB511:
 1105               	.LBB512:
 1106               	.LM159:
 1107 03ea 81E0      		ldi r24,lo8(1)
 1108               	.LVL65:
 1109               	/* #APP */
 1110               	 ;  83 "c:/winavr-20100110/lib/gcc/../../avr/include/util/delay_basic.h" 1
 1111 03ec 8A95      		1: dec r24
 1112 03ee 01F4      		brne 1b
 1113               	 ;  0 "" 2
 1114               	/* #NOAPP */
 1115               	.LBE512:
 1116               	.LBE511:
 1117               	.LBE510:
 1118               	.LBE509:
 1119               	.LM160:
 1120 03f0 C79A      		sbi 56-32,7
 1121               	.LM161:
 1122 03f2 C19A      		sbi 56-32,1
 1123               	.LBB513:
 1124               	.LBB514:
 1125               	.LBB515:
 1126               	.LBB516:
 1127               	.LM162:
 1128 03f4 85E0      		ldi r24,lo8(5)
 1129               	.LVL66:
 1130 03f6 982F      		mov r25,r24
 1131               	.LVL67:
 1132               	/* #APP */
 1133               	 ;  83 "c:/winavr-20100110/lib/gcc/../../avr/include/util/delay_basic.h" 1
 1134 03f8 9A95      		1: dec r25
 1135 03fa 01F4      		brne 1b
 1136               	 ;  0 "" 2
 1137               	/* #NOAPP */
 1138               	.LBE516:
 1139               	.LBE515:
 1140               	.LBE514:
 1141               	.LBE513:
 1142               	.LM163:
 1143 03fc C798      		cbi 56-32,7
 1144               	.LBB517:
 1145               	.LBB518:
 1146               	.LBB519:
 1147               	.LBB520:
 1148               	.LM164:
 1149               	/* #APP */
 1150               	 ;  83 "c:/winavr-20100110/lib/gcc/../../avr/include/util/delay_basic.h" 1
 1151 03fe 8A95      		1: dec r24
 1152 0400 01F4      		brne 1b
 1153               	 ;  0 "" 2
 1154               	.LVL68:
 1155               	/* #NOAPP */
 1156               	.LBE520:
 1157               	.LBE519:
 1158               	.LBE518:
 1159               	.LBE517:
 1160               	.LM165:
 1161 0402 0E94 0000 		call lcd_busy_loop
 1162               	.LVL69:
 1163               	.LM166:
 1164 0406 812F      		mov r24,r17
 1165 0408 8C60      		ori r24,lo8(12)
 1166 040a 60E0      		ldi r22,lo8(0)
 1167 040c 0E94 0000 		call lcd_byte
 1168               	.LM167:
 1169 0410 88E2      		ldi r24,lo8(40)
 1170 0412 60E0      		ldi r22,lo8(0)
 1171 0414 0E94 0000 		call lcd_byte
 1172               	/* epilogue start */
 1173               	.LM168:
 1174 0418 1F91      		pop r17
 1175               	.LVL70:
 1176 041a 0895      		ret
 1177               	.LFE23:
 1179               	.global	lcd_write_string
 1181               	lcd_write_string:
 1182               	.LFB24:
 1183               	.LM169:
 1184               	.LVL71:
 1185 041c CF93      		push r28
 1186 041e DF93      		push r29
 1187               	/* prologue: function */
 1188               	/* frame size = 0 */
 1189 0420 EC01      		movw r28,r24
 1190 0422 00C0      		rjmp .L86
 1191               	.LVL72:
 1192               	.L87:
 1193               	.LM170:
 1194 0424 61E0      		ldi r22,lo8(1)
 1195 0426 0E94 0000 		call lcd_byte
 1196               	.LM171:
 1197 042a 2196      		adiw r28,1
 1198               	.LVL73:
 1199               	.L86:
 1200               	.LM172:
 1201 042c 8881      		ld r24,Y
 1202 042e 8823      		tst r24
 1203 0430 01F4      		brne .L87
 1204               	/* epilogue start */
 1205               	.LM173:
 1206 0432 DF91      		pop r29
 1207 0434 CF91      		pop r28
 1208               	.LVL74:
 1209 0436 0895      		ret
 1210               	.LFE24:
 1212               	.global	lcd_write_int
 1214               	lcd_write_int:
 1215               	.LFB25:
 1216               	.LM174:
 1217               	.LVL75:
 1218 0438 EF92      		push r14
 1219 043a FF92      		push r15
 1220 043c 0F93      		push r16
 1221 043e 1F93      		push r17
 1222 0440 DF93      		push r29
 1223 0442 CF93      		push r28
 1224 0444 00D0      		rcall .
 1225 0446 00D0      		rcall .
 1226 0448 0F92      		push __tmp_reg__
 1227 044a CDB7      		in r28,__SP_L__
 1228 044c DEB7      		in r29,__SP_H__
 1229               	/* prologue: function */
 1230               	/* frame size = 5 */
 1231 044e 9C01      		movw r18,r24
 1232 0450 8B01      		movw r16,r22
 1233               	.LM175:
 1234 0452 FE01      		movw r30,r28
 1235 0454 3196      		adiw r30,1
 1236 0456 85E0      		ldi r24,lo8(5)
 1237               	.LVL76:
 1238 0458 DF01      		movw r26,r30
 1239 045a 1D92      		st X+,__zero_reg__
 1240 045c 8A95      	        dec r24
 1241 045e 01F4      		brne .-6
 1242 0460 FE01      		movw r30,r28
 1243 0462 3596      		adiw r30,5
 1244 0464 00C0      		rjmp .L90
 1245               	.LVL77:
 1246               	.L91:
 1247               	.LM176:
 1248 0466 C901      		movw r24,r18
 1249 0468 6AE0      		ldi r22,lo8(10)
 1250 046a 70E0      		ldi r23,hi8(10)
 1251 046c 0E94 0000 		call __divmodhi4
 1252 0470 8083      		st Z,r24
 1253               	.LM177:
 1254 0472 C901      		movw r24,r18
 1255 0474 6AE0      		ldi r22,lo8(10)
 1256 0476 70E0      		ldi r23,hi8(10)
 1257 0478 0E94 0000 		call __divmodhi4
 1258 047c 9B01      		movw r18,r22
 1259 047e 3197      		sbiw r30,1
 1260               	.LVL78:
 1261               	.L90:
 1262               	.LM178:
 1263 0480 2115      		cp r18,__zero_reg__
 1264 0482 3105      		cpc r19,__zero_reg__
 1265 0484 01F4      		brne .L91
 1266               	.LM179:
 1267 0486 BFEF      		ldi r27,hi8(-1)
 1268 0488 0F3F      		cpi r16,lo8(-1)
 1269 048a 1B07      		cpc r17,r27
 1270 048c 01F4      		brne .L92
 1271 048e 20E0      		ldi r18,lo8(0)
 1272 0490 30E0      		ldi r19,hi8(0)
 1273               	.LVL79:
 1274               	.LM180:
 1275 0492 AE01      		movw r20,r28
 1276 0494 4F5F      		subi r20,lo8(-(1))
 1277 0496 5F4F      		sbci r21,hi8(-(1))
 1278 0498 00C0      		rjmp .L93
 1279               	.L94:
 1280 049a 2F5F      		subi r18,lo8(-(1))
 1281 049c 3F4F      		sbci r19,hi8(-(1))
 1282               	.L93:
 1283 049e FA01      		movw r30,r20
 1284 04a0 E20F      		add r30,r18
 1285 04a2 F31F      		adc r31,r19
 1286 04a4 8081      		ld r24,Z
 1287 04a6 8823      		tst r24
 1288 04a8 01F0      		breq .L94
 1289 04aa 00C0      		rjmp .L95
 1290               	.LVL80:
 1291               	.L92:
 1292               	.LM181:
 1293 04ac 25E0      		ldi r18,lo8(5)
 1294 04ae 30E0      		ldi r19,hi8(5)
 1295               	.LVL81:
 1296 04b0 201B      		sub r18,r16
 1297 04b2 310B      		sbc r19,r17
 1298               	.L95:
 1299 04b4 7E01      		movw r14,r28
 1300 04b6 0894      		sec
 1301 04b8 E11C      		adc r14,__zero_reg__
 1302 04ba F11C      		adc r15,__zero_reg__
 1303 04bc E20E      		add r14,r18
 1304 04be F31E      		adc r15,r19
 1305 04c0 8901      		movw r16,r18
 1306               	.LVL82:
 1307 04c2 00C0      		rjmp .L96
 1308               	.L97:
 1309               	.LM182:
 1310 04c4 F701      		movw r30,r14
 1311 04c6 8191      		ld r24,Z+
 1312 04c8 7F01      		movw r14,r30
 1313 04ca 805D      		subi r24,lo8(-(48))
 1314 04cc 61E0      		ldi r22,lo8(1)
 1315               	.LVL83:
 1316 04ce 0E94 0000 		call lcd_byte
 1317               	.LVL84:
 1318               	.LM183:
 1319 04d2 0F5F      		subi r16,lo8(-(1))
 1320 04d4 1F4F      		sbci r17,hi8(-(1))
 1321               	.LVL85:
 1322               	.L96:
 1323 04d6 0530      		cpi r16,5
 1324 04d8 1105      		cpc r17,__zero_reg__
 1325 04da 04F0      		brlt .L97
 1326               	/* epilogue start */
 1327               	.LM184:
 1328 04dc 0F90      		pop __tmp_reg__
 1329 04de 0F90      		pop __tmp_reg__
 1330 04e0 0F90      		pop __tmp_reg__
 1331 04e2 0F90      		pop __tmp_reg__
 1332 04e4 0F90      		pop __tmp_reg__
 1333 04e6 CF91      		pop r28
 1334 04e8 DF91      		pop r29
 1335 04ea 1F91      		pop r17
 1336 04ec 0F91      		pop r16
 1337               	.LVL86:
 1338 04ee FF90      		pop r15
 1339 04f0 EF90      		pop r14
 1340 04f2 0895      		ret
 1341               	.LFE25:
 1343               	.global	lcd_goto_xy
 1345               	lcd_goto_xy:
 1346               	.LFB26:
 1347               	.LM185:
 1348               	.LVL87:
 1349               	/* prologue: function */
 1350               	/* frame size = 0 */
 1351               	.LM186:
 1352 04f4 8832      		cpi r24,lo8(40)
 1353 04f6 00F4      		brsh .L102
 1354               	.LM187:
 1355 04f8 6111      		cpse r22,__zero_reg__
 1356 04fa 8064      		ori r24,lo8(64)
 1357               	.LVL88:
 1358               	.L101:
 1359               	.LM188:
 1360 04fc 8068      		ori r24,lo8(-128)
 1361               	.LVL89:
 1362 04fe 60E0      		ldi r22,lo8(0)
 1363               	.LVL90:
 1364 0500 0E94 0000 		call lcd_byte
 1365               	.LVL91:
 1366               	.L102:
 1367 0504 0895      		ret
 1368               	.LFE26:
 1370               	.global	lcd_write_string_xy
 1372               	lcd_write_string_xy:
 1373               	.LFB27:
 1374               	.LM189:
 1375               	.LVL92:
 1376 0506 0F93      		push r16
 1377 0508 1F93      		push r17
 1378               	/* prologue: function */
 1379               	/* frame size = 0 */
 1380 050a 8A01      		movw r16,r20
 1381               	.LM190:
 1382 050c 0E94 0000 		call lcd_goto_xy
 1383               	.LVL93:
 1384               	.LM191:
 1385 0510 C801      		movw r24,r16
 1386 0512 0E94 0000 		call lcd_write_string
 1387               	/* epilogue start */
 1388               	.LM192:
 1389 0516 1F91      		pop r17
 1390 0518 0F91      		pop r16
 1391               	.LVL94:
 1392 051a 0895      		ret
 1393               	.LFE27:
 1395               	.global	lcd_write_int_xy
 1397               	lcd_write_int_xy:
 1398               	.LFB28:
 1399               	.LM193:
 1400               	.LVL95:
 1401 051c EF92      		push r14
 1402 051e FF92      		push r15
 1403 0520 0F93      		push r16
 1404 0522 1F93      		push r17
 1405               	/* prologue: function */
 1406               	/* frame size = 0 */
 1407 0524 8A01      		movw r16,r20
 1408 0526 7901      		movw r14,r18
 1409               	.LM194:
 1410 0528 0E94 0000 		call lcd_goto_xy
 1411               	.LVL96:
 1412               	.LM195:
 1413 052c C801      		movw r24,r16
 1414 052e B701      		movw r22,r14
 1415 0530 0E94 0000 		call lcd_write_int
 1416               	/* epilogue start */
 1417               	.LM196:
 1418 0534 1F91      		pop r17
 1419 0536 0F91      		pop r16
 1420               	.LVL97:
 1421 0538 FF90      		pop r15
 1422 053a EF90      		pop r14
 1423               	.LVL98:
 1424 053c 0895      		ret
 1425               	.LFE28:
 1427               	.global	usart_init
 1429               	usart_init:
 1430               	.LFB29:
 1431               	.LM197:
 1432               	/* prologue: function */
 1433               	/* frame size = 0 */
 1434               	.LM198:
 1435 053e 1AB8      		out 42-32,__zero_reg__
 1436               	.LM199:
 1437 0540 1BB8      		out 43-32,__zero_reg__
 1438               	.LM200:
 1439 0542 87E0      		ldi r24,lo8(7)
 1440 0544 80BD      		out 64-32,r24
 1441               	.LM201:
 1442 0546 87E6      		ldi r24,lo8(103)
 1443 0548 89B9      		out 41-32,r24
 1444               	.LM202:
 1445 054a 10BC      		out 64-32,__zero_reg__
 1446               	.LM203:
 1447 054c 88E9      		ldi r24,lo8(-104)
 1448 054e 8AB9      		out 42-32,r24
 1449               	/* epilogue start */
 1450               	.LM204:
 1451 0550 0895      		ret
 1452               	.LFE29:
 1454               	.global	usart_transmit_char
 1456               	usart_transmit_char:
 1457               	.LFB30:
 1458               	.LM205:
 1459               	/* prologue: function */
 1460               	/* frame size = 0 */
 1461               	.LVL99:
 1462               	.L110:
 1463               	.LM206:
 1464 0552 5D9B      		sbis 43-32,5
 1465 0554 00C0      		rjmp .L110
 1466               	.LM207:
 1467 0556 8CB9      		out 44-32,r24
 1468               	/* epilogue start */
 1469               	.LM208:
 1470 0558 0895      		ret
 1471               	.LFE30:
 1473               	.global	usart_transmit_string
 1475               	usart_transmit_string:
 1476               	.LFB31:
 1477               	.LM209:
 1478               	.LVL100:
 1479               	/* prologue: function */
 1480               	/* frame size = 0 */
 1481 055a FC01      		movw r30,r24
 1482 055c 00C0      		rjmp .L114
 1483               	.LVL101:
 1484               	.L117:
 1485               	.LBB521:
 1486               	.LBB522:
 1487               	.LM210:
 1488 055e 5D9B      		sbis 43-32,5
 1489 0560 00C0      		rjmp .L117
 1490               	.LM211:
 1491 0562 8CB9      		out 44-32,r24
 1492               	.LBE522:
 1493               	.LBE521:
 1494               	.LM212:
 1495 0564 3196      		adiw r30,1
 1496               	.LVL102:
 1497               	.L114:
 1498               	.LM213:
 1499 0566 8081      		ld r24,Z
 1500 0568 8823      		tst r24
 1501 056a 01F4      		brne .L117
 1502               	/* epilogue start */
 1503               	.LM214:
 1504 056c 0895      		ret
 1505               	.LFE31:
 1507               	.global	usart_transmit_newline
 1509               	usart_transmit_newline:
 1510               	.LFB32:
 1511               	.LM215:
 1512               	/* prologue: function */
 1513               	/* frame size = 0 */
 1514               	.L120:
 1515               	.LBB523:
 1516               	.LBB524:
 1517               	.LM216:
 1518 056e 5D9B      		sbis 43-32,5
 1519 0570 00C0      		rjmp .L120
 1520               	.LM217:
 1521 0572 8AE0      		ldi r24,lo8(10)
 1522 0574 8CB9      		out 44-32,r24
 1523               	.L121:
 1524               	.LBE524:
 1525               	.LBE523:
 1526               	.LBB525:
 1527               	.LBB526:
 1528               	.LM218:
 1529 0576 5D9B      		sbis 43-32,5
 1530 0578 00C0      		rjmp .L121
 1531               	.LM219:
 1532 057a 8DE0      		ldi r24,lo8(13)
 1533 057c 8CB9      		out 44-32,r24
 1534               	/* epilogue start */
 1535               	.LBE526:
 1536               	.LBE525:
 1537               	.LM220:
 1538 057e 0895      		ret
 1539               	.LFE32:
 1541               	.global	usart_receive_char
 1543               	usart_receive_char:
 1544               	.LFB33:
 1545               	.LM221:
 1546               	/* prologue: function */
 1547               	/* frame size = 0 */
 1548               	.L126:
 1549               	.LM222:
 1550 0580 5F9B      		sbis 43-32,7
 1551 0582 00C0      		rjmp .L126
 1552               	.LM223:
 1553 0584 8CB1      		in r24,44-32
 1554               	/* epilogue start */
 1555               	.LM224:
 1556 0586 0895      		ret
 1557               	.LFE33:
 1559               	.global	bot_motion_init
 1561               	bot_motion_init:
 1562               	.LFB34:
 1563               	.LM225:
 1564               	/* prologue: function */
 1565               	/* frame size = 0 */
 1566               	.LM226:
 1567 0588 8FEF      		ldi r24,lo8(-1)
 1568 058a 84BB      		out 52-32,r24
 1569               	/* epilogue start */
 1570               	.LM227:
 1571 058c 0895      		ret
 1572               	.LFE34:
 1574               	.global	bot_left_forward
 1576               	bot_left_forward:
 1577               	.LFB35:
 1578               	.LM228:
 1579               	/* prologue: function */
 1580               	/* frame size = 0 */
 1581               	.LM229:
 1582 058e AC9A      		sbi 53-32,4
 1583               	.LM230:
 1584 0590 AD98      		cbi 53-32,5
 1585               	.LM231:
 1586 0592 AE98      		cbi 53-32,6
 1587               	.LM232:
 1588 0594 AF98      		cbi 53-32,7
 1589               	/* epilogue start */
 1590               	.LM233:
 1591 0596 0895      		ret
 1592               	.LFE35:
 1594               	.global	bot_left_backward
 1596               	bot_left_backward:
 1597               	.LFB36:
 1598               	.LM234:
 1599               	/* prologue: function */
 1600               	/* frame size = 0 */
 1601               	.LM235:
 1602 0598 AC98      		cbi 53-32,4
 1603               	.LM236:
 1604 059a AD9A      		sbi 53-32,5
 1605               	.LM237:
 1606 059c AE98      		cbi 53-32,6
 1607               	.LM238:
 1608 059e AF98      		cbi 53-32,7
 1609               	/* epilogue start */
 1610               	.LM239:
 1611 05a0 0895      		ret
 1612               	.LFE36:
 1614               	.global	bot_right_forward
 1616               	bot_right_forward:
 1617               	.LFB37:
 1618               	.LM240:
 1619               	/* prologue: function */
 1620               	/* frame size = 0 */
 1621               	.LM241:
 1622 05a2 AC98      		cbi 53-32,4
 1623               	.LM242:
 1624 05a4 AD98      		cbi 53-32,5
 1625               	.LM243:
 1626 05a6 AE9A      		sbi 53-32,6
 1627               	.LM244:
 1628 05a8 AF98      		cbi 53-32,7
 1629               	/* epilogue start */
 1630               	.LM245:
 1631 05aa 0895      		ret
 1632               	.LFE37:
 1634               	.global	bot_left
 1636               	bot_left:
 1637               	.LFB38:
 1638               	.LM246:
 1639               	/* prologue: function */
 1640               	/* frame size = 0 */
 1641               	.LBB527:
 1642               	.LBB528:
 1643               	.LM247:
 1644 05ac AC98      		cbi 53-32,4
 1645               	.LM248:
 1646 05ae AD98      		cbi 53-32,5
 1647               	.LM249:
 1648 05b0 AE9A      		sbi 53-32,6
 1649               	.LM250:
 1650 05b2 AF98      		cbi 53-32,7
 1651               	/* epilogue start */
 1652               	.LBE528:
 1653               	.LBE527:
 1654               	.LM251:
 1655 05b4 0895      		ret
 1656               	.LFE38:
 1658               	.global	bot_right
 1660               	bot_right:
 1661               	.LFB39:
 1662               	.LM252:
 1663               	/* prologue: function */
 1664               	/* frame size = 0 */
 1665               	.LBB529:
 1666               	.LBB530:
 1667               	.LM253:
 1668 05b6 AC9A      		sbi 53-32,4
 1669               	.LM254:
 1670 05b8 AD98      		cbi 53-32,5
 1671               	.LM255:
 1672 05ba AE98      		cbi 53-32,6
 1673               	.LM256:
 1674 05bc AF98      		cbi 53-32,7
 1675               	/* epilogue start */
 1676               	.LBE530:
 1677               	.LBE529:
 1678               	.LM257:
 1679 05be 0895      		ret
 1680               	.LFE39:
 1682               	.global	bot_right_backward
 1684               	bot_right_backward:
 1685               	.LFB40:
 1686               	.LM258:
 1687               	/* prologue: function */
 1688               	/* frame size = 0 */
 1689               	.LM259:
 1690 05c0 AC98      		cbi 53-32,4
 1691               	.LM260:
 1692 05c2 AD98      		cbi 53-32,5
 1693               	.LM261:
 1694 05c4 AE98      		cbi 53-32,6
 1695               	.LM262:
 1696 05c6 AF9A      		sbi 53-32,7
 1697               	/* epilogue start */
 1698               	.LM263:
 1699 05c8 0895      		ret
 1700               	.LFE40:
 1702               	.global	bot_forward
 1704               	bot_forward:
 1705               	.LFB41:
 1706               	.LM264:
 1707               	/* prologue: function */
 1708               	/* frame size = 0 */
 1709               	.LM265:
 1710 05ca AC9A      		sbi 53-32,4
 1711               	.LM266:
 1712 05cc AD98      		cbi 53-32,5
 1713               	.LM267:
 1714 05ce AE9A      		sbi 53-32,6
 1715               	.LM268:
 1716 05d0 AF98      		cbi 53-32,7
 1717               	/* epilogue start */
 1718               	.LM269:
 1719 05d2 0895      		ret
 1720               	.LFE41:
 1722               	.global	bot_backward
 1724               	bot_backward:
 1725               	.LFB42:
 1726               	.LM270:
 1727               	/* prologue: function */
 1728               	/* frame size = 0 */
 1729               	.LM271:
 1730 05d4 AC98      		cbi 53-32,4
 1731               	.LM272:
 1732 05d6 AD9A      		sbi 53-32,5
 1733               	.LM273:
 1734 05d8 AE98      		cbi 53-32,6
 1735               	.LM274:
 1736 05da AF9A      		sbi 53-32,7
 1737               	/* epilogue start */
 1738               	.LM275:
 1739 05dc 0895      		ret
 1740               	.LFE42:
 1742               	.global	bot_spot_left
 1744               	bot_spot_left:
 1745               	.LFB43:
 1746               	.LM276:
 1747               	/* prologue: function */
 1748               	/* frame size = 0 */
 1749               	.LM277:
 1750 05de AC98      		cbi 53-32,4
 1751               	.LM278:
 1752 05e0 AD9A      		sbi 53-32,5
 1753               	.LM279:
 1754 05e2 AE9A      		sbi 53-32,6
 1755               	.LM280:
 1756 05e4 AF98      		cbi 53-32,7
 1757               	/* epilogue start */
 1758               	.LM281:
 1759 05e6 0895      		ret
 1760               	.LFE43:
 1762               	.global	bot_spot_right
 1764               	bot_spot_right:
 1765               	.LFB44:
 1766               	.LM282:
 1767               	/* prologue: function */
 1768               	/* frame size = 0 */
 1769               	.LM283:
 1770 05e8 AC9A      		sbi 53-32,4
 1771               	.LM284:
 1772 05ea AD98      		cbi 53-32,5
 1773               	.LM285:
 1774 05ec AE98      		cbi 53-32,6
 1775               	.LM286:
 1776 05ee AF9A      		sbi 53-32,7
 1777               	/* epilogue start */
 1778               	.LM287:
 1779 05f0 0895      		ret
 1780               	.LFE44:
 1782               	.global	bot_stop
 1784               	bot_stop:
 1785               	.LFB45:
 1786               	.LM288:
 1787               	/* prologue: function */
 1788               	/* frame size = 0 */
 1789               	.LM289:
 1790 05f2 AC98      		cbi 53-32,4
 1791               	.LM290:
 1792 05f4 AD98      		cbi 53-32,5
 1793               	.LM291:
 1794 05f6 AE98      		cbi 53-32,6
 1795               	.LM292:
 1796 05f8 AF98      		cbi 53-32,7
 1797               	/* epilogue start */
 1798               	.LM293:
 1799 05fa 0895      		ret
 1800               	.LFE45:
 1802               	.global	bot_brake
 1804               	bot_brake:
 1805               	.LFB46:
 1806               	.LM294:
 1807               	/* prologue: function */
 1808               	/* frame size = 0 */
 1809               	.LM295:
 1810 05fc AC9A      		sbi 53-32,4
 1811               	.LM296:
 1812 05fe AD9A      		sbi 53-32,5
 1813               	.LM297:
 1814 0600 AE9A      		sbi 53-32,6
 1815               	.LM298:
 1816 0602 AF9A      		sbi 53-32,7
 1817               	/* epilogue start */
 1818               	.LM299:
 1819 0604 0895      		ret
 1820               	.LFE46:
 1822               	.global	switch_init
 1824               	switch_init:
 1825               	.LFB47:
 1826               	.LM300:
 1827               	/* prologue: function */
 1828               	/* frame size = 0 */
 1829               	.LM301:
 1830 0606 82B3      		in r24,50-32
 1831 0608 8F60      		ori r24,lo8(15)
 1832 060a 82BB      		out 50-32,r24
 1833               	.LM302:
 1834 060c 81B3      		in r24,49-32
 1835 060e 807F      		andi r24,lo8(-16)
 1836 0610 81BB      		out 49-32,r24
 1837               	/* epilogue start */
 1838               	.LM303:
 1839 0612 0895      		ret
 1840               	.LFE47:
 1842               	.global	pressed_switch0
 1844               	pressed_switch0:
 1845               	.LFB48:
 1846               	.LM304:
 1847               	/* prologue: function */
 1848               	/* frame size = 0 */
 1849               	.LM305:
 1850 0614 20B3      		in r18,48-32
 1851 0616 30E0      		ldi r19,lo8(0)
 1852 0618 2095      		com r18
 1853 061a 3095      		com r19
 1854 061c 2170      		andi r18,lo8(1)
 1855 061e 3070      		andi r19,hi8(1)
 1856               	.LM306:
 1857 0620 C901      		movw r24,r18
 1858               	/* epilogue start */
 1859 0622 0895      		ret
 1860               	.LFE48:
 1862               	.global	pressed_switch1
 1864               	pressed_switch1:
 1865               	.LFB49:
 1866               	.LM307:
 1867               	/* prologue: function */
 1868               	/* frame size = 0 */
 1869               	.LM308:
 1870 0624 20B3      		in r18,48-32
 1871 0626 30E0      		ldi r19,lo8(0)
 1872 0628 3695      		lsr r19
 1873 062a 2795      		ror r18
 1874 062c 2095      		com r18
 1875 062e 3095      		com r19
 1876 0630 2170      		andi r18,lo8(1)
 1877 0632 3070      		andi r19,hi8(1)
 1878               	.LM309:
 1879 0634 C901      		movw r24,r18
 1880               	/* epilogue start */
 1881 0636 0895      		ret
 1882               	.LFE49:
 1884               	.global	pressed_switch2
 1886               	pressed_switch2:
 1887               	.LFB50:
 1888               	.LM310:
 1889               	/* prologue: function */
 1890               	/* frame size = 0 */
 1891               	.LM311:
 1892 0638 20B3      		in r18,48-32
 1893 063a 30E0      		ldi r19,lo8(0)
 1894 063c 3695      		lsr r19
 1895 063e 2795      		ror r18
 1896 0640 3695      		lsr r19
 1897 0642 2795      		ror r18
 1898 0644 2095      		com r18
 1899 0646 3095      		com r19
 1900 0648 2170      		andi r18,lo8(1)
 1901 064a 3070      		andi r19,hi8(1)
 1902               	.LM312:
 1903 064c C901      		movw r24,r18
 1904               	/* epilogue start */
 1905 064e 0895      		ret
 1906               	.LFE50:
 1908               	.global	pressed_switch3
 1910               	pressed_switch3:
 1911               	.LFB51:
 1912               	.LM313:
 1913               	/* prologue: function */
 1914               	/* frame size = 0 */
 1915               	.LM314:
 1916 0650 20B3      		in r18,48-32
 1917 0652 30E0      		ldi r19,lo8(0)
 1918 0654 43E0      		ldi r20,3
 1919 0656 3695      	1:	lsr r19
 1920 0658 2795      		ror r18
 1921 065a 4A95      		dec r20
 1922 065c 01F4      		brne 1b
 1923 065e 2095      		com r18
 1924 0660 3095      		com r19
 1925 0662 2170      		andi r18,lo8(1)
 1926 0664 3070      		andi r19,hi8(1)
 1927               	.LM315:
 1928 0666 C901      		movw r24,r18
 1929               	/* epilogue start */
 1930 0668 0895      		ret
 1931               	.LFE51:
 1933               	.global	line_track
 1935               	line_track:
 1936               	.LFB53:
 1937               	.LM316:
 1938 066a 6F92      		push r6
 1939 066c 7F92      		push r7
 1940 066e 8F92      		push r8
 1941 0670 9F92      		push r9
 1942 0672 AF92      		push r10
 1943 0674 BF92      		push r11
 1944 0676 CF92      		push r12
 1945 0678 DF92      		push r13
 1946 067a EF92      		push r14
 1947 067c FF92      		push r15
 1948 067e 0F93      		push r16
 1949 0680 1F93      		push r17
 1950               	/* prologue: function */
 1951               	/* frame size = 0 */
 1952               	.LBB531:
 1953               	.LBB532:
 1954               	.LM317:
 1955 0682 AC9A      		sbi 53-32,4
 1956               	.LM318:
 1957 0684 AD98      		cbi 53-32,5
 1958               	.LM319:
 1959 0686 AE9A      		sbi 53-32,6
 1960               	.LM320:
 1961 0688 AF98      		cbi 53-32,7
 1962               	.LBE532:
 1963               	.LBE531:
 1964               	.LM321:
 1965 068a 8091 0000 		lds r24,sensorbyte
 1966 068e 8630      		cpi r24,lo8(6)
 1967 0690 01F0      		breq .L181
 1968 0692 8730      		cpi r24,lo8(7)
 1969 0694 00F4      		brsh .L176
 1970 0696 8230      		cpi r24,lo8(2)
 1971 0698 01F0      		breq .L168
 1972 069a 8330      		cpi r24,lo8(3)
 1973 069c 00F4      		brsh .L177
 1974 069e 8130      		cpi r24,lo8(1)
 1975 06a0 01F4      		brne .L166
 1976 06a2 00C0      		rjmp .L184
 1977               	.L177:
 1978 06a4 8330      		cpi r24,lo8(3)
 1979 06a6 01F0      		breq .L169
 1980 06a8 8430      		cpi r24,lo8(4)
 1981 06aa 01F4      		brne .L166
 1982 06ac 00C0      		rjmp .L185
 1983               	.L176:
 1984 06ae 8830      		cpi r24,lo8(8)
 1985 06b0 01F0      		breq .L173
 1986 06b2 8830      		cpi r24,lo8(8)
 1987 06b4 00F0      		brlo .L172
 1988 06b6 8C30      		cpi r24,lo8(12)
 1989 06b8 01F0      		breq .L174
 1990 06ba 8E30      		cpi r24,lo8(14)
 1991 06bc 01F4      		brne .L166
 1992 06be 00C0      		rjmp .L186
 1993               	.L185:
 1994               	.LM322:
 1995 06c0 81E0      		ldi r24,lo8(1)
 1996 06c2 90E0      		ldi r25,hi8(1)
 1997 06c4 00C0      		rjmp .L180
 1998               	.L168:
 1999               	.LM323:
 2000 06c6 8FEF      		ldi r24,lo8(-1)
 2001 06c8 9FEF      		ldi r25,hi8(-1)
 2002 06ca 00C0      		rjmp .L180
 2003               	.L174:
 2004               	.LM324:
 2005 06cc 83E0      		ldi r24,lo8(3)
 2006 06ce 90E0      		ldi r25,hi8(3)
 2007 06d0 00C0      		rjmp .L180
 2008               	.L169:
 2009               	.LM325:
 2010 06d2 8DEF      		ldi r24,lo8(-3)
 2011 06d4 9FEF      		ldi r25,hi8(-3)
 2012 06d6 00C0      		rjmp .L183
 2013               	.L186:
 2014               	.LM326:
 2015 06d8 84E0      		ldi r24,lo8(4)
 2016 06da 90E0      		ldi r25,hi8(4)
 2017 06dc 00C0      		rjmp .L180
 2018               	.L172:
 2019               	.LM327:
 2020 06de 8CEF      		ldi r24,lo8(-4)
 2021 06e0 9FEF      		ldi r25,hi8(-4)
 2022               	.L183:
 2023 06e2 9093 0000 		sts (mpos)+1,r25
 2024 06e6 8093 0000 		sts mpos,r24
 2025               	.LM328:
 2026 06ea 8091 0000 		lds r24,flag1
 2027 06ee 9091 0000 		lds r25,(flag1)+1
 2028 06f2 0197      		sbiw r24,1
 2029 06f4 01F4      		brne .L166
 2030               	.L181:
 2031               	.LM329:
 2032 06f6 1092 0000 		sts (mpos)+1,__zero_reg__
 2033 06fa 1092 0000 		sts mpos,__zero_reg__
 2034 06fe 00C0      		rjmp .L166
 2035               	.L173:
 2036               	.LM330:
 2037 0700 86E0      		ldi r24,lo8(6)
 2038 0702 90E0      		ldi r25,hi8(6)
 2039 0704 00C0      		rjmp .L180
 2040               	.L184:
 2041               	.LM331:
 2042 0706 8AEF      		ldi r24,lo8(-6)
 2043 0708 9FEF      		ldi r25,hi8(-6)
 2044               	.L180:
 2045 070a 9093 0000 		sts (mpos)+1,r25
 2046 070e 8093 0000 		sts mpos,r24
 2047               	.L166:
 2048               	.LM332:
 2049 0712 6091 0000 		lds r22,mpos
 2050 0716 7091 0000 		lds r23,(mpos)+1
 2051 071a 8827      		clr r24
 2052 071c 77FD      		sbrc r23,7
 2053 071e 8095      		com r24
 2054 0720 982F      		mov r25,r24
 2055 0722 0E94 0000 		call __floatsisf
 2056 0726 5B01      		movw r10,r22
 2057 0728 6C01      		movw r12,r24
 2058 072a 6091 0000 		lds r22,prev_error
 2059 072e 7091 0000 		lds r23,(prev_error)+1
 2060 0732 8091 0000 		lds r24,(prev_error)+2
 2061 0736 9091 0000 		lds r25,(prev_error)+3
 2062 073a A601      		movw r20,r12
 2063 073c 9501      		movw r18,r10
 2064 073e 0E94 0000 		call __subsf3
 2065 0742 7B01      		movw r14,r22
 2066 0744 8C01      		movw r16,r24
 2067 0746 6093 0000 		sts act_error,r22
 2068 074a 7093 0000 		sts (act_error)+1,r23
 2069 074e 8093 0000 		sts (act_error)+2,r24
 2070 0752 9093 0000 		sts (act_error)+3,r25
 2071               	.LM333:
 2072 0756 C601      		movw r24,r12
 2073 0758 B501      		movw r22,r10
 2074 075a 2091 0000 		lds r18,kp
 2075 075e 3091 0000 		lds r19,(kp)+1
 2076 0762 4091 0000 		lds r20,(kp)+2
 2077 0766 5091 0000 		lds r21,(kp)+3
 2078 076a 0E94 0000 		call __mulsf3
 2079 076e 3B01      		movw r6,r22
 2080 0770 4C01      		movw r8,r24
 2081 0772 C801      		movw r24,r16
 2082 0774 B701      		movw r22,r14
 2083 0776 2091 0000 		lds r18,kd
 2084 077a 3091 0000 		lds r19,(kd)+1
 2085 077e 4091 0000 		lds r20,(kd)+2
 2086 0782 5091 0000 		lds r21,(kd)+3
 2087 0786 0E94 0000 		call __mulsf3
 2088 078a 9B01      		movw r18,r22
 2089 078c AC01      		movw r20,r24
 2090 078e C401      		movw r24,r8
 2091 0790 B301      		movw r22,r6
 2092 0792 0E94 0000 		call __subsf3
 2093 0796 7B01      		movw r14,r22
 2094 0798 8C01      		movw r16,r24
 2095 079a 6093 0000 		sts control,r22
 2096 079e 7093 0000 		sts (control)+1,r23
 2097 07a2 8093 0000 		sts (control)+2,r24
 2098 07a6 9093 0000 		sts (control)+3,r25
 2099               	.LM334:
 2100 07aa A092 0000 		sts prev_error,r10
 2101 07ae B092 0000 		sts (prev_error)+1,r11
 2102 07b2 C092 0000 		sts (prev_error)+2,r12
 2103 07b6 D092 0000 		sts (prev_error)+3,r13
 2104               	.LM335:
 2105 07ba 6091 0000 		lds r22,opt
 2106 07be 7091 0000 		lds r23,(opt)+1
 2107 07c2 80E0      		ldi r24,lo8(0)
 2108 07c4 90E0      		ldi r25,hi8(0)
 2109 07c6 0E94 0000 		call __floatunsisf
 2110 07ca 5B01      		movw r10,r22
 2111 07cc 6C01      		movw r12,r24
 2112               	.LBB533:
 2113               	.LBB534:
 2114               	.LM336:
 2115 07ce A801      		movw r20,r16
 2116 07d0 9701      		movw r18,r14
 2117 07d2 0E94 0000 		call __subsf3
 2118 07d6 0E94 0000 		call __fixsfsi
 2119 07da 7BBD      		out (74)+1-32,r23
 2120 07dc 6ABD      		out 74-32,r22
 2121               	.LBE534:
 2122               	.LBE533:
 2123               	.LBB535:
 2124               	.LBB536:
 2125               	.LM337:
 2126 07de C601      		movw r24,r12
 2127 07e0 B501      		movw r22,r10
 2128 07e2 A801      		movw r20,r16
 2129 07e4 9701      		movw r18,r14
 2130 07e6 0E94 0000 		call __addsf3
 2131 07ea 0E94 0000 		call __fixsfsi
 2132 07ee 79BD      		out (72)+1-32,r23
 2133 07f0 68BD      		out 72-32,r22
 2134               	/* epilogue start */
 2135               	.LBE536:
 2136               	.LBE535:
 2137               	.LM338:
 2138 07f2 1F91      		pop r17
 2139 07f4 0F91      		pop r16
 2140 07f6 FF90      		pop r15
 2141 07f8 EF90      		pop r14
 2142 07fa DF90      		pop r13
 2143 07fc CF90      		pop r12
 2144 07fe BF90      		pop r11
 2145 0800 AF90      		pop r10
 2146 0802 9F90      		pop r9
 2147 0804 8F90      		pop r8
 2148 0806 7F90      		pop r7
 2149 0808 6F90      		pop r6
 2150 080a 0895      		ret
 2151               	.LFE53:
 2153               	.global	init_devices
 2155               	init_devices:
 2156               	.LFB54:
 2157               	.LM339:
 2158               	/* prologue: function */
 2159               	/* frame size = 0 */
 2160               	.LM340:
 2161 080c 0E94 0000 		call port_init
 2162               	.LBB537:
 2163               	.LBB538:
 2164               	.LM341:
 2165 0810 1ABA      		out 58-32,__zero_reg__
 2166               	.LM342:
 2167 0812 16B8      		out 38-32,__zero_reg__
 2168               	.LM343:
 2169 0814 80E6      		ldi r24,lo8(96)
 2170 0816 87B9      		out 39-32,r24
 2171               	.LM344:
 2172 0818 87E8      		ldi r24,lo8(-121)
 2173 081a 86B9      		out 38-32,r24
 2174               	.LM345:
 2175 081c 80E8      		ldi r24,lo8(-128)
 2176 081e 88B9      		out 40-32,r24
 2177               	.LBE538:
 2178               	.LBE537:
 2179               	.LBB539:
 2180               	.LBB540:
 2181               	.LM346:
 2182 0820 8FEF      		ldi r24,lo8(-1)
 2183 0822 84BB      		out 52-32,r24
 2184               	.LBE540:
 2185               	.LBE539:
 2186               	.LM347:
 2187 0824 82E0      		ldi r24,lo8(2)
 2188 0826 0E94 0000 		call lcd_init
 2189               	.LBB541:
 2190               	.LBB542:
 2191               	.LM348:
 2192 082a 82B3      		in r24,50-32
 2193 082c 8F60      		ori r24,lo8(15)
 2194 082e 82BB      		out 50-32,r24
 2195               	.LM349:
 2196 0830 81B3      		in r24,49-32
 2197 0832 807F      		andi r24,lo8(-16)
 2198 0834 81BB      		out 49-32,r24
 2199               	.LBE542:
 2200               	.LBE541:
 2201               	.LM350:
 2202 0836 0E94 0000 		call pwm1_init
 2203               	/* epilogue start */
 2204               	.LM351:
 2205 083a 0895      		ret
 2206               	.LFE54:
 2208               	.global	Uturn
 2210               	Uturn:
 2211               	.LFB55:
 2212               	.LM352:
 2213               	/* prologue: function */
 2214               	/* frame size = 0 */
 2215               	.LM353:
 2216 083c 85E7      		ldi r24,lo8(117)
 2217 083e 8093 0000 		sts turn,r24
 2218               	.LBB543:
 2219               	.LBB544:
 2220               	.LM354:
 2221 0842 20EF      		ldi r18,lo8(240)
 2222 0844 30E0      		ldi r19,hi8(240)
 2223               	.LBE544:
 2224               	.LBE543:
 2225               	.LBB546:
 2226               	.LBB547:
 2227               	.LM355:
 2228 0846 82E2      		ldi r24,lo8(290)
 2229 0848 91E0      		ldi r25,hi8(290)
 2230 084a 00C0      		rjmp .L190
 2231               	.L191:
 2232               	.LBE547:
 2233               	.LBE546:
 2234               	.LBB549:
 2235               	.LBB545:
 2236               	.LM356:
 2237 084c 3BBD      		out (74)+1-32,r19
 2238 084e 2ABD      		out 74-32,r18
 2239               	.LBE545:
 2240               	.LBE549:
 2241               	.LBB550:
 2242               	.LBB548:
 2243               	.LM357:
 2244 0850 99BD      		out (72)+1-32,r25
 2245 0852 88BD      		out 72-32,r24
 2246               	.LBE548:
 2247               	.LBE550:
 2248               	.LBB551:
 2249               	.LBB552:
 2250               	.LM358:
 2251 0854 AC98      		cbi 53-32,4
 2252               	.LM359:
 2253 0856 AD9A      		sbi 53-32,5
 2254               	.LM360:
 2255 0858 AE9A      		sbi 53-32,6
 2256               	.LM361:
 2257 085a AF98      		cbi 53-32,7
 2258               	.L190:
 2259               	.LBE552:
 2260               	.LBE551:
 2261               	.LM362:
 2262 085c CD99      		sbic 57-32,5
 2263 085e 00C0      		rjmp .L191
 2264 0860 00C0      		rjmp .L198
 2265               	.L194:
 2266               	.LBB553:
 2267               	.LBB554:
 2268               	.LM363:
 2269 0862 3BBD      		out (74)+1-32,r19
 2270 0864 2ABD      		out 74-32,r18
 2271               	.LBE554:
 2272               	.LBE553:
 2273               	.LBB556:
 2274               	.LBB557:
 2275               	.LM364:
 2276 0866 99BD      		out (72)+1-32,r25
 2277 0868 88BD      		out 72-32,r24
 2278               	.LBE557:
 2279               	.LBE556:
 2280               	.LBB559:
 2281               	.LBB560:
 2282               	.LM365:
 2283 086a AC98      		cbi 53-32,4
 2284               	.LM366:
 2285 086c AD9A      		sbi 53-32,5
 2286               	.LM367:
 2287 086e AE9A      		sbi 53-32,6
 2288               	.LM368:
 2289 0870 AF98      		cbi 53-32,7
 2290 0872 00C0      		rjmp .L197
 2291               	.L198:
 2292               	.LBE560:
 2293               	.LBE559:
 2294               	.LBB561:
 2295               	.LBB555:
 2296               	.LM369:
 2297 0874 29EB      		ldi r18,lo8(185)
 2298 0876 30E0      		ldi r19,hi8(185)
 2299               	.LBE555:
 2300               	.LBE561:
 2301               	.LBB562:
 2302               	.LBB558:
 2303               	.LM370:
 2304 0878 87ED      		ldi r24,lo8(215)
 2305 087a 90E0      		ldi r25,hi8(215)
 2306               	.L197:
 2307               	.LBE558:
 2308               	.LBE562:
 2309               	.LM371:
 2310 087c CE9B      		sbis 57-32,6
 2311 087e 00C0      		rjmp .L193
 2312 0880 8699      		sbic 48-32,6
 2313 0882 00C0      		rjmp .L194
 2314               	.L193:
 2315               	.LBB563:
 2316               	.LBB564:
 2317               	.LM372:
 2318 0884 8FE8      		ldi r24,lo8(399)
 2319 0886 91E0      		ldi r25,hi8(399)
 2320 0888 9BBD      		out (74)+1-32,r25
 2321 088a 8ABD      		out 74-32,r24
 2322               	.LBE564:
 2323               	.LBE563:
 2324               	.LBB565:
 2325               	.LBB566:
 2326               	.LM373:
 2327 088c 99BD      		out (72)+1-32,r25
 2328 088e 88BD      		out 72-32,r24
 2329               	.LBE566:
 2330               	.LBE565:
 2331               	.LBB567:
 2332               	.LBB568:
 2333               	.LM374:
 2334 0890 AC9A      		sbi 53-32,4
 2335               	.LM375:
 2336 0892 AD9A      		sbi 53-32,5
 2337               	.LM376:
 2338 0894 AE9A      		sbi 53-32,6
 2339               	.LM377:
 2340 0896 AF9A      		sbi 53-32,7
 2341               	.LBE568:
 2342               	.LBE567:
 2343               	.LM378:
 2344 0898 82E3      		ldi r24,lo8(50)
 2345 089a 90E0      		ldi r25,hi8(50)
 2346 089c 0E94 0000 		call delay_millisec
 2347               	/* epilogue start */
 2348               	.LM379:
 2349 08a0 0895      		ret
 2350               	.LFE55:
 2352               	.global	left_count
 2354               	left_count:
 2355               	.LFB58:
 2356               	.LM380:
 2357               	/* prologue: function */
 2358               	/* frame size = 0 */
 2359               	.LM381:
 2360 08a2 CC99      		sbic 57-32,4
 2361 08a4 00C0      		rjmp .L200
 2362               	.LM382:
 2363 08a6 8091 0000 		lds r24,l
 2364 08aa 9091 0000 		lds r25,(l)+1
 2365 08ae 892B      		or r24,r25
 2366 08b0 01F4      		brne .L202
 2367               	.LM383:
 2368 08b2 8091 0000 		lds r24,lcount
 2369 08b6 9091 0000 		lds r25,(lcount)+1
 2370 08ba 0196      		adiw r24,1
 2371 08bc 9093 0000 		sts (lcount)+1,r25
 2372 08c0 8093 0000 		sts lcount,r24
 2373               	.LM384:
 2374 08c4 81E0      		ldi r24,lo8(1)
 2375 08c6 90E0      		ldi r25,hi8(1)
 2376 08c8 9093 0000 		sts (l)+1,r25
 2377 08cc 8093 0000 		sts l,r24
 2378 08d0 0895      		ret
 2379               	.L200:
 2380               	.LM385:
 2381 08d2 1092 0000 		sts (l)+1,__zero_reg__
 2382 08d6 1092 0000 		sts l,__zero_reg__
 2383               	.L202:
 2384 08da 0895      		ret
 2385               	.LFE58:
 2387               	.global	special_case_check
 2389               	special_case_check:
 2390               	.LFB60:
 2391               	.LM386:
 2392               	/* prologue: function */
 2393               	/* frame size = 0 */
 2394               	.LM387:
 2395 08dc CD9B      		sbis 57-32,5
 2396 08de 00C0      		rjmp .L204
 2397 08e0 8091 0000 		lds r24,flag1
 2398 08e4 9091 0000 		lds r25,(flag1)+1
 2399 08e8 0197      		sbiw r24,1
 2400 08ea 01F4      		brne .L210
 2401               	.L204:
 2402               	.LM388:
 2403 08ec 81E0      		ldi r24,lo8(1)
 2404 08ee 90E0      		ldi r25,hi8(1)
 2405 08f0 9093 0000 		sts (flag1)+1,r25
 2406 08f4 8093 0000 		sts flag1,r24
 2407               	.LM389:
 2408 08f8 CC99      		sbic 57-32,4
 2409 08fa 00C0      		rjmp .L210
 2410 08fc 869B      		sbis 48-32,6
 2411 08fe 00C0      		rjmp .L206
 2412 0900 CE9B      		sbis 57-32,6
 2413 0902 00C0      		rjmp .L206
 2414 0904 0895      		ret
 2415               	.L209:
 2416               	.LBB569:
 2417               	.LBB570:
 2418               	.LM390:
 2419 0906 3BBD      		out (74)+1-32,r19
 2420 0908 2ABD      		out 74-32,r18
 2421               	.LBE570:
 2422               	.LBE569:
 2423               	.LBB572:
 2424               	.LBB573:
 2425               	.LM391:
 2426 090a 39BD      		out (72)+1-32,r19
 2427 090c 28BD      		out 72-32,r18
 2428               	.LBE573:
 2429               	.LBE572:
 2430               	.LBB574:
 2431               	.LBB575:
 2432               	.LM392:
 2433 090e AC9A      		sbi 53-32,4
 2434               	.LM393:
 2435 0910 AD98      		cbi 53-32,5
 2436               	.LM394:
 2437 0912 AE9A      		sbi 53-32,6
 2438               	.LM395:
 2439 0914 AF98      		cbi 53-32,7
 2440               	.LBE575:
 2441               	.LBE574:
 2442               	.LM396:
 2443 0916 80E0      		ldi r24,lo8(0)
 2444 0918 90E0      		ldi r25,hi8(0)
 2445 091a 8799      		sbic 48-32,7
 2446 091c 00C0      		rjmp .L213
 2447               	.LBB576:
 2448               	.LBB577:
 2449               	.LM397:
 2450 091e AC9A      		sbi 53-32,4
 2451               	.LM398:
 2452 0920 AD9A      		sbi 53-32,5
 2453               	.LM399:
 2454 0922 AE9A      		sbi 53-32,6
 2455               	.LM400:
 2456 0924 AF9A      		sbi 53-32,7
 2457 0926 00C0      		rjmp .L213
 2458               	.L206:
 2459 0928 81E0      		ldi r24,lo8(1)
 2460 092a 90E0      		ldi r25,hi8(1)
 2461               	.LBE577:
 2462               	.LBE576:
 2463               	.LBB578:
 2464               	.LBB571:
 2465               	.LM401:
 2466 092c 20EF      		ldi r18,lo8(240)
 2467 092e 30E0      		ldi r19,hi8(240)
 2468               	.L213:
 2469               	.LBE571:
 2470               	.LBE578:
 2471               	.LM402:
 2472 0930 CC9B      		sbis 57-32,4
 2473 0932 00C0      		rjmp .L208
 2474 0934 9093 0000 		sts (flag1)+1,r25
 2475 0938 8093 0000 		sts flag1,r24
 2476 093c 0895      		ret
 2477               	.L208:
 2478 093e 8799      		sbic 48-32,7
 2479 0940 00C0      		rjmp .L209
 2480 0942 9093 0000 		sts (flag1)+1,r25
 2481 0946 8093 0000 		sts flag1,r24
 2482               	.L210:
 2483 094a 0895      		ret
 2484               	.LFE60:
 2486               	.global	line_track_new
 2488               	line_track_new:
 2489               	.LFB63:
 2490               	.LM403:
 2491               	/* prologue: function */
 2492               	/* frame size = 0 */
 2493               	.LM404:
 2494 094c 0E94 0000 		call check_sensors
 2495               	.LBB579:
 2496               	.LBB580:
 2497               	.LM405:
 2498 0950 AC9A      		sbi 53-32,4
 2499               	.LM406:
 2500 0952 AD98      		cbi 53-32,5
 2501               	.LM407:
 2502 0954 AE9A      		sbi 53-32,6
 2503               	.LM408:
 2504 0956 AF98      		cbi 53-32,7
 2505               	.LBE580:
 2506               	.LBE579:
 2507               	.LM409:
 2508 0958 CE9B      		sbis 57-32,6
 2509 095a 00C0      		rjmp .L215
 2510 095c 8699      		sbic 48-32,6
 2511 095e 00C0      		rjmp .L215
 2512               	.LM410:
 2513 0960 8091 0000 		lds r24,opt
 2514 0964 9091 0000 		lds r25,(opt)+1
 2515 0968 4E97      		sbiw r24,30
 2516               	.LBB581:
 2517               	.LBB582:
 2518               	.LM411:
 2519 096a 9BBD      		out (74)+1-32,r25
 2520 096c 8ABD      		out 74-32,r24
 2521               	.LBE582:
 2522               	.LBE581:
 2523               	.LM412:
 2524 096e CC96      		adiw r24,60
 2525 0970 00C0      		rjmp .L220
 2526               	.L215:
 2527               	.LM413:
 2528 0972 869B      		sbis 48-32,6
 2529 0974 00C0      		rjmp .L217
 2530 0976 CE99      		sbic 57-32,6
 2531 0978 00C0      		rjmp .L217
 2532               	.LM414:
 2533 097a 8091 0000 		lds r24,opt
 2534 097e 9091 0000 		lds r25,(opt)+1
 2535 0982 4E96      		adiw r24,30
 2536               	.LBB583:
 2537               	.LBB584:
 2538               	.LM415:
 2539 0984 9BBD      		out (74)+1-32,r25
 2540 0986 8ABD      		out 74-32,r24
 2541               	.LBE584:
 2542               	.LBE583:
 2543               	.LM416:
 2544 0988 CC97      		sbiw r24,60
 2545 098a 00C0      		rjmp .L220
 2546               	.L217:
 2547               	.LM417:
 2548 098c 869B      		sbis 48-32,6
 2549 098e 00C0      		rjmp .L218
 2550 0990 CE9B      		sbis 57-32,6
 2551 0992 00C0      		rjmp .L218
 2552               	.LM418:
 2553 0994 0E94 0000 		call line_track
 2554 0998 00C0      		rjmp .L216
 2555               	.L218:
 2556               	.LM419:
 2557 099a 8699      		sbic 48-32,6
 2558 099c 00C0      		rjmp .L216
 2559 099e CE99      		sbic 57-32,6
 2560 09a0 00C0      		rjmp .L216
 2561               	.LM420:
 2562 09a2 8091 0000 		lds r24,opt
 2563 09a6 9091 0000 		lds r25,(opt)+1
 2564               	.LBB585:
 2565               	.LBB586:
 2566               	.LM421:
 2567 09aa 9BBD      		out (74)+1-32,r25
 2568 09ac 8ABD      		out 74-32,r24
 2569               	.L220:
 2570               	.LBE586:
 2571               	.LBE585:
 2572               	.LBB587:
 2573               	.LBB588:
 2574               	.LM422:
 2575 09ae 99BD      		out (72)+1-32,r25
 2576 09b0 88BD      		out 72-32,r24
 2577               	.L216:
 2578               	.LBE588:
 2579               	.LBE587:
 2580               	.LM423:
 2581 09b2 8AE0      		ldi r24,lo8(10)
 2582 09b4 90E0      		ldi r25,hi8(10)
 2583 09b6 0E94 0000 		call delay_microsec
 2584               	/* epilogue start */
 2585               	.LM424:
 2586 09ba 0895      		ret
 2587               	.LFE63:
 2589               	.global	end_zone_uturn
 2591               	end_zone_uturn:
 2592               	.LFB59:
 2593               	.LM425:
 2594               	/* prologue: function */
 2595               	/* frame size = 0 */
 2596               	.LM426:
 2597 09bc 85E7      		ldi r24,lo8(117)
 2598 09be 8093 0000 		sts turn,r24
 2599               	.LBB589:
 2600               	.LBB590:
 2601               	.LM427:
 2602 09c2 24E0      		ldi r18,lo8(260)
 2603 09c4 31E0      		ldi r19,hi8(260)
 2604               	.LBE590:
 2605               	.LBE589:
 2606               	.LBB592:
 2607               	.LBB593:
 2608               	.LM428:
 2609 09c6 88E1      		ldi r24,lo8(280)
 2610 09c8 91E0      		ldi r25,hi8(280)
 2611 09ca 00C0      		rjmp .L222
 2612               	.L223:
 2613               	.LBE593:
 2614               	.LBE592:
 2615               	.LBB595:
 2616               	.LBB591:
 2617               	.LM429:
 2618 09cc 3BBD      		out (74)+1-32,r19
 2619 09ce 2ABD      		out 74-32,r18
 2620               	.LBE591:
 2621               	.LBE595:
 2622               	.LBB596:
 2623               	.LBB594:
 2624               	.LM430:
 2625 09d0 99BD      		out (72)+1-32,r25
 2626 09d2 88BD      		out 72-32,r24
 2627               	.LBE594:
 2628               	.LBE596:
 2629               	.LBB597:
 2630               	.LBB598:
 2631               	.LM431:
 2632 09d4 AC98      		cbi 53-32,4
 2633               	.LM432:
 2634 09d6 AD9A      		sbi 53-32,5
 2635               	.LM433:
 2636 09d8 AE9A      		sbi 53-32,6
 2637               	.LM434:
 2638 09da AF98      		cbi 53-32,7
 2639               	.L222:
 2640               	.LBE598:
 2641               	.LBE597:
 2642               	.LM435:
 2643 09dc CD9B      		sbis 57-32,5
 2644 09de 00C0      		rjmp .L223
 2645               	.L236:
 2646               	.LM436:
 2647 09e0 CE9B      		sbis 57-32,6
 2648 09e2 00C0      		rjmp .L236
 2649 09e4 869B      		sbis 48-32,6
 2650 09e6 00C0      		rjmp .L236
 2651               	.L232:
 2652               	.LM437:
 2653 09e8 CD99      		sbic 57-32,5
 2654 09ea 00C0      		rjmp .L232
 2655 09ec 00C0      		rjmp .L239
 2656               	.L228:
 2657               	.LBB599:
 2658               	.LBB600:
 2659               	.LM438:
 2660 09ee 9BBD      		out (74)+1-32,r25
 2661 09f0 8ABD      		out 74-32,r24
 2662               	.LBE600:
 2663               	.LBE599:
 2664               	.LBB602:
 2665               	.LBB603:
 2666               	.LM439:
 2667 09f2 99BD      		out (72)+1-32,r25
 2668 09f4 88BD      		out 72-32,r24
 2669               	.LBE603:
 2670               	.LBE602:
 2671               	.LBB604:
 2672               	.LBB605:
 2673               	.LM440:
 2674 09f6 AC98      		cbi 53-32,4
 2675               	.LM441:
 2676 09f8 AD9A      		sbi 53-32,5
 2677               	.LM442:
 2678 09fa AE9A      		sbi 53-32,6
 2679               	.LM443:
 2680 09fc AF98      		cbi 53-32,7
 2681 09fe 00C0      		rjmp .L238
 2682               	.L239:
 2683               	.LBE605:
 2684               	.LBE604:
 2685               	.LBB606:
 2686               	.LBB601:
 2687               	.LM444:
 2688 0a00 82ED      		ldi r24,lo8(210)
 2689 0a02 90E0      		ldi r25,hi8(210)
 2690               	.L238:
 2691               	.LBE601:
 2692               	.LBE606:
 2693               	.LM445:
 2694 0a04 CE9B      		sbis 57-32,6
 2695 0a06 00C0      		rjmp .L235
 2696 0a08 8699      		sbic 48-32,6
 2697 0a0a 00C0      		rjmp .L228
 2698 0a0c 00C0      		rjmp .L235
 2699               	.L229:
 2700               	.LM446:
 2701 0a0e 0E94 0000 		call line_track_new
 2702               	.L235:
 2703               	.LM447:
 2704 0a12 CC9B      		sbis 57-32,4
 2705 0a14 00C0      		rjmp .L229
 2706 0a16 879B      		sbis 48-32,7
 2707 0a18 00C0      		rjmp .L229
 2708               	.LBB607:
 2709               	.LBB608:
 2710               	.LM448:
 2711 0a1a 8FE8      		ldi r24,lo8(399)
 2712 0a1c 91E0      		ldi r25,hi8(399)
 2713 0a1e 9BBD      		out (74)+1-32,r25
 2714 0a20 8ABD      		out 74-32,r24
 2715               	.LBE608:
 2716               	.LBE607:
 2717               	.LBB609:
 2718               	.LBB610:
 2719               	.LM449:
 2720 0a22 99BD      		out (72)+1-32,r25
 2721 0a24 88BD      		out 72-32,r24
 2722               	.LBE610:
 2723               	.LBE609:
 2724               	.LBB611:
 2725               	.LBB612:
 2726               	.LM450:
 2727 0a26 AC9A      		sbi 53-32,4
 2728               	.LM451:
 2729 0a28 AD9A      		sbi 53-32,5
 2730               	.LM452:
 2731 0a2a AE9A      		sbi 53-32,6
 2732               	.LM453:
 2733 0a2c AF9A      		sbi 53-32,7
 2734               	.LBE612:
 2735               	.LBE611:
 2736               	.LM454:
 2737 0a2e 82E3      		ldi r24,lo8(50)
 2738 0a30 90E0      		ldi r25,hi8(50)
 2739 0a32 0E94 0000 		call delay_millisec
 2740               	/* epilogue start */
 2741               	.LM455:
 2742 0a36 0895      		ret
 2743               	.LFE59:
 2745               	.global	turn_left
 2747               	turn_left:
 2748               	.LFB57:
 2749               	.LM456:
 2750               	/* prologue: function */
 2751               	/* frame size = 0 */
 2752               	.LM457:
 2753 0a38 8CE6      		ldi r24,lo8(108)
 2754 0a3a 8093 0000 		sts turn,r24
 2755 0a3e 00C0      		rjmp .L241
 2756               	.L242:
 2757               	.LM458:
 2758 0a40 0E94 0000 		call line_track_new
 2759               	.L241:
 2760               	.LM459:
 2761 0a44 879B      		sbis 48-32,7
 2762 0a46 00C0      		rjmp .L242
 2763 0a48 CC9B      		sbis 57-32,4
 2764 0a4a 00C0      		rjmp .L242
 2765 0a4c 00C0      		rjmp .L258
 2766               	.L245:
 2767               	.LBB613:
 2768               	.LBB614:
 2769               	.LM460:
 2770 0a4e 9BBD      		out (74)+1-32,r25
 2771 0a50 8ABD      		out 74-32,r24
 2772               	.LBE614:
 2773               	.LBE613:
 2774               	.LBB616:
 2775               	.LBB617:
 2776               	.LM461:
 2777 0a52 99BD      		out (72)+1-32,r25
 2778 0a54 88BD      		out 72-32,r24
 2779               	.LBE617:
 2780               	.LBE616:
 2781               	.LBB618:
 2782               	.LBB619:
 2783               	.LM462:
 2784 0a56 AC98      		cbi 53-32,4
 2785               	.LM463:
 2786 0a58 AD9A      		sbi 53-32,5
 2787               	.LM464:
 2788 0a5a AE98      		cbi 53-32,6
 2789               	.LM465:
 2790 0a5c AF9A      		sbi 53-32,7
 2791 0a5e 00C0      		rjmp .L254
 2792               	.L258:
 2793               	.LBE619:
 2794               	.LBE618:
 2795               	.LBB620:
 2796               	.LBB615:
 2797               	.LM466:
 2798 0a60 85EF      		ldi r24,lo8(245)
 2799 0a62 90E0      		ldi r25,hi8(245)
 2800               	.L254:
 2801               	.LBE615:
 2802               	.LBE620:
 2803               	.LM467:
 2804 0a64 879B      		sbis 48-32,7
 2805 0a66 00C0      		rjmp .L244
 2806 0a68 CC99      		sbic 57-32,4
 2807 0a6a 00C0      		rjmp .L245
 2808 0a6c 00C0      		rjmp .L244
 2809               	.L246:
 2810               	.LBB621:
 2811               	.LBB622:
 2812               	.LM468:
 2813 0a6e 9BBD      		out (74)+1-32,r25
 2814 0a70 8ABD      		out 74-32,r24
 2815               	.LBE622:
 2816               	.LBE621:
 2817               	.LBB624:
 2818               	.LBB625:
 2819               	.LM469:
 2820 0a72 99BD      		out (72)+1-32,r25
 2821 0a74 88BD      		out 72-32,r24
 2822               	.LBE625:
 2823               	.LBE624:
 2824               	.LBB626:
 2825               	.LBB627:
 2826               	.LM470:
 2827 0a76 AC98      		cbi 53-32,4
 2828               	.LM471:
 2829 0a78 AD9A      		sbi 53-32,5
 2830               	.LM472:
 2831 0a7a AE9A      		sbi 53-32,6
 2832               	.LM473:
 2833 0a7c AF98      		cbi 53-32,7
 2834 0a7e 00C0      		rjmp .L255
 2835               	.L244:
 2836               	.LBE627:
 2837               	.LBE626:
 2838               	.LBB628:
 2839               	.LBB623:
 2840               	.LM474:
 2841 0a80 85EF      		ldi r24,lo8(245)
 2842 0a82 90E0      		ldi r25,hi8(245)
 2843               	.L255:
 2844               	.LBE623:
 2845               	.LBE628:
 2846               	.LM475:
 2847 0a84 CD99      		sbic 57-32,5
 2848 0a86 00C0      		rjmp .L246
 2849 0a88 00C0      		rjmp .L259
 2850               	.L249:
 2851               	.LBB629:
 2852               	.LBB630:
 2853               	.LM476:
 2854 0a8a 9BBD      		out (74)+1-32,r25
 2855 0a8c 8ABD      		out 74-32,r24
 2856               	.LBE630:
 2857               	.LBE629:
 2858               	.LBB632:
 2859               	.LBB633:
 2860               	.LM477:
 2861 0a8e 99BD      		out (72)+1-32,r25
 2862 0a90 88BD      		out 72-32,r24
 2863               	.LBE633:
 2864               	.LBE632:
 2865               	.LBB634:
 2866               	.LBB635:
 2867               	.LM478:
 2868 0a92 AC98      		cbi 53-32,4
 2869               	.LM479:
 2870 0a94 AD9A      		sbi 53-32,5
 2871               	.LM480:
 2872 0a96 AE9A      		sbi 53-32,6
 2873               	.LM481:
 2874 0a98 AF98      		cbi 53-32,7
 2875 0a9a 00C0      		rjmp .L257
 2876               	.L259:
 2877               	.LBE635:
 2878               	.LBE634:
 2879               	.LBB636:
 2880               	.LBB631:
 2881               	.LM482:
 2882 0a9c 8CED      		ldi r24,lo8(220)
 2883 0a9e 90E0      		ldi r25,hi8(220)
 2884               	.L257:
 2885               	.LBE631:
 2886               	.LBE636:
 2887               	.LM483:
 2888 0aa0 CE9B      		sbis 57-32,6
 2889 0aa2 00C0      		rjmp .L252
 2890 0aa4 8699      		sbic 48-32,6
 2891 0aa6 00C0      		rjmp .L249
 2892 0aa8 00C0      		rjmp .L252
 2893               	.L250:
 2894               	.LM484:
 2895 0aaa 0E94 0000 		call line_track_new
 2896               	.L252:
 2897               	.LM485:
 2898 0aae CC9B      		sbis 57-32,4
 2899 0ab0 00C0      		rjmp .L250
 2900 0ab2 879B      		sbis 48-32,7
 2901 0ab4 00C0      		rjmp .L250
 2902               	.LBB637:
 2903               	.LBB638:
 2904               	.LM486:
 2905 0ab6 8FE8      		ldi r24,lo8(399)
 2906 0ab8 91E0      		ldi r25,hi8(399)
 2907 0aba 9BBD      		out (74)+1-32,r25
 2908 0abc 8ABD      		out 74-32,r24
 2909               	.LBE638:
 2910               	.LBE637:
 2911               	.LBB639:
 2912               	.LBB640:
 2913               	.LM487:
 2914 0abe 99BD      		out (72)+1-32,r25
 2915 0ac0 88BD      		out 72-32,r24
 2916               	.LBE640:
 2917               	.LBE639:
 2918               	.LBB641:
 2919               	.LBB642:
 2920               	.LM488:
 2921 0ac2 AC9A      		sbi 53-32,4
 2922               	.LM489:
 2923 0ac4 AD9A      		sbi 53-32,5
 2924               	.LM490:
 2925 0ac6 AE9A      		sbi 53-32,6
 2926               	.LM491:
 2927 0ac8 AF9A      		sbi 53-32,7
 2928               	.LBE642:
 2929               	.LBE641:
 2930               	.LM492:
 2931 0aca 82E3      		ldi r24,lo8(50)
 2932 0acc 90E0      		ldi r25,hi8(50)
 2933 0ace 0E94 0000 		call delay_millisec
 2934               	/* epilogue start */
 2935               	.LM493:
 2936 0ad2 0895      		ret
 2937               	.LFE57:
 2939               	.global	turn_right
 2941               	turn_right:
 2942               	.LFB56:
 2943               	.LM494:
 2944               	/* prologue: function */
 2945               	/* frame size = 0 */
 2946               	.LM495:
 2947 0ad4 82E7      		ldi r24,lo8(114)
 2948 0ad6 8093 0000 		sts turn,r24
 2949 0ada 00C0      		rjmp .L261
 2950               	.L262:
 2951               	.LM496:
 2952 0adc 0E94 0000 		call line_track_new
 2953               	.LM497:
 2954 0ae0 0E94 0000 		call left_count
 2955               	.L261:
 2956               	.LM498:
 2957 0ae4 879B      		sbis 48-32,7
 2958 0ae6 00C0      		rjmp .L262
 2959 0ae8 CC9B      		sbis 57-32,4
 2960 0aea 00C0      		rjmp .L262
 2961 0aec 00C0      		rjmp .L278
 2962               	.L265:
 2963               	.LBB643:
 2964               	.LBB644:
 2965               	.LM499:
 2966 0aee 9BBD      		out (74)+1-32,r25
 2967 0af0 8ABD      		out 74-32,r24
 2968               	.LBE644:
 2969               	.LBE643:
 2970               	.LBB646:
 2971               	.LBB647:
 2972               	.LM500:
 2973 0af2 99BD      		out (72)+1-32,r25
 2974 0af4 88BD      		out 72-32,r24
 2975               	.LBE647:
 2976               	.LBE646:
 2977               	.LBB648:
 2978               	.LBB649:
 2979               	.LM501:
 2980 0af6 AC98      		cbi 53-32,4
 2981               	.LM502:
 2982 0af8 AD9A      		sbi 53-32,5
 2983               	.LM503:
 2984 0afa AE98      		cbi 53-32,6
 2985               	.LM504:
 2986 0afc AF9A      		sbi 53-32,7
 2987 0afe 00C0      		rjmp .L274
 2988               	.L278:
 2989               	.LBE649:
 2990               	.LBE648:
 2991               	.LBB650:
 2992               	.LBB645:
 2993               	.LM505:
 2994 0b00 85EF      		ldi r24,lo8(245)
 2995 0b02 90E0      		ldi r25,hi8(245)
 2996               	.L274:
 2997               	.LBE645:
 2998               	.LBE650:
 2999               	.LM506:
 3000 0b04 879B      		sbis 48-32,7
 3001 0b06 00C0      		rjmp .L264
 3002 0b08 CC99      		sbic 57-32,4
 3003 0b0a 00C0      		rjmp .L265
 3004 0b0c 00C0      		rjmp .L264
 3005               	.L266:
 3006               	.LBB651:
 3007               	.LBB652:
 3008               	.LM507:
 3009 0b0e 9BBD      		out (74)+1-32,r25
 3010 0b10 8ABD      		out 74-32,r24
 3011               	.LBE652:
 3012               	.LBE651:
 3013               	.LBB654:
 3014               	.LBB655:
 3015               	.LM508:
 3016 0b12 99BD      		out (72)+1-32,r25
 3017 0b14 88BD      		out 72-32,r24
 3018               	.LBE655:
 3019               	.LBE654:
 3020               	.LBB656:
 3021               	.LBB657:
 3022               	.LM509:
 3023 0b16 AC9A      		sbi 53-32,4
 3024               	.LM510:
 3025 0b18 AD98      		cbi 53-32,5
 3026               	.LM511:
 3027 0b1a AE98      		cbi 53-32,6
 3028               	.LM512:
 3029 0b1c AF9A      		sbi 53-32,7
 3030 0b1e 00C0      		rjmp .L275
 3031               	.L264:
 3032               	.LBE657:
 3033               	.LBE656:
 3034               	.LBB658:
 3035               	.LBB653:
 3036               	.LM513:
 3037 0b20 85EF      		ldi r24,lo8(245)
 3038 0b22 90E0      		ldi r25,hi8(245)
 3039               	.L275:
 3040               	.LBE653:
 3041               	.LBE658:
 3042               	.LM514:
 3043 0b24 CF99      		sbic 57-32,7
 3044 0b26 00C0      		rjmp .L266
 3045 0b28 00C0      		rjmp .L279
 3046               	.L269:
 3047               	.LBB659:
 3048               	.LBB660:
 3049               	.LM515:
 3050 0b2a 9BBD      		out (74)+1-32,r25
 3051 0b2c 8ABD      		out 74-32,r24
 3052               	.LBE660:
 3053               	.LBE659:
 3054               	.LBB662:
 3055               	.LBB663:
 3056               	.LM516:
 3057 0b2e 99BD      		out (72)+1-32,r25
 3058 0b30 88BD      		out 72-32,r24
 3059               	.LBE663:
 3060               	.LBE662:
 3061               	.LBB664:
 3062               	.LBB665:
 3063               	.LM517:
 3064 0b32 AC9A      		sbi 53-32,4
 3065               	.LM518:
 3066 0b34 AD98      		cbi 53-32,5
 3067               	.LM519:
 3068 0b36 AE98      		cbi 53-32,6
 3069               	.LM520:
 3070 0b38 AF9A      		sbi 53-32,7
 3071 0b3a 00C0      		rjmp .L277
 3072               	.L279:
 3073               	.LBE665:
 3074               	.LBE664:
 3075               	.LBB666:
 3076               	.LBB661:
 3077               	.LM521:
 3078 0b3c 8CED      		ldi r24,lo8(220)
 3079 0b3e 90E0      		ldi r25,hi8(220)
 3080               	.L277:
 3081               	.LBE661:
 3082               	.LBE666:
 3083               	.LM522:
 3084 0b40 CE9B      		sbis 57-32,6
 3085 0b42 00C0      		rjmp .L272
 3086 0b44 8699      		sbic 48-32,6
 3087 0b46 00C0      		rjmp .L269
 3088 0b48 00C0      		rjmp .L272
 3089               	.L270:
 3090               	.LM523:
 3091 0b4a 0E94 0000 		call line_track_new
 3092               	.L272:
 3093               	.LM524:
 3094 0b4e CC9B      		sbis 57-32,4
 3095 0b50 00C0      		rjmp .L270
 3096 0b52 879B      		sbis 48-32,7
 3097 0b54 00C0      		rjmp .L270
 3098               	.LBB667:
 3099               	.LBB668:
 3100               	.LM525:
 3101 0b56 8FE8      		ldi r24,lo8(399)
 3102 0b58 91E0      		ldi r25,hi8(399)
 3103 0b5a 9BBD      		out (74)+1-32,r25
 3104 0b5c 8ABD      		out 74-32,r24
 3105               	.LBE668:
 3106               	.LBE667:
 3107               	.LBB669:
 3108               	.LBB670:
 3109               	.LM526:
 3110 0b5e 99BD      		out (72)+1-32,r25
 3111 0b60 88BD      		out 72-32,r24
 3112               	.LBE670:
 3113               	.LBE669:
 3114               	.LBB671:
 3115               	.LBB672:
 3116               	.LM527:
 3117 0b62 AC9A      		sbi 53-32,4
 3118               	.LM528:
 3119 0b64 AD9A      		sbi 53-32,5
 3120               	.LM529:
 3121 0b66 AE9A      		sbi 53-32,6
 3122               	.LM530:
 3123 0b68 AF9A      		sbi 53-32,7
 3124               	.LBE672:
 3125               	.LBE671:
 3126               	.LM531:
 3127 0b6a 82E3      		ldi r24,lo8(50)
 3128 0b6c 90E0      		ldi r25,hi8(50)
 3129 0b6e 0E94 0000 		call delay_millisec
 3130               	/* epilogue start */
 3131               	.LM532:
 3132 0b72 0895      		ret
 3133               	.LFE56:
 3135               	.global	sense_of_directon
 3137               	sense_of_directon:
 3138               	.LFB66:
 3139               	.LM533:
 3140               	/* prologue: function */
 3141               	/* frame size = 0 */
 3142               	.LM534:
 3143 0b74 8091 0000 		lds r24,turn
 3144 0b78 8237      		cpi r24,lo8(114)
 3145 0b7a 01F4      		brne .L281
 3146               	.LM535:
 3147 0b7c 8091 0000 		lds r24,dir
 3148 0b80 9091 0000 		lds r25,(dir)+1
 3149 0b84 2FEF      		ldi r18,hi8(-1)
 3150 0b86 8F3F      		cpi r24,lo8(-1)
 3151 0b88 9207      		cpc r25,r18
 3152 0b8a 01F0      		breq .L291
 3153 0b8c 2FEF      		ldi r18,hi8(-1)
 3154 0b8e 8F3F      		cpi r24,lo8(-1)
 3155 0b90 9207      		cpc r25,r18
 3156 0b92 01F0      		breq .+2
 3157 0b94 04F4      		brge .L287
 3158 0b96 8E5F      		subi r24,lo8(-2)
 3159 0b98 9F4F      		sbci r25,hi8(-2)
 3160 0b9a 01F0      		breq .+2
 3161 0b9c 00C0      		rjmp .L299
 3162 0b9e 00C0      		rjmp .L296
 3163               	.L287:
 3164 0ba0 8130      		cpi r24,1
 3165 0ba2 9105      		cpc r25,__zero_reg__
 3166 0ba4 01F4      		brne .+2
 3167 0ba6 00C0      		rjmp .L297
 3168 0ba8 0297      		sbiw r24,2
 3169 0baa 01F0      		breq .+2
 3170 0bac 00C0      		rjmp .L299
 3171 0bae 00C0      		rjmp .L295
 3172               	.L281:
 3173               	.LM536:
 3174 0bb0 8C36      		cpi r24,lo8(108)
 3175 0bb2 01F4      		brne .L288
 3176               	.LM537:
 3177 0bb4 8091 0000 		lds r24,dir
 3178 0bb8 9091 0000 		lds r25,(dir)+1
 3179 0bbc 2FEF      		ldi r18,hi8(-1)
 3180 0bbe 8F3F      		cpi r24,lo8(-1)
 3181 0bc0 9207      		cpc r25,r18
 3182 0bc2 01F0      		breq .L297
 3183 0bc4 2FEF      		ldi r18,hi8(-1)
 3184 0bc6 8F3F      		cpi r24,lo8(-1)
 3185 0bc8 9207      		cpc r25,r18
 3186 0bca 01F0      		breq .+2
 3187 0bcc 04F4      		brge .L293
 3188 0bce 8E5F      		subi r24,lo8(-2)
 3189 0bd0 9F4F      		sbci r25,hi8(-2)
 3190 0bd2 01F4      		brne .L299
 3191 0bd4 00C0      		rjmp .L295
 3192               	.L293:
 3193 0bd6 8130      		cpi r24,1
 3194 0bd8 9105      		cpc r25,__zero_reg__
 3195 0bda 01F0      		breq .L291
 3196 0bdc 0297      		sbiw r24,2
 3197 0bde 01F4      		brne .L299
 3198 0be0 00C0      		rjmp .L296
 3199               	.L291:
 3200               	.LM538:
 3201 0be2 82E0      		ldi r24,lo8(2)
 3202 0be4 90E0      		ldi r25,hi8(2)
 3203 0be6 00C0      		rjmp .L300
 3204               	.L288:
 3205               	.LM539:
 3206 0be8 8537      		cpi r24,lo8(117)
 3207 0bea 01F4      		brne .L299
 3208               	.LM540:
 3209 0bec 8091 0000 		lds r24,dir
 3210 0bf0 9091 0000 		lds r25,(dir)+1
 3211 0bf4 2FEF      		ldi r18,hi8(-1)
 3212 0bf6 8F3F      		cpi r24,lo8(-1)
 3213 0bf8 9207      		cpc r25,r18
 3214 0bfa 01F0      		breq .L295
 3215 0bfc 2FEF      		ldi r18,hi8(-1)
 3216 0bfe 8F3F      		cpi r24,lo8(-1)
 3217 0c00 9207      		cpc r25,r18
 3218 0c02 01F0      		breq .+2
 3219 0c04 04F4      		brge .L298
 3220 0c06 8E5F      		subi r24,lo8(-2)
 3221 0c08 9F4F      		sbci r25,hi8(-2)
 3222 0c0a 01F4      		brne .L299
 3223 0c0c 00C0      		rjmp .L301
 3224               	.L298:
 3225 0c0e 8130      		cpi r24,1
 3226 0c10 9105      		cpc r25,__zero_reg__
 3227 0c12 01F0      		breq .L296
 3228 0c14 0297      		sbiw r24,2
 3229 0c16 01F4      		brne .L299
 3230 0c18 00C0      		rjmp .L297
 3231               	.L296:
 3232               	.LM541:
 3233 0c1a 8FEF      		ldi r24,lo8(-1)
 3234 0c1c 9FEF      		ldi r25,hi8(-1)
 3235 0c1e 00C0      		rjmp .L300
 3236               	.L295:
 3237               	.LM542:
 3238 0c20 81E0      		ldi r24,lo8(1)
 3239 0c22 90E0      		ldi r25,hi8(1)
 3240 0c24 00C0      		rjmp .L300
 3241               	.L297:
 3242               	.LM543:
 3243 0c26 8EEF      		ldi r24,lo8(-2)
 3244 0c28 9FEF      		ldi r25,hi8(-2)
 3245               	.L300:
 3246 0c2a 9093 0000 		sts (dir)+1,r25
 3247 0c2e 8093 0000 		sts dir,r24
 3248 0c32 0895      		ret
 3249               	.L301:
 3250               	.LM544:
 3251 0c34 82E0      		ldi r24,lo8(2)
 3252 0c36 90E0      		ldi r25,hi8(2)
 3253 0c38 9093 0000 		sts (dir)+1,r25
 3254 0c3c 8093 0000 		sts dir,r24
 3255               	.L299:
 3256 0c40 0895      		ret
 3257               	.LFE66:
 3259               	.global	is_coordinate_null
 3261               	is_coordinate_null:
 3262               	.LFB68:
 3263               	.LM545:
 3264               	.LVL103:
 3265               	/* prologue: function */
 3266               	/* frame size = 0 */
 3267               	.LM546:
 3268 0c42 FC01      		movw r30,r24
 3269 0c44 A4E0      		ldi r26,4
 3270 0c46 EE0F      	1:	lsl r30
 3271 0c48 FF1F      		rol r31
 3272 0c4a AA95      		dec r26
 3273 0c4c 01F4      		brne 1b
 3274 0c4e E60F      		add r30,r22
 3275 0c50 F71F      		adc r31,r23
 3276 0c52 DF01      		movw r26,r30
 3277 0c54 AA0F      		lsl r26
 3278 0c56 BB1F      		rol r27
 3279 0c58 AA0F      		lsl r26
 3280 0c5a BB1F      		rol r27
 3281               	.LVL104:
 3282 0c5c A050      		subi r26,lo8(-(dir_array))
 3283 0c5e B040      		sbci r27,hi8(-(dir_array))
 3284 0c60 8C91      		ld r24,X
 3285               	.LVL105:
 3286 0c62 8634      		cpi r24,lo8(70)
 3287 0c64 01F4      		brne .L303
 3288 0c66 1196      		adiw r26,1
 3289 0c68 8C91      		ld r24,X
 3290 0c6a 1197      		sbiw r26,1
 3291 0c6c 8634      		cpi r24,lo8(70)
 3292 0c6e 01F4      		brne .L303
 3293 0c70 EE0F      		lsl r30
 3294 0c72 FF1F      		rol r31
 3295 0c74 EE0F      		lsl r30
 3296 0c76 FF1F      		rol r31
 3297 0c78 E050      		subi r30,lo8(-(dir_array+2))
 3298 0c7a F040      		sbci r31,hi8(-(dir_array+2))
 3299 0c7c 8081      		ld r24,Z
 3300 0c7e 8634      		cpi r24,lo8(70)
 3301 0c80 01F4      		brne .L303
 3302 0c82 90E0      		ldi r25,lo8(0)
 3303 0c84 1396      		adiw r26,3
 3304 0c86 8C91      		ld r24,X
 3305 0c88 8634      		cpi r24,lo8(70)
 3306 0c8a 01F0      		breq .L304
 3307 0c8c 91E0      		ldi r25,lo8(1)
 3308               	.L304:
 3309 0c8e 81E0      		ldi r24,lo8(1)
 3310 0c90 9827      		eor r25,r24
 3311 0c92 292F      		mov r18,r25
 3312 0c94 30E0      		ldi r19,lo8(0)
 3313 0c96 00C0      		rjmp .L305
 3314               	.L303:
 3315 0c98 20E0      		ldi r18,lo8(0)
 3316 0c9a 30E0      		ldi r19,hi8(0)
 3317               	.L305:
 3318               	.LM547:
 3319 0c9c C901      		movw r24,r18
 3320               	/* epilogue start */
 3321 0c9e 0895      		ret
 3322               	.LFE68:
 3324               	.global	update_array
 3326               	update_array:
 3327               	.LFB67:
 3328               	.LM548:
 3329               	.LVL106:
 3330 0ca0 CF92      		push r12
 3331 0ca2 DF92      		push r13
 3332 0ca4 EF92      		push r14
 3333 0ca6 FF92      		push r15
 3334 0ca8 0F93      		push r16
 3335 0caa 1F93      		push r17
 3336 0cac CF93      		push r28
 3337 0cae DF93      		push r29
 3338               	/* prologue: function */
 3339               	/* frame size = 0 */
 3340 0cb0 F82E      		mov r15,r24
 3341 0cb2 E62E      		mov r14,r22
 3342 0cb4 D42E      		mov r13,r20
 3343 0cb6 C22E      		mov r12,r18
 3344               	.LM549:
 3345 0cb8 C091 0000 		lds r28,x_coordinate
 3346 0cbc D091 0000 		lds r29,(x_coordinate)+1
 3347 0cc0 0091 0000 		lds r16,y_coordinate
 3348 0cc4 1091 0000 		lds r17,(y_coordinate)+1
 3349 0cc8 CE01      		movw r24,r28
 3350               	.LVL107:
 3351 0cca B801      		movw r22,r16
 3352               	.LVL108:
 3353 0ccc 0E94 0000 		call is_coordinate_null
 3354               	.LVL109:
 3355 0cd0 892B      		or r24,r25
 3356 0cd2 01F4      		brne .+2
 3357 0cd4 00C0      		rjmp .L314
 3358               	.LM550:
 3359 0cd6 8091 0000 		lds r24,dir
 3360 0cda 9091 0000 		lds r25,(dir)+1
 3361 0cde 2FEF      		ldi r18,hi8(-1)
 3362 0ce0 8F3F      		cpi r24,lo8(-1)
 3363 0ce2 9207      		cpc r25,r18
 3364 0ce4 01F4      		brne .+2
 3365 0ce6 00C0      		rjmp .L310
 3366 0ce8 2FEF      		ldi r18,hi8(-1)
 3367 0cea 8F3F      		cpi r24,lo8(-1)
 3368 0cec 9207      		cpc r25,r18
 3369 0cee 01F0      		breq .+2
 3370 0cf0 04F4      		brge .L313
 3371 0cf2 8E5F      		subi r24,lo8(-2)
 3372 0cf4 9F4F      		sbci r25,hi8(-2)
 3373 0cf6 01F0      		breq .+2
 3374 0cf8 00C0      		rjmp .L314
 3375 0cfa 00C0      		rjmp .L315
 3376               	.L313:
 3377 0cfc 8130      		cpi r24,1
 3378 0cfe 9105      		cpc r25,__zero_reg__
 3379 0d00 01F0      		breq .L311
 3380 0d02 0297      		sbiw r24,2
 3381 0d04 01F0      		breq .+2
 3382 0d06 00C0      		rjmp .L314
 3383               	.LM551:
 3384 0d08 FE01      		movw r30,r28
 3385 0d0a B4E0      		ldi r27,4
 3386 0d0c EE0F      	1:	lsl r30
 3387 0d0e FF1F      		rol r31
 3388 0d10 BA95      		dec r27
 3389 0d12 01F4      		brne 1b
 3390 0d14 E00F      		add r30,r16
 3391 0d16 F11F      		adc r31,r17
 3392 0d18 EE0F      		lsl r30
 3393 0d1a FF1F      		rol r31
 3394 0d1c EE0F      		lsl r30
 3395 0d1e FF1F      		rol r31
 3396 0d20 DF01      		movw r26,r30
 3397 0d22 A050      		subi r26,lo8(-(dir_array))
 3398 0d24 B040      		sbci r27,hi8(-(dir_array))
 3399 0d26 FC92      		st X,r15
 3400               	.LM552:
 3401 0d28 1196      		adiw r26,1
 3402 0d2a EC92      		st X,r14
 3403 0d2c 1197      		sbiw r26,1
 3404               	.LM553:
 3405 0d2e E050      		subi r30,lo8(-(dir_array+2))
 3406 0d30 F040      		sbci r31,hi8(-(dir_array+2))
 3407 0d32 D082      		st Z,r13
 3408               	.LM554:
 3409 0d34 1396      		adiw r26,3
 3410 0d36 CC92      		st X,r12
 3411 0d38 00C0      		rjmp .L314
 3412               	.L311:
 3413               	.LM555:
 3414 0d3a FE01      		movw r30,r28
 3415 0d3c 64E0      		ldi r22,4
 3416 0d3e EE0F      	1:	lsl r30
 3417 0d40 FF1F      		rol r31
 3418 0d42 6A95      		dec r22
 3419 0d44 01F4      		brne 1b
 3420 0d46 E00F      		add r30,r16
 3421 0d48 F11F      		adc r31,r17
 3422 0d4a EE0F      		lsl r30
 3423 0d4c FF1F      		rol r31
 3424 0d4e EE0F      		lsl r30
 3425 0d50 FF1F      		rol r31
 3426 0d52 DF01      		movw r26,r30
 3427 0d54 A050      		subi r26,lo8(-(dir_array))
 3428 0d56 B040      		sbci r27,hi8(-(dir_array))
 3429 0d58 1196      		adiw r26,1
 3430 0d5a FC92      		st X,r15
 3431 0d5c 1197      		sbiw r26,1
 3432               	.LM556:
 3433 0d5e E050      		subi r30,lo8(-(dir_array+2))
 3434 0d60 F040      		sbci r31,hi8(-(dir_array+2))
 3435 0d62 E082      		st Z,r14
 3436               	.LM557:
 3437 0d64 1396      		adiw r26,3
 3438 0d66 DC92      		st X,r13
 3439 0d68 1397      		sbiw r26,3
 3440               	.LM558:
 3441 0d6a CC92      		st X,r12
 3442 0d6c 00C0      		rjmp .L314
 3443               	.L315:
 3444               	.LM559:
 3445 0d6e FE01      		movw r30,r28
 3446 0d70 34E0      		ldi r19,4
 3447 0d72 EE0F      	1:	lsl r30
 3448 0d74 FF1F      		rol r31
 3449 0d76 3A95      		dec r19
 3450 0d78 01F4      		brne 1b
 3451 0d7a E00F      		add r30,r16
 3452 0d7c F11F      		adc r31,r17
 3453 0d7e EE0F      		lsl r30
 3454 0d80 FF1F      		rol r31
 3455 0d82 EE0F      		lsl r30
 3456 0d84 FF1F      		rol r31
 3457 0d86 DF01      		movw r26,r30
 3458 0d88 A050      		subi r26,lo8(-(dir_array+2))
 3459 0d8a B040      		sbci r27,hi8(-(dir_array+2))
 3460 0d8c FC92      		st X,r15
 3461               	.LM560:
 3462 0d8e E050      		subi r30,lo8(-(dir_array))
 3463 0d90 F040      		sbci r31,hi8(-(dir_array))
 3464 0d92 E382      		std Z+3,r14
 3465               	.LM561:
 3466 0d94 D082      		st Z,r13
 3467               	.LM562:
 3468 0d96 C182      		std Z+1,r12
 3469 0d98 00C0      		rjmp .L314
 3470               	.L310:
 3471               	.LM563:
 3472 0d9a FE01      		movw r30,r28
 3473 0d9c 84E0      		ldi r24,4
 3474 0d9e EE0F      	1:	lsl r30
 3475 0da0 FF1F      		rol r31
 3476 0da2 8A95      		dec r24
 3477 0da4 01F4      		brne 1b
 3478 0da6 E00F      		add r30,r16
 3479 0da8 F11F      		adc r31,r17
 3480 0daa EE0F      		lsl r30
 3481 0dac FF1F      		rol r31
 3482 0dae EE0F      		lsl r30
 3483 0db0 FF1F      		rol r31
 3484 0db2 DF01      		movw r26,r30
 3485 0db4 A050      		subi r26,lo8(-(dir_array))
 3486 0db6 B040      		sbci r27,hi8(-(dir_array))
 3487 0db8 1396      		adiw r26,3
 3488 0dba FC92      		st X,r15
 3489 0dbc 1397      		sbiw r26,3
 3490               	.LM564:
 3491 0dbe EC92      		st X,r14
 3492               	.LM565:
 3493 0dc0 1196      		adiw r26,1
 3494 0dc2 DC92      		st X,r13
 3495               	.LM566:
 3496 0dc4 E050      		subi r30,lo8(-(dir_array+2))
 3497 0dc6 F040      		sbci r31,hi8(-(dir_array+2))
 3498 0dc8 C082      		st Z,r12
 3499               	.L314:
 3500               	/* epilogue start */
 3501               	.LM567:
 3502 0dca DF91      		pop r29
 3503 0dcc CF91      		pop r28
 3504 0dce 1F91      		pop r17
 3505 0dd0 0F91      		pop r16
 3506 0dd2 FF90      		pop r15
 3507               	.LVL110:
 3508 0dd4 EF90      		pop r14
 3509               	.LVL111:
 3510 0dd6 DF90      		pop r13
 3511               	.LVL112:
 3512 0dd8 CF90      		pop r12
 3513               	.LVL113:
 3514 0dda 0895      		ret
 3515               	.LFE67:
 3517               	.global	update_coordinates
 3519               	update_coordinates:
 3520               	.LFB65:
 3521               	.LM568:
 3522               	/* prologue: function */
 3523               	/* frame size = 0 */
 3524               	.LM569:
 3525 0ddc 8091 0000 		lds r24,Coordinates_changed_by
 3526 0de0 9091 0000 		lds r25,(Coordinates_changed_by)+1
 3527               	.LVL114:
 3528               	.LM570:
 3529 0de4 8230      		cpi r24,2
 3530 0de6 9105      		cpc r25,__zero_reg__
 3531 0de8 01F0      		breq .+2
 3532 0dea 00C0      		rjmp .L317
 3533               	.LM571:
 3534 0dec 8091 0000 		lds r24,dir
 3535 0df0 9091 0000 		lds r25,(dir)+1
 3536               	.LVL115:
 3537 0df4 2FEF      		ldi r18,hi8(-1)
 3538 0df6 8F3F      		cpi r24,lo8(-1)
 3539 0df8 9207      		cpc r25,r18
 3540 0dfa 01F0      		breq .L320
 3541 0dfc 2FEF      		ldi r18,hi8(-1)
 3542 0dfe 8F3F      		cpi r24,lo8(-1)
 3543 0e00 9207      		cpc r25,r18
 3544 0e02 01F0      		breq .+2
 3545 0e04 04F4      		brge .L323
 3546 0e06 8E5F      		subi r24,lo8(-2)
 3547 0e08 9F4F      		sbci r25,hi8(-2)
 3548 0e0a 01F0      		breq .+2
 3549 0e0c 00C0      		rjmp .L318
 3550 0e0e 00C0      		rjmp .L348
 3551               	.L323:
 3552 0e10 8130      		cpi r24,1
 3553 0e12 9105      		cpc r25,__zero_reg__
 3554 0e14 01F0      		breq .L321
 3555 0e16 0297      		sbiw r24,2
 3556 0e18 01F0      		breq .+2
 3557 0e1a 00C0      		rjmp .L318
 3558 0e1c 00C0      		rjmp .L349
 3559               	.L321:
 3560               	.LM572:
 3561 0e1e 8091 0000 		lds r24,x_coordinate
 3562 0e22 9091 0000 		lds r25,(x_coordinate)+1
 3563 0e26 0196      		adiw r24,1
 3564 0e28 9093 0000 		sts (x_coordinate)+1,r25
 3565 0e2c 8093 0000 		sts x_coordinate,r24
 3566               	.LM573:
 3567 0e30 84E5      		ldi r24,lo8(84)
 3568 0e32 90E0      		ldi r25,hi8(84)
 3569 0e34 66E4      		ldi r22,lo8(70)
 3570 0e36 70E0      		ldi r23,hi8(70)
 3571 0e38 44E5      		ldi r20,lo8(84)
 3572 0e3a 50E0      		ldi r21,hi8(84)
 3573 0e3c 26E4      		ldi r18,lo8(70)
 3574 0e3e 30E0      		ldi r19,hi8(70)
 3575 0e40 0E94 0000 		call update_array
 3576               	.LM574:
 3577 0e44 8091 0000 		lds r24,x_coordinate
 3578 0e48 9091 0000 		lds r25,(x_coordinate)+1
 3579 0e4c 0196      		adiw r24,1
 3580 0e4e 9093 0000 		sts (x_coordinate)+1,r25
 3581 0e52 8093 0000 		sts x_coordinate,r24
 3582               	.LM575:
 3583 0e56 6091 0000 		lds r22,y_coordinate
 3584 0e5a 7091 0000 		lds r23,(y_coordinate)+1
 3585 0e5e 0E94 0000 		call is_coordinate_null
 3586 0e62 00C0      		rjmp .L341
 3587               	.L320:
 3588               	.LM576:
 3589 0e64 8091 0000 		lds r24,x_coordinate
 3590 0e68 9091 0000 		lds r25,(x_coordinate)+1
 3591 0e6c 0197      		sbiw r24,1
 3592 0e6e 9093 0000 		sts (x_coordinate)+1,r25
 3593 0e72 8093 0000 		sts x_coordinate,r24
 3594               	.LM577:
 3595 0e76 84E5      		ldi r24,lo8(84)
 3596 0e78 90E0      		ldi r25,hi8(84)
 3597 0e7a 66E4      		ldi r22,lo8(70)
 3598 0e7c 70E0      		ldi r23,hi8(70)
 3599 0e7e 44E5      		ldi r20,lo8(84)
 3600 0e80 50E0      		ldi r21,hi8(84)
 3601 0e82 26E4      		ldi r18,lo8(70)
 3602 0e84 30E0      		ldi r19,hi8(70)
 3603 0e86 0E94 0000 		call update_array
 3604               	.LM578:
 3605 0e8a 8091 0000 		lds r24,x_coordinate
 3606 0e8e 9091 0000 		lds r25,(x_coordinate)+1
 3607 0e92 0197      		sbiw r24,1
 3608 0e94 9093 0000 		sts (x_coordinate)+1,r25
 3609 0e98 8093 0000 		sts x_coordinate,r24
 3610               	.LM579:
 3611 0e9c 6091 0000 		lds r22,y_coordinate
 3612 0ea0 7091 0000 		lds r23,(y_coordinate)+1
 3613 0ea4 0E94 0000 		call is_coordinate_null
 3614 0ea8 00C0      		rjmp .L341
 3615               	.L349:
 3616               	.LM580:
 3617 0eaa 8091 0000 		lds r24,y_coordinate
 3618 0eae 9091 0000 		lds r25,(y_coordinate)+1
 3619 0eb2 0196      		adiw r24,1
 3620 0eb4 9093 0000 		sts (y_coordinate)+1,r25
 3621 0eb8 8093 0000 		sts y_coordinate,r24
 3622               	.LM581:
 3623 0ebc 84E5      		ldi r24,lo8(84)
 3624 0ebe 90E0      		ldi r25,hi8(84)
 3625 0ec0 66E4      		ldi r22,lo8(70)
 3626 0ec2 70E0      		ldi r23,hi8(70)
 3627 0ec4 44E5      		ldi r20,lo8(84)
 3628 0ec6 50E0      		ldi r21,hi8(84)
 3629 0ec8 26E4      		ldi r18,lo8(70)
 3630 0eca 30E0      		ldi r19,hi8(70)
 3631 0ecc 0E94 0000 		call update_array
 3632               	.LM582:
 3633 0ed0 6091 0000 		lds r22,y_coordinate
 3634 0ed4 7091 0000 		lds r23,(y_coordinate)+1
 3635 0ed8 6F5F      		subi r22,lo8(-(1))
 3636 0eda 7F4F      		sbci r23,hi8(-(1))
 3637 0edc 7093 0000 		sts (y_coordinate)+1,r23
 3638 0ee0 6093 0000 		sts y_coordinate,r22
 3639               	.LM583:
 3640 0ee4 8091 0000 		lds r24,x_coordinate
 3641 0ee8 9091 0000 		lds r25,(x_coordinate)+1
 3642 0eec 0E94 0000 		call is_coordinate_null
 3643 0ef0 00C0      		rjmp .L341
 3644               	.L348:
 3645               	.LM584:
 3646 0ef2 8091 0000 		lds r24,y_coordinate
 3647 0ef6 9091 0000 		lds r25,(y_coordinate)+1
 3648 0efa 0197      		sbiw r24,1
 3649 0efc 9093 0000 		sts (y_coordinate)+1,r25
 3650 0f00 8093 0000 		sts y_coordinate,r24
 3651               	.LM585:
 3652 0f04 84E5      		ldi r24,lo8(84)
 3653 0f06 90E0      		ldi r25,hi8(84)
 3654 0f08 66E4      		ldi r22,lo8(70)
 3655 0f0a 70E0      		ldi r23,hi8(70)
 3656 0f0c 44E5      		ldi r20,lo8(84)
 3657 0f0e 50E0      		ldi r21,hi8(84)
 3658 0f10 26E4      		ldi r18,lo8(70)
 3659 0f12 30E0      		ldi r19,hi8(70)
 3660 0f14 0E94 0000 		call update_array
 3661               	.LM586:
 3662 0f18 6091 0000 		lds r22,y_coordinate
 3663 0f1c 7091 0000 		lds r23,(y_coordinate)+1
 3664 0f20 6150      		subi r22,lo8(-(-1))
 3665 0f22 7040      		sbci r23,hi8(-(-1))
 3666 0f24 7093 0000 		sts (y_coordinate)+1,r23
 3667 0f28 6093 0000 		sts y_coordinate,r22
 3668               	.LM587:
 3669 0f2c 8091 0000 		lds r24,x_coordinate
 3670 0f30 9091 0000 		lds r25,(x_coordinate)+1
 3671 0f34 0E94 0000 		call is_coordinate_null
 3672 0f38 00C0      		rjmp .L341
 3673               	.LVL116:
 3674               	.L317:
 3675               	.LM588:
 3676 0f3a 0197      		sbiw r24,1
 3677 0f3c 01F0      		breq .+2
 3678 0f3e 00C0      		rjmp .L318
 3679               	.LM589:
 3680 0f40 8091 0000 		lds r24,dir
 3681 0f44 9091 0000 		lds r25,(dir)+1
 3682               	.LVL117:
 3683 0f48 2FEF      		ldi r18,hi8(-1)
 3684 0f4a 8F3F      		cpi r24,lo8(-1)
 3685 0f4c 9207      		cpc r25,r18
 3686 0f4e 01F0      		breq .L329
 3687 0f50 2FEF      		ldi r18,hi8(-1)
 3688 0f52 8F3F      		cpi r24,lo8(-1)
 3689 0f54 9207      		cpc r25,r18
 3690 0f56 01F0      		breq .+2
 3691 0f58 04F4      		brge .L332
 3692 0f5a 8E5F      		subi r24,lo8(-2)
 3693 0f5c 9F4F      		sbci r25,hi8(-2)
 3694 0f5e 01F0      		breq .+2
 3695 0f60 00C0      		rjmp .L318
 3696 0f62 00C0      		rjmp .L350
 3697               	.L332:
 3698 0f64 8130      		cpi r24,1
 3699 0f66 9105      		cpc r25,__zero_reg__
 3700 0f68 01F0      		breq .L330
 3701 0f6a 0297      		sbiw r24,2
 3702 0f6c 01F0      		breq .+2
 3703 0f6e 00C0      		rjmp .L318
 3704 0f70 00C0      		rjmp .L351
 3705               	.L330:
 3706               	.LM590:
 3707 0f72 8091 0000 		lds r24,x_coordinate
 3708 0f76 9091 0000 		lds r25,(x_coordinate)+1
 3709 0f7a 0196      		adiw r24,1
 3710 0f7c 9093 0000 		sts (x_coordinate)+1,r25
 3711 0f80 8093 0000 		sts x_coordinate,r24
 3712               	.LM591:
 3713 0f84 6091 0000 		lds r22,y_coordinate
 3714 0f88 7091 0000 		lds r23,(y_coordinate)+1
 3715 0f8c 0E94 0000 		call is_coordinate_null
 3716 0f90 00C0      		rjmp .L341
 3717               	.L329:
 3718               	.LM592:
 3719 0f92 8091 0000 		lds r24,x_coordinate
 3720 0f96 9091 0000 		lds r25,(x_coordinate)+1
 3721 0f9a 0197      		sbiw r24,1
 3722 0f9c 9093 0000 		sts (x_coordinate)+1,r25
 3723 0fa0 8093 0000 		sts x_coordinate,r24
 3724               	.LM593:
 3725 0fa4 6091 0000 		lds r22,y_coordinate
 3726 0fa8 7091 0000 		lds r23,(y_coordinate)+1
 3727 0fac 0E94 0000 		call is_coordinate_null
 3728 0fb0 00C0      		rjmp .L341
 3729               	.L351:
 3730               	.LM594:
 3731 0fb2 6091 0000 		lds r22,y_coordinate
 3732 0fb6 7091 0000 		lds r23,(y_coordinate)+1
 3733 0fba 6F5F      		subi r22,lo8(-(1))
 3734 0fbc 7F4F      		sbci r23,hi8(-(1))
 3735 0fbe 7093 0000 		sts (y_coordinate)+1,r23
 3736 0fc2 6093 0000 		sts y_coordinate,r22
 3737               	.LM595:
 3738 0fc6 8091 0000 		lds r24,x_coordinate
 3739 0fca 9091 0000 		lds r25,(x_coordinate)+1
 3740 0fce 0E94 0000 		call is_coordinate_null
 3741 0fd2 00C0      		rjmp .L341
 3742               	.L350:
 3743               	.LM596:
 3744 0fd4 6091 0000 		lds r22,y_coordinate
 3745 0fd8 7091 0000 		lds r23,(y_coordinate)+1
 3746 0fdc 6150      		subi r22,lo8(-(-1))
 3747 0fde 7040      		sbci r23,hi8(-(-1))
 3748 0fe0 7093 0000 		sts (y_coordinate)+1,r23
 3749 0fe4 6093 0000 		sts y_coordinate,r22
 3750               	.LM597:
 3751 0fe8 8091 0000 		lds r24,x_coordinate
 3752 0fec 9091 0000 		lds r25,(x_coordinate)+1
 3753 0ff0 0E94 0000 		call is_coordinate_null
 3754               	.L341:
 3755 0ff4 892B      		or r24,r25
 3756 0ff6 01F4      		brne .L336
 3757               	.LM598:
 3758 0ff8 8091 0000 		lds r24,repeat
 3759 0ffc 9091 0000 		lds r25,(repeat)+1
 3760 1000 0196      		adiw r24,1
 3761 1002 9093 0000 		sts (repeat)+1,r25
 3762 1006 8093 0000 		sts repeat,r24
 3763 100a 00C0      		rjmp .L318
 3764               	.L336:
 3765               	.LM599:
 3766 100c 1092 0000 		sts (repeat)+1,__zero_reg__
 3767 1010 1092 0000 		sts repeat,__zero_reg__
 3768               	.LVL118:
 3769               	.L318:
 3770               	.LM600:
 3771 1014 81E0      		ldi r24,lo8(1)
 3772               	.LVL119:
 3773 1016 60E0      		ldi r22,lo8(0)
 3774 1018 0E94 0000 		call lcd_byte
 3775               	.LM601:
 3776 101c 4091 0000 		lds r20,x_coordinate
 3777 1020 5091 0000 		lds r21,(x_coordinate)+1
 3778 1024 84E0      		ldi r24,lo8(4)
 3779 1026 90E0      		ldi r25,hi8(4)
 3780 1028 60E0      		ldi r22,lo8(0)
 3781 102a 70E0      		ldi r23,hi8(0)
 3782 102c 22E0      		ldi r18,lo8(2)
 3783 102e 30E0      		ldi r19,hi8(2)
 3784 1030 0E94 0000 		call lcd_write_int_xy
 3785               	.LM602:
 3786 1034 4091 0000 		lds r20,y_coordinate
 3787 1038 5091 0000 		lds r21,(y_coordinate)+1
 3788 103c 88E0      		ldi r24,lo8(8)
 3789 103e 90E0      		ldi r25,hi8(8)
 3790 1040 60E0      		ldi r22,lo8(0)
 3791 1042 70E0      		ldi r23,hi8(0)
 3792 1044 22E0      		ldi r18,lo8(2)
 3793 1046 30E0      		ldi r19,hi8(2)
 3794 1048 0E94 0000 		call lcd_write_int_xy
 3795               	.LM603:
 3796 104c 1092 0000 		sts (Coordinates_changed_by)+1,__zero_reg__
 3797 1050 1092 0000 		sts Coordinates_changed_by,__zero_reg__
 3798               	/* epilogue start */
 3799               	.LM604:
 3800 1054 0895      		ret
 3801               	.LFE65:
 3803               	.global	left_junc_check
 3805               	left_junc_check:
 3806               	.LFB64:
 3807               	.LM605:
 3808 1056 CF93      		push r28
 3809 1058 DF93      		push r29
 3810               	/* prologue: function */
 3811               	/* frame size = 0 */
 3812               	.LM606:
 3813 105a CD99      		sbic 57-32,5
 3814 105c 00C0      		rjmp .L353
 3815               	.LM607:
 3816 105e C1E0      		ldi r28,lo8(1)
 3817 1060 D0E0      		ldi r29,hi8(1)
 3818 1062 D093 0000 		sts (flag1)+1,r29
 3819 1066 C093 0000 		sts flag1,r28
 3820               	.LM608:
 3821 106a 8091 0000 		lds r24,irc
 3822 106e 9091 0000 		lds r25,(irc)+1
 3823 1072 815D      		subi r24,lo8(2001)
 3824 1074 9740      		sbci r25,hi8(2001)
 3825 1076 04F0      		brlt .L354
 3826               	.LM609:
 3827 1078 81E0      		ldi r24,lo8(1)
 3828 107a 60E0      		ldi r22,lo8(0)
 3829 107c 0E94 0000 		call lcd_byte
 3830               	.LM610:
 3831 1080 82E0      		ldi r24,lo8(2)
 3832 1082 90E0      		ldi r25,hi8(2)
 3833 1084 9093 0000 		sts (Coordinates_changed_by)+1,r25
 3834 1088 8093 0000 		sts Coordinates_changed_by,r24
 3835 108c 00C0      		rjmp .L355
 3836               	.L354:
 3837               	.LM611:
 3838 108e 81E0      		ldi r24,lo8(1)
 3839 1090 60E0      		ldi r22,lo8(0)
 3840 1092 0E94 0000 		call lcd_byte
 3841               	.LM612:
 3842 1096 D093 0000 		sts (Coordinates_changed_by)+1,r29
 3843 109a C093 0000 		sts Coordinates_changed_by,r28
 3844               	.L355:
 3845               	.LM613:
 3846 109e 8091 0000 		lds r24,irc
 3847 10a2 9091 0000 		lds r25,(irc)+1
 3848 10a6 892B      		or r24,r25
 3849 10a8 01F4      		brne .L353
 3850               	.LM614:
 3851 10aa 1092 0000 		sts (Coordinates_changed_by)+1,__zero_reg__
 3852 10ae 1092 0000 		sts Coordinates_changed_by,__zero_reg__
 3853               	.L353:
 3854               	.LM615:
 3855 10b2 CE9B      		sbis 57-32,6
 3856 10b4 00C0      		rjmp .L356
 3857 10b6 8699      		sbic 48-32,6
 3858 10b8 00C0      		rjmp .L357
 3859               	.L356:
 3860 10ba CC9B      		sbis 57-32,4
 3861 10bc 00C0      		rjmp .L358
 3862 10be 8091 0000 		lds r24,special_flag
 3863 10c2 9091 0000 		lds r25,(special_flag)+1
 3864 10c6 0197      		sbiw r24,1
 3865 10c8 01F4      		brne .L357
 3866               	.L358:
 3867               	.LM616:
 3868 10ca 0E94 0000 		call update_coordinates
 3869               	.LM617:
 3870 10ce 84E5      		ldi r24,lo8(84)
 3871 10d0 90E0      		ldi r25,hi8(84)
 3872 10d2 66E4      		ldi r22,lo8(70)
 3873 10d4 70E0      		ldi r23,hi8(70)
 3874 10d6 44E5      		ldi r20,lo8(84)
 3875 10d8 50E0      		ldi r21,hi8(84)
 3876 10da 24E5      		ldi r18,lo8(84)
 3877 10dc 30E0      		ldi r19,hi8(84)
 3878 10de 0E94 0000 		call update_array
 3879               	.LM618:
 3880 10e2 1092 0000 		sts (irc)+1,__zero_reg__
 3881 10e6 1092 0000 		sts irc,__zero_reg__
 3882 10ea 00C0      		rjmp .L362
 3883               	.L357:
 3884               	.LM619:
 3885 10ec CC9B      		sbis 57-32,4
 3886 10ee 00C0      		rjmp .L360
 3887 10f0 8091 0000 		lds r24,special_flag
 3888 10f4 9091 0000 		lds r25,(special_flag)+1
 3889 10f8 0197      		sbiw r24,1
 3890 10fa 01F4      		brne .L361
 3891               	.L360:
 3892 10fc CE9B      		sbis 57-32,6
 3893 10fe 00C0      		rjmp .L361
 3894 1100 869B      		sbis 48-32,6
 3895 1102 00C0      		rjmp .L361
 3896               	.LM620:
 3897 1104 0E94 0000 		call update_coordinates
 3898               	.LM621:
 3899 1108 1092 0000 		sts (irc)+1,__zero_reg__
 3900 110c 1092 0000 		sts irc,__zero_reg__
 3901               	.LBB673:
 3902               	.LBB674:
 3903               	.LM622:
 3904 1110 AC9A      		sbi 53-32,4
 3905               	.LM623:
 3906 1112 AD9A      		sbi 53-32,5
 3907               	.LM624:
 3908 1114 AE9A      		sbi 53-32,6
 3909               	.LM625:
 3910 1116 AF9A      		sbi 53-32,7
 3911               	.LBE674:
 3912               	.LBE673:
 3913               	.LM626:
 3914 1118 8091 0000 		lds r24,repeat
 3915 111c 9091 0000 		lds r25,(repeat)+1
 3916 1120 0397      		sbiw r24,3
 3917 1122 04F4      		brge .L361
 3918               	.LM627:
 3919 1124 0E94 0000 		call turn_left
 3920               	.LM628:
 3921 1128 86E4      		ldi r24,lo8(70)
 3922 112a 90E0      		ldi r25,hi8(70)
 3923 112c 66E4      		ldi r22,lo8(70)
 3924 112e 70E0      		ldi r23,hi8(70)
 3925 1130 44E5      		ldi r20,lo8(84)
 3926 1132 50E0      		ldi r21,hi8(84)
 3927 1134 24E5      		ldi r18,lo8(84)
 3928 1136 30E0      		ldi r19,hi8(84)
 3929 1138 0E94 0000 		call update_array
 3930               	.LBB675:
 3931               	.LBB676:
 3932               	.LM629:
 3933 113c AC9A      		sbi 53-32,4
 3934               	.LM630:
 3935 113e AD9A      		sbi 53-32,5
 3936               	.LM631:
 3937 1140 AE9A      		sbi 53-32,6
 3938               	.LM632:
 3939 1142 AF9A      		sbi 53-32,7
 3940               	.LBE676:
 3941               	.LBE675:
 3942               	.LM633:
 3943 1144 0E94 0000 		call sense_of_directon
 3944               	.LM634:
 3945 1148 1092 0000 		sts (flag1)+1,__zero_reg__
 3946 114c 1092 0000 		sts flag1,__zero_reg__
 3947               	.L362:
 3948               	.LM635:
 3949 1150 1092 0000 		sts (special_flag)+1,__zero_reg__
 3950 1154 1092 0000 		sts special_flag,__zero_reg__
 3951               	.L361:
 3952               	/* epilogue start */
 3953               	.LM636:
 3954 1158 DF91      		pop r29
 3955 115a CF91      		pop r28
 3956 115c 0895      		ret
 3957               	.LFE64:
 3959               	.global	frSensorCheck
 3961               	frSensorCheck:
 3962               	.LFB62:
 3963               	.LM637:
 3964               	/* prologue: function */
 3965               	/* frame size = 0 */
 3966               	.LM638:
 3967 115e CE9B      		sbis 57-32,6
 3968 1160 00C0      		rjmp .L364
 3969 1162 869B      		sbis 48-32,6
 3970 1164 00C0      		rjmp .L364
 3971               	.LM639:
 3972 1166 8091 0000 		lds r24,irc
 3973 116a 9091 0000 		lds r25,(irc)+1
 3974 116e 2091 0000 		lds r18,Coordinates_changed_by
 3975 1172 3091 0000 		lds r19,(Coordinates_changed_by)+1
 3976 1176 815D      		subi r24,lo8(2001)
 3977 1178 9740      		sbci r25,hi8(2001)
 3978 117a 04F0      		brlt .L365
 3979               	.LM640:
 3980 117c 232B      		or r18,r19
 3981 117e 01F4      		brne .L364
 3982               	.LM641:
 3983 1180 82E0      		ldi r24,lo8(2)
 3984 1182 90E0      		ldi r25,hi8(2)
 3985 1184 00C0      		rjmp .L368
 3986               	.L365:
 3987               	.LM642:
 3988 1186 232B      		or r18,r19
 3989 1188 01F4      		brne .L364
 3990               	.LM643:
 3991 118a 81E0      		ldi r24,lo8(1)
 3992 118c 90E0      		ldi r25,hi8(1)
 3993               	.L368:
 3994 118e 9093 0000 		sts (Coordinates_changed_by)+1,r25
 3995 1192 8093 0000 		sts Coordinates_changed_by,r24
 3996               	.L364:
 3997               	.LM644:
 3998 1196 8091 0000 		lds r24,sensorbyte
 3999 119a 8823      		tst r24
 4000 119c 01F4      		brne .L367
 4001 119e CC9B      		sbis 57-32,4
 4002 11a0 00C0      		rjmp .L367
 4003 11a2 CD9B      		sbis 57-32,5
 4004 11a4 00C0      		rjmp .L367
 4005 11a6 CE9B      		sbis 57-32,6
 4006 11a8 00C0      		rjmp .L367
 4007 11aa CF9B      		sbis 57-32,7
 4008 11ac 00C0      		rjmp .L367
 4009 11ae 869B      		sbis 48-32,6
 4010 11b0 00C0      		rjmp .L367
 4011 11b2 879B      		sbis 48-32,7
 4012 11b4 00C0      		rjmp .L367
 4013               	.LBB677:
 4014               	.LBB678:
 4015               	.LM645:
 4016 11b6 AC9A      		sbi 53-32,4
 4017               	.LM646:
 4018 11b8 AD9A      		sbi 53-32,5
 4019               	.LM647:
 4020 11ba AE9A      		sbi 53-32,6
 4021               	.LM648:
 4022 11bc AF9A      		sbi 53-32,7
 4023               	.LBE678:
 4024               	.LBE677:
 4025               	.LM649:
 4026 11be 0E94 0000 		call update_coordinates
 4027               	.LM650:
 4028 11c2 86E4      		ldi r24,lo8(70)
 4029 11c4 90E0      		ldi r25,hi8(70)
 4030 11c6 66E4      		ldi r22,lo8(70)
 4031 11c8 70E0      		ldi r23,hi8(70)
 4032 11ca 44E5      		ldi r20,lo8(84)
 4033 11cc 50E0      		ldi r21,hi8(84)
 4034 11ce 26E4      		ldi r18,lo8(70)
 4035 11d0 30E0      		ldi r19,hi8(70)
 4036 11d2 0E94 0000 		call update_array
 4037               	.LM651:
 4038 11d6 0E94 0000 		call Uturn
 4039               	.LM652:
 4040 11da 0E94 0000 		call sense_of_directon
 4041               	.LM653:
 4042 11de 1092 0000 		sts (flag1)+1,__zero_reg__
 4043 11e2 1092 0000 		sts flag1,__zero_reg__
 4044               	.LM654:
 4045 11e6 1092 0000 		sts (irc)+1,__zero_reg__
 4046 11ea 1092 0000 		sts irc,__zero_reg__
 4047               	.L367:
 4048 11ee 0895      		ret
 4049               	.LFE62:
 4051               		.data
 4052               	.LC0:
 4053 0000 4669 6C6C 		.string	"Filliable"
 4053      6961 626C 
 4053      6500 
 4054               		.text
 4055               	.global	fill_missed_array
 4057               	fill_missed_array:
 4058               	.LFB69:
 4059               	.LM655:
 4060 11f0 6F92      		push r6
 4061 11f2 7F92      		push r7
 4062 11f4 8F92      		push r8
 4063 11f6 9F92      		push r9
 4064 11f8 BF92      		push r11
 4065 11fa CF92      		push r12
 4066 11fc DF92      		push r13
 4067 11fe EF92      		push r14
 4068 1200 FF92      		push r15
 4069 1202 0F93      		push r16
 4070 1204 1F93      		push r17
 4071 1206 CF93      		push r28
 4072 1208 DF93      		push r29
 4073               	/* prologue: function */
 4074               	/* frame size = 0 */
 4075               	.LM656:
 4076 120a 81E0      		ldi r24,lo8(1)
 4077 120c E82E      		mov r14,r24
 4078 120e F12C      		mov r15,__zero_reg__
 4079               	.LVL120:
 4080               	.LBB679:
 4081               	.LBB680:
 4082               	.LM657:
 4083 1210 06E4      		ldi r16,lo8(70)
 4084 1212 B02E      		mov r11,r16
 4085 1214 00C0      		rjmp .L370
 4086               	.LVL121:
 4087               	.L379:
 4088               	.LM658:
 4089 1216 C701      		movw r24,r14
 4090 1218 B801      		movw r22,r16
 4091 121a 0E94 0000 		call is_coordinate_null
 4092 121e 892B      		or r24,r25
 4093 1220 01F4      		brne .+2
 4094 1222 00C0      		rjmp .L371
 4095               	.LM659:
 4096 1224 81E0      		ldi r24,lo8(1)
 4097 1226 60E0      		ldi r22,lo8(0)
 4098 1228 0E94 0000 		call lcd_byte
 4099               	.LM660:
 4100 122c C301      		movw r24,r6
 4101 122e B801      		movw r22,r16
 4102 1230 0E94 0000 		call is_coordinate_null
 4103 1234 892B      		or r24,r25
 4104 1236 01F0      		breq .+2
 4105 1238 00C0      		rjmp .L371
 4106 123a C401      		movw r24,r8
 4107 123c B801      		movw r22,r16
 4108 123e 0E94 0000 		call is_coordinate_null
 4109 1242 892B      		or r24,r25
 4110 1244 01F4      		brne .L371
 4111 1246 B801      		movw r22,r16
 4112 1248 6150      		subi r22,lo8(-(-1))
 4113 124a 7040      		sbci r23,hi8(-(-1))
 4114 124c C701      		movw r24,r14
 4115 124e 0E94 0000 		call is_coordinate_null
 4116 1252 892B      		or r24,r25
 4117 1254 01F4      		brne .L371
 4118 1256 B801      		movw r22,r16
 4119 1258 6F5F      		subi r22,lo8(-(1))
 4120 125a 7F4F      		sbci r23,hi8(-(1))
 4121 125c C701      		movw r24,r14
 4122 125e 0E94 0000 		call is_coordinate_null
 4123 1262 892B      		or r24,r25
 4124 1264 01F4      		brne .L371
 4125               	.LM661:
 4126 1266 81E0      		ldi r24,lo8(1)
 4127 1268 60E0      		ldi r22,lo8(0)
 4128 126a 0E94 0000 		call lcd_byte
 4129               	.LM662:
 4130 126e 80E0      		ldi r24,lo8(.LC0)
 4131 1270 90E0      		ldi r25,hi8(.LC0)
 4132 1272 0E94 0000 		call lcd_write_string
 4133               	.LM663:
 4134 1276 80ED      		ldi r24,lo8(2000)
 4135 1278 97E0      		ldi r25,hi8(2000)
 4136 127a 0E94 0000 		call delay_millisec
 4137               	.LM664:
 4138 127e CD5B      		subi r28,lo8(-(67))
 4139 1280 DF4F      		sbci r29,hi8(-(67))
 4140 1282 8881      		ld r24,Y
 4141 1284 C354      		subi r28,lo8(-(-67))
 4142 1286 D040      		sbci r29,hi8(-(-67))
 4143 1288 8435      		cpi r24,lo8(84)
 4144 128a 01F4      		brne .L372
 4145               	.LM665:
 4146 128c 8983      		std Y+1,r24
 4147 128e 00C0      		rjmp .L373
 4148               	.L372:
 4149               	.LM666:
 4150 1290 B982      		std Y+1,r11
 4151               	.L373:
 4152               	.LM667:
 4153 1292 EF97      		sbiw r28,63
 4154 1294 8881      		ld r24,Y
 4155 1296 EF96      		adiw r28,63
 4156 1298 8435      		cpi r24,lo8(84)
 4157 129a 01F4      		brne .L374
 4158               	.LM668:
 4159 129c 8B83      		std Y+3,r24
 4160 129e 00C0      		rjmp .L375
 4161               	.L374:
 4162               	.LM669:
 4163 12a0 BB82      		std Y+3,r11
 4164               	.L375:
 4165               	.LM670:
 4166 12a2 8E81      		ldd r24,Y+6
 4167 12a4 8435      		cpi r24,lo8(84)
 4168 12a6 01F4      		brne .L376
 4169               	.LM671:
 4170 12a8 8883      		st Y,r24
 4171 12aa 00C0      		rjmp .L377
 4172               	.L376:
 4173               	.LM672:
 4174 12ac B882      		st Y,r11
 4175               	.L377:
 4176               	.LM673:
 4177 12ae F601      		movw r30,r12
 4178 12b0 8081      		ld r24,Z
 4179 12b2 8435      		cpi r24,lo8(84)
 4180 12b4 01F4      		brne .L378
 4181               	.LM674:
 4182 12b6 8A83      		std Y+2,r24
 4183 12b8 00C0      		rjmp .L371
 4184               	.L378:
 4185               	.LM675:
 4186 12ba BA82      		std Y+2,r11
 4187               	.L371:
 4188               	.LM676:
 4189 12bc 0F5F      		subi r16,lo8(-(1))
 4190 12be 1F4F      		sbci r17,hi8(-(1))
 4191 12c0 85E0      		ldi r24,lo8(5)
 4192 12c2 90E0      		ldi r25,hi8(5)
 4193 12c4 C80E      		add r12,r24
 4194 12c6 D91E      		adc r13,r25
 4195 12c8 2496      		adiw r28,4
 4196 12ca 0F30      		cpi r16,15
 4197 12cc 1105      		cpc r17,__zero_reg__
 4198 12ce 01F0      		breq .+2
 4199 12d0 00C0      		rjmp .L379
 4200               	.LBE680:
 4201               	.LM677:
 4202 12d2 0894      		sec
 4203 12d4 E11C      		adc r14,__zero_reg__
 4204 12d6 F11C      		adc r15,__zero_reg__
 4205 12d8 9FE0      		ldi r25,lo8(15)
 4206 12da E916      		cp r14,r25
 4207 12dc F104      		cpc r15,__zero_reg__
 4208 12de 01F0      		breq .L381
 4209               	.L370:
 4210 12e0 6701      		movw r12,r14
 4211 12e2 16E0      		ldi r17,6
 4212 12e4 CC0C      	1:	lsl r12
 4213 12e6 DD1C      		rol r13
 4214 12e8 1A95      		dec r17
 4215 12ea 01F4      		brne 1b
 4216 12ec E0E0      		ldi r30,lo8(dir_array+4)
 4217 12ee F0E0      		ldi r31,hi8(dir_array+4)
 4218 12f0 CE0E      		add r12,r30
 4219 12f2 DF1E      		adc r13,r31
 4220 12f4 E601      		movw r28,r12
 4221 12f6 01E0      		ldi r16,lo8(1)
 4222 12f8 10E0      		ldi r17,hi8(1)
 4223               	.LBB681:
 4224               	.LM678:
 4225 12fa 3701      		movw r6,r14
 4226 12fc 0894      		sec
 4227 12fe 611C      		adc r6,__zero_reg__
 4228 1300 711C      		adc r7,__zero_reg__
 4229 1302 4701      		movw r8,r14
 4230 1304 0894      		sec
 4231 1306 8108      		sbc r8,__zero_reg__
 4232 1308 9108      		sbc r9,__zero_reg__
 4233 130a 00C0      		rjmp .L379
 4234               	.L381:
 4235               	/* epilogue start */
 4236               	.LBE681:
 4237               	.LBE679:
 4238               	.LM679:
 4239 130c DF91      		pop r29
 4240 130e CF91      		pop r28
 4241 1310 1F91      		pop r17
 4242 1312 0F91      		pop r16
 4243               	.LVL122:
 4244 1314 FF90      		pop r15
 4245 1316 EF90      		pop r14
 4246               	.LVL123:
 4247 1318 DF90      		pop r13
 4248 131a CF90      		pop r12
 4249 131c BF90      		pop r11
 4250 131e 9F90      		pop r9
 4251 1320 8F90      		pop r8
 4252 1322 7F90      		pop r7
 4253 1324 6F90      		pop r6
 4254 1326 0895      		ret
 4255               	.LFE69:
 4257               	.global	coordinates_tobe_reached
 4259               	coordinates_tobe_reached:
 4260               	.LFB70:
 4261               	.LM680:
 4262 1328 2F92      		push r2
 4263 132a 3F92      		push r3
 4264 132c 4F92      		push r4
 4265 132e 5F92      		push r5
 4266 1330 6F92      		push r6
 4267 1332 7F92      		push r7
 4268 1334 8F92      		push r8
 4269 1336 9F92      		push r9
 4270 1338 AF92      		push r10
 4271 133a BF92      		push r11
 4272 133c CF92      		push r12
 4273 133e DF92      		push r13
 4274 1340 EF92      		push r14
 4275 1342 FF92      		push r15
 4276 1344 0F93      		push r16
 4277 1346 1F93      		push r17
 4278 1348 DF93      		push r29
 4279 134a CF93      		push r28
 4280 134c CDB7      		in r28,__SP_L__
 4281 134e DEB7      		in r29,__SP_H__
 4282 1350 6897      		sbiw r28,24
 4283 1352 0FB6      		in __tmp_reg__,__SREG__
 4284 1354 F894      		cli
 4285 1356 DEBF      		out __SP_H__,r29
 4286 1358 0FBE      		out __SREG__,__tmp_reg__
 4287 135a CDBF      		out __SP_L__,r28
 4288               	/* prologue: function */
 4289               	/* frame size = 24 */
 4290               	.LM681:
 4291 135c 1092 0000 		sts (mx)+1,__zero_reg__
 4292 1360 1092 0000 		sts mx,__zero_reg__
 4293               	.LM682:
 4294 1364 1092 0000 		sts (my)+1,__zero_reg__
 4295 1368 1092 0000 		sts my,__zero_reg__
 4296               	.LBB682:
 4297               	.LBB683:
 4298               	.LM683:
 4299 136c 8090 0000 		lds r8,x_coordinate
 4300 1370 9090 0000 		lds r9,(x_coordinate)+1
 4301 1374 A090 0000 		lds r10,y_coordinate
 4302 1378 B090 0000 		lds r11,(y_coordinate)+1
 4303 137c CC24      		clr r12
 4304 137e DD24      		clr r13
 4305 1380 C818      		sub r12,r8
 4306 1382 D908      		sbc r13,r9
 4307 1384 DE82      		std Y+6,r13
 4308 1386 CD82      		std Y+5,r12
 4309 1388 DC82      		std Y+4,r13
 4310 138a CB82      		std Y+3,r12
 4311 138c DA82      		std Y+2,r13
 4312 138e C982      		std Y+1,r12
 4313 1390 00E0      		ldi r16,lo8(0)
 4314 1392 10E0      		ldi r17,hi8(0)
 4315               	.LVL124:
 4316               	.LM684:
 4317 1394 2227      		clr r18
 4318 1396 3327      		clr r19
 4319 1398 2A19      		sub r18,r10
 4320 139a 3B09      		sbc r19,r11
 4321 139c 3E8B      		std Y+22,r19
 4322 139e 2D8B      		std Y+21,r18
 4323 13a0 00C0      		rjmp .L384
 4324               	.LVL125:
 4325               	.L393:
 4326               	.LM685:
 4327 13a2 C801      		movw r24,r16
 4328 13a4 6F89      		ldd r22,Y+23
 4329 13a6 788D      		ldd r23,Y+24
 4330 13a8 0E94 0000 		call is_coordinate_null
 4331 13ac 892B      		or r24,r25
 4332 13ae 01F0      		breq .+2
 4333 13b0 00C0      		rjmp .L385
 4334               	.LM686:
 4335 13b2 F701      		movw r30,r14
 4336 13b4 8081      		ld r24,Z
 4337 13b6 8435      		cpi r24,lo8(84)
 4338 13b8 01F0      		breq .+2
 4339 13ba 00C0      		rjmp .L386
 4340               	.LM687:
 4341 13bc 6F89      		ldd r22,Y+23
 4342 13be 788D      		ldd r23,Y+24
 4343 13c0 6F5F      		subi r22,lo8(-(1))
 4344 13c2 7F4F      		sbci r23,hi8(-(1))
 4345 13c4 C801      		movw r24,r16
 4346 13c6 0E94 0000 		call is_coordinate_null
 4347 13ca 892B      		or r24,r25
 4348 13cc 01F4      		brne .+2
 4349 13ce 00C0      		rjmp .L386
 4350               	.LM688:
 4351 13d0 6091 0000 		lds r22,mx
 4352 13d4 7091 0000 		lds r23,(mx)+1
 4353 13d8 6115      		cp r22,__zero_reg__
 4354 13da 7105      		cpc r23,__zero_reg__
 4355 13dc 01F4      		brne .L387
 4356 13de 8091 0000 		lds r24,my
 4357 13e2 9091 0000 		lds r25,(my)+1
 4358 13e6 892B      		or r24,r25
 4359 13e8 01F0      		breq .L397
 4360               	.L387:
 4361               	.LM689:
 4362 13ea 6819      		sub r22,r8
 4363 13ec 7909      		sbc r23,r9
 4364 13ee 8091 0000 		lds r24,my
 4365 13f2 9091 0000 		lds r25,(my)+1
 4366 13f6 8A19      		sub r24,r10
 4367 13f8 9B09      		sbc r25,r11
 4368               	.LM690:
 4369 13fa ED85      		ldd r30,Y+13
 4370 13fc FE85      		ldd r31,Y+14
 4371 13fe EE9F      		mul r30,r30
 4372 1400 A001      		movw r20,r0
 4373 1402 EF9F      		mul r30,r31
 4374 1404 500D      		add r21,r0
 4375 1406 FE9F      		mul r31,r30
 4376 1408 500D      		add r21,r0
 4377 140a 1124      		clr r1
 4378 140c 2F85      		ldd r18,Y+15
 4379 140e 3889      		ldd r19,Y+16
 4380 1410 420F      		add r20,r18
 4381 1412 531F      		adc r21,r19
 4382 1414 FC01      		movw r30,r24
 4383 1416 EE9F      		mul r30,r30
 4384 1418 C001      		movw r24,r0
 4385 141a EF9F      		mul r30,r31
 4386 141c 900D      		add r25,r0
 4387 141e FE9F      		mul r31,r30
 4388 1420 900D      		add r25,r0
 4389 1422 1124      		clr r1
 4390 1424 669F      		mul r22,r22
 4391 1426 9001      		movw r18,r0
 4392 1428 679F      		mul r22,r23
 4393 142a 300D      		add r19,r0
 4394 142c 769F      		mul r23,r22
 4395 142e 300D      		add r19,r0
 4396 1430 1124      		clr r1
 4397 1432 820F      		add r24,r18
 4398 1434 931F      		adc r25,r19
 4399 1436 4817      		cp r20,r24
 4400 1438 5907      		cpc r21,r25
 4401 143a 04F4      		brge .L386
 4402               	.L397:
 4403               	.LM691:
 4404 143c 1093 0000 		sts (mx)+1,r17
 4405 1440 0093 0000 		sts mx,r16
 4406               	.LM692:
 4407 1444 2F89      		ldd r18,Y+23
 4408 1446 388D      		ldd r19,Y+24
 4409 1448 3093 0000 		sts (my)+1,r19
 4410 144c 2093 0000 		sts my,r18
 4411               	.L386:
 4412               	.LM693:
 4413 1450 F701      		movw r30,r14
 4414 1452 8181      		ldd r24,Z+1
 4415 1454 8435      		cpi r24,lo8(84)
 4416 1456 01F0      		breq .+2
 4417 1458 00C0      		rjmp .L388
 4418               	.LM694:
 4419 145a 8B89      		ldd r24,Y+19
 4420 145c 9C89      		ldd r25,Y+20
 4421 145e 6F89      		ldd r22,Y+23
 4422 1460 788D      		ldd r23,Y+24
 4423 1462 0E94 0000 		call is_coordinate_null
 4424 1466 892B      		or r24,r25
 4425 1468 01F4      		brne .+2
 4426 146a 00C0      		rjmp .L388
 4427               	.LM695:
 4428 146c 6091 0000 		lds r22,mx
 4429 1470 7091 0000 		lds r23,(mx)+1
 4430 1474 6115      		cp r22,__zero_reg__
 4431 1476 7105      		cpc r23,__zero_reg__
 4432 1478 01F4      		brne .L389
 4433 147a 8091 0000 		lds r24,my
 4434 147e 9091 0000 		lds r25,(my)+1
 4435 1482 892B      		or r24,r25
 4436 1484 01F4      		brne .L389
 4437               	.LM696:
 4438 1486 1093 0000 		sts (mx)+1,r17
 4439 148a 0093 0000 		sts mx,r16
 4440               	.LM697:
 4441 148e 2F89      		ldd r18,Y+23
 4442 1490 388D      		ldd r19,Y+24
 4443 1492 3093 0000 		sts (my)+1,r19
 4444 1496 2093 0000 		sts my,r18
 4445 149a 00C0      		rjmp .L388
 4446               	.L389:
 4447               	.LM698:
 4448 149c 6819      		sub r22,r8
 4449 149e 7909      		sbc r23,r9
 4450 14a0 8091 0000 		lds r24,my
 4451 14a4 9091 0000 		lds r25,(my)+1
 4452 14a8 8A19      		sub r24,r10
 4453 14aa 9B09      		sbc r25,r11
 4454               	.LM699:
 4455 14ac 669C      		mul r6,r6
 4456 14ae A001      		movw r20,r0
 4457 14b0 679C      		mul r6,r7
 4458 14b2 500D      		add r21,r0
 4459 14b4 769C      		mul r7,r6
 4460 14b6 500D      		add r21,r0
 4461 14b8 1124      		clr r1
 4462 14ba EB85      		ldd r30,Y+11
 4463 14bc FC85      		ldd r31,Y+12
 4464 14be 4E0F      		add r20,r30
 4465 14c0 5F1F      		adc r21,r31
 4466 14c2 9C01      		movw r18,r24
 4467 14c4 229F      		mul r18,r18
 4468 14c6 C001      		movw r24,r0
 4469 14c8 239F      		mul r18,r19
 4470 14ca 900D      		add r25,r0
 4471 14cc 329F      		mul r19,r18
 4472 14ce 900D      		add r25,r0
 4473 14d0 1124      		clr r1
 4474 14d2 669F      		mul r22,r22
 4475 14d4 9001      		movw r18,r0
 4476 14d6 679F      		mul r22,r23
 4477 14d8 300D      		add r19,r0
 4478 14da 769F      		mul r23,r22
 4479 14dc 300D      		add r19,r0
 4480 14de 1124      		clr r1
 4481 14e0 820F      		add r24,r18
 4482 14e2 931F      		adc r25,r19
 4483 14e4 4817      		cp r20,r24
 4484 14e6 5907      		cpc r21,r25
 4485 14e8 04F4      		brge .L388
 4486               	.LM700:
 4487 14ea 1093 0000 		sts (mx)+1,r17
 4488 14ee 0093 0000 		sts mx,r16
 4489               	.LM701:
 4490 14f2 8F89      		ldd r24,Y+23
 4491 14f4 988D      		ldd r25,Y+24
 4492 14f6 9093 0000 		sts (my)+1,r25
 4493 14fa 8093 0000 		sts my,r24
 4494               	.L388:
 4495               	.LM702:
 4496 14fe F701      		movw r30,r14
 4497 1500 8281      		ldd r24,Z+2
 4498 1502 8435      		cpi r24,lo8(84)
 4499 1504 01F0      		breq .+2
 4500 1506 00C0      		rjmp .L390
 4501               	.LM703:
 4502 1508 6F89      		ldd r22,Y+23
 4503 150a 788D      		ldd r23,Y+24
 4504 150c 6150      		subi r22,lo8(-(-1))
 4505 150e 7040      		sbci r23,hi8(-(-1))
 4506 1510 C801      		movw r24,r16
 4507 1512 0E94 0000 		call is_coordinate_null
 4508 1516 892B      		or r24,r25
 4509 1518 01F4      		brne .+2
 4510 151a 00C0      		rjmp .L390
 4511               	.LM704:
 4512 151c 6091 0000 		lds r22,mx
 4513 1520 7091 0000 		lds r23,(mx)+1
 4514 1524 6115      		cp r22,__zero_reg__
 4515 1526 7105      		cpc r23,__zero_reg__
 4516 1528 01F4      		brne .L391
 4517 152a 8091 0000 		lds r24,my
 4518 152e 9091 0000 		lds r25,(my)+1
 4519 1532 892B      		or r24,r25
 4520 1534 01F4      		brne .L391
 4521               	.LM705:
 4522 1536 1093 0000 		sts (mx)+1,r17
 4523 153a 0093 0000 		sts mx,r16
 4524               	.LM706:
 4525 153e 2F89      		ldd r18,Y+23
 4526 1540 388D      		ldd r19,Y+24
 4527 1542 3093 0000 		sts (my)+1,r19
 4528 1546 2093 0000 		sts my,r18
 4529 154a 00C0      		rjmp .L390
 4530               	.L391:
 4531               	.LM707:
 4532 154c 6819      		sub r22,r8
 4533 154e 7909      		sbc r23,r9
 4534 1550 8091 0000 		lds r24,my
 4535 1554 9091 0000 		lds r25,(my)+1
 4536 1558 8A19      		sub r24,r10
 4537 155a 9B09      		sbc r25,r11
 4538               	.LM708:
 4539 155c 449C      		mul r4,r4
 4540 155e A001      		movw r20,r0
 4541 1560 459C      		mul r4,r5
 4542 1562 500D      		add r21,r0
 4543 1564 549C      		mul r5,r4
 4544 1566 500D      		add r21,r0
 4545 1568 1124      		clr r1
 4546 156a E985      		ldd r30,Y+9
 4547 156c FA85      		ldd r31,Y+10
 4548 156e 4E0F      		add r20,r30
 4549 1570 5F1F      		adc r21,r31
 4550 1572 9C01      		movw r18,r24
 4551 1574 229F      		mul r18,r18
 4552 1576 C001      		movw r24,r0
 4553 1578 239F      		mul r18,r19
 4554 157a 900D      		add r25,r0
 4555 157c 329F      		mul r19,r18
 4556 157e 900D      		add r25,r0
 4557 1580 1124      		clr r1
 4558 1582 669F      		mul r22,r22
 4559 1584 9001      		movw r18,r0
 4560 1586 679F      		mul r22,r23
 4561 1588 300D      		add r19,r0
 4562 158a 769F      		mul r23,r22
 4563 158c 300D      		add r19,r0
 4564 158e 1124      		clr r1
 4565 1590 820F      		add r24,r18
 4566 1592 931F      		adc r25,r19
 4567 1594 4817      		cp r20,r24
 4568 1596 5907      		cpc r21,r25
 4569 1598 04F4      		brge .L390
 4570               	.LM709:
 4571 159a 1093 0000 		sts (mx)+1,r17
 4572 159e 0093 0000 		sts mx,r16
 4573               	.LM710:
 4574 15a2 8F89      		ldd r24,Y+23
 4575 15a4 988D      		ldd r25,Y+24
 4576 15a6 9093 0000 		sts (my)+1,r25
 4577 15aa 8093 0000 		sts my,r24
 4578               	.L390:
 4579               	.LM711:
 4580 15ae F701      		movw r30,r14
 4581 15b0 8381      		ldd r24,Z+3
 4582 15b2 8435      		cpi r24,lo8(84)
 4583 15b4 01F0      		breq .+2
 4584 15b6 00C0      		rjmp .L385
 4585               	.LM712:
 4586 15b8 8989      		ldd r24,Y+17
 4587 15ba 9A89      		ldd r25,Y+18
 4588 15bc 6F89      		ldd r22,Y+23
 4589 15be 788D      		ldd r23,Y+24
 4590 15c0 0E94 0000 		call is_coordinate_null
 4591 15c4 892B      		or r24,r25
 4592 15c6 01F4      		brne .+2
 4593 15c8 00C0      		rjmp .L385
 4594               	.LM713:
 4595 15ca 6091 0000 		lds r22,mx
 4596 15ce 7091 0000 		lds r23,(mx)+1
 4597 15d2 6115      		cp r22,__zero_reg__
 4598 15d4 7105      		cpc r23,__zero_reg__
 4599 15d6 01F4      		brne .L392
 4600 15d8 8091 0000 		lds r24,my
 4601 15dc 9091 0000 		lds r25,(my)+1
 4602 15e0 892B      		or r24,r25
 4603 15e2 01F4      		brne .L392
 4604               	.LM714:
 4605 15e4 1093 0000 		sts (mx)+1,r17
 4606 15e8 0093 0000 		sts mx,r16
 4607               	.LM715:
 4608 15ec 2F89      		ldd r18,Y+23
 4609 15ee 388D      		ldd r19,Y+24
 4610 15f0 3093 0000 		sts (my)+1,r19
 4611 15f4 2093 0000 		sts my,r18
 4612 15f8 00C0      		rjmp .L385
 4613               	.L392:
 4614               	.LM716:
 4615 15fa 6819      		sub r22,r8
 4616 15fc 7909      		sbc r23,r9
 4617 15fe 8091 0000 		lds r24,my
 4618 1602 9091 0000 		lds r25,(my)+1
 4619 1606 8A19      		sub r24,r10
 4620 1608 9B09      		sbc r25,r11
 4621               	.LM717:
 4622 160a 229C      		mul r2,r2
 4623 160c A001      		movw r20,r0
 4624 160e 239C      		mul r2,r3
 4625 1610 500D      		add r21,r0
 4626 1612 329C      		mul r3,r2
 4627 1614 500D      		add r21,r0
 4628 1616 1124      		clr r1
 4629 1618 EF81      		ldd r30,Y+7
 4630 161a F885      		ldd r31,Y+8
 4631 161c 4E0F      		add r20,r30
 4632 161e 5F1F      		adc r21,r31
 4633 1620 9C01      		movw r18,r24
 4634 1622 229F      		mul r18,r18
 4635 1624 C001      		movw r24,r0
 4636 1626 239F      		mul r18,r19
 4637 1628 900D      		add r25,r0
 4638 162a 329F      		mul r19,r18
 4639 162c 900D      		add r25,r0
 4640 162e 1124      		clr r1
 4641 1630 669F      		mul r22,r22
 4642 1632 9001      		movw r18,r0
 4643 1634 679F      		mul r22,r23
 4644 1636 300D      		add r19,r0
 4645 1638 769F      		mul r23,r22
 4646 163a 300D      		add r19,r0
 4647 163c 1124      		clr r1
 4648 163e 820F      		add r24,r18
 4649 1640 931F      		adc r25,r19
 4650 1642 4817      		cp r20,r24
 4651 1644 5907      		cpc r21,r25
 4652 1646 04F4      		brge .L385
 4653               	.LM718:
 4654 1648 1093 0000 		sts (mx)+1,r17
 4655 164c 0093 0000 		sts mx,r16
 4656               	.LM719:
 4657 1650 8F89      		ldd r24,Y+23
 4658 1652 988D      		ldd r25,Y+24
 4659 1654 9093 0000 		sts (my)+1,r25
 4660 1658 8093 0000 		sts my,r24
 4661               	.L385:
 4662               	.LM720:
 4663 165c EF89      		ldd r30,Y+23
 4664 165e F88D      		ldd r31,Y+24
 4665 1660 3196      		adiw r30,1
 4666 1662 F88F      		std Y+24,r31
 4667 1664 EF8B      		std Y+23,r30
 4668               	.LVL126:
 4669 1666 24E0      		ldi r18,lo8(4)
 4670 1668 30E0      		ldi r19,hi8(4)
 4671 166a E20E      		add r14,r18
 4672 166c F31E      		adc r15,r19
 4673 166e 0894      		sec
 4674 1670 211C      		adc r2,__zero_reg__
 4675 1672 311C      		adc r3,__zero_reg__
 4676 1674 0894      		sec
 4677 1676 411C      		adc r4,__zero_reg__
 4678 1678 511C      		adc r5,__zero_reg__
 4679 167a 0894      		sec
 4680 167c 611C      		adc r6,__zero_reg__
 4681 167e 711C      		adc r7,__zero_reg__
 4682 1680 8D85      		ldd r24,Y+13
 4683 1682 9E85      		ldd r25,Y+14
 4684 1684 0196      		adiw r24,1
 4685 1686 9E87      		std Y+14,r25
 4686 1688 8D87      		std Y+13,r24
 4687 168a 7097      		sbiw r30,16
 4688 168c 01F0      		breq .+2
 4689 168e 00C0      		rjmp .L393
 4690               	.LBE683:
 4691               	.LM721:
 4692 1690 0F5F      		subi r16,lo8(-(1))
 4693 1692 1F4F      		sbci r17,hi8(-(1))
 4694 1694 0894      		sec
 4695 1696 C11C      		adc r12,__zero_reg__
 4696 1698 D11C      		adc r13,__zero_reg__
 4697 169a ED81      		ldd r30,Y+5
 4698 169c FE81      		ldd r31,Y+6
 4699 169e 3196      		adiw r30,1
 4700 16a0 FE83      		std Y+6,r31
 4701 16a2 ED83      		std Y+5,r30
 4702 16a4 2B81      		ldd r18,Y+3
 4703 16a6 3C81      		ldd r19,Y+4
 4704 16a8 2F5F      		subi r18,lo8(-(1))
 4705 16aa 3F4F      		sbci r19,hi8(-(1))
 4706 16ac 3C83      		std Y+4,r19
 4707 16ae 2B83      		std Y+3,r18
 4708 16b0 8981      		ldd r24,Y+1
 4709 16b2 9A81      		ldd r25,Y+2
 4710 16b4 0196      		adiw r24,1
 4711 16b6 9A83      		std Y+2,r25
 4712 16b8 8983      		std Y+1,r24
 4713 16ba 0031      		cpi r16,16
 4714 16bc 1105      		cpc r17,__zero_reg__
 4715 16be 01F4      		brne .+2
 4716 16c0 00C0      		rjmp .L395
 4717               	.L384:
 4718               	.LBB684:
 4719               	.LM722:
 4720 16c2 CC9C      		mul r12,r12
 4721 16c4 F001      		movw r30,r0
 4722 16c6 CD9C      		mul r12,r13
 4723 16c8 F00D      		add r31,r0
 4724 16ca DC9C      		mul r13,r12
 4725 16cc F00D      		add r31,r0
 4726 16ce 1124      		clr r1
 4727 16d0 F88B      		std Y+16,r31
 4728 16d2 EF87      		std Y+15,r30
 4729               	.LM723:
 4730 16d4 8D81      		ldd r24,Y+5
 4731 16d6 9E81      		ldd r25,Y+6
 4732 16d8 889F      		mul r24,r24
 4733 16da 9001      		movw r18,r0
 4734 16dc 899F      		mul r24,r25
 4735 16de 300D      		add r19,r0
 4736 16e0 989F      		mul r25,r24
 4737 16e2 300D      		add r19,r0
 4738 16e4 1124      		clr r1
 4739 16e6 3C87      		std Y+12,r19
 4740 16e8 2B87      		std Y+11,r18
 4741               	.LM724:
 4742 16ea 2B81      		ldd r18,Y+3
 4743 16ec 3C81      		ldd r19,Y+4
 4744 16ee 229F      		mul r18,r18
 4745 16f0 F001      		movw r30,r0
 4746 16f2 239F      		mul r18,r19
 4747 16f4 F00D      		add r31,r0
 4748 16f6 329F      		mul r19,r18
 4749 16f8 F00D      		add r31,r0
 4750 16fa 1124      		clr r1
 4751 16fc FA87      		std Y+10,r31
 4752 16fe E987      		std Y+9,r30
 4753               	.LM725:
 4754 1700 E981      		ldd r30,Y+1
 4755 1702 FA81      		ldd r31,Y+2
 4756 1704 EE9F      		mul r30,r30
 4757 1706 C001      		movw r24,r0
 4758 1708 EF9F      		mul r30,r31
 4759 170a 900D      		add r25,r0
 4760 170c FE9F      		mul r31,r30
 4761 170e 900D      		add r25,r0
 4762 1710 1124      		clr r1
 4763 1712 9887      		std Y+8,r25
 4764 1714 8F83      		std Y+7,r24
 4765 1716 7801      		movw r14,r16
 4766 1718 96E0      		ldi r25,6
 4767 171a EE0C      	1:	lsl r14
 4768 171c FF1C      		rol r15
 4769 171e 9A95      		dec r25
 4770 1720 01F4      		brne 1b
 4771 1722 20E0      		ldi r18,lo8(dir_array)
 4772 1724 30E0      		ldi r19,hi8(dir_array)
 4773 1726 E20E      		add r14,r18
 4774 1728 F31E      		adc r15,r19
 4775 172a 8D89      		ldd r24,Y+21
 4776 172c 9E89      		ldd r25,Y+22
 4777 172e 9E87      		std Y+14,r25
 4778 1730 8D87      		std Y+13,r24
 4779 1732 1C01      		movw r2,r24
 4780 1734 2C01      		movw r4,r24
 4781 1736 3C01      		movw r6,r24
 4782 1738 188E      		std Y+24,__zero_reg__
 4783 173a 1F8A      		std Y+23,__zero_reg__
 4784               	.LVL127:
 4785               	.LM726:
 4786 173c F801      		movw r30,r16
 4787 173e 3197      		sbiw r30,1
 4788 1740 FA8B      		std Y+18,r31
 4789 1742 E98B      		std Y+17,r30
 4790               	.LM727:
 4791 1744 9801      		movw r18,r16
 4792 1746 2F5F      		subi r18,lo8(-(1))
 4793 1748 3F4F      		sbci r19,hi8(-(1))
 4794 174a 3C8B      		std Y+20,r19
 4795 174c 2B8B      		std Y+19,r18
 4796 174e 00C0      		rjmp .L393
 4797               	.L395:
 4798               	/* epilogue start */
 4799               	.LBE684:
 4800               	.LBE682:
 4801               	.LM728:
 4802 1750 6896      		adiw r28,24
 4803 1752 0FB6      		in __tmp_reg__,__SREG__
 4804 1754 F894      		cli
 4805 1756 DEBF      		out __SP_H__,r29
 4806 1758 0FBE      		out __SREG__,__tmp_reg__
 4807 175a CDBF      		out __SP_L__,r28
 4808 175c CF91      		pop r28
 4809 175e DF91      		pop r29
 4810 1760 1F91      		pop r17
 4811 1762 0F91      		pop r16
 4812               	.LVL128:
 4813 1764 FF90      		pop r15
 4814 1766 EF90      		pop r14
 4815 1768 DF90      		pop r13
 4816 176a CF90      		pop r12
 4817 176c BF90      		pop r11
 4818 176e AF90      		pop r10
 4819 1770 9F90      		pop r9
 4820 1772 8F90      		pop r8
 4821 1774 7F90      		pop r7
 4822 1776 6F90      		pop r6
 4823 1778 5F90      		pop r5
 4824 177a 4F90      		pop r4
 4825 177c 3F90      		pop r3
 4826 177e 2F90      		pop r2
 4827 1780 0895      		ret
 4828               	.LFE70:
 4830               		.data
 4831               	.LC1:
 4832 000a 4272 6F6B 		.string	"Broke path "
 4832      6520 7061 
 4832      7468 2000 
 4833               		.text
 4834               	.global	get_path
 4836               	get_path:
 4837               	.LFB71:
 4838               	.LM729:
 4839 1782 6F92      		push r6
 4840 1784 7F92      		push r7
 4841 1786 8F92      		push r8
 4842 1788 9F92      		push r9
 4843 178a AF92      		push r10
 4844 178c BF92      		push r11
 4845 178e CF92      		push r12
 4846 1790 DF92      		push r13
 4847 1792 EF92      		push r14
 4848 1794 FF92      		push r15
 4849 1796 0F93      		push r16
 4850 1798 1F93      		push r17
 4851 179a CF93      		push r28
 4852 179c DF93      		push r29
 4853               	/* prologue: function */
 4854               	/* frame size = 0 */
 4855               	.LM730:
 4856 179e 4091 0000 		lds r20,y_coordinate
 4857 17a2 5091 0000 		lds r21,(y_coordinate)+1
 4858               	.LVL129:
 4859               	.LM731:
 4860 17a6 6091 0000 		lds r22,x_coordinate
 4861 17aa 7091 0000 		lds r23,(x_coordinate)+1
 4862               	.LVL130:
 4863 17ae 00E0      		ldi r16,lo8(path_array)
 4864 17b0 10E0      		ldi r17,hi8(path_array)
 4865 17b2 F801      		movw r30,r16
 4866               	.L399:
 4867               	.LBB685:
 4868               	.LM732:
 4869 17b4 1182      		std Z+1,__zero_reg__
 4870 17b6 1082      		st Z,__zero_reg__
 4871               	.LM733:
 4872 17b8 1382      		std Z+3,__zero_reg__
 4873 17ba 1282      		std Z+2,__zero_reg__
 4874 17bc 3496      		adiw r30,4
 4875               	.LM734:
 4876 17be 80E0      		ldi r24,hi8(path_array+60)
 4877 17c0 E030      		cpi r30,lo8(path_array+60)
 4878 17c2 F807      		cpc r31,r24
 4879 17c4 01F4      		brne .L399
 4880               	.LBE685:
 4881               	.LM735:
 4882 17c6 1092 0000 		sts (ipl)+1,__zero_reg__
 4883 17ca 1092 0000 		sts ipl,__zero_reg__
 4884 17ce 6624      		clr r6
 4885 17d0 7724      		clr r7
 4886 17d2 00C0      		rjmp .L400
 4887               	.LVL131:
 4888               	.L410:
 4889               	.LM736:
 4890 17d4 6B01      		movw r12,r22
 4891 17d6 0894      		sec
 4892 17d8 C11C      		adc r12,__zero_reg__
 4893 17da D11C      		adc r13,__zero_reg__
 4894               	.LVL132:
 4895 17dc 9601      		movw r18,r12
 4896 17de 84E0      		ldi r24,4
 4897 17e0 220F      	1:	lsl r18
 4898 17e2 331F      		rol r19
 4899 17e4 8A95      		dec r24
 4900 17e6 01F4      		brne 1b
 4901 17e8 240F      		add r18,r20
 4902 17ea 351F      		adc r19,r21
 4903 17ec 7901      		movw r14,r18
 4904 17ee EE0C      		lsl r14
 4905 17f0 FF1C      		rol r15
 4906 17f2 F701      		movw r30,r14
 4907 17f4 E050      		subi r30,lo8(-(map_array))
 4908 17f6 F040      		sbci r31,hi8(-(map_array))
 4909 17f8 8080      		ld r8,Z
 4910 17fa 9180      		ldd r9,Z+1
 4911 17fc 8A14      		cp r8,r10
 4912 17fe 9B04      		cpc r9,r11
 4913 1800 04F0      		brlt .+2
 4914 1802 00C0      		rjmp .L401
 4915 1804 AA0F      		lsl r26
 4916 1806 BB1F      		rol r27
 4917 1808 AA0F      		lsl r26
 4918 180a BB1F      		rol r27
 4919 180c A050      		subi r26,lo8(-(dir_array))
 4920 180e B040      		sbci r27,hi8(-(dir_array))
 4921 1810 1196      		adiw r26,1
 4922 1812 8C91      		ld r24,X
 4923 1814 8435      		cpi r24,lo8(84)
 4924 1816 01F0      		breq .+2
 4925 1818 00C0      		rjmp .L401
 4926 181a E901      		movw r28,r18
 4927 181c CC0F      		lsl r28
 4928 181e DD1F      		rol r29
 4929 1820 CC0F      		lsl r28
 4930 1822 DD1F      		rol r29
 4931 1824 C050      		subi r28,lo8(-(dir_array))
 4932 1826 D040      		sbci r29,hi8(-(dir_array))
 4933 1828 8B81      		ldd r24,Y+3
 4934 182a 8435      		cpi r24,lo8(84)
 4935 182c 01F0      		breq .+2
 4936 182e 00C0      		rjmp .L401
 4937 1830 6F30      		cpi r22,15
 4938 1832 7105      		cpc r23,__zero_reg__
 4939 1834 04F0      		brlt .+2
 4940 1836 00C0      		rjmp .L401
 4941               	.LVL133:
 4942               	.LM737:
 4943 1838 F801      		movw r30,r16
 4944 183a D182      		std Z+1,r13
 4945 183c C082      		st Z,r12
 4946               	.LM738:
 4947 183e 5383      		std Z+3,r21
 4948 1840 4283      		std Z+2,r20
 4949               	.LM739:
 4950 1842 B601      		movw r22,r12
 4951 1844 6F5F      		subi r22,lo8(-(1))
 4952 1846 7F4F      		sbci r23,hi8(-(1))
 4953 1848 DB01      		movw r26,r22
 4954 184a 94E0      		ldi r25,4
 4955 184c AA0F      	1:	lsl r26
 4956 184e BB1F      		rol r27
 4957 1850 9A95      		dec r25
 4958 1852 01F4      		brne 1b
 4959 1854 A40F      		add r26,r20
 4960 1856 B51F      		adc r27,r21
 4961 1858 FD01      		movw r30,r26
 4962 185a EE0F      		lsl r30
 4963 185c FF1F      		rol r31
 4964 185e E050      		subi r30,lo8(-(map_array))
 4965 1860 F040      		sbci r31,hi8(-(map_array))
 4966 1862 8081      		ld r24,Z
 4967 1864 9181      		ldd r25,Z+1
 4968 1866 8815      		cp r24,r8
 4969 1868 9905      		cpc r25,r9
 4970 186a 04F0      		brlt .+2
 4971 186c 00C0      		rjmp .L405
 4972 186e AA0F      		lsl r26
 4973 1870 BB1F      		rol r27
 4974 1872 AA0F      		lsl r26
 4975 1874 BB1F      		rol r27
 4976 1876 A050      		subi r26,lo8(-(dir_array))
 4977 1878 B040      		sbci r27,hi8(-(dir_array))
 4978 187a 1396      		adiw r26,3
 4979 187c 8C91      		ld r24,X
 4980 187e 8435      		cpi r24,lo8(84)
 4981 1880 01F0      		breq .+2
 4982 1882 00C0      		rjmp .L405
 4983 1884 8881      		ld r24,Y
 4984 1886 8634      		cpi r24,lo8(70)
 4985 1888 01F0      		breq .+2
 4986 188a 00C0      		rjmp .L405
 4987 188c 8981      		ldd r24,Y+1
 4988 188e 8435      		cpi r24,lo8(84)
 4989 1890 01F0      		breq .+2
 4990 1892 00C0      		rjmp .L405
 4991 1894 EE0C      		lsl r14
 4992 1896 FF1C      		rol r15
 4993 1898 80E0      		ldi r24,lo8(dir_array+2)
 4994 189a 90E0      		ldi r25,hi8(dir_array+2)
 4995 189c E80E      		add r14,r24
 4996 189e F91E      		adc r15,r25
 4997 18a0 F701      		movw r30,r14
 4998 18a2 8081      		ld r24,Z
 4999 18a4 8634      		cpi r24,lo8(70)
 5000 18a6 01F0      		breq .+2
 5001 18a8 00C0      		rjmp .L405
 5002 18aa FFE0      		ldi r31,lo8(15)
 5003 18ac CF16      		cp r12,r31
 5004 18ae D104      		cpc r13,__zero_reg__
 5005 18b0 04F0      		brlt .+2
 5006 18b2 00C0      		rjmp .L405
 5007               	.LVL134:
 5008 18b4 00C0      		rjmp .L415
 5009               	.LVL135:
 5010               	.L401:
 5011               	.LM740:
 5012 18b6 6B01      		movw r12,r22
 5013 18b8 0894      		sec
 5014 18ba C108      		sbc r12,__zero_reg__
 5015 18bc D108      		sbc r13,__zero_reg__
 5016 18be 9601      		movw r18,r12
 5017 18c0 94E0      		ldi r25,4
 5018 18c2 220F      	1:	lsl r18
 5019 18c4 331F      		rol r19
 5020 18c6 9A95      		dec r25
 5021 18c8 01F4      		brne 1b
 5022 18ca 240F      		add r18,r20
 5023 18cc 351F      		adc r19,r21
 5024 18ce 7901      		movw r14,r18
 5025 18d0 EE0C      		lsl r14
 5026 18d2 FF1C      		rol r15
 5027 18d4 F701      		movw r30,r14
 5028 18d6 E050      		subi r30,lo8(-(map_array))
 5029 18d8 F040      		sbci r31,hi8(-(map_array))
 5030 18da 8080      		ld r8,Z
 5031 18dc 9180      		ldd r9,Z+1
 5032 18de 8A14      		cp r8,r10
 5033 18e0 9B04      		cpc r9,r11
 5034 18e2 04F0      		brlt .+2
 5035 18e4 00C0      		rjmp .L404
 5036 18e6 FB01      		movw r30,r22
 5037 18e8 B4E0      		ldi r27,4
 5038 18ea EE0F      	1:	lsl r30
 5039 18ec FF1F      		rol r31
 5040 18ee BA95      		dec r27
 5041 18f0 01F4      		brne 1b
 5042 18f2 E40F      		add r30,r20
 5043 18f4 F51F      		adc r31,r21
 5044 18f6 EE0F      		lsl r30
 5045 18f8 FF1F      		rol r31
 5046 18fa EE0F      		lsl r30
 5047 18fc FF1F      		rol r31
 5048 18fe E050      		subi r30,lo8(-(dir_array))
 5049 1900 F040      		sbci r31,hi8(-(dir_array))
 5050 1902 8381      		ldd r24,Z+3
 5051 1904 8435      		cpi r24,lo8(84)
 5052 1906 01F0      		breq .+2
 5053 1908 00C0      		rjmp .L404
 5054               	.LVL136:
 5055 190a E901      		movw r28,r18
 5056 190c CC0F      		lsl r28
 5057 190e DD1F      		rol r29
 5058 1910 CC0F      		lsl r28
 5059 1912 DD1F      		rol r29
 5060 1914 C050      		subi r28,lo8(-(dir_array))
 5061 1916 D040      		sbci r29,hi8(-(dir_array))
 5062 1918 8981      		ldd r24,Y+1
 5063 191a 8435      		cpi r24,lo8(84)
 5064 191c 01F0      		breq .+2
 5065 191e 00C0      		rjmp .L404
 5066 1920 1616      		cp __zero_reg__,r22
 5067 1922 1706      		cpc __zero_reg__,r23
 5068 1924 04F0      		brlt .+2
 5069 1926 00C0      		rjmp .L404
 5070               	.LM741:
 5071 1928 F801      		movw r30,r16
 5072 192a D182      		std Z+1,r13
 5073 192c C082      		st Z,r12
 5074               	.LM742:
 5075 192e 5383      		std Z+3,r21
 5076 1930 4283      		std Z+2,r20
 5077               	.LM743:
 5078 1932 B601      		movw r22,r12
 5079 1934 6150      		subi r22,lo8(-(-1))
 5080 1936 7040      		sbci r23,hi8(-(-1))
 5081 1938 DB01      		movw r26,r22
 5082 193a 24E0      		ldi r18,4
 5083 193c AA0F      	1:	lsl r26
 5084 193e BB1F      		rol r27
 5085 1940 2A95      		dec r18
 5086 1942 01F4      		brne 1b
 5087 1944 A40F      		add r26,r20
 5088 1946 B51F      		adc r27,r21
 5089 1948 FD01      		movw r30,r26
 5090 194a EE0F      		lsl r30
 5091 194c FF1F      		rol r31
 5092 194e E050      		subi r30,lo8(-(map_array))
 5093 1950 F040      		sbci r31,hi8(-(map_array))
 5094 1952 8081      		ld r24,Z
 5095 1954 9181      		ldd r25,Z+1
 5096 1956 8815      		cp r24,r8
 5097 1958 9905      		cpc r25,r9
 5098 195a 04F0      		brlt .+2
 5099 195c 00C0      		rjmp .L405
 5100 195e AA0F      		lsl r26
 5101 1960 BB1F      		rol r27
 5102 1962 AA0F      		lsl r26
 5103 1964 BB1F      		rol r27
 5104 1966 A050      		subi r26,lo8(-(dir_array))
 5105 1968 B040      		sbci r27,hi8(-(dir_array))
 5106 196a 1196      		adiw r26,1
 5107 196c 8C91      		ld r24,X
 5108 196e 8435      		cpi r24,lo8(84)
 5109 1970 01F0      		breq .+2
 5110 1972 00C0      		rjmp .L405
 5111 1974 8881      		ld r24,Y
 5112 1976 8634      		cpi r24,lo8(70)
 5113 1978 01F0      		breq .+2
 5114 197a 00C0      		rjmp .L405
 5115 197c EE0C      		lsl r14
 5116 197e FF1C      		rol r15
 5117 1980 80E0      		ldi r24,lo8(dir_array+2)
 5118 1982 90E0      		ldi r25,hi8(dir_array+2)
 5119 1984 E80E      		add r14,r24
 5120 1986 F91E      		adc r15,r25
 5121 1988 F701      		movw r30,r14
 5122 198a 8081      		ld r24,Z
 5123 198c 8634      		cpi r24,lo8(70)
 5124 198e 01F0      		breq .+2
 5125 1990 00C0      		rjmp .L405
 5126 1992 8B81      		ldd r24,Y+3
 5127 1994 8435      		cpi r24,lo8(84)
 5128 1996 01F0      		breq .+2
 5129 1998 00C0      		rjmp .L405
 5130 199a 1C14      		cp __zero_reg__,r12
 5131 199c 1D04      		cpc __zero_reg__,r13
 5132 199e 04F0      		brlt .+2
 5133 19a0 00C0      		rjmp .L405
 5134               	.LVL137:
 5135               	.L415:
 5136               	.LM744:
 5137 19a2 F801      		movw r30,r16
 5138 19a4 7183      		std Z+1,r23
 5139 19a6 6083      		st Z,r22
 5140 19a8 00C0      		rjmp .L403
 5141               	.LVL138:
 5142               	.L404:
 5143               	.LM745:
 5144 19aa EA01      		movw r28,r20
 5145 19ac 2196      		adiw r28,1
 5146               	.LVL139:
 5147 19ae 9B01      		movw r18,r22
 5148 19b0 F4E0      		ldi r31,4
 5149 19b2 220F      	1:	lsl r18
 5150 19b4 331F      		rol r19
 5151 19b6 FA95      		dec r31
 5152 19b8 01F4      		brne 1b
 5153 19ba 6901      		movw r12,r18
 5154               	.LVL140:
 5155 19bc CC0E      		add r12,r28
 5156 19be DD1E      		adc r13,r29
 5157 19c0 D601      		movw r26,r12
 5158 19c2 AA0F      		lsl r26
 5159 19c4 BB1F      		rol r27
 5160 19c6 FD01      		movw r30,r26
 5161 19c8 E050      		subi r30,lo8(-(map_array))
 5162 19ca F040      		sbci r31,hi8(-(map_array))
 5163 19cc E080      		ld r14,Z
 5164 19ce F180      		ldd r15,Z+1
 5165 19d0 EA14      		cp r14,r10
 5166 19d2 FB04      		cpc r15,r11
 5167 19d4 04F0      		brlt .+2
 5168 19d6 00C0      		rjmp .L406
 5169 19d8 F901      		movw r30,r18
 5170 19da E40F      		add r30,r20
 5171 19dc F51F      		adc r31,r21
 5172 19de EE0F      		lsl r30
 5173 19e0 FF1F      		rol r31
 5174 19e2 EE0F      		lsl r30
 5175 19e4 FF1F      		rol r31
 5176 19e6 E050      		subi r30,lo8(-(dir_array))
 5177 19e8 F040      		sbci r31,hi8(-(dir_array))
 5178 19ea 8081      		ld r24,Z
 5179 19ec 8435      		cpi r24,lo8(84)
 5180 19ee 01F0      		breq .+2
 5181 19f0 00C0      		rjmp .L406
 5182               	.LVL141:
 5183 19f2 AA0F      		lsl r26
 5184 19f4 BB1F      		rol r27
 5185 19f6 A050      		subi r26,lo8(-(dir_array+2))
 5186 19f8 B040      		sbci r27,hi8(-(dir_array+2))
 5187 19fa 8C91      		ld r24,X
 5188 19fc 8435      		cpi r24,lo8(84)
 5189 19fe 01F4      		brne .L406
 5190 1a00 4F30      		cpi r20,15
 5191 1a02 5105      		cpc r21,__zero_reg__
 5192 1a04 04F4      		brge .L406
 5193               	.LM746:
 5194 1a06 F801      		movw r30,r16
 5195 1a08 7183      		std Z+1,r23
 5196 1a0a 6083      		st Z,r22
 5197               	.LM747:
 5198 1a0c D383      		std Z+3,r29
 5199 1a0e C283      		std Z+2,r28
 5200               	.LM748:
 5201 1a10 AE01      		movw r20,r28
 5202 1a12 4F5F      		subi r20,lo8(-(1))
 5203 1a14 5F4F      		sbci r21,hi8(-(1))
 5204 1a16 D901      		movw r26,r18
 5205 1a18 A40F      		add r26,r20
 5206 1a1a B51F      		adc r27,r21
 5207 1a1c AA0F      		lsl r26
 5208 1a1e BB1F      		rol r27
 5209 1a20 FD01      		movw r30,r26
 5210 1a22 E050      		subi r30,lo8(-(map_array))
 5211 1a24 F040      		sbci r31,hi8(-(map_array))
 5212 1a26 8081      		ld r24,Z
 5213 1a28 9181      		ldd r25,Z+1
 5214 1a2a 8E15      		cp r24,r14
 5215 1a2c 9F05      		cpc r25,r15
 5216 1a2e 04F0      		brlt .+2
 5217 1a30 00C0      		rjmp .L407
 5218 1a32 AA0F      		lsl r26
 5219 1a34 BB1F      		rol r27
 5220 1a36 A050      		subi r26,lo8(-(dir_array+2))
 5221 1a38 B040      		sbci r27,hi8(-(dir_array+2))
 5222 1a3a 8C91      		ld r24,X
 5223 1a3c 8435      		cpi r24,lo8(84)
 5224 1a3e 01F0      		breq .+2
 5225 1a40 00C0      		rjmp .L407
 5226 1a42 F601      		movw r30,r12
 5227 1a44 EE0F      		lsl r30
 5228 1a46 FF1F      		rol r31
 5229 1a48 EE0F      		lsl r30
 5230 1a4a FF1F      		rol r31
 5231 1a4c E050      		subi r30,lo8(-(dir_array))
 5232 1a4e F040      		sbci r31,hi8(-(dir_array))
 5233 1a50 8081      		ld r24,Z
 5234 1a52 8435      		cpi r24,lo8(84)
 5235 1a54 01F0      		breq .+2
 5236 1a56 00C0      		rjmp .L407
 5237 1a58 8181      		ldd r24,Z+1
 5238 1a5a 8634      		cpi r24,lo8(70)
 5239 1a5c 01F0      		breq .+2
 5240 1a5e 00C0      		rjmp .L407
 5241 1a60 8381      		ldd r24,Z+3
 5242 1a62 8634      		cpi r24,lo8(70)
 5243 1a64 01F0      		breq .+2
 5244 1a66 00C0      		rjmp .L407
 5245 1a68 CF30      		cpi r28,15
 5246 1a6a D105      		cpc r29,__zero_reg__
 5247 1a6c 04F0      		brlt .+2
 5248 1a6e 00C0      		rjmp .L407
 5249               	.LVL142:
 5250 1a70 00C0      		rjmp .L414
 5251               	.L406:
 5252               	.LM749:
 5253 1a72 7A01      		movw r14,r20
 5254 1a74 0894      		sec
 5255 1a76 E108      		sbc r14,__zero_reg__
 5256 1a78 F108      		sbc r15,__zero_reg__
 5257               	.LVL143:
 5258 1a7a DB01      		movw r26,r22
 5259 1a7c 24E0      		ldi r18,4
 5260 1a7e AA0F      	1:	lsl r26
 5261 1a80 BB1F      		rol r27
 5262 1a82 2A95      		dec r18
 5263 1a84 01F4      		brne 1b
 5264 1a86 ED01      		movw r28,r26
 5265 1a88 CE0D      		add r28,r14
 5266 1a8a DF1D      		adc r29,r15
 5267 1a8c 9E01      		movw r18,r28
 5268 1a8e 220F      		lsl r18
 5269 1a90 331F      		rol r19
 5270 1a92 F901      		movw r30,r18
 5271 1a94 E050      		subi r30,lo8(-(map_array))
 5272 1a96 F040      		sbci r31,hi8(-(map_array))
 5273 1a98 C080      		ld r12,Z
 5274 1a9a D180      		ldd r13,Z+1
 5275 1a9c CA14      		cp r12,r10
 5276 1a9e DB04      		cpc r13,r11
 5277 1aa0 04F0      		brlt .+2
 5278 1aa2 00C0      		rjmp .L403
 5279 1aa4 FD01      		movw r30,r26
 5280 1aa6 E40F      		add r30,r20
 5281 1aa8 F51F      		adc r31,r21
 5282 1aaa EE0F      		lsl r30
 5283 1aac FF1F      		rol r31
 5284 1aae EE0F      		lsl r30
 5285 1ab0 FF1F      		rol r31
 5286 1ab2 E050      		subi r30,lo8(-(dir_array+2))
 5287 1ab4 F040      		sbci r31,hi8(-(dir_array+2))
 5288 1ab6 8081      		ld r24,Z
 5289 1ab8 8435      		cpi r24,lo8(84)
 5290 1aba 01F0      		breq .+2
 5291 1abc 00C0      		rjmp .L403
 5292               	.LVL144:
 5293 1abe CC0F      		lsl r28
 5294 1ac0 DD1F      		rol r29
 5295 1ac2 CC0F      		lsl r28
 5296 1ac4 DD1F      		rol r29
 5297 1ac6 C050      		subi r28,lo8(-(dir_array))
 5298 1ac8 D040      		sbci r29,hi8(-(dir_array))
 5299 1aca 8881      		ld r24,Y
 5300 1acc 8435      		cpi r24,lo8(84)
 5301 1ace 01F4      		brne .L403
 5302 1ad0 1416      		cp __zero_reg__,r20
 5303 1ad2 1506      		cpc __zero_reg__,r21
 5304 1ad4 04F4      		brge .L403
 5305               	.LM750:
 5306 1ad6 F801      		movw r30,r16
 5307 1ad8 7183      		std Z+1,r23
 5308 1ada 6083      		st Z,r22
 5309               	.LM751:
 5310 1adc F382      		std Z+3,r15
 5311 1ade E282      		std Z+2,r14
 5312               	.LM752:
 5313 1ae0 A701      		movw r20,r14
 5314 1ae2 4150      		subi r20,lo8(-(-1))
 5315 1ae4 5040      		sbci r21,hi8(-(-1))
 5316 1ae6 A40F      		add r26,r20
 5317 1ae8 B51F      		adc r27,r21
 5318 1aea FD01      		movw r30,r26
 5319 1aec EE0F      		lsl r30
 5320 1aee FF1F      		rol r31
 5321 1af0 E050      		subi r30,lo8(-(map_array))
 5322 1af2 F040      		sbci r31,hi8(-(map_array))
 5323 1af4 8081      		ld r24,Z
 5324 1af6 9181      		ldd r25,Z+1
 5325 1af8 8C15      		cp r24,r12
 5326 1afa 9D05      		cpc r25,r13
 5327 1afc 04F4      		brge .L408
 5328 1afe AA0F      		lsl r26
 5329 1b00 BB1F      		rol r27
 5330 1b02 AA0F      		lsl r26
 5331 1b04 BB1F      		rol r27
 5332 1b06 A050      		subi r26,lo8(-(dir_array))
 5333 1b08 B040      		sbci r27,hi8(-(dir_array))
 5334 1b0a 8C91      		ld r24,X
 5335 1b0c 8435      		cpi r24,lo8(84)
 5336 1b0e 01F4      		brne .L408
 5337 1b10 8981      		ldd r24,Y+1
 5338 1b12 8634      		cpi r24,lo8(70)
 5339 1b14 01F4      		brne .L408
 5340 1b16 220F      		lsl r18
 5341 1b18 331F      		rol r19
 5342 1b1a 2050      		subi r18,lo8(-(dir_array+2))
 5343 1b1c 3040      		sbci r19,hi8(-(dir_array+2))
 5344 1b1e F901      		movw r30,r18
 5345 1b20 8081      		ld r24,Z
 5346 1b22 8435      		cpi r24,lo8(84)
 5347 1b24 01F4      		brne .L408
 5348 1b26 8B81      		ldd r24,Y+3
 5349 1b28 8634      		cpi r24,lo8(70)
 5350 1b2a 01F4      		brne .L408
 5351 1b2c 1E14      		cp __zero_reg__,r14
 5352 1b2e 1F04      		cpc __zero_reg__,r15
 5353 1b30 04F4      		brge .L408
 5354               	.LVL145:
 5355               	.L414:
 5356               	.LM753:
 5357 1b32 F801      		movw r30,r16
 5358               	.LM754:
 5359 1b34 5383      		std Z+3,r21
 5360 1b36 4283      		std Z+2,r20
 5361 1b38 00C0      		rjmp .L403
 5362               	.LVL146:
 5363               	.L405:
 5364 1b3a B601      		movw r22,r12
 5365 1b3c 00C0      		rjmp .L403
 5366               	.LVL147:
 5367               	.L407:
 5368 1b3e AE01      		movw r20,r28
 5369 1b40 00C0      		rjmp .L403
 5370               	.LVL148:
 5371               	.L408:
 5372 1b42 A701      		movw r20,r14
 5373               	.LVL149:
 5374               	.L403:
 5375               	.LM755:
 5376 1b44 0894      		sec
 5377 1b46 611C      		adc r6,__zero_reg__
 5378 1b48 711C      		adc r7,__zero_reg__
 5379 1b4a 0C5F      		subi r16,lo8(-(4))
 5380 1b4c 1F4F      		sbci r17,hi8(-(4))
 5381               	.LM756:
 5382 1b4e F0E1      		ldi r31,lo8(16)
 5383 1b50 6F16      		cp r6,r31
 5384 1b52 7104      		cpc r7,__zero_reg__
 5385 1b54 04F0      		brlt .L400
 5386 1b56 7092 0000 		sts (ipl)+1,r7
 5387 1b5a 6092 0000 		sts ipl,r6
 5388               	.LM757:
 5389 1b5e 81E0      		ldi r24,lo8(1)
 5390 1b60 60E0      		ldi r22,lo8(0)
 5391               	.LVL150:
 5392 1b62 0E94 0000 		call lcd_byte
 5393               	.LVL151:
 5394               	.LM758:
 5395 1b66 80E0      		ldi r24,lo8(.LC1)
 5396 1b68 90E0      		ldi r25,hi8(.LC1)
 5397 1b6a 0E94 0000 		call lcd_write_string
 5398               	.LM759:
 5399 1b6e 82E0      		ldi r24,lo8(2)
 5400 1b70 90E0      		ldi r25,hi8(2)
 5401 1b72 0E94 0000 		call delay_sec
 5402 1b76 00C0      		rjmp .L411
 5403               	.LVL152:
 5404               	.L400:
 5405               	.LM760:
 5406 1b78 DB01      		movw r26,r22
 5407 1b7a 34E0      		ldi r19,4
 5408 1b7c AA0F      	1:	lsl r26
 5409 1b7e BB1F      		rol r27
 5410 1b80 3A95      		dec r19
 5411 1b82 01F4      		brne 1b
 5412 1b84 A40F      		add r26,r20
 5413 1b86 B51F      		adc r27,r21
 5414 1b88 FD01      		movw r30,r26
 5415 1b8a EE0F      		lsl r30
 5416 1b8c FF1F      		rol r31
 5417 1b8e E050      		subi r30,lo8(-(map_array))
 5418 1b90 F040      		sbci r31,hi8(-(map_array))
 5419 1b92 A080      		ld r10,Z
 5420 1b94 B180      		ldd r11,Z+1
 5421 1b96 A114      		cp r10,__zero_reg__
 5422 1b98 B104      		cpc r11,__zero_reg__
 5423 1b9a 01F0      		breq .+2
 5424 1b9c 00C0      		rjmp .L410
 5425 1b9e 7092 0000 		sts (ipl)+1,r7
 5426 1ba2 6092 0000 		sts ipl,r6
 5427               	.LVL153:
 5428               	.L411:
 5429               	/* epilogue start */
 5430               	.LM761:
 5431 1ba6 DF91      		pop r29
 5432 1ba8 CF91      		pop r28
 5433               	.LVL154:
 5434 1baa 1F91      		pop r17
 5435 1bac 0F91      		pop r16
 5436 1bae FF90      		pop r15
 5437 1bb0 EF90      		pop r14
 5438               	.LVL155:
 5439 1bb2 DF90      		pop r13
 5440 1bb4 CF90      		pop r12
 5441               	.LVL156:
 5442 1bb6 BF90      		pop r11
 5443 1bb8 AF90      		pop r10
 5444 1bba 9F90      		pop r9
 5445 1bbc 8F90      		pop r8
 5446 1bbe 7F90      		pop r7
 5447 1bc0 6F90      		pop r6
 5448 1bc2 0895      		ret
 5449               	.LFE71:
 5451               		.data
 5452               	.LC2:
 5453 0016 4272 6F6B 		.string	"Broke build"
 5453      6520 6275 
 5453      696C 6400 
 5454               		.text
 5455               	.global	build_map
 5457               	build_map:
 5458               	.LFB72:
 5459               	.LM762:
 5460               	.LVL157:
 5461 1bc4 4F92      		push r4
 5462 1bc6 5F92      		push r5
 5463 1bc8 6F92      		push r6
 5464 1bca 7F92      		push r7
 5465 1bcc 8F92      		push r8
 5466 1bce 9F92      		push r9
 5467 1bd0 AF92      		push r10
 5468 1bd2 BF92      		push r11
 5469 1bd4 CF92      		push r12
 5470 1bd6 DF92      		push r13
 5471 1bd8 EF92      		push r14
 5472 1bda FF92      		push r15
 5473 1bdc 0F93      		push r16
 5474 1bde 1F93      		push r17
 5475 1be0 CF93      		push r28
 5476 1be2 DF93      		push r29
 5477               	/* prologue: function */
 5478               	/* frame size = 0 */
 5479 1be4 5C01      		movw r10,r24
 5480 1be6 4B01      		movw r8,r22
 5481 1be8 3A01      		movw r6,r20
 5482 1bea 2901      		movw r4,r18
 5483               	.LM763:
 5484 1bec 20E0      		ldi r18,lo8(0)
 5485 1bee 30E0      		ldi r19,hi8(0)
 5486               	.LVL158:
 5487               	.LBB686:
 5488               	.LBB687:
 5489               	.LM764:
 5490 1bf0 44E6      		ldi r20,lo8(100)
 5491 1bf2 50E0      		ldi r21,hi8(100)
 5492               	.LVL159:
 5493 1bf4 00C0      		rjmp .L417
 5494               	.LVL160:
 5495               	.L418:
 5496 1bf6 4193      		st Z+,r20
 5497 1bf8 5193      		st Z+,r21
 5498               	.LM765:
 5499 1bfa 0196      		adiw r24,1
 5500 1bfc 8031      		cpi r24,16
 5501 1bfe 9105      		cpc r25,__zero_reg__
 5502 1c00 01F4      		brne .L418
 5503               	.LBE687:
 5504               	.LM766:
 5505 1c02 2F5F      		subi r18,lo8(-(1))
 5506 1c04 3F4F      		sbci r19,hi8(-(1))
 5507 1c06 2031      		cpi r18,16
 5508 1c08 3105      		cpc r19,__zero_reg__
 5509 1c0a 01F0      		breq .L419
 5510               	.LVL161:
 5511               	.L417:
 5512 1c0c F901      		movw r30,r18
 5513 1c0e 65E0      		ldi r22,5
 5514 1c10 EE0F      	1:	lsl r30
 5515 1c12 FF1F      		rol r31
 5516 1c14 6A95      		dec r22
 5517 1c16 01F4      		brne 1b
 5518 1c18 E050      		subi r30,lo8(-(map_array))
 5519 1c1a F040      		sbci r31,hi8(-(map_array))
 5520 1c1c 80E0      		ldi r24,lo8(0)
 5521 1c1e 90E0      		ldi r25,hi8(0)
 5522 1c20 00C0      		rjmp .L418
 5523               	.L419:
 5524               	.LBE686:
 5525               	.LM767:
 5526 1c22 F301      		movw r30,r6
 5527 1c24 54E0      		ldi r21,4
 5528 1c26 EE0F      	1:	lsl r30
 5529 1c28 FF1F      		rol r31
 5530 1c2a 5A95      		dec r21
 5531 1c2c 01F4      		brne 1b
 5532 1c2e E40D      		add r30,r4
 5533 1c30 F51D      		adc r31,r5
 5534 1c32 EE0F      		lsl r30
 5535 1c34 FF1F      		rol r31
 5536 1c36 E050      		subi r30,lo8(-(map_array))
 5537 1c38 F040      		sbci r31,hi8(-(map_array))
 5538 1c3a 1182      		std Z+1,__zero_reg__
 5539 1c3c 1082      		st Z,__zero_reg__
 5540 1c3e EE24      		clr r14
 5541 1c40 FF24      		clr r15
 5542               	.LVL162:
 5543               	.LM768:
 5544 1c42 A501      		movw r20,r10
 5545 1c44 34E0      		ldi r19,4
 5546 1c46 440F      	1:	lsl r20
 5547 1c48 551F      		rol r21
 5548 1c4a 3A95      		dec r19
 5549 1c4c 01F4      		brne 1b
 5550 1c4e 480D      		add r20,r8
 5551 1c50 591D      		adc r21,r9
 5552 1c52 440F      		lsl r20
 5553 1c54 551F      		rol r21
 5554               	.LVL163:
 5555 1c56 4050      		subi r20,lo8(-(map_array))
 5556 1c58 5040      		sbci r21,hi8(-(map_array))
 5557 1c5a 00C0      		rjmp .L420
 5558               	.LVL164:
 5559               	.L425:
 5560               	.LBB688:
 5561               	.LBB689:
 5562               	.LM769:
 5563 1c5c 9096      		adiw r26,32
 5564 1c5e 8D91      		ld r24,X+
 5565 1c60 9C91      		ld r25,X
 5566 1c62 9197      		sbiw r26,32+1
 5567 1c64 8E15      		cp r24,r14
 5568 1c66 9F05      		cpc r25,r15
 5569 1c68 01F0      		breq .+2
 5570 1c6a 00C0      		rjmp .L421
 5571               	.LM770:
 5572 1c6c 8481      		ldd r24,Z+4
 5573 1c6e 8435      		cpi r24,lo8(84)
 5574 1c70 01F4      		brne .L422
 5575 1c72 8285      		ldd r24,Z+10
 5576 1c74 8435      		cpi r24,lo8(84)
 5577 1c76 01F4      		brne .L422
 5578               	.LM771:
 5579 1c78 8881      		ld r24,Y
 5580 1c7a 9981      		ldd r25,Y+1
 5581 1c7c 8436      		cpi r24,100
 5582 1c7e 9105      		cpc r25,__zero_reg__
 5583 1c80 01F4      		brne .L422
 5584               	.LM772:
 5585 1c82 1983      		std Y+1,r17
 5586 1c84 0883      		st Y,r16
 5587               	.L422:
 5588               	.LM773:
 5589 1c86 8581      		ldd r24,Z+5
 5590 1c88 8435      		cpi r24,lo8(84)
 5591 1c8a 01F4      		brne .L423
 5592 1c8c E95B      		subi r30,lo8(-(71))
 5593 1c8e FF4F      		sbci r31,hi8(-(71))
 5594 1c90 8081      		ld r24,Z
 5595 1c92 E754      		subi r30,lo8(-(-71))
 5596 1c94 F040      		sbci r31,hi8(-(-71))
 5597 1c96 8435      		cpi r24,lo8(84)
 5598 1c98 01F4      		brne .L423
 5599               	.LM774:
 5600 1c9a 8E8D      		ldd r24,Y+30
 5601 1c9c 9F8D      		ldd r25,Y+31
 5602 1c9e 8436      		cpi r24,100
 5603 1ca0 9105      		cpc r25,__zero_reg__
 5604 1ca2 01F4      		brne .L423
 5605               	.LM775:
 5606 1ca4 1F8F      		std Y+31,r17
 5607 1ca6 0E8F      		std Y+30,r16
 5608               	.L423:
 5609               	.LM776:
 5610 1ca8 8681      		ldd r24,Z+6
 5611 1caa 8435      		cpi r24,lo8(84)
 5612 1cac 01F4      		brne .L424
 5613 1cae 8081      		ld r24,Z
 5614 1cb0 8435      		cpi r24,lo8(84)
 5615 1cb2 01F4      		brne .L424
 5616               	.LM777:
 5617 1cb4 5E96      		adiw r26,30
 5618 1cb6 8D91      		ld r24,X+
 5619 1cb8 9C91      		ld r25,X
 5620 1cba 5F97      		sbiw r26,30+1
 5621 1cbc 8436      		cpi r24,100
 5622 1cbe 9105      		cpc r25,__zero_reg__
 5623 1cc0 01F4      		brne .L424
 5624               	.LM778:
 5625 1cc2 5F96      		adiw r26,30+1
 5626 1cc4 1C93      		st X,r17
 5627 1cc6 0E93      		st -X,r16
 5628 1cc8 5E97      		sbiw r26,30
 5629               	.L424:
 5630               	.LM779:
 5631 1cca 8781      		ldd r24,Z+7
 5632 1ccc 8435      		cpi r24,lo8(84)
 5633 1cce 01F4      		brne .L421
 5634 1cd0 FB97      		sbiw r30,59
 5635 1cd2 8081      		ld r24,Z
 5636 1cd4 FB96      		adiw r30,59
 5637 1cd6 8435      		cpi r24,lo8(84)
 5638 1cd8 01F4      		brne .L421
 5639               	.LM780:
 5640 1cda 8D91      		ld r24,X+
 5641 1cdc 9C91      		ld r25,X
 5642 1cde 1197      		sbiw r26,1
 5643 1ce0 8436      		cpi r24,100
 5644 1ce2 9105      		cpc r25,__zero_reg__
 5645 1ce4 01F4      		brne .L421
 5646               	.LM781:
 5647 1ce6 1196      		adiw r26,1
 5648 1ce8 1C93      		st X,r17
 5649 1cea 0E93      		st -X,r16
 5650               	.L421:
 5651 1cec 1296      		adiw r26,2
 5652 1cee 3496      		adiw r30,4
 5653 1cf0 2296      		adiw r28,2
 5654               	.LM782:
 5655 1cf2 AC15      		cp r26,r12
 5656 1cf4 BD05      		cpc r27,r13
 5657 1cf6 01F0      		breq .+2
 5658 1cf8 00C0      		rjmp .L425
 5659               	.LBE689:
 5660               	.LM783:
 5661 1cfa 6F5F      		subi r22,lo8(-(1))
 5662 1cfc 7F4F      		sbci r23,hi8(-(1))
 5663 1cfe 90E2      		ldi r25,lo8(32)
 5664 1d00 C92E      		mov r12,r25
 5665 1d02 D12C      		mov r13,__zero_reg__
 5666 1d04 CA0E      		add r12,r26
 5667 1d06 DB1E      		adc r13,r27
 5668 1d08 6031      		cpi r22,16
 5669 1d0a 7105      		cpc r23,__zero_reg__
 5670 1d0c 01F0      		breq .L426
 5671               	.L428:
 5672 1d0e DB01      		movw r26,r22
 5673 1d10 85E0      		ldi r24,5
 5674 1d12 AA0F      	1:	lsl r26
 5675 1d14 BB1F      		rol r27
 5676 1d16 8A95      		dec r24
 5677 1d18 01F4      		brne 1b
 5678 1d1a A050      		subi r26,lo8(-(map_array-32))
 5679 1d1c B040      		sbci r27,hi8(-(map_array-32))
 5680 1d1e 9B01      		movw r18,r22
 5681 1d20 F4E0      		ldi r31,4
 5682 1d22 220F      	1:	lsl r18
 5683 1d24 331F      		rol r19
 5684 1d26 FA95      		dec r31
 5685 1d28 01F4      		brne 1b
 5686 1d2a 8827      		clr r24
 5687 1d2c 9927      		clr r25
 5688 1d2e 821B      		sub r24,r18
 5689 1d30 930B      		sbc r25,r19
 5690 1d32 0196      		adiw r24,1
 5691 1d34 880F      		lsl r24
 5692 1d36 991F      		rol r25
 5693 1d38 880F      		lsl r24
 5694 1d3a 991F      		rol r25
 5695 1d3c EE27      		clr r30
 5696 1d3e FF27      		clr r31
 5697 1d40 E81B      		sub r30,r24
 5698 1d42 F90B      		sbc r31,r25
 5699 1d44 E050      		subi r30,lo8(-(dir_array))
 5700 1d46 F040      		sbci r31,hi8(-(dir_array))
 5701 1d48 E901      		movw r28,r18
 5702 1d4a CC0F      		lsl r28
 5703 1d4c DD1F      		rol r29
 5704 1d4e C050      		subi r28,lo8(-(map_array+2))
 5705 1d50 D040      		sbci r29,hi8(-(map_array+2))
 5706 1d52 00C0      		rjmp .L425
 5707               	.L426:
 5708               	.LBE688:
 5709               	.LM784:
 5710 1d54 0894      		sec
 5711 1d56 E11C      		adc r14,__zero_reg__
 5712 1d58 F11C      		adc r15,__zero_reg__
 5713               	.LM785:
 5714 1d5a 83E3      		ldi r24,lo8(51)
 5715 1d5c E816      		cp r14,r24
 5716 1d5e F104      		cpc r15,__zero_reg__
 5717 1d60 01F4      		brne .L420
 5718               	.LM786:
 5719 1d62 81E0      		ldi r24,lo8(1)
 5720 1d64 60E0      		ldi r22,lo8(0)
 5721               	.LVL165:
 5722 1d66 0E94 0000 		call lcd_byte
 5723               	.LM787:
 5724 1d6a 80E0      		ldi r24,lo8(.LC2)
 5725 1d6c 90E0      		ldi r25,hi8(.LC2)
 5726 1d6e 0E94 0000 		call lcd_write_string
 5727               	.LM788:
 5728 1d72 80E0      		ldi r24,lo8(0)
 5729 1d74 90E0      		ldi r25,hi8(0)
 5730 1d76 61E0      		ldi r22,lo8(1)
 5731 1d78 70E0      		ldi r23,hi8(1)
 5732 1d7a A501      		movw r20,r10
 5733 1d7c 22E0      		ldi r18,lo8(2)
 5734 1d7e 30E0      		ldi r19,hi8(2)
 5735 1d80 0E94 0000 		call lcd_write_int_xy
 5736               	.LM789:
 5737 1d84 83E0      		ldi r24,lo8(3)
 5738 1d86 90E0      		ldi r25,hi8(3)
 5739 1d88 61E0      		ldi r22,lo8(1)
 5740 1d8a 70E0      		ldi r23,hi8(1)
 5741 1d8c A401      		movw r20,r8
 5742 1d8e 22E0      		ldi r18,lo8(2)
 5743 1d90 30E0      		ldi r19,hi8(2)
 5744 1d92 0E94 0000 		call lcd_write_int_xy
 5745               	.LM790:
 5746 1d96 88E0      		ldi r24,lo8(8)
 5747 1d98 90E0      		ldi r25,hi8(8)
 5748 1d9a 61E0      		ldi r22,lo8(1)
 5749 1d9c 70E0      		ldi r23,hi8(1)
 5750 1d9e A301      		movw r20,r6
 5751 1da0 22E0      		ldi r18,lo8(2)
 5752 1da2 30E0      		ldi r19,hi8(2)
 5753 1da4 0E94 0000 		call lcd_write_int_xy
 5754               	.LM791:
 5755 1da8 8BE0      		ldi r24,lo8(11)
 5756 1daa 90E0      		ldi r25,hi8(11)
 5757 1dac 61E0      		ldi r22,lo8(1)
 5758 1dae 70E0      		ldi r23,hi8(1)
 5759 1db0 A201      		movw r20,r4
 5760 1db2 22E0      		ldi r18,lo8(2)
 5761 1db4 30E0      		ldi r19,hi8(2)
 5762 1db6 0E94 0000 		call lcd_write_int_xy
 5763               	.LM792:
 5764 1dba 82E0      		ldi r24,lo8(2)
 5765 1dbc 90E0      		ldi r25,hi8(2)
 5766 1dbe 0E94 0000 		call delay_sec
 5767 1dc2 00C0      		rjmp .L429
 5768               	.LVL166:
 5769               	.L420:
 5770               	.LM793:
 5771 1dc4 FA01      		movw r30,r20
 5772 1dc6 8081      		ld r24,Z
 5773 1dc8 9181      		ldd r25,Z+1
 5774               	.LVL167:
 5775 1dca 8436      		cpi r24,100
 5776 1dcc 9105      		cpc r25,__zero_reg__
 5777 1dce 01F4      		brne .L429
 5778 1dd0 90E0      		ldi r25,lo8(map_array)
 5779 1dd2 C92E      		mov r12,r25
 5780 1dd4 90E0      		ldi r25,hi8(map_array)
 5781 1dd6 D92E      		mov r13,r25
 5782 1dd8 60E0      		ldi r22,lo8(0)
 5783 1dda 70E0      		ldi r23,hi8(0)
 5784               	.LBB691:
 5785               	.LBB690:
 5786               	.LM794:
 5787 1ddc 8701      		movw r16,r14
 5788 1dde 0F5F      		subi r16,lo8(-(1))
 5789 1de0 1F4F      		sbci r17,hi8(-(1))
 5790 1de2 00C0      		rjmp .L428
 5791               	.L429:
 5792               	/* epilogue start */
 5793               	.LBE690:
 5794               	.LBE691:
 5795               	.LM795:
 5796 1de4 DF91      		pop r29
 5797 1de6 CF91      		pop r28
 5798 1de8 1F91      		pop r17
 5799 1dea 0F91      		pop r16
 5800 1dec FF90      		pop r15
 5801 1dee EF90      		pop r14
 5802               	.LVL168:
 5803 1df0 DF90      		pop r13
 5804 1df2 CF90      		pop r12
 5805 1df4 BF90      		pop r11
 5806 1df6 AF90      		pop r10
 5807               	.LVL169:
 5808 1df8 9F90      		pop r9
 5809 1dfa 8F90      		pop r8
 5810               	.LVL170:
 5811 1dfc 7F90      		pop r7
 5812 1dfe 6F90      		pop r6
 5813               	.LVL171:
 5814 1e00 5F90      		pop r5
 5815 1e02 4F90      		pop r4
 5816               	.LVL172:
 5817 1e04 0895      		ret
 5818               	.LFE72:
 5820               	.global	checkAndCorrectDirection
 5822               	checkAndCorrectDirection:
 5823               	.LFB74:
 5824               	.LM796:
 5825               	.LVL173:
 5826 1e06 CF93      		push r28
 5827 1e08 DF93      		push r29
 5828               	/* prologue: function */
 5829               	/* frame size = 0 */
 5830 1e0a EC01      		movw r28,r24
 5831               	.LM797:
 5832 1e0c 8130      		cpi r24,1
 5833 1e0e 9105      		cpc r25,__zero_reg__
 5834 1e10 01F4      		brne .L434
 5835               	.LM798:
 5836 1e12 8091 0000 		lds r24,dir
 5837 1e16 9091 0000 		lds r25,(dir)+1
 5838               	.LVL174:
 5839 1e1a 2FEF      		ldi r18,hi8(-1)
 5840 1e1c 8F3F      		cpi r24,lo8(-1)
 5841 1e1e 9207      		cpc r25,r18
 5842 1e20 01F0      		breq .L437
 5843 1e22 8230      		cpi r24,2
 5844 1e24 9105      		cpc r25,__zero_reg__
 5845 1e26 01F4      		brne .+2
 5846 1e28 00C0      		rjmp .L446
 5847 1e2a 8E5F      		subi r24,lo8(-2)
 5848 1e2c 9F4F      		sbci r25,hi8(-2)
 5849 1e2e 01F0      		breq .+2
 5850 1e30 00C0      		rjmp .L435
 5851 1e32 00C0      		rjmp .L450
 5852               	.L437:
 5853               	.LM799:
 5854 1e34 E091 0000 		lds r30,x_coordinate
 5855 1e38 F091 0000 		lds r31,(x_coordinate)+1
 5856 1e3c 44E0      		ldi r20,4
 5857 1e3e EE0F      	1:	lsl r30
 5858 1e40 FF1F      		rol r31
 5859 1e42 4A95      		dec r20
 5860 1e44 01F4      		brne 1b
 5861 1e46 8091 0000 		lds r24,y_coordinate
 5862 1e4a 9091 0000 		lds r25,(y_coordinate)+1
 5863 1e4e E80F      		add r30,r24
 5864 1e50 F91F      		adc r31,r25
 5865 1e52 EE0F      		lsl r30
 5866 1e54 FF1F      		rol r31
 5867 1e56 EE0F      		lsl r30
 5868 1e58 FF1F      		rol r31
 5869 1e5a E050      		subi r30,lo8(-(dir_array))
 5870 1e5c F040      		sbci r31,hi8(-(dir_array))
 5871 1e5e 00C0      		rjmp .L461
 5872               	.LVL175:
 5873               	.L434:
 5874               	.LM800:
 5875 1e60 8230      		cpi r24,2
 5876 1e62 9105      		cpc r25,__zero_reg__
 5877 1e64 01F4      		brne .L440
 5878               	.LM801:
 5879 1e66 8091 0000 		lds r24,dir
 5880 1e6a 9091 0000 		lds r25,(dir)+1
 5881               	.LVL176:
 5882 1e6e 2FEF      		ldi r18,hi8(-1)
 5883 1e70 8F3F      		cpi r24,lo8(-1)
 5884 1e72 9207      		cpc r25,r18
 5885 1e74 01F0      		breq .L446
 5886 1e76 8130      		cpi r24,1
 5887 1e78 9105      		cpc r25,__zero_reg__
 5888 1e7a 01F4      		brne .+2
 5889 1e7c 00C0      		rjmp .L450
 5890 1e7e 8E5F      		subi r24,lo8(-2)
 5891 1e80 9F4F      		sbci r25,hi8(-2)
 5892 1e82 01F0      		breq .+2
 5893 1e84 00C0      		rjmp .L435
 5894               	.LM802:
 5895 1e86 E091 0000 		lds r30,x_coordinate
 5896 1e8a F091 0000 		lds r31,(x_coordinate)+1
 5897 1e8e 24E0      		ldi r18,4
 5898 1e90 EE0F      	1:	lsl r30
 5899 1e92 FF1F      		rol r31
 5900 1e94 2A95      		dec r18
 5901 1e96 01F4      		brne 1b
 5902 1e98 8091 0000 		lds r24,y_coordinate
 5903 1e9c 9091 0000 		lds r25,(y_coordinate)+1
 5904 1ea0 E80F      		add r30,r24
 5905 1ea2 F91F      		adc r31,r25
 5906 1ea4 EE0F      		lsl r30
 5907 1ea6 FF1F      		rol r31
 5908 1ea8 EE0F      		lsl r30
 5909 1eaa FF1F      		rol r31
 5910 1eac E050      		subi r30,lo8(-(dir_array))
 5911 1eae F040      		sbci r31,hi8(-(dir_array))
 5912 1eb0 8381      		ldd r24,Z+3
 5913 1eb2 00C0      		rjmp .L458
 5914               	.LVL177:
 5915               	.L440:
 5916               	.LM803:
 5917 1eb4 8FEF      		ldi r24,hi8(-1)
 5918 1eb6 CF3F      		cpi r28,lo8(-1)
 5919 1eb8 D807      		cpc r29,r24
 5920               	.LVL178:
 5921 1eba 01F4      		brne .L445
 5922               	.LM804:
 5923 1ebc 8091 0000 		lds r24,dir
 5924 1ec0 9091 0000 		lds r25,(dir)+1
 5925 1ec4 8130      		cpi r24,1
 5926 1ec6 9105      		cpc r25,__zero_reg__
 5927 1ec8 01F0      		breq .L447
 5928 1eca 8230      		cpi r24,2
 5929 1ecc 9105      		cpc r25,__zero_reg__
 5930 1ece 01F0      		breq .L450
 5931 1ed0 8E5F      		subi r24,lo8(-2)
 5932 1ed2 9F4F      		sbci r25,hi8(-2)
 5933 1ed4 01F0      		breq .+2
 5934 1ed6 00C0      		rjmp .L435
 5935               	.L446:
 5936               	.LM805:
 5937 1ed8 0E94 0000 		call turn_right
 5938               	.L455:
 5939 1edc 0E94 0000 		call sense_of_directon
 5940 1ee0 00C0      		rjmp .L435
 5941               	.L447:
 5942               	.LM806:
 5943 1ee2 E091 0000 		lds r30,x_coordinate
 5944 1ee6 F091 0000 		lds r31,(x_coordinate)+1
 5945 1eea 84E0      		ldi r24,4
 5946 1eec EE0F      	1:	lsl r30
 5947 1eee FF1F      		rol r31
 5948 1ef0 8A95      		dec r24
 5949 1ef2 01F4      		brne 1b
 5950 1ef4 8091 0000 		lds r24,y_coordinate
 5951 1ef8 9091 0000 		lds r25,(y_coordinate)+1
 5952 1efc E80F      		add r30,r24
 5953 1efe F91F      		adc r31,r25
 5954 1f00 EE0F      		lsl r30
 5955 1f02 FF1F      		rol r31
 5956 1f04 EE0F      		lsl r30
 5957 1f06 FF1F      		rol r31
 5958 1f08 E050      		subi r30,lo8(-(dir_array+2))
 5959 1f0a F040      		sbci r31,hi8(-(dir_array+2))
 5960               	.L461:
 5961 1f0c 8081      		ld r24,Z
 5962 1f0e 00C0      		rjmp .L458
 5963               	.L445:
 5964               	.LM807:
 5965 1f10 8FEF      		ldi r24,hi8(-2)
 5966 1f12 CE3F      		cpi r28,lo8(-2)
 5967 1f14 D807      		cpc r29,r24
 5968 1f16 01F4      		brne .L435
 5969               	.LM808:
 5970 1f18 8091 0000 		lds r24,dir
 5971 1f1c 9091 0000 		lds r25,(dir)+1
 5972 1f20 8130      		cpi r24,1
 5973 1f22 9105      		cpc r25,__zero_reg__
 5974 1f24 01F0      		breq .L446
 5975 1f26 8230      		cpi r24,2
 5976 1f28 9105      		cpc r25,__zero_reg__
 5977 1f2a 01F0      		breq .L452
 5978 1f2c 8F5F      		subi r24,lo8(-1)
 5979 1f2e 9F4F      		sbci r25,hi8(-1)
 5980 1f30 01F4      		brne .L435
 5981               	.L450:
 5982               	.LM809:
 5983 1f32 0E94 0000 		call turn_left
 5984 1f36 00C0      		rjmp .L455
 5985               	.L452:
 5986               	.LM810:
 5987 1f38 E091 0000 		lds r30,x_coordinate
 5988 1f3c F091 0000 		lds r31,(x_coordinate)+1
 5989 1f40 A4E0      		ldi r26,4
 5990 1f42 EE0F      	1:	lsl r30
 5991 1f44 FF1F      		rol r31
 5992 1f46 AA95      		dec r26
 5993 1f48 01F4      		brne 1b
 5994 1f4a 8091 0000 		lds r24,y_coordinate
 5995 1f4e 9091 0000 		lds r25,(y_coordinate)+1
 5996 1f52 E80F      		add r30,r24
 5997 1f54 F91F      		adc r31,r25
 5998 1f56 EE0F      		lsl r30
 5999 1f58 FF1F      		rol r31
 6000 1f5a EE0F      		lsl r30
 6001 1f5c FF1F      		rol r31
 6002 1f5e E050      		subi r30,lo8(-(dir_array))
 6003 1f60 F040      		sbci r31,hi8(-(dir_array))
 6004 1f62 8181      		ldd r24,Z+1
 6005               	.L458:
 6006 1f64 8435      		cpi r24,lo8(84)
 6007 1f66 01F4      		brne .L453
 6008               	.LM811:
 6009 1f68 0E94 0000 		call turn_right
 6010               	.L453:
 6011               	.LM812:
 6012 1f6c 0E94 0000 		call turn_right
 6013               	.LM813:
 6014 1f70 D093 0000 		sts (dir)+1,r29
 6015 1f74 C093 0000 		sts dir,r28
 6016               	.L435:
 6017               	.LBB692:
 6018               	.LBB693:
 6019               	.LM814:
 6020 1f78 AC9A      		sbi 53-32,4
 6021               	.LM815:
 6022 1f7a AD9A      		sbi 53-32,5
 6023               	.LM816:
 6024 1f7c AE9A      		sbi 53-32,6
 6025               	.LM817:
 6026 1f7e AF9A      		sbi 53-32,7
 6027               	/* epilogue start */
 6028               	.LBE693:
 6029               	.LBE692:
 6030               	.LM818:
 6031 1f80 DF91      		pop r29
 6032 1f82 CF91      		pop r28
 6033               	.LVL179:
 6034 1f84 0895      		ret
 6035               	.LFE74:
 6037               	.global	go_to_coordinate
 6039               	go_to_coordinate:
 6040               	.LFB73:
 6041               	.LM819:
 6042               	.LVL180:
 6043 1f86 0F93      		push r16
 6044 1f88 1F93      		push r17
 6045 1f8a CF93      		push r28
 6046 1f8c DF93      		push r29
 6047               	/* prologue: function */
 6048               	/* frame size = 0 */
 6049 1f8e EC01      		movw r28,r24
 6050 1f90 8B01      		movw r16,r22
 6051               	.LM820:
 6052 1f92 8091 0000 		lds r24,x_coordinate
 6053 1f96 9091 0000 		lds r25,(x_coordinate)+1
 6054               	.LVL181:
 6055 1f9a 8C17      		cp r24,r28
 6056 1f9c 9D07      		cpc r25,r29
 6057 1f9e 04F4      		brge .L463
 6058               	.LVL182:
 6059               	.LM821:
 6060 1fa0 81E0      		ldi r24,lo8(1)
 6061 1fa2 90E0      		ldi r25,hi8(1)
 6062 1fa4 0E94 0000 		call checkAndCorrectDirection
 6063 1fa8 00C0      		rjmp .L464
 6064               	.L466:
 6065               	.LM822:
 6066 1faa 0E94 0000 		call line_track_new
 6067               	.L464:
 6068               	.LM823:
 6069 1fae CD9B      		sbis 57-32,5
 6070 1fb0 00C0      		rjmp .L488
 6071 1fb2 CF99      		sbic 57-32,7
 6072 1fb4 00C0      		rjmp .L466
 6073 1fb6 00C0      		rjmp .L488
 6074               	.L468:
 6075               	.LM824:
 6076 1fb8 0E94 0000 		call line_track_new
 6077               	.L488:
 6078               	.LM825:
 6079 1fbc CC9B      		sbis 57-32,4
 6080 1fbe 00C0      		rjmp .L485
 6081 1fc0 8799      		sbic 48-32,7
 6082 1fc2 00C0      		rjmp .L468
 6083 1fc4 00C0      		rjmp .L485
 6084               	.LVL183:
 6085               	.L463:
 6086               	.LM826:
 6087 1fc6 C817      		cp r28,r24
 6088 1fc8 D907      		cpc r29,r25
 6089 1fca 04F4      		brge .L470
 6090               	.LM827:
 6091 1fcc 8FEF      		ldi r24,lo8(-1)
 6092 1fce 9FEF      		ldi r25,hi8(-1)
 6093 1fd0 0E94 0000 		call checkAndCorrectDirection
 6094 1fd4 00C0      		rjmp .L471
 6095               	.L473:
 6096               	.LM828:
 6097 1fd6 0E94 0000 		call line_track_new
 6098               	.L471:
 6099               	.LM829:
 6100 1fda CD9B      		sbis 57-32,5
 6101 1fdc 00C0      		rjmp .L489
 6102 1fde CF99      		sbic 57-32,7
 6103 1fe0 00C0      		rjmp .L473
 6104 1fe2 00C0      		rjmp .L489
 6105               	.L475:
 6106               	.LM830:
 6107 1fe4 0E94 0000 		call line_track_new
 6108               	.L489:
 6109               	.LM831:
 6110 1fe8 CC9B      		sbis 57-32,4
 6111 1fea 00C0      		rjmp .L485
 6112 1fec 8799      		sbic 48-32,7
 6113 1fee 00C0      		rjmp .L475
 6114 1ff0 00C0      		rjmp .L485
 6115               	.LVL184:
 6116               	.L470:
 6117               	.LM832:
 6118 1ff2 8091 0000 		lds r24,y_coordinate
 6119 1ff6 9091 0000 		lds r25,(y_coordinate)+1
 6120 1ffa 8617      		cp r24,r22
 6121 1ffc 9707      		cpc r25,r23
 6122 1ffe 04F4      		brge .L476
 6123               	.LVL185:
 6124               	.LM833:
 6125 2000 82E0      		ldi r24,lo8(2)
 6126 2002 90E0      		ldi r25,hi8(2)
 6127 2004 0E94 0000 		call checkAndCorrectDirection
 6128               	.LVL186:
 6129 2008 00C0      		rjmp .L477
 6130               	.L479:
 6131               	.LM834:
 6132 200a 0E94 0000 		call line_track_new
 6133               	.L477:
 6134               	.LM835:
 6135 200e CD9B      		sbis 57-32,5
 6136 2010 00C0      		rjmp .L490
 6137 2012 CF99      		sbic 57-32,7
 6138 2014 00C0      		rjmp .L479
 6139 2016 00C0      		rjmp .L490
 6140               	.L481:
 6141               	.LM836:
 6142 2018 0E94 0000 		call line_track_new
 6143               	.L490:
 6144               	.LM837:
 6145 201c CC9B      		sbis 57-32,4
 6146 201e 00C0      		rjmp .L485
 6147 2020 8799      		sbic 48-32,7
 6148 2022 00C0      		rjmp .L481
 6149 2024 00C0      		rjmp .L485
 6150               	.LVL187:
 6151               	.L476:
 6152               	.LM838:
 6153 2026 6817      		cp r22,r24
 6154 2028 7907      		cpc r23,r25
 6155 202a 04F4      		brge .L469
 6156               	.LM839:
 6157 202c 1092 0000 		sts (right)+1,__zero_reg__
 6158 2030 1092 0000 		sts right,__zero_reg__
 6159               	.LM840:
 6160 2034 8EEF      		ldi r24,lo8(-2)
 6161 2036 9FEF      		ldi r25,hi8(-2)
 6162 2038 0E94 0000 		call checkAndCorrectDirection
 6163               	.LVL188:
 6164 203c 00C0      		rjmp .L482
 6165               	.L484:
 6166               	.LM841:
 6167 203e 0E94 0000 		call line_track_new
 6168               	.L482:
 6169               	.LM842:
 6170 2042 CD9B      		sbis 57-32,5
 6171 2044 00C0      		rjmp .L491
 6172 2046 CF99      		sbic 57-32,7
 6173 2048 00C0      		rjmp .L484
 6174 204a 00C0      		rjmp .L491
 6175               	.L486:
 6176               	.LM843:
 6177 204c 0E94 0000 		call line_track_new
 6178               	.L491:
 6179               	.LM844:
 6180 2050 CC9B      		sbis 57-32,4
 6181 2052 00C0      		rjmp .L485
 6182 2054 8799      		sbic 48-32,7
 6183 2056 00C0      		rjmp .L486
 6184               	.L485:
 6185               	.LBB694:
 6186               	.LBB695:
 6187               	.LM845:
 6188 2058 8FE8      		ldi r24,lo8(399)
 6189 205a 91E0      		ldi r25,hi8(399)
 6190 205c 99BD      		out (72)+1-32,r25
 6191 205e 88BD      		out 72-32,r24
 6192               	.LBE695:
 6193               	.LBE694:
 6194               	.LBB696:
 6195               	.LBB697:
 6196               	.LM846:
 6197 2060 9BBD      		out (74)+1-32,r25
 6198 2062 8ABD      		out 74-32,r24
 6199               	.LBE697:
 6200               	.LBE696:
 6201               	.LBB698:
 6202               	.LBB699:
 6203               	.LM847:
 6204 2064 AC9A      		sbi 53-32,4
 6205               	.LM848:
 6206 2066 AD9A      		sbi 53-32,5
 6207               	.LM849:
 6208 2068 AE9A      		sbi 53-32,6
 6209               	.LM850:
 6210 206a AF9A      		sbi 53-32,7
 6211               	.LVL189:
 6212               	.L469:
 6213               	.LBE699:
 6214               	.LBE698:
 6215               	.LM851:
 6216 206c D093 0000 		sts (x_coordinate)+1,r29
 6217 2070 C093 0000 		sts x_coordinate,r28
 6218               	.LM852:
 6219 2074 1093 0000 		sts (y_coordinate)+1,r17
 6220 2078 0093 0000 		sts y_coordinate,r16
 6221               	.LM853:
 6222 207c 81E0      		ldi r24,lo8(1)
 6223 207e 60E0      		ldi r22,lo8(0)
 6224 2080 0E94 0000 		call lcd_byte
 6225               	.LM854:
 6226 2084 4091 0000 		lds r20,x_coordinate
 6227 2088 5091 0000 		lds r21,(x_coordinate)+1
 6228 208c 80E0      		ldi r24,lo8(0)
 6229 208e 90E0      		ldi r25,hi8(0)
 6230 2090 61E0      		ldi r22,lo8(1)
 6231 2092 70E0      		ldi r23,hi8(1)
 6232 2094 22E0      		ldi r18,lo8(2)
 6233 2096 30E0      		ldi r19,hi8(2)
 6234 2098 0E94 0000 		call lcd_write_int_xy
 6235               	.LM855:
 6236 209c 4091 0000 		lds r20,y_coordinate
 6237 20a0 5091 0000 		lds r21,(y_coordinate)+1
 6238 20a4 85E0      		ldi r24,lo8(5)
 6239 20a6 90E0      		ldi r25,hi8(5)
 6240 20a8 61E0      		ldi r22,lo8(1)
 6241 20aa 70E0      		ldi r23,hi8(1)
 6242 20ac 22E0      		ldi r18,lo8(2)
 6243 20ae 30E0      		ldi r19,hi8(2)
 6244 20b0 0E94 0000 		call lcd_write_int_xy
 6245               	.LM856:
 6246 20b4 4091 0000 		lds r20,irc
 6247 20b8 5091 0000 		lds r21,(irc)+1
 6248 20bc 83E0      		ldi r24,lo8(3)
 6249 20be 90E0      		ldi r25,hi8(3)
 6250 20c0 60E0      		ldi r22,lo8(0)
 6251 20c2 70E0      		ldi r23,hi8(0)
 6252 20c4 25E0      		ldi r18,lo8(5)
 6253 20c6 30E0      		ldi r19,hi8(5)
 6254 20c8 0E94 0000 		call lcd_write_int_xy
 6255               	.LBB700:
 6256               	.LBB701:
 6257               	.LM857:
 6258 20cc AC9A      		sbi 53-32,4
 6259               	.LM858:
 6260 20ce AD9A      		sbi 53-32,5
 6261               	.LM859:
 6262 20d0 AE9A      		sbi 53-32,6
 6263               	.LM860:
 6264 20d2 AF9A      		sbi 53-32,7
 6265               	/* epilogue start */
 6266               	.LBE701:
 6267               	.LBE700:
 6268               	.LM861:
 6269 20d4 DF91      		pop r29
 6270 20d6 CF91      		pop r28
 6271               	.LVL190:
 6272 20d8 1F91      		pop r17
 6273 20da 0F91      		pop r16
 6274               	.LVL191:
 6275 20dc 0895      		ret
 6276               	.LFE73:
 6278               	.global	print_path
 6280               	print_path:
 6281               	.LFB76:
 6282               	.LM862:
 6283 20de CF92      		push r12
 6284 20e0 DF92      		push r13
 6285 20e2 EF92      		push r14
 6286 20e4 FF92      		push r15
 6287 20e6 0F93      		push r16
 6288 20e8 1F93      		push r17
 6289 20ea CF93      		push r28
 6290 20ec DF93      		push r29
 6291               	/* prologue: function */
 6292               	/* frame size = 0 */
 6293               	.LM863:
 6294 20ee 81E0      		ldi r24,lo8(1)
 6295 20f0 60E0      		ldi r22,lo8(0)
 6296 20f2 0E94 0000 		call lcd_byte
 6297 20f6 00E0      		ldi r16,lo8(path_array)
 6298 20f8 10E0      		ldi r17,hi8(path_array)
 6299 20fa C0E0      		ldi r28,lo8(0)
 6300 20fc D0E0      		ldi r29,hi8(0)
 6301               	.LVL192:
 6302 20fe EE24      		clr r14
 6303 2100 FF24      		clr r15
 6304               	.LVL193:
 6305 2102 CC24      		clr r12
 6306 2104 DD24      		clr r13
 6307               	.LVL194:
 6308 2106 00C0      		rjmp .L493
 6309               	.L495:
 6310               	.LBB702:
 6311               	.LM864:
 6312 2108 F801      		movw r30,r16
 6313 210a 4081      		ld r20,Z
 6314 210c 5181      		ldd r21,Z+1
 6315 210e CE01      		movw r24,r28
 6316 2110 B701      		movw r22,r14
 6317 2112 22E0      		ldi r18,lo8(2)
 6318 2114 30E0      		ldi r19,hi8(2)
 6319 2116 0E94 0000 		call lcd_write_int_xy
 6320               	.LM865:
 6321 211a F801      		movw r30,r16
 6322 211c 4281      		ldd r20,Z+2
 6323 211e 5381      		ldd r21,Z+3
 6324 2120 CE01      		movw r24,r28
 6325 2122 0296      		adiw r24,2
 6326 2124 B701      		movw r22,r14
 6327 2126 22E0      		ldi r18,lo8(2)
 6328 2128 30E0      		ldi r19,hi8(2)
 6329 212a 0E94 0000 		call lcd_write_int_xy
 6330               	.LM866:
 6331 212e 2596      		adiw r28,5
 6332               	.LM867:
 6333 2130 CE30      		cpi r28,14
 6334 2132 D105      		cpc r29,__zero_reg__
 6335 2134 04F0      		brlt .L494
 6336 2136 C0E0      		ldi r28,lo8(0)
 6337 2138 D0E0      		ldi r29,hi8(0)
 6338 213a 51E0      		ldi r21,lo8(1)
 6339 213c E52E      		mov r14,r21
 6340 213e F12C      		mov r15,__zero_reg__
 6341               	.L494:
 6342               	.LM868:
 6343 2140 0894      		sec
 6344 2142 C11C      		adc r12,__zero_reg__
 6345 2144 D11C      		adc r13,__zero_reg__
 6346 2146 0C5F      		subi r16,lo8(-(4))
 6347 2148 1F4F      		sbci r17,hi8(-(4))
 6348               	.L493:
 6349 214a 8091 0000 		lds r24,ipl
 6350 214e 9091 0000 		lds r25,(ipl)+1
 6351 2152 8C15      		cp r24,r12
 6352 2154 9D05      		cpc r25,r13
 6353 2156 04F4      		brge .L495
 6354               	/* epilogue start */
 6355               	.LBE702:
 6356               	.LM869:
 6357 2158 DF91      		pop r29
 6358 215a CF91      		pop r28
 6359               	.LVL195:
 6360 215c 1F91      		pop r17
 6361 215e 0F91      		pop r16
 6362 2160 FF90      		pop r15
 6363 2162 EF90      		pop r14
 6364               	.LVL196:
 6365 2164 DF90      		pop r13
 6366 2166 CF90      		pop r12
 6367               	.LVL197:
 6368 2168 0895      		ret
 6369               	.LFE76:
 6371               		.data
 6372               	.LC3:
 6373 0022 6D78 3A20 		.string	"mx: "
 6373      00
 6374               	.LC4:
 6375 0027 6D79 3A20 		.string	"my: "
 6375      00
 6376               	.LC5:
 6377 002c 783A 2000 		.string	"x: "
 6378               	.LC6:
 6379 0030 793A 2000 		.string	"y: "
 6380               	.LC7:
 6381 0034 5072 6573 		.string	"Press Any Key"
 6381      7320 416E 
 6381      7920 4B65 
 6381      7900 
 6382               	.LC8:
 6383 0042 5374 6F72 		.string	"Stored In EP"
 6383      6564 2049 
 6383      6E20 4550 
 6383      00
 6384               		.text
 6385               	.global	end_zone
 6387               	end_zone:
 6388               	.LFB77:
 6389               	.LM870:
 6390 216a 6F92      		push r6
 6391 216c 7F92      		push r7
 6392 216e 8F92      		push r8
 6393 2170 9F92      		push r9
 6394 2172 AF92      		push r10
 6395 2174 BF92      		push r11
 6396 2176 CF92      		push r12
 6397 2178 DF92      		push r13
 6398 217a EF92      		push r14
 6399 217c FF92      		push r15
 6400 217e 0F93      		push r16
 6401 2180 1F93      		push r17
 6402 2182 CF93      		push r28
 6403 2184 DF93      		push r29
 6404               	/* prologue: function */
 6405               	/* frame size = 0 */
 6406               	.LM871:
 6407 2186 6090 0000 		lds r6,x_coordinate
 6408 218a 7090 0000 		lds r7,(x_coordinate)+1
 6409               	.LVL198:
 6410 218e 8090 0000 		lds r8,y_coordinate
 6411 2192 9090 0000 		lds r9,(y_coordinate)+1
 6412               	.LVL199:
 6413               	.LM872:
 6414 2196 86E4      		ldi r24,lo8(70)
 6415 2198 66E4      		ldi r22,lo8(70)
 6416 219a 44E5      		ldi r20,lo8(84)
 6417 219c 26E4      		ldi r18,lo8(70)
 6418 219e 0E94 0000 		call update_array
 6419               	.LM873:
 6420 21a2 81E0      		ldi r24,lo8(1)
 6421 21a4 60E0      		ldi r22,lo8(0)
 6422 21a6 0E94 0000 		call lcd_byte
 6423               	.LBB703:
 6424               	.LBB704:
 6425               	.LM874:
 6426 21aa 8FE8      		ldi r24,lo8(399)
 6427 21ac 91E0      		ldi r25,hi8(399)
 6428 21ae 9BBD      		out (74)+1-32,r25
 6429 21b0 8ABD      		out 74-32,r24
 6430               	.LBE704:
 6431               	.LBE703:
 6432               	.LBB705:
 6433               	.LBB706:
 6434               	.LM875:
 6435 21b2 99BD      		out (72)+1-32,r25
 6436 21b4 88BD      		out 72-32,r24
 6437               	.LBE706:
 6438               	.LBE705:
 6439               	.LBB707:
 6440               	.LBB708:
 6441               	.LM876:
 6442 21b6 AC9A      		sbi 53-32,4
 6443               	.LM877:
 6444 21b8 AD9A      		sbi 53-32,5
 6445               	.LM878:
 6446 21ba AE9A      		sbi 53-32,6
 6447               	.LM879:
 6448 21bc AF9A      		sbi 53-32,7
 6449               	.LBE708:
 6450               	.LBE707:
 6451               	.LM880:
 6452 21be 0E94 0000 		call flick
 6453               	.LM881:
 6454 21c2 87E0      		ldi r24,lo8(7)
 6455 21c4 90E0      		ldi r25,hi8(7)
 6456 21c6 67E0      		ldi r22,lo8(7)
 6457 21c8 70E0      		ldi r23,hi8(7)
 6458 21ca A301      		movw r20,r6
 6459 21cc 9401      		movw r18,r8
 6460 21ce 0E94 0000 		call build_map
 6461               	.LM882:
 6462 21d2 A090 0000 		lds r10,x_coordinate
 6463 21d6 B090 0000 		lds r11,(x_coordinate)+1
 6464               	.LVL200:
 6465 21da C090 0000 		lds r12,y_coordinate
 6466 21de D090 0000 		lds r13,(y_coordinate)+1
 6467               	.LVL201:
 6468               	.LM883:
 6469 21e2 87E0      		ldi r24,lo8(7)
 6470 21e4 90E0      		ldi r25,hi8(7)
 6471 21e6 9093 0000 		sts (x_coordinate)+1,r25
 6472 21ea 8093 0000 		sts x_coordinate,r24
 6473               	.LM884:
 6474 21ee 9093 0000 		sts (y_coordinate)+1,r25
 6475 21f2 8093 0000 		sts y_coordinate,r24
 6476               	.LM885:
 6477 21f6 0E94 0000 		call get_path
 6478 21fa 60E0      		ldi r22,lo8(path_array)
 6479 21fc E62E      		mov r14,r22
 6480 21fe 60E0      		ldi r22,hi8(path_array)
 6481 2200 F62E      		mov r15,r22
 6482 2202 8701      		movw r16,r14
 6483 2204 C0E0      		ldi r28,lo8(0)
 6484 2206 D0E0      		ldi r29,hi8(0)
 6485               	.L498:
 6486               	.LBB709:
 6487               	.LM886:
 6488 2208 F801      		movw r30,r16
 6489 220a 6081      		ld r22,Z
 6490 220c 7181      		ldd r23,Z+1
 6491 220e CE01      		movw r24,r28
 6492 2210 0E94 0000 		call __eewr_word_m32
 6493               	.LM887:
 6494 2214 F801      		movw r30,r16
 6495 2216 6281      		ldd r22,Z+2
 6496 2218 7381      		ldd r23,Z+3
 6497 221a CE01      		movw r24,r28
 6498 221c 0296      		adiw r24,2
 6499 221e 0E94 0000 		call __eewr_word_m32
 6500 2222 0C5F      		subi r16,lo8(-(4))
 6501 2224 1F4F      		sbci r17,hi8(-(4))
 6502 2226 2496      		adiw r28,4
 6503               	.LM888:
 6504 2228 CC33      		cpi r28,60
 6505 222a D105      		cpc r29,__zero_reg__
 6506 222c 01F4      		brne .L498
 6507               	.LBE709:
 6508               	.LM889:
 6509 222e B092 0000 		sts (x_coordinate)+1,r11
 6510 2232 A092 0000 		sts x_coordinate,r10
 6511               	.LM890:
 6512 2236 D092 0000 		sts (y_coordinate)+1,r13
 6513 223a C092 0000 		sts y_coordinate,r12
 6514               	.LM891:
 6515 223e 0E94 0000 		call end_zone_uturn
 6516               	.LM892:
 6517 2242 0E94 0000 		call sense_of_directon
 6518               	.LM893:
 6519 2246 0E94 0000 		call fill_missed_array
 6520               	.LM894:
 6521 224a 0E94 0000 		call coordinates_tobe_reached
 6522               	.LM895:
 6523 224e 81E0      		ldi r24,lo8(1)
 6524 2250 60E0      		ldi r22,lo8(0)
 6525 2252 0E94 0000 		call lcd_byte
 6526               	.LM896:
 6527 2256 80E0      		ldi r24,lo8(0)
 6528 2258 90E0      		ldi r25,hi8(0)
 6529 225a 60E0      		ldi r22,lo8(0)
 6530 225c 70E0      		ldi r23,hi8(0)
 6531 225e 40E0      		ldi r20,lo8(.LC3)
 6532 2260 50E0      		ldi r21,hi8(.LC3)
 6533 2262 0E94 0000 		call lcd_write_string_xy
 6534               	.LM897:
 6535 2266 4091 0000 		lds r20,mx
 6536 226a 5091 0000 		lds r21,(mx)+1
 6537 226e 84E0      		ldi r24,lo8(4)
 6538 2270 90E0      		ldi r25,hi8(4)
 6539 2272 60E0      		ldi r22,lo8(0)
 6540 2274 70E0      		ldi r23,hi8(0)
 6541 2276 22E0      		ldi r18,lo8(2)
 6542 2278 30E0      		ldi r19,hi8(2)
 6543 227a 0E94 0000 		call lcd_write_int_xy
 6544               	.LM898:
 6545 227e 87E0      		ldi r24,lo8(7)
 6546 2280 90E0      		ldi r25,hi8(7)
 6547 2282 60E0      		ldi r22,lo8(0)
 6548 2284 70E0      		ldi r23,hi8(0)
 6549 2286 40E0      		ldi r20,lo8(.LC4)
 6550 2288 50E0      		ldi r21,hi8(.LC4)
 6551 228a 0E94 0000 		call lcd_write_string_xy
 6552               	.LM899:
 6553 228e 4091 0000 		lds r20,my
 6554 2292 5091 0000 		lds r21,(my)+1
 6555 2296 8BE0      		ldi r24,lo8(11)
 6556 2298 90E0      		ldi r25,hi8(11)
 6557 229a 60E0      		ldi r22,lo8(0)
 6558 229c 70E0      		ldi r23,hi8(0)
 6559 229e 22E0      		ldi r18,lo8(2)
 6560 22a0 30E0      		ldi r19,hi8(2)
 6561 22a2 0E94 0000 		call lcd_write_int_xy
 6562               	.LM900:
 6563 22a6 80E0      		ldi r24,lo8(0)
 6564 22a8 90E0      		ldi r25,hi8(0)
 6565 22aa 61E0      		ldi r22,lo8(1)
 6566 22ac 70E0      		ldi r23,hi8(1)
 6567 22ae 40E0      		ldi r20,lo8(.LC5)
 6568 22b0 50E0      		ldi r21,hi8(.LC5)
 6569 22b2 0E94 0000 		call lcd_write_string_xy
 6570               	.LM901:
 6571 22b6 4091 0000 		lds r20,x_coordinate
 6572 22ba 5091 0000 		lds r21,(x_coordinate)+1
 6573 22be 84E0      		ldi r24,lo8(4)
 6574 22c0 90E0      		ldi r25,hi8(4)
 6575 22c2 61E0      		ldi r22,lo8(1)
 6576 22c4 70E0      		ldi r23,hi8(1)
 6577 22c6 22E0      		ldi r18,lo8(2)
 6578 22c8 30E0      		ldi r19,hi8(2)
 6579 22ca 0E94 0000 		call lcd_write_int_xy
 6580               	.LM902:
 6581 22ce 87E0      		ldi r24,lo8(7)
 6582 22d0 90E0      		ldi r25,hi8(7)
 6583 22d2 61E0      		ldi r22,lo8(1)
 6584 22d4 70E0      		ldi r23,hi8(1)
 6585 22d6 40E0      		ldi r20,lo8(.LC6)
 6586 22d8 50E0      		ldi r21,hi8(.LC6)
 6587 22da 0E94 0000 		call lcd_write_string_xy
 6588               	.LM903:
 6589 22de 4091 0000 		lds r20,y_coordinate
 6590 22e2 5091 0000 		lds r21,(y_coordinate)+1
 6591 22e6 8BE0      		ldi r24,lo8(11)
 6592 22e8 90E0      		ldi r25,hi8(11)
 6593 22ea 61E0      		ldi r22,lo8(1)
 6594 22ec 70E0      		ldi r23,hi8(1)
 6595 22ee 22E0      		ldi r18,lo8(2)
 6596 22f0 30E0      		ldi r19,hi8(2)
 6597 22f2 0E94 0000 		call lcd_write_int_xy
 6598               	.LM904:
 6599 22f6 8091 0000 		lds r24,mx
 6600 22fa 9091 0000 		lds r25,(mx)+1
 6601 22fe 892B      		or r24,r25
 6602 2300 01F0      		breq .L499
 6603 2302 8091 0000 		lds r24,my
 6604 2306 9091 0000 		lds r25,(my)+1
 6605 230a 892B      		or r24,r25
 6606 230c 01F0      		breq .L499
 6607               	.LM905:
 6608 230e 0E94 0000 		call map_all
 6609               	.L499:
 6610               	.LM906:
 6611 2312 87E0      		ldi r24,lo8(7)
 6612 2314 90E0      		ldi r25,hi8(7)
 6613 2316 9093 0000 		sts (x_coordinate)+1,r25
 6614 231a 8093 0000 		sts x_coordinate,r24
 6615               	.LM907:
 6616 231e 9093 0000 		sts (y_coordinate)+1,r25
 6617 2322 8093 0000 		sts y_coordinate,r24
 6618               	.LM908:
 6619 2326 82E0      		ldi r24,lo8(2)
 6620 2328 90E0      		ldi r25,hi8(2)
 6621 232a 9093 0000 		sts (dir)+1,r25
 6622 232e 8093 0000 		sts dir,r24
 6623               	.LM909:
 6624 2332 80E0      		ldi r24,lo8(.LC7)
 6625 2334 90E0      		ldi r25,hi8(.LC7)
 6626 2336 0E94 0000 		call lcd_write_string
 6627               	.L507:
 6628               	.LBB710:
 6629               	.LBB711:
 6630               	.LM910:
 6631 233a 8299      		sbic 48-32,2
 6632 233c 00C0      		rjmp .L500
 6633               	.L506:
 6634               	.LBE711:
 6635               	.LBE710:
 6636               	.LBB712:
 6637               	.LM911:
 6638 233e 87E0      		ldi r24,lo8(7)
 6639 2340 90E0      		ldi r25,hi8(7)
 6640 2342 67E0      		ldi r22,lo8(7)
 6641 2344 70E0      		ldi r23,hi8(7)
 6642 2346 A301      		movw r20,r6
 6643 2348 9401      		movw r18,r8
 6644 234a 0E94 0000 		call build_map
 6645               	.LM912:
 6646 234e 0E94 0000 		call get_path
 6647 2352 00E0      		ldi r16,lo8(path_array)
 6648 2354 10E0      		ldi r17,hi8(path_array)
 6649 2356 C0E0      		ldi r28,lo8(0)
 6650 2358 D0E0      		ldi r29,hi8(0)
 6651               	.L501:
 6652               	.LBB720:
 6653               	.LM913:
 6654 235a F801      		movw r30,r16
 6655 235c 6081      		ld r22,Z
 6656 235e 7181      		ldd r23,Z+1
 6657 2360 CE01      		movw r24,r28
 6658 2362 0E94 0000 		call __eewr_word_m32
 6659               	.LM914:
 6660 2366 F801      		movw r30,r16
 6661 2368 6281      		ldd r22,Z+2
 6662 236a 7381      		ldd r23,Z+3
 6663 236c CE01      		movw r24,r28
 6664 236e 0296      		adiw r24,2
 6665 2370 0E94 0000 		call __eewr_word_m32
 6666 2374 0C5F      		subi r16,lo8(-(4))
 6667 2376 1F4F      		sbci r17,hi8(-(4))
 6668 2378 2496      		adiw r28,4
 6669               	.LM915:
 6670 237a CC33      		cpi r28,60
 6671 237c D105      		cpc r29,__zero_reg__
 6672 237e 01F4      		brne .L501
 6673               	.LBE720:
 6674               	.LM916:
 6675 2380 81E0      		ldi r24,lo8(1)
 6676 2382 60E0      		ldi r22,lo8(0)
 6677 2384 0E94 0000 		call lcd_byte
 6678               	.LM917:
 6679 2388 80E0      		ldi r24,lo8(.LC8)
 6680 238a 90E0      		ldi r25,hi8(.LC8)
 6681 238c 0E94 0000 		call lcd_write_string
 6682               	.LM918:
 6683 2390 81E0      		ldi r24,lo8(1)
 6684 2392 90E0      		ldi r25,hi8(1)
 6685 2394 0E94 0000 		call delay_sec
 6686               	.LM919:
 6687 2398 1092 0000 		sts (right)+1,__zero_reg__
 6688 239c 1092 0000 		sts right,__zero_reg__
 6689               	.LM920:
 6690 23a0 0E94 0000 		call print_path
 6691               	.LBB718:
 6692               	.LBB719:
 6693               	.LM921:
 6694 23a4 AC9A      		sbi 53-32,4
 6695               	.LM922:
 6696 23a6 AD9A      		sbi 53-32,5
 6697               	.LM923:
 6698 23a8 AE9A      		sbi 53-32,6
 6699               	.LM924:
 6700 23aa AF9A      		sbi 53-32,7
 6701               	.L509:
 6702               	.LBE719:
 6703               	.LBE718:
 6704               	.LBB716:
 6705               	.LBB717:
 6706               	.LM925:
 6707 23ac 8299      		sbic 48-32,2
 6708 23ae 00C0      		rjmp .L502
 6709               	.L508:
 6710               	.LBE717:
 6711               	.LBE716:
 6712               	.LM926:
 6713 23b0 81E0      		ldi r24,lo8(1)
 6714 23b2 60E0      		ldi r22,lo8(0)
 6715 23b4 0E94 0000 		call lcd_byte
 6716               	.LM927:
 6717 23b8 81E0      		ldi r24,lo8(1)
 6718 23ba 90E0      		ldi r25,hi8(1)
 6719 23bc 0E94 0000 		call delay_sec
 6720               	.L505:
 6721               	.LBB715:
 6722               	.LM928:
 6723 23c0 F701      		movw r30,r14
 6724 23c2 2081      		ld r18,Z
 6725 23c4 3181      		ldd r19,Z+1
 6726 23c6 2115      		cp r18,__zero_reg__
 6727 23c8 3105      		cpc r19,__zero_reg__
 6728 23ca 01F4      		brne .L503
 6729 23cc 8281      		ldd r24,Z+2
 6730 23ce 9381      		ldd r25,Z+3
 6731 23d0 892B      		or r24,r25
 6732 23d2 01F0      		breq .L514
 6733               	.L503:
 6734               	.LM929:
 6735 23d4 F701      		movw r30,r14
 6736 23d6 6281      		ldd r22,Z+2
 6737 23d8 7381      		ldd r23,Z+3
 6738 23da C901      		movw r24,r18
 6739 23dc 0E94 0000 		call go_to_coordinate
 6740 23e0 84E0      		ldi r24,lo8(4)
 6741 23e2 90E0      		ldi r25,hi8(4)
 6742 23e4 E80E      		add r14,r24
 6743 23e6 F91E      		adc r15,r25
 6744               	.LM930:
 6745 23e8 90E0      		ldi r25,lo8(path_array+60)
 6746 23ea E916      		cp r14,r25
 6747 23ec 90E0      		ldi r25,hi8(path_array+60)
 6748 23ee F906      		cpc r15,r25
 6749 23f0 01F4      		brne .L505
 6750               	.L514:
 6751               	.LBE715:
 6752               	.LBB713:
 6753               	.LBB714:
 6754               	.LM931:
 6755 23f2 AC98      		cbi 53-32,4
 6756               	.LM932:
 6757 23f4 AD98      		cbi 53-32,5
 6758               	.LM933:
 6759 23f6 AE98      		cbi 53-32,6
 6760               	.LM934:
 6761 23f8 AF98      		cbi 53-32,7
 6762 23fa 00C0      		rjmp .L514
 6763               	.L500:
 6764               	.LBE714:
 6765               	.LBE713:
 6766               	.LBE712:
 6767               	.LBB727:
 6768               	.LBB728:
 6769               	.LM935:
 6770 23fc 809B      		sbis 48-32,0
 6771 23fe 00C0      		rjmp .L506
 6772               	.LBE728:
 6773               	.LBE727:
 6774               	.LBB729:
 6775               	.LBB730:
 6776               	.LM936:
 6777 2400 819B      		sbis 48-32,1
 6778 2402 00C0      		rjmp .L506
 6779               	.LBE730:
 6780               	.LBE729:
 6781               	.LBB731:
 6782               	.LBB732:
 6783               	.LM937:
 6784 2404 839B      		sbis 48-32,3
 6785 2406 00C0      		rjmp .L506
 6786 2408 00C0      		rjmp .L507
 6787               	.L502:
 6788               	.LBE732:
 6789               	.LBE731:
 6790               	.LBB733:
 6791               	.LBB721:
 6792               	.LBB722:
 6793               	.LM938:
 6794 240a 809B      		sbis 48-32,0
 6795 240c 00C0      		rjmp .L508
 6796               	.LBE722:
 6797               	.LBE721:
 6798               	.LBB723:
 6799               	.LBB724:
 6800               	.LM939:
 6801 240e 819B      		sbis 48-32,1
 6802 2410 00C0      		rjmp .L508
 6803               	.LBE724:
 6804               	.LBE723:
 6805               	.LBB725:
 6806               	.LBB726:
 6807               	.LM940:
 6808 2412 839B      		sbis 48-32,3
 6809 2414 00C0      		rjmp .L508
 6810 2416 00C0      		rjmp .L509
 6811               	.LBE726:
 6812               	.LBE725:
 6813               	.LBE733:
 6814               	.LFE77:
 6816               		.data
 6817               	.LC9:
 6818 004f 2B20 4465 		.string	"+ Detected"
 6818      7465 6374 
 6818      6564 00
 6819               	.LC10:
 6820 005a 5454 5446 		.string	"TTTF"
 6820      00
 6821               	.LC11:
 6822 005f 5420 4465 		.string	"T Detected"
 6822      7465 6374 
 6822      6564 00
 6823               	.LC12:
 6824 006a 4654 5454 		.string	"FTTT"
 6824      00
 6825               	.LC13:
 6826 006f 4C20 4465 		.string	"L Detected"
 6826      7465 6374 
 6826      6564 00
 6827               	.LC14:
 6828 007a 4654 5446 		.string	"FTTF"
 6828      00
 6829               	.LC15:
 6830 007f 7C2D 2044 		.string	"|- Detected"
 6830      6574 6563 
 6830      7465 6400 
 6831               		.text
 6832               	.global	right_junc_check
 6834               	right_junc_check:
 6835               	.LFB61:
 6836               	.LM941:
 6837               	/* prologue: function */
 6838               	/* frame size = 0 */
 6839               	.LBB734:
 6840               	.LBB735:
 6841               	.LM942:
 6842 2418 8FE8      		ldi r24,lo8(399)
 6843 241a 91E0      		ldi r25,hi8(399)
 6844 241c 9BBD      		out (74)+1-32,r25
 6845 241e 8ABD      		out 74-32,r24
 6846               	.LBE735:
 6847               	.LBE734:
 6848               	.LBB736:
 6849               	.LBB737:
 6850               	.LM943:
 6851 2420 99BD      		out (72)+1-32,r25
 6852 2422 88BD      		out 72-32,r24
 6853               	.LBE737:
 6854               	.LBE736:
 6855               	.LBB738:
 6856               	.LBB739:
 6857               	.LM944:
 6858 2424 AC9A      		sbi 53-32,4
 6859               	.LM945:
 6860 2426 AD9A      		sbi 53-32,5
 6861               	.LM946:
 6862 2428 AE9A      		sbi 53-32,6
 6863               	.LM947:
 6864 242a AF9A      		sbi 53-32,7
 6865               	.LBE739:
 6866               	.LBE738:
 6867               	.LM948:
 6868 242c 81E0      		ldi r24,lo8(1)
 6869 242e 60E0      		ldi r22,lo8(0)
 6870 2430 0E94 0000 		call lcd_byte
 6871               	.LM949:
 6872 2434 2091 0000 		lds r18,irc
 6873 2438 3091 0000 		lds r19,(irc)+1
 6874 243c 87E0      		ldi r24,hi8(2001)
 6875 243e 213D      		cpi r18,lo8(2001)
 6876 2440 3807      		cpc r19,r24
 6877 2442 04F0      		brlt .L516
 6878               	.LM950:
 6879 2444 82E0      		ldi r24,lo8(2)
 6880 2446 90E0      		ldi r25,hi8(2)
 6881 2448 00C0      		rjmp .L531
 6882               	.L516:
 6883               	.LM951:
 6884 244a 81E0      		ldi r24,lo8(1)
 6885 244c 90E0      		ldi r25,hi8(1)
 6886               	.L531:
 6887 244e 9093 0000 		sts (Coordinates_changed_by)+1,r25
 6888 2452 8093 0000 		sts Coordinates_changed_by,r24
 6889               	.LM952:
 6890 2456 232B      		or r18,r19
 6891 2458 01F4      		brne .L518
 6892               	.LM953:
 6893 245a 1092 0000 		sts (Coordinates_changed_by)+1,__zero_reg__
 6894 245e 1092 0000 		sts Coordinates_changed_by,__zero_reg__
 6895               	.L518:
 6896               	.LM954:
 6897 2462 0E94 0000 		call update_coordinates
 6898               	.LM955:
 6899 2466 8091 0000 		lds r24,lcount
 6900 246a 9091 0000 		lds r25,(lcount)+1
 6901 246e 9093 0000 		sts (lcountPrev)+1,r25
 6902 2472 8093 0000 		sts lcountPrev,r24
 6903 2476 00C0      		rjmp .L519
 6904               	.L520:
 6905               	.LM956:
 6906 2478 0E94 0000 		call line_track_new
 6907               	.LM957:
 6908 247c 0E94 0000 		call left_count
 6909               	.L519:
 6910               	.LM958:
 6911 2480 8799      		sbic 48-32,7
 6912 2482 00C0      		rjmp .L520
 6913               	.LM959:
 6914 2484 CE99      		sbic 57-32,6
 6915 2486 00C0      		rjmp .L521
 6916 2488 8699      		sbic 48-32,6
 6917 248a 00C0      		rjmp .L521
 6918 248c CD99      		sbic 57-32,5
 6919 248e 00C0      		rjmp .L521
 6920 2490 CF99      		sbic 57-32,7
 6921 2492 00C0      		rjmp .L521
 6922               	.LM960:
 6923 2494 0E94 0000 		call end_zone
 6924               	.L521:
 6925               	.LBB740:
 6926               	.LBB741:
 6927               	.LM961:
 6928 2498 8FE8      		ldi r24,lo8(399)
 6929 249a 91E0      		ldi r25,hi8(399)
 6930 249c 9BBD      		out (74)+1-32,r25
 6931 249e 8ABD      		out 74-32,r24
 6932               	.LBE741:
 6933               	.LBE740:
 6934               	.LBB742:
 6935               	.LBB743:
 6936               	.LM962:
 6937 24a0 99BD      		out (72)+1-32,r25
 6938 24a2 88BD      		out 72-32,r24
 6939               	.LBE743:
 6940               	.LBE742:
 6941               	.LBB744:
 6942               	.LBB745:
 6943               	.LM963:
 6944 24a4 AC9A      		sbi 53-32,4
 6945               	.LM964:
 6946 24a6 AD9A      		sbi 53-32,5
 6947               	.LM965:
 6948 24a8 AE9A      		sbi 53-32,6
 6949               	.LM966:
 6950 24aa AF9A      		sbi 53-32,7
 6951               	.LBE745:
 6952               	.LBE744:
 6953               	.LM967:
 6954 24ac 81E0      		ldi r24,lo8(1)
 6955 24ae 60E0      		ldi r22,lo8(0)
 6956 24b0 0E94 0000 		call lcd_byte
 6957               	.LM968:
 6958 24b4 4091 0000 		lds r20,lcount
 6959 24b8 5091 0000 		lds r21,(lcount)+1
 6960 24bc 80E0      		ldi r24,lo8(0)
 6961 24be 90E0      		ldi r25,hi8(0)
 6962 24c0 60E0      		ldi r22,lo8(0)
 6963 24c2 70E0      		ldi r23,hi8(0)
 6964 24c4 21E0      		ldi r18,lo8(1)
 6965 24c6 30E0      		ldi r19,hi8(1)
 6966 24c8 0E94 0000 		call lcd_write_int_xy
 6967               	.LM969:
 6968 24cc 8091 0000 		lds r24,repeat
 6969 24d0 9091 0000 		lds r25,(repeat)+1
 6970 24d4 0397      		sbiw r24,3
 6971 24d6 04F0      		brlt .+2
 6972 24d8 00C0      		rjmp .L530
 6973               	.LM970:
 6974 24da CE9B      		sbis 57-32,6
 6975 24dc 00C0      		rjmp .L523
 6976 24de 8699      		sbic 48-32,6
 6977 24e0 00C0      		rjmp .L524
 6978               	.L523:
 6979               	.LM971:
 6980 24e2 81E0      		ldi r24,lo8(1)
 6981 24e4 90E0      		ldi r25,hi8(1)
 6982 24e6 9093 0000 		sts (straight)+1,r25
 6983 24ea 8093 0000 		sts straight,r24
 6984 24ee 00C0      		rjmp .L525
 6985               	.L524:
 6986               	.LM972:
 6987 24f0 1092 0000 		sts (straight)+1,__zero_reg__
 6988 24f4 1092 0000 		sts straight,__zero_reg__
 6989               	.L525:
 6990               	.LM973:
 6991 24f8 0E94 0000 		call turn_right
 6992               	.LM974:
 6993 24fc 1092 0000 		sts (l)+1,__zero_reg__
 6994 2500 1092 0000 		sts l,__zero_reg__
 6995               	.LBB746:
 6996               	.LBB747:
 6997               	.LM975:
 6998 2504 AC9A      		sbi 53-32,4
 6999               	.LM976:
 7000 2506 AD9A      		sbi 53-32,5
 7001               	.LM977:
 7002 2508 AE9A      		sbi 53-32,6
 7003               	.LM978:
 7004 250a AF9A      		sbi 53-32,7
 7005               	.LBE747:
 7006               	.LBE746:
 7007               	.LM979:
 7008 250c 1092 0000 		sts (flag1)+1,__zero_reg__
 7009 2510 1092 0000 		sts flag1,__zero_reg__
 7010               	.LM980:
 7011 2514 1092 0000 		sts (irc)+1,__zero_reg__
 7012 2518 1092 0000 		sts irc,__zero_reg__
 7013               	.LM981:
 7014 251c 2091 0000 		lds r18,lcount
 7015 2520 3091 0000 		lds r19,(lcount)+1
 7016 2524 8091 0000 		lds r24,lcountPrev
 7017 2528 9091 0000 		lds r25,(lcountPrev)+1
 7018 252c 281B      		sub r18,r24
 7019 252e 390B      		sbc r19,r25
 7020 2530 3093 0000 		sts (temp)+1,r19
 7021 2534 2093 0000 		sts temp,r18
 7022               	.LM982:
 7023 2538 8091 0000 		lds r24,straight
 7024 253c 9091 0000 		lds r25,(straight)+1
 7025 2540 8130      		cpi r24,1
 7026 2542 9105      		cpc r25,__zero_reg__
 7027 2544 01F4      		brne .L526
 7028 2546 1216      		cp __zero_reg__,r18
 7029 2548 1306      		cpc __zero_reg__,r19
 7030 254a 04F0      		brlt .+2
 7031 254c 00C0      		rjmp .L527
 7032               	.LM983:
 7033 254e 80E0      		ldi r24,lo8(0)
 7034 2550 90E0      		ldi r25,hi8(0)
 7035 2552 61E0      		ldi r22,lo8(1)
 7036 2554 70E0      		ldi r23,hi8(1)
 7037 2556 40E0      		ldi r20,lo8(.LC9)
 7038 2558 50E0      		ldi r21,hi8(.LC9)
 7039 255a 0E94 0000 		call lcd_write_string_xy
 7040               	.LM984:
 7041 255e 84E5      		ldi r24,lo8(84)
 7042 2560 90E0      		ldi r25,hi8(84)
 7043 2562 64E5      		ldi r22,lo8(84)
 7044 2564 70E0      		ldi r23,hi8(84)
 7045 2566 44E5      		ldi r20,lo8(84)
 7046 2568 50E0      		ldi r21,hi8(84)
 7047 256a 24E5      		ldi r18,lo8(84)
 7048 256c 30E0      		ldi r19,hi8(84)
 7049 256e 00C0      		rjmp .L532
 7050               	.L526:
 7051               	.LM985:
 7052 2570 892B      		or r24,r25
 7053 2572 01F0      		breq .+2
 7054 2574 00C0      		rjmp .L528
 7055 2576 1216      		cp __zero_reg__,r18
 7056 2578 1306      		cpc __zero_reg__,r19
 7057 257a 04F4      		brge .L529
 7058               	.LM986:
 7059 257c 80E0      		ldi r24,lo8(0)
 7060 257e 90E0      		ldi r25,hi8(0)
 7061 2580 61E0      		ldi r22,lo8(1)
 7062 2582 70E0      		ldi r23,hi8(1)
 7063 2584 40E0      		ldi r20,lo8(.LC11)
 7064 2586 50E0      		ldi r21,hi8(.LC11)
 7065 2588 0E94 0000 		call lcd_write_string_xy
 7066               	.LM987:
 7067 258c 86E4      		ldi r24,lo8(70)
 7068 258e 90E0      		ldi r25,hi8(70)
 7069 2590 64E5      		ldi r22,lo8(84)
 7070 2592 70E0      		ldi r23,hi8(84)
 7071 2594 44E5      		ldi r20,lo8(84)
 7072 2596 50E0      		ldi r21,hi8(84)
 7073 2598 24E5      		ldi r18,lo8(84)
 7074 259a 30E0      		ldi r19,hi8(84)
 7075 259c 0E94 0000 		call update_array
 7076               	.LM988:
 7077 25a0 84E0      		ldi r24,lo8(4)
 7078 25a2 90E0      		ldi r25,hi8(4)
 7079 25a4 60E0      		ldi r22,lo8(0)
 7080 25a6 70E0      		ldi r23,hi8(0)
 7081 25a8 40E0      		ldi r20,lo8(.LC12)
 7082 25aa 50E0      		ldi r21,hi8(.LC12)
 7083 25ac 00C0      		rjmp .L533
 7084               	.L529:
 7085               	.LM989:
 7086 25ae 232B      		or r18,r19
 7087 25b0 01F4      		brne .L528
 7088               	.LM990:
 7089 25b2 80E0      		ldi r24,lo8(0)
 7090 25b4 90E0      		ldi r25,hi8(0)
 7091 25b6 61E0      		ldi r22,lo8(1)
 7092 25b8 70E0      		ldi r23,hi8(1)
 7093 25ba 40E0      		ldi r20,lo8(.LC13)
 7094 25bc 50E0      		ldi r21,hi8(.LC13)
 7095 25be 0E94 0000 		call lcd_write_string_xy
 7096               	.LM991:
 7097 25c2 86E4      		ldi r24,lo8(70)
 7098 25c4 90E0      		ldi r25,hi8(70)
 7099 25c6 64E5      		ldi r22,lo8(84)
 7100 25c8 70E0      		ldi r23,hi8(84)
 7101 25ca 44E5      		ldi r20,lo8(84)
 7102 25cc 50E0      		ldi r21,hi8(84)
 7103 25ce 26E4      		ldi r18,lo8(70)
 7104 25d0 30E0      		ldi r19,hi8(70)
 7105 25d2 0E94 0000 		call update_array
 7106               	.LM992:
 7107 25d6 84E0      		ldi r24,lo8(4)
 7108 25d8 90E0      		ldi r25,hi8(4)
 7109 25da 60E0      		ldi r22,lo8(0)
 7110 25dc 70E0      		ldi r23,hi8(0)
 7111 25de 40E0      		ldi r20,lo8(.LC14)
 7112 25e0 50E0      		ldi r21,hi8(.LC14)
 7113 25e2 00C0      		rjmp .L533
 7114               	.L527:
 7115               	.LM993:
 7116 25e4 232B      		or r18,r19
 7117 25e6 01F4      		brne .L528
 7118               	.LM994:
 7119 25e8 80E0      		ldi r24,lo8(0)
 7120 25ea 90E0      		ldi r25,hi8(0)
 7121 25ec 61E0      		ldi r22,lo8(1)
 7122 25ee 70E0      		ldi r23,hi8(1)
 7123 25f0 40E0      		ldi r20,lo8(.LC15)
 7124 25f2 50E0      		ldi r21,hi8(.LC15)
 7125 25f4 0E94 0000 		call lcd_write_string_xy
 7126               	.LM995:
 7127 25f8 84E5      		ldi r24,lo8(84)
 7128 25fa 90E0      		ldi r25,hi8(84)
 7129 25fc 64E5      		ldi r22,lo8(84)
 7130 25fe 70E0      		ldi r23,hi8(84)
 7131 2600 44E5      		ldi r20,lo8(84)
 7132 2602 50E0      		ldi r21,hi8(84)
 7133 2604 26E4      		ldi r18,lo8(70)
 7134 2606 30E0      		ldi r19,hi8(70)
 7135               	.L532:
 7136 2608 0E94 0000 		call update_array
 7137               	.LM996:
 7138 260c 84E0      		ldi r24,lo8(4)
 7139 260e 90E0      		ldi r25,hi8(4)
 7140 2610 60E0      		ldi r22,lo8(0)
 7141 2612 70E0      		ldi r23,hi8(0)
 7142 2614 40E0      		ldi r20,lo8(.LC10)
 7143 2616 50E0      		ldi r21,hi8(.LC10)
 7144               	.L533:
 7145 2618 0E94 0000 		call lcd_write_string_xy
 7146               	.L528:
 7147               	.LM997:
 7148 261c 1092 0000 		sts (temp)+1,__zero_reg__
 7149 2620 1092 0000 		sts temp,__zero_reg__
 7150               	.LM998:
 7151 2624 0E94 0000 		call sense_of_directon
 7152               	.L530:
 7153 2628 0895      		ret
 7154               	.LFE61:
 7156               		.data
 7157               	.LC16:
 7158 008b 4433 2066 		.string	"D3 for dry run"
 7158      6F72 2064 
 7158      7279 2072 
 7158      756E 00
 7159               	.LC17:
 7160 009a 4430 2066 		.string	"D0 for Stst path"
 7160      6F72 2053 
 7160      7473 7420 
 7160      7061 7468 
 7160      00
 7161               		.text
 7162               	.global	main
 7164               	main:
 7165               	.LFB78:
 7166               	.LM999:
 7167 262a EF92      		push r14
 7168 262c FF92      		push r15
 7169 262e 0F93      		push r16
 7170 2630 1F93      		push r17
 7171 2632 CF93      		push r28
 7172 2634 DF93      		push r29
 7173               	/* prologue: function */
 7174               	/* frame size = 0 */
 7175               	.LM1000:
 7176 2636 0E94 0000 		call init_devices
 7177               	.LM1001:
 7178 263a 81E0      		ldi r24,lo8(1)
 7179 263c 60E0      		ldi r22,lo8(0)
 7180 263e 0E94 0000 		call lcd_byte
 7181 2642 20E0      		ldi r18,lo8(0)
 7182 2644 30E0      		ldi r19,hi8(0)
 7183               	.LVL202:
 7184               	.LM1002:
 7185 2646 46E4      		ldi r20,lo8(70)
 7186 2648 00C0      		rjmp .L535
 7187               	.LVL203:
 7188               	.L536:
 7189 264a 4083      		st Z,r20
 7190 264c 4183      		std Z+1,r20
 7191 264e 4283      		std Z+2,r20
 7192 2650 4383      		std Z+3,r20
 7193               	.LM1003:
 7194 2652 0196      		adiw r24,1
 7195 2654 3496      		adiw r30,4
 7196 2656 8031      		cpi r24,16
 7197 2658 9105      		cpc r25,__zero_reg__
 7198 265a 01F4      		brne .L536
 7199               	.LM1004:
 7200 265c 2F5F      		subi r18,lo8(-(1))
 7201 265e 3F4F      		sbci r19,hi8(-(1))
 7202 2660 2031      		cpi r18,16
 7203 2662 3105      		cpc r19,__zero_reg__
 7204 2664 01F0      		breq .L537
 7205               	.L535:
 7206 2666 F901      		movw r30,r18
 7207 2668 66E0      		ldi r22,6
 7208 266a EE0F      	1:	lsl r30
 7209 266c FF1F      		rol r31
 7210 266e 6A95      		dec r22
 7211 2670 01F4      		brne 1b
 7212 2672 E050      		subi r30,lo8(-(dir_array))
 7213 2674 F040      		sbci r31,hi8(-(dir_array))
 7214 2676 80E0      		ldi r24,lo8(0)
 7215 2678 90E0      		ldi r25,hi8(0)
 7216 267a 00C0      		rjmp .L536
 7217               	.L537:
 7218               	.LM1005:
 7219 267c 81E0      		ldi r24,lo8(1)
 7220               	.LVL204:
 7221 267e 60E0      		ldi r22,lo8(0)
 7222 2680 0E94 0000 		call lcd_byte
 7223               	.LVL205:
 7224               	.LM1006:
 7225 2684 80E0      		ldi r24,lo8(.LC16)
 7226 2686 90E0      		ldi r25,hi8(.LC16)
 7227 2688 0E94 0000 		call lcd_write_string
 7228               	.LM1007:
 7229 268c 80E0      		ldi r24,lo8(0)
 7230 268e 90E0      		ldi r25,hi8(0)
 7231 2690 61E0      		ldi r22,lo8(1)
 7232 2692 70E0      		ldi r23,hi8(1)
 7233 2694 40E0      		ldi r20,lo8(.LC17)
 7234 2696 50E0      		ldi r21,hi8(.LC17)
 7235 2698 0E94 0000 		call lcd_write_string_xy
 7236               	.LM1008:
 7237 269c 84E5      		ldi r24,lo8(84)
 7238 269e 66E4      		ldi r22,lo8(70)
 7239 26a0 46E4      		ldi r20,lo8(70)
 7240 26a2 26E4      		ldi r18,lo8(70)
 7241 26a4 0E94 0000 		call update_array
 7242               	.L566:
 7243               	.LBB748:
 7244               	.LBB749:
 7245               	.LM1009:
 7246 26a8 8399      		sbic 48-32,3
 7247 26aa 00C0      		rjmp .L538
 7248               	.L567:
 7249               	.LBE749:
 7250               	.LBE748:
 7251               	.LM1010:
 7252 26ac 1092 0000 		sts (repeat)+1,__zero_reg__
 7253 26b0 1092 0000 		sts repeat,__zero_reg__
 7254 26b4 00C0      		rjmp .L539
 7255               	.L541:
 7256               	.LM1011:
 7257 26b6 0E94 0000 		call line_track_new
 7258               	.LM1012:
 7259 26ba 85B3      		in r24,53-32
 7260 26bc 807F      		andi r24,lo8(-16)
 7261 26be 85BB      		out 53-32,r24
 7262               	.LM1013:
 7263 26c0 85B3      		in r24,53-32
 7264 26c2 9091 0000 		lds r25,sensorbyte
 7265 26c6 892B      		or r24,r25
 7266 26c8 85BB      		out 53-32,r24
 7267               	.LM1014:
 7268 26ca CF99      		sbic 57-32,7
 7269 26cc 00C0      		rjmp .L540
 7270               	.LM1015:
 7271 26ce 0E94 0000 		call right_junc_check
 7272               	.L540:
 7273               	.LM1016:
 7274 26d2 0E94 0000 		call left_junc_check
 7275               	.LM1017:
 7276 26d6 0E94 0000 		call frSensorCheck
 7277               	.LM1018:
 7278 26da 8091 0000 		lds r24,irc
 7279 26de 9091 0000 		lds r25,(irc)+1
 7280 26e2 0196      		adiw r24,1
 7281 26e4 9093 0000 		sts (irc)+1,r25
 7282 26e8 8093 0000 		sts irc,r24
 7283               	.L539:
 7284               	.LM1019:
 7285 26ec 8091 0000 		lds r24,repeat
 7286 26f0 9091 0000 		lds r25,(repeat)+1
 7287 26f4 0397      		sbiw r24,3
 7288 26f6 04F0      		brlt .L541
 7289               	.LBB750:
 7290               	.LBB751:
 7291               	.LM1020:
 7292 26f8 AC9A      		sbi 53-32,4
 7293               	.LM1021:
 7294 26fa AD9A      		sbi 53-32,5
 7295               	.LM1022:
 7296 26fc AE9A      		sbi 53-32,6
 7297               	.LM1023:
 7298 26fe AF9A      		sbi 53-32,7
 7299               	.LBE751:
 7300               	.LBE750:
 7301               	.LM1024:
 7302 2700 0E94 0000 		call fill_missed_array
 7303               	.LM1025:
 7304 2704 1092 0000 		sts (mx)+1,__zero_reg__
 7305 2708 1092 0000 		sts mx,__zero_reg__
 7306               	.LM1026:
 7307 270c 1092 0000 		sts (my)+1,__zero_reg__
 7308 2710 1092 0000 		sts my,__zero_reg__
 7309               	.LM1027:
 7310 2714 0E94 0000 		call coordinates_tobe_reached
 7311               	.LM1028:
 7312 2718 6091 0000 		lds r22,y_coordinate
 7313 271c 7091 0000 		lds r23,(y_coordinate)+1
 7314 2720 4091 0000 		lds r20,mx
 7315 2724 5091 0000 		lds r21,(mx)+1
 7316 2728 2091 0000 		lds r18,my
 7317 272c 3091 0000 		lds r19,(my)+1
 7318 2730 8091 0000 		lds r24,x_coordinate
 7319 2734 9091 0000 		lds r25,(x_coordinate)+1
 7320 2738 0E94 0000 		call build_map
 7321               	.LM1029:
 7322 273c 0E94 0000 		call get_path
 7323               	.LM1030:
 7324 2740 1092 0000 		sts (right)+1,__zero_reg__
 7325 2744 1092 0000 		sts right,__zero_reg__
 7326               	.LM1031:
 7327 2748 0E94 0000 		call print_path
 7328 274c C0E0      		ldi r28,lo8(path_array)
 7329 274e D0E0      		ldi r29,hi8(path_array)
 7330               	.L544:
 7331               	.LBB752:
 7332               	.LM1032:
 7333 2750 2881      		ld r18,Y
 7334 2752 3981      		ldd r19,Y+1
 7335 2754 2115      		cp r18,__zero_reg__
 7336 2756 3105      		cpc r19,__zero_reg__
 7337 2758 01F4      		brne .L542
 7338 275a 8A81      		ldd r24,Y+2
 7339 275c 9B81      		ldd r25,Y+3
 7340 275e 892B      		or r24,r25
 7341 2760 01F0      		breq .L543
 7342               	.L542:
 7343               	.LM1033:
 7344 2762 6A81      		ldd r22,Y+2
 7345 2764 7B81      		ldd r23,Y+3
 7346 2766 C901      		movw r24,r18
 7347 2768 0E94 0000 		call go_to_coordinate
 7348 276c 2496      		adiw r28,4
 7349               	.LM1034:
 7350 276e 80E0      		ldi r24,hi8(path_array+60)
 7351 2770 C030      		cpi r28,lo8(path_array+60)
 7352 2772 D807      		cpc r29,r24
 7353 2774 01F4      		brne .L544
 7354               	.L543:
 7355               	.LBE752:
 7356               	.LM1035:
 7357 2776 0091 0000 		lds r16,x_coordinate
 7358 277a 1091 0000 		lds r17,(x_coordinate)+1
 7359 277e C091 0000 		lds r28,y_coordinate
 7360 2782 D091 0000 		lds r29,(y_coordinate)+1
 7361 2786 F801      		movw r30,r16
 7362 2788 54E0      		ldi r21,4
 7363 278a EE0F      	1:	lsl r30
 7364 278c FF1F      		rol r31
 7365 278e 5A95      		dec r21
 7366 2790 01F4      		brne 1b
 7367 2792 EC0F      		add r30,r28
 7368 2794 FD1F      		adc r31,r29
 7369 2796 EE0F      		lsl r30
 7370 2798 FF1F      		rol r31
 7371 279a EE0F      		lsl r30
 7372 279c FF1F      		rol r31
 7373 279e E050      		subi r30,lo8(-(dir_array))
 7374 27a0 F040      		sbci r31,hi8(-(dir_array))
 7375 27a2 8081      		ld r24,Z
 7376 27a4 8435      		cpi r24,lo8(84)
 7377 27a6 01F4      		brne .L545
 7378 27a8 BE01      		movw r22,r28
 7379 27aa 6F5F      		subi r22,lo8(-(1))
 7380 27ac 7F4F      		sbci r23,hi8(-(1))
 7381 27ae C801      		movw r24,r16
 7382 27b0 0E94 0000 		call is_coordinate_null
 7383 27b4 892B      		or r24,r25
 7384 27b6 01F0      		breq .L545
 7385               	.LM1036:
 7386 27b8 82E0      		ldi r24,lo8(2)
 7387 27ba 90E0      		ldi r25,hi8(2)
 7388 27bc 00C0      		rjmp .L568
 7389               	.L545:
 7390               	.LM1037:
 7391 27be F801      		movw r30,r16
 7392 27c0 34E0      		ldi r19,4
 7393 27c2 EE0F      	1:	lsl r30
 7394 27c4 FF1F      		rol r31
 7395 27c6 3A95      		dec r19
 7396 27c8 01F4      		brne 1b
 7397 27ca EC0F      		add r30,r28
 7398 27cc FD1F      		adc r31,r29
 7399 27ce EE0F      		lsl r30
 7400 27d0 FF1F      		rol r31
 7401 27d2 EE0F      		lsl r30
 7402 27d4 FF1F      		rol r31
 7403 27d6 E050      		subi r30,lo8(-(dir_array))
 7404 27d8 F040      		sbci r31,hi8(-(dir_array))
 7405 27da 8181      		ldd r24,Z+1
 7406 27dc 8435      		cpi r24,lo8(84)
 7407 27de 01F4      		brne .L547
 7408 27e0 C801      		movw r24,r16
 7409 27e2 0196      		adiw r24,1
 7410 27e4 BE01      		movw r22,r28
 7411 27e6 0E94 0000 		call is_coordinate_null
 7412 27ea 892B      		or r24,r25
 7413 27ec 01F0      		breq .L547
 7414               	.LM1038:
 7415 27ee 81E0      		ldi r24,lo8(1)
 7416 27f0 90E0      		ldi r25,hi8(1)
 7417 27f2 00C0      		rjmp .L568
 7418               	.L547:
 7419               	.LM1039:
 7420 27f4 F801      		movw r30,r16
 7421 27f6 94E0      		ldi r25,4
 7422 27f8 EE0F      	1:	lsl r30
 7423 27fa FF1F      		rol r31
 7424 27fc 9A95      		dec r25
 7425 27fe 01F4      		brne 1b
 7426 2800 EC0F      		add r30,r28
 7427 2802 FD1F      		adc r31,r29
 7428 2804 EE0F      		lsl r30
 7429 2806 FF1F      		rol r31
 7430 2808 EE0F      		lsl r30
 7431 280a FF1F      		rol r31
 7432 280c E050      		subi r30,lo8(-(dir_array+2))
 7433 280e F040      		sbci r31,hi8(-(dir_array+2))
 7434 2810 8081      		ld r24,Z
 7435 2812 8435      		cpi r24,lo8(84)
 7436 2814 01F4      		brne .L548
 7437 2816 BE01      		movw r22,r28
 7438 2818 6150      		subi r22,lo8(-(-1))
 7439 281a 7040      		sbci r23,hi8(-(-1))
 7440 281c C801      		movw r24,r16
 7441 281e 0E94 0000 		call is_coordinate_null
 7442 2822 892B      		or r24,r25
 7443 2824 01F0      		breq .L548
 7444               	.LM1040:
 7445 2826 8EEF      		ldi r24,lo8(-2)
 7446 2828 9FEF      		ldi r25,hi8(-2)
 7447 282a 00C0      		rjmp .L568
 7448               	.L548:
 7449               	.LM1041:
 7450 282c F801      		movw r30,r16
 7451 282e B4E0      		ldi r27,4
 7452 2830 EE0F      	1:	lsl r30
 7453 2832 FF1F      		rol r31
 7454 2834 BA95      		dec r27
 7455 2836 01F4      		brne 1b
 7456 2838 EC0F      		add r30,r28
 7457 283a FD1F      		adc r31,r29
 7458 283c EE0F      		lsl r30
 7459 283e FF1F      		rol r31
 7460 2840 EE0F      		lsl r30
 7461 2842 FF1F      		rol r31
 7462 2844 E050      		subi r30,lo8(-(dir_array))
 7463 2846 F040      		sbci r31,hi8(-(dir_array))
 7464 2848 8381      		ldd r24,Z+3
 7465 284a 8435      		cpi r24,lo8(84)
 7466 284c 01F4      		brne .L564
 7467 284e C801      		movw r24,r16
 7468 2850 0197      		sbiw r24,1
 7469 2852 BE01      		movw r22,r28
 7470 2854 0E94 0000 		call is_coordinate_null
 7471 2858 892B      		or r24,r25
 7472 285a 01F0      		breq .L564
 7473               	.LM1042:
 7474 285c 8FEF      		ldi r24,lo8(-1)
 7475 285e 9FEF      		ldi r25,hi8(-1)
 7476               	.L568:
 7477 2860 0E94 0000 		call checkAndCorrectDirection
 7478 2864 00C0      		rjmp .L564
 7479               	.L549:
 7480               	.LM1043:
 7481 2866 0E94 0000 		call line_track_new
 7482               	.L564:
 7483               	.LM1044:
 7484 286a CC9B      		sbis 57-32,4
 7485 286c 00C0      		rjmp .L549
 7486 286e 879B      		sbis 48-32,7
 7487 2870 00C0      		rjmp .L549
 7488               	.LBB753:
 7489               	.LBB754:
 7490               	.LM1045:
 7491 2872 AC9A      		sbi 53-32,4
 7492               	.LM1046:
 7493 2874 AD9A      		sbi 53-32,5
 7494               	.LM1047:
 7495 2876 AE9A      		sbi 53-32,6
 7496               	.LM1048:
 7497 2878 AF9A      		sbi 53-32,7
 7498               	.LBE754:
 7499               	.LBE753:
 7500               	.LM1049:
 7501 287a 1092 0000 		sts (Coordinates_changed_by)+1,__zero_reg__
 7502 287e 1092 0000 		sts Coordinates_changed_by,__zero_reg__
 7503               	.LM1050:
 7504 2882 1092 0000 		sts (irc)+1,__zero_reg__
 7505 2886 1092 0000 		sts irc,__zero_reg__
 7506               	.LM1051:
 7507 288a 1092 0000 		sts (special_flag)+1,__zero_reg__
 7508 288e 1092 0000 		sts special_flag,__zero_reg__
 7509 2892 00C0      		rjmp .L567
 7510               	.L551:
 7511               	.LBB755:
 7512               	.LBB759:
 7513               	.LM1052:
 7514 2894 CE01      		movw r24,r28
 7515 2896 0E94 0000 		call __eerd_word_m32
 7516 289a F801      		movw r30,r16
 7517 289c 9183      		std Z+1,r25
 7518 289e 8083      		st Z,r24
 7519               	.LM1053:
 7520 28a0 CE01      		movw r24,r28
 7521 28a2 0296      		adiw r24,2
 7522 28a4 0E94 0000 		call __eerd_word_m32
 7523 28a8 F801      		movw r30,r16
 7524 28aa 9383      		std Z+3,r25
 7525 28ac 8283      		std Z+2,r24
 7526 28ae 2496      		adiw r28,4
 7527 28b0 0C5F      		subi r16,lo8(-(4))
 7528 28b2 1F4F      		sbci r17,hi8(-(4))
 7529               	.LM1054:
 7530 28b4 CC33      		cpi r28,60
 7531 28b6 D105      		cpc r29,__zero_reg__
 7532 28b8 01F4      		brne .L551
 7533               	.LBE759:
 7534               	.LM1055:
 7535 28ba 81E0      		ldi r24,lo8(1)
 7536 28bc 60E0      		ldi r22,lo8(0)
 7537 28be 0E94 0000 		call lcd_byte
 7538               	.LM1056:
 7539 28c2 4091 0000 		lds r20,path_array
 7540 28c6 5091 0000 		lds r21,(path_array)+1
 7541 28ca 80E0      		ldi r24,lo8(0)
 7542 28cc 90E0      		ldi r25,hi8(0)
 7543 28ce 60E0      		ldi r22,lo8(0)
 7544 28d0 70E0      		ldi r23,hi8(0)
 7545 28d2 21E0      		ldi r18,lo8(1)
 7546 28d4 30E0      		ldi r19,hi8(1)
 7547 28d6 0E94 0000 		call lcd_write_int_xy
 7548               	.LM1057:
 7549 28da 4091 0000 		lds r20,path_array+2
 7550 28de 5091 0000 		lds r21,(path_array+2)+1
 7551 28e2 81E0      		ldi r24,lo8(1)
 7552 28e4 90E0      		ldi r25,hi8(1)
 7553 28e6 60E0      		ldi r22,lo8(0)
 7554 28e8 70E0      		ldi r23,hi8(0)
 7555 28ea 21E0      		ldi r18,lo8(1)
 7556 28ec 30E0      		ldi r19,hi8(1)
 7557 28ee 0E94 0000 		call lcd_write_int_xy
 7558               	.LM1058:
 7559 28f2 4091 0000 		lds r20,path_array+4
 7560 28f6 5091 0000 		lds r21,(path_array+4)+1
 7561 28fa 83E0      		ldi r24,lo8(3)
 7562 28fc 90E0      		ldi r25,hi8(3)
 7563 28fe 60E0      		ldi r22,lo8(0)
 7564 2900 70E0      		ldi r23,hi8(0)
 7565 2902 21E0      		ldi r18,lo8(1)
 7566 2904 30E0      		ldi r19,hi8(1)
 7567 2906 0E94 0000 		call lcd_write_int_xy
 7568               	.LM1059:
 7569 290a 4091 0000 		lds r20,path_array+6
 7570 290e 5091 0000 		lds r21,(path_array+6)+1
 7571 2912 84E0      		ldi r24,lo8(4)
 7572 2914 90E0      		ldi r25,hi8(4)
 7573 2916 60E0      		ldi r22,lo8(0)
 7574 2918 70E0      		ldi r23,hi8(0)
 7575 291a 21E0      		ldi r18,lo8(1)
 7576 291c 30E0      		ldi r19,hi8(1)
 7577 291e 0E94 0000 		call lcd_write_int_xy
 7578               	.LM1060:
 7579 2922 4091 0000 		lds r20,path_array+8
 7580 2926 5091 0000 		lds r21,(path_array+8)+1
 7581 292a 86E0      		ldi r24,lo8(6)
 7582 292c 90E0      		ldi r25,hi8(6)
 7583 292e 60E0      		ldi r22,lo8(0)
 7584 2930 70E0      		ldi r23,hi8(0)
 7585 2932 21E0      		ldi r18,lo8(1)
 7586 2934 30E0      		ldi r19,hi8(1)
 7587 2936 0E94 0000 		call lcd_write_int_xy
 7588               	.LM1061:
 7589 293a 4091 0000 		lds r20,path_array+10
 7590 293e 5091 0000 		lds r21,(path_array+10)+1
 7591 2942 87E0      		ldi r24,lo8(7)
 7592 2944 90E0      		ldi r25,hi8(7)
 7593 2946 60E0      		ldi r22,lo8(0)
 7594 2948 70E0      		ldi r23,hi8(0)
 7595 294a 21E0      		ldi r18,lo8(1)
 7596 294c 30E0      		ldi r19,hi8(1)
 7597 294e 0E94 0000 		call lcd_write_int_xy
 7598               	.LM1062:
 7599 2952 4091 0000 		lds r20,path_array+12
 7600 2956 5091 0000 		lds r21,(path_array+12)+1
 7601 295a 89E0      		ldi r24,lo8(9)
 7602 295c 90E0      		ldi r25,hi8(9)
 7603 295e 60E0      		ldi r22,lo8(0)
 7604 2960 70E0      		ldi r23,hi8(0)
 7605 2962 21E0      		ldi r18,lo8(1)
 7606 2964 30E0      		ldi r19,hi8(1)
 7607 2966 0E94 0000 		call lcd_write_int_xy
 7608               	.LM1063:
 7609 296a 4091 0000 		lds r20,path_array+14
 7610 296e 5091 0000 		lds r21,(path_array+14)+1
 7611 2972 8AE0      		ldi r24,lo8(10)
 7612 2974 90E0      		ldi r25,hi8(10)
 7613 2976 60E0      		ldi r22,lo8(0)
 7614 2978 70E0      		ldi r23,hi8(0)
 7615 297a 21E0      		ldi r18,lo8(1)
 7616 297c 30E0      		ldi r19,hi8(1)
 7617 297e 0E94 0000 		call lcd_write_int_xy
 7618               	.LM1064:
 7619 2982 4091 0000 		lds r20,path_array+16
 7620 2986 5091 0000 		lds r21,(path_array+16)+1
 7621 298a 8CE0      		ldi r24,lo8(12)
 7622 298c 90E0      		ldi r25,hi8(12)
 7623 298e 60E0      		ldi r22,lo8(0)
 7624 2990 70E0      		ldi r23,hi8(0)
 7625 2992 21E0      		ldi r18,lo8(1)
 7626 2994 30E0      		ldi r19,hi8(1)
 7627 2996 0E94 0000 		call lcd_write_int_xy
 7628               	.LM1065:
 7629 299a 4091 0000 		lds r20,path_array+18
 7630 299e 5091 0000 		lds r21,(path_array+18)+1
 7631 29a2 8DE0      		ldi r24,lo8(13)
 7632 29a4 90E0      		ldi r25,hi8(13)
 7633 29a6 60E0      		ldi r22,lo8(0)
 7634 29a8 70E0      		ldi r23,hi8(0)
 7635 29aa 21E0      		ldi r18,lo8(1)
 7636 29ac 30E0      		ldi r19,hi8(1)
 7637 29ae 0E94 0000 		call lcd_write_int_xy
 7638               	.LM1066:
 7639 29b2 4091 0000 		lds r20,path_array+20
 7640 29b6 5091 0000 		lds r21,(path_array+20)+1
 7641 29ba 80E0      		ldi r24,lo8(0)
 7642 29bc 90E0      		ldi r25,hi8(0)
 7643 29be 61E0      		ldi r22,lo8(1)
 7644 29c0 70E0      		ldi r23,hi8(1)
 7645 29c2 21E0      		ldi r18,lo8(1)
 7646 29c4 30E0      		ldi r19,hi8(1)
 7647 29c6 0E94 0000 		call lcd_write_int_xy
 7648               	.LM1067:
 7649 29ca 4091 0000 		lds r20,path_array+22
 7650 29ce 5091 0000 		lds r21,(path_array+22)+1
 7651 29d2 81E0      		ldi r24,lo8(1)
 7652 29d4 90E0      		ldi r25,hi8(1)
 7653 29d6 61E0      		ldi r22,lo8(1)
 7654 29d8 70E0      		ldi r23,hi8(1)
 7655 29da 21E0      		ldi r18,lo8(1)
 7656 29dc 30E0      		ldi r19,hi8(1)
 7657 29de 0E94 0000 		call lcd_write_int_xy
 7658               	.L557:
 7659               	.LBB757:
 7660               	.LBB758:
 7661               	.LM1068:
 7662 29e2 8299      		sbic 48-32,2
 7663 29e4 00C0      		rjmp .L552
 7664               	.L556:
 7665               	.LBE758:
 7666               	.LBE757:
 7667               	.LM1069:
 7668 29e6 81E0      		ldi r24,lo8(1)
 7669 29e8 60E0      		ldi r22,lo8(0)
 7670 29ea 0E94 0000 		call lcd_byte
 7671               	.LM1070:
 7672 29ee 81E0      		ldi r24,lo8(1)
 7673 29f0 90E0      		ldi r25,hi8(1)
 7674 29f2 0E94 0000 		call delay_sec
 7675               	.L555:
 7676               	.LBB756:
 7677               	.LM1071:
 7678 29f6 F701      		movw r30,r14
 7679 29f8 2081      		ld r18,Z
 7680 29fa 3181      		ldd r19,Z+1
 7681 29fc 2115      		cp r18,__zero_reg__
 7682 29fe 3105      		cpc r19,__zero_reg__
 7683 2a00 01F4      		brne .L553
 7684 2a02 8281      		ldd r24,Z+2
 7685 2a04 9381      		ldd r25,Z+3
 7686 2a06 892B      		or r24,r25
 7687 2a08 01F4      		brne .+2
 7688 2a0a 00C0      		rjmp .L566
 7689               	.L553:
 7690               	.LM1072:
 7691 2a0c F701      		movw r30,r14
 7692 2a0e 6281      		ldd r22,Z+2
 7693 2a10 7381      		ldd r23,Z+3
 7694 2a12 C901      		movw r24,r18
 7695 2a14 0E94 0000 		call go_to_coordinate
 7696 2a18 84E0      		ldi r24,lo8(4)
 7697 2a1a 90E0      		ldi r25,hi8(4)
 7698 2a1c E80E      		add r14,r24
 7699 2a1e F91E      		adc r15,r25
 7700               	.LM1073:
 7701 2a20 90E0      		ldi r25,lo8(path_array+60)
 7702 2a22 E916      		cp r14,r25
 7703 2a24 90E0      		ldi r25,hi8(path_array+60)
 7704 2a26 F906      		cpc r15,r25
 7705 2a28 01F4      		brne .L555
 7706 2a2a 00C0      		rjmp .L566
 7707               	.L538:
 7708               	.LBE756:
 7709               	.LBE755:
 7710               	.LBB766:
 7711               	.LBB767:
 7712               	.LM1074:
 7713 2a2c 8099      		sbic 48-32,0
 7714 2a2e 00C0      		rjmp .L566
 7715 2a30 70E0      		ldi r23,lo8(path_array)
 7716 2a32 E72E      		mov r14,r23
 7717 2a34 70E0      		ldi r23,hi8(path_array)
 7718 2a36 F72E      		mov r15,r23
 7719 2a38 8701      		movw r16,r14
 7720 2a3a C0E0      		ldi r28,lo8(0)
 7721 2a3c D0E0      		ldi r29,hi8(0)
 7722 2a3e 00C0      		rjmp .L551
 7723               	.L552:
 7724               	.LBE767:
 7725               	.LBE766:
 7726               	.LBB768:
 7727               	.LBB760:
 7728               	.LBB761:
 7729 2a40 809B      		sbis 48-32,0
 7730 2a42 00C0      		rjmp .L556
 7731               	.LBE761:
 7732               	.LBE760:
 7733               	.LBB762:
 7734               	.LBB763:
 7735               	.LM1075:
 7736 2a44 819B      		sbis 48-32,1
 7737 2a46 00C0      		rjmp .L556
 7738               	.LBE763:
 7739               	.LBE762:
 7740               	.LBB764:
 7741               	.LBB765:
 7742               	.LM1076:
 7743 2a48 839B      		sbis 48-32,3
 7744 2a4a 00C0      		rjmp .L556
 7745 2a4c 00C0      		rjmp .L557
 7746               	.LBE765:
 7747               	.LBE764:
 7748               	.LBE768:
 7749               	.LFE78:
 7751               	.global	map_all
 7753               	map_all:
 7754               	.LFB75:
 7755               	.LM1077:
 7756 2a4e EF92      		push r14
 7757 2a50 FF92      		push r15
 7758 2a52 0F93      		push r16
 7759 2a54 1F93      		push r17
 7760 2a56 CF93      		push r28
 7761 2a58 DF93      		push r29
 7762               	/* prologue: function */
 7763               	/* frame size = 0 */
 7764               	.LBB769:
 7765               	.LBB770:
 7766               	.LM1078:
 7767 2a5a 5FE8      		ldi r21,lo8(399)
 7768 2a5c E52E      		mov r14,r21
 7769 2a5e 51E0      		ldi r21,hi8(399)
 7770 2a60 F52E      		mov r15,r21
 7771               	.L587:
 7772               	.LBE770:
 7773               	.LBE769:
 7774               	.LBB772:
 7775               	.LBB773:
 7776               	.LM1079:
 7777 2a62 AC9A      		sbi 53-32,4
 7778               	.LM1080:
 7779 2a64 AD9A      		sbi 53-32,5
 7780               	.LM1081:
 7781 2a66 AE9A      		sbi 53-32,6
 7782               	.LM1082:
 7783 2a68 AF9A      		sbi 53-32,7
 7784               	.LBE773:
 7785               	.LBE772:
 7786               	.LM1083:
 7787 2a6a 6091 0000 		lds r22,y_coordinate
 7788 2a6e 7091 0000 		lds r23,(y_coordinate)+1
 7789 2a72 4091 0000 		lds r20,mx
 7790 2a76 5091 0000 		lds r21,(mx)+1
 7791 2a7a 2091 0000 		lds r18,my
 7792 2a7e 3091 0000 		lds r19,(my)+1
 7793 2a82 8091 0000 		lds r24,x_coordinate
 7794 2a86 9091 0000 		lds r25,(x_coordinate)+1
 7795 2a8a 0E94 0000 		call build_map
 7796               	.LM1084:
 7797 2a8e 0E94 0000 		call get_path
 7798               	.LM1085:
 7799 2a92 1092 0000 		sts (right)+1,__zero_reg__
 7800 2a96 1092 0000 		sts right,__zero_reg__
 7801               	.LM1086:
 7802 2a9a 0E94 0000 		call print_path
 7803 2a9e C0E0      		ldi r28,lo8(path_array)
 7804 2aa0 D0E0      		ldi r29,hi8(path_array)
 7805               	.L572:
 7806               	.LBB774:
 7807               	.LM1087:
 7808 2aa2 2881      		ld r18,Y
 7809 2aa4 3981      		ldd r19,Y+1
 7810 2aa6 2115      		cp r18,__zero_reg__
 7811 2aa8 3105      		cpc r19,__zero_reg__
 7812 2aaa 01F4      		brne .L570
 7813 2aac 8A81      		ldd r24,Y+2
 7814 2aae 9B81      		ldd r25,Y+3
 7815 2ab0 892B      		or r24,r25
 7816 2ab2 01F0      		breq .L571
 7817               	.L570:
 7818               	.LM1088:
 7819 2ab4 6A81      		ldd r22,Y+2
 7820 2ab6 7B81      		ldd r23,Y+3
 7821 2ab8 C901      		movw r24,r18
 7822 2aba 0E94 0000 		call go_to_coordinate
 7823 2abe 2496      		adiw r28,4
 7824               	.LM1089:
 7825 2ac0 80E0      		ldi r24,hi8(path_array+60)
 7826 2ac2 C030      		cpi r28,lo8(path_array+60)
 7827 2ac4 D807      		cpc r29,r24
 7828 2ac6 01F4      		brne .L572
 7829               	.L571:
 7830               	.LBE774:
 7831               	.LM1090:
 7832 2ac8 0091 0000 		lds r16,x_coordinate
 7833 2acc 1091 0000 		lds r17,(x_coordinate)+1
 7834 2ad0 C091 0000 		lds r28,y_coordinate
 7835 2ad4 D091 0000 		lds r29,(y_coordinate)+1
 7836 2ad8 F801      		movw r30,r16
 7837 2ada 44E0      		ldi r20,4
 7838 2adc EE0F      	1:	lsl r30
 7839 2ade FF1F      		rol r31
 7840 2ae0 4A95      		dec r20
 7841 2ae2 01F4      		brne 1b
 7842 2ae4 EC0F      		add r30,r28
 7843 2ae6 FD1F      		adc r31,r29
 7844 2ae8 EE0F      		lsl r30
 7845 2aea FF1F      		rol r31
 7846 2aec EE0F      		lsl r30
 7847 2aee FF1F      		rol r31
 7848 2af0 E050      		subi r30,lo8(-(dir_array))
 7849 2af2 F040      		sbci r31,hi8(-(dir_array))
 7850 2af4 8081      		ld r24,Z
 7851 2af6 8435      		cpi r24,lo8(84)
 7852 2af8 01F4      		brne .L573
 7853 2afa BE01      		movw r22,r28
 7854 2afc 6F5F      		subi r22,lo8(-(1))
 7855 2afe 7F4F      		sbci r23,hi8(-(1))
 7856 2b00 C801      		movw r24,r16
 7857 2b02 0E94 0000 		call is_coordinate_null
 7858 2b06 892B      		or r24,r25
 7859 2b08 01F0      		breq .L573
 7860               	.LM1091:
 7861 2b0a 82E0      		ldi r24,lo8(2)
 7862 2b0c 90E0      		ldi r25,hi8(2)
 7863 2b0e 00C0      		rjmp .L588
 7864               	.L573:
 7865               	.LM1092:
 7866 2b10 F801      		movw r30,r16
 7867 2b12 24E0      		ldi r18,4
 7868 2b14 EE0F      	1:	lsl r30
 7869 2b16 FF1F      		rol r31
 7870 2b18 2A95      		dec r18
 7871 2b1a 01F4      		brne 1b
 7872 2b1c EC0F      		add r30,r28
 7873 2b1e FD1F      		adc r31,r29
 7874 2b20 EE0F      		lsl r30
 7875 2b22 FF1F      		rol r31
 7876 2b24 EE0F      		lsl r30
 7877 2b26 FF1F      		rol r31
 7878 2b28 E050      		subi r30,lo8(-(dir_array))
 7879 2b2a F040      		sbci r31,hi8(-(dir_array))
 7880 2b2c 8181      		ldd r24,Z+1
 7881 2b2e 8435      		cpi r24,lo8(84)
 7882 2b30 01F4      		brne .L575
 7883 2b32 C801      		movw r24,r16
 7884 2b34 0196      		adiw r24,1
 7885 2b36 BE01      		movw r22,r28
 7886 2b38 0E94 0000 		call is_coordinate_null
 7887 2b3c 892B      		or r24,r25
 7888 2b3e 01F0      		breq .L575
 7889               	.LM1093:
 7890 2b40 81E0      		ldi r24,lo8(1)
 7891 2b42 90E0      		ldi r25,hi8(1)
 7892 2b44 00C0      		rjmp .L588
 7893               	.L575:
 7894               	.LM1094:
 7895 2b46 F801      		movw r30,r16
 7896 2b48 84E0      		ldi r24,4
 7897 2b4a EE0F      	1:	lsl r30
 7898 2b4c FF1F      		rol r31
 7899 2b4e 8A95      		dec r24
 7900 2b50 01F4      		brne 1b
 7901 2b52 EC0F      		add r30,r28
 7902 2b54 FD1F      		adc r31,r29
 7903 2b56 EE0F      		lsl r30
 7904 2b58 FF1F      		rol r31
 7905 2b5a EE0F      		lsl r30
 7906 2b5c FF1F      		rol r31
 7907 2b5e E050      		subi r30,lo8(-(dir_array+2))
 7908 2b60 F040      		sbci r31,hi8(-(dir_array+2))
 7909 2b62 8081      		ld r24,Z
 7910 2b64 8435      		cpi r24,lo8(84)
 7911 2b66 01F4      		brne .L576
 7912 2b68 BE01      		movw r22,r28
 7913 2b6a 6150      		subi r22,lo8(-(-1))
 7914 2b6c 7040      		sbci r23,hi8(-(-1))
 7915 2b6e C801      		movw r24,r16
 7916 2b70 0E94 0000 		call is_coordinate_null
 7917 2b74 892B      		or r24,r25
 7918 2b76 01F0      		breq .L576
 7919               	.LM1095:
 7920 2b78 8EEF      		ldi r24,lo8(-2)
 7921 2b7a 9FEF      		ldi r25,hi8(-2)
 7922 2b7c 00C0      		rjmp .L588
 7923               	.L576:
 7924               	.LM1096:
 7925 2b7e F801      		movw r30,r16
 7926 2b80 A4E0      		ldi r26,4
 7927 2b82 EE0F      	1:	lsl r30
 7928 2b84 FF1F      		rol r31
 7929 2b86 AA95      		dec r26
 7930 2b88 01F4      		brne 1b
 7931 2b8a EC0F      		add r30,r28
 7932 2b8c FD1F      		adc r31,r29
 7933 2b8e EE0F      		lsl r30
 7934 2b90 FF1F      		rol r31
 7935 2b92 EE0F      		lsl r30
 7936 2b94 FF1F      		rol r31
 7937 2b96 E050      		subi r30,lo8(-(dir_array))
 7938 2b98 F040      		sbci r31,hi8(-(dir_array))
 7939 2b9a 8381      		ldd r24,Z+3
 7940 2b9c 8435      		cpi r24,lo8(84)
 7941 2b9e 01F4      		brne .L585
 7942 2ba0 C801      		movw r24,r16
 7943 2ba2 0197      		sbiw r24,1
 7944 2ba4 BE01      		movw r22,r28
 7945 2ba6 0E94 0000 		call is_coordinate_null
 7946 2baa 892B      		or r24,r25
 7947 2bac 01F0      		breq .L585
 7948               	.LM1097:
 7949 2bae 8FEF      		ldi r24,lo8(-1)
 7950 2bb0 9FEF      		ldi r25,hi8(-1)
 7951               	.L588:
 7952 2bb2 0E94 0000 		call checkAndCorrectDirection
 7953 2bb6 00C0      		rjmp .L585
 7954               	.L577:
 7955               	.LM1098:
 7956 2bb8 0E94 0000 		call line_track_new
 7957               	.L585:
 7958               	.LM1099:
 7959 2bbc CC9B      		sbis 57-32,4
 7960 2bbe 00C0      		rjmp .L577
 7961 2bc0 879B      		sbis 48-32,7
 7962 2bc2 00C0      		rjmp .L577
 7963               	.LBB775:
 7964               	.LBB776:
 7965               	.LM1100:
 7966 2bc4 AC9A      		sbi 53-32,4
 7967               	.LM1101:
 7968 2bc6 AD9A      		sbi 53-32,5
 7969               	.LM1102:
 7970 2bc8 AE9A      		sbi 53-32,6
 7971               	.LM1103:
 7972 2bca AF9A      		sbi 53-32,7
 7973               	.LBE776:
 7974               	.LBE775:
 7975               	.LM1104:
 7976 2bcc 1092 0000 		sts (Coordinates_changed_by)+1,__zero_reg__
 7977 2bd0 1092 0000 		sts Coordinates_changed_by,__zero_reg__
 7978               	.LM1105:
 7979 2bd4 1092 0000 		sts (irc)+1,__zero_reg__
 7980 2bd8 1092 0000 		sts irc,__zero_reg__
 7981               	.LM1106:
 7982 2bdc 1092 0000 		sts (special_flag)+1,__zero_reg__
 7983 2be0 1092 0000 		sts special_flag,__zero_reg__
 7984               	.LM1107:
 7985 2be4 1092 0000 		sts (repeat)+1,__zero_reg__
 7986 2be8 1092 0000 		sts repeat,__zero_reg__
 7987 2bec 00C0      		rjmp .L578
 7988               	.L580:
 7989               	.LM1108:
 7990 2bee 0E94 0000 		call line_track_new
 7991               	.LM1109:
 7992 2bf2 85B3      		in r24,53-32
 7993 2bf4 807F      		andi r24,lo8(-16)
 7994 2bf6 85BB      		out 53-32,r24
 7995               	.LM1110:
 7996 2bf8 85B3      		in r24,53-32
 7997 2bfa 9091 0000 		lds r25,sensorbyte
 7998 2bfe 892B      		or r24,r25
 7999 2c00 85BB      		out 53-32,r24
 8000               	.LM1111:
 8001 2c02 CF99      		sbic 57-32,7
 8002 2c04 00C0      		rjmp .L579
 8003               	.LM1112:
 8004 2c06 0E94 0000 		call right_junc_check
 8005               	.L579:
 8006               	.LM1113:
 8007 2c0a 0E94 0000 		call left_junc_check
 8008               	.LM1114:
 8009 2c0e 0E94 0000 		call frSensorCheck
 8010               	.LM1115:
 8011 2c12 8091 0000 		lds r24,irc
 8012 2c16 9091 0000 		lds r25,(irc)+1
 8013 2c1a 0196      		adiw r24,1
 8014 2c1c 9093 0000 		sts (irc)+1,r25
 8015 2c20 8093 0000 		sts irc,r24
 8016               	.L578:
 8017               	.LM1116:
 8018 2c24 8091 0000 		lds r24,repeat
 8019 2c28 9091 0000 		lds r25,(repeat)+1
 8020 2c2c 0397      		sbiw r24,3
 8021 2c2e 04F0      		brlt .L580
 8022               	.LBB777:
 8023               	.LBB771:
 8024               	.LM1117:
 8025 2c30 FBBC      		out (74)+1-32,r15
 8026 2c32 EABC      		out 74-32,r14
 8027               	.LBE771:
 8028               	.LBE777:
 8029               	.LBB778:
 8030               	.LBB779:
 8031               	.LM1118:
 8032 2c34 F9BC      		out (72)+1-32,r15
 8033 2c36 E8BC      		out 72-32,r14
 8034               	.LBE779:
 8035               	.LBE778:
 8036               	.LBB780:
 8037               	.LBB781:
 8038               	.LM1119:
 8039 2c38 AC9A      		sbi 53-32,4
 8040               	.LM1120:
 8041 2c3a AD9A      		sbi 53-32,5
 8042               	.LM1121:
 8043 2c3c AE9A      		sbi 53-32,6
 8044               	.LM1122:
 8045 2c3e AF9A      		sbi 53-32,7
 8046               	.LBE781:
 8047               	.LBE780:
 8048               	.LM1123:
 8049 2c40 0E94 0000 		call fill_missed_array
 8050               	.LM1124:
 8051 2c44 1092 0000 		sts (mx)+1,__zero_reg__
 8052 2c48 1092 0000 		sts mx,__zero_reg__
 8053               	.LM1125:
 8054 2c4c 1092 0000 		sts (my)+1,__zero_reg__
 8055 2c50 1092 0000 		sts my,__zero_reg__
 8056               	.LM1126:
 8057 2c54 0E94 0000 		call coordinates_tobe_reached
 8058               	.LM1127:
 8059 2c58 8091 0000 		lds r24,mx
 8060 2c5c 9091 0000 		lds r25,(mx)+1
 8061 2c60 892B      		or r24,r25
 8062 2c62 01F0      		breq .+2
 8063 2c64 00C0      		rjmp .L587
 8064 2c66 8091 0000 		lds r24,my
 8065 2c6a 9091 0000 		lds r25,(my)+1
 8066 2c6e 892B      		or r24,r25
 8067 2c70 01F0      		breq .+2
 8068 2c72 00C0      		rjmp .L587
 8069               	/* epilogue start */
 8070               	.LM1128:
 8071 2c74 DF91      		pop r29
 8072 2c76 CF91      		pop r28
 8073 2c78 1F91      		pop r17
 8074 2c7a 0F91      		pop r16
 8075 2c7c FF90      		pop r15
 8076 2c7e EF90      		pop r14
 8077 2c80 0895      		ret
 8078               	.LFE75:
 8080               	.global	retrieve_threshold
 8082               	retrieve_threshold:
 8083               	.LFB52:
 8084               	.LM1129:
 8085               	/* prologue: function */
 8086               	/* frame size = 0 */
 8087               	.LBB782:
 8088               	.LM1130:
 8089 2c82 80E0      		ldi r24,lo8(0)
 8090 2c84 90E0      		ldi r25,hi8(0)
 8091 2c86 0E94 0000 		call __eerd_byte_m32
 8092 2c8a 8093 0000 		sts threshold1,r24
 8093 2c8e 81E0      		ldi r24,lo8(1)
 8094 2c90 90E0      		ldi r25,hi8(1)
 8095 2c92 0E94 0000 		call __eerd_byte_m32
 8096 2c96 8093 0000 		sts threshold1+1,r24
 8097 2c9a 82E0      		ldi r24,lo8(2)
 8098 2c9c 90E0      		ldi r25,hi8(2)
 8099 2c9e 0E94 0000 		call __eerd_byte_m32
 8100 2ca2 8093 0000 		sts threshold1+2,r24
 8101 2ca6 83E0      		ldi r24,lo8(3)
 8102 2ca8 90E0      		ldi r25,hi8(3)
 8103 2caa 0E94 0000 		call __eerd_byte_m32
 8104 2cae 8093 0000 		sts threshold1+3,r24
 8105               	/* epilogue start */
 8106               	.LBE782:
 8107               	.LM1131:
 8108 2cb2 0895      		ret
 8109               	.LFE52:
 8111               	.global	set_threshold
 8113               	set_threshold:
 8114               	.LFB17:
 8115               	.LM1132:
 8116 2cb4 CF93      		push r28
 8117 2cb6 DF93      		push r29
 8118               	/* prologue: function */
 8119               	/* frame size = 0 */
 8120               	.LM1133:
 8121 2cb8 2091 0000 		lds r18,min
 8122 2cbc 8091 0000 		lds r24,max
 8123 2cc0 90E0      		ldi r25,lo8(0)
 8124 2cc2 820F      		add r24,r18
 8125 2cc4 911D      		adc r25,__zero_reg__
 8126 2cc6 9595      		asr r25
 8127 2cc8 8795      		ror r24
 8128 2cca 8093 0000 		sts threshold1,r24
 8129 2cce 2091 0000 		lds r18,min+1
 8130 2cd2 8091 0000 		lds r24,max+1
 8131 2cd6 90E0      		ldi r25,lo8(0)
 8132 2cd8 820F      		add r24,r18
 8133 2cda 911D      		adc r25,__zero_reg__
 8134 2cdc 9595      		asr r25
 8135 2cde 8795      		ror r24
 8136 2ce0 8093 0000 		sts threshold1+1,r24
 8137 2ce4 2091 0000 		lds r18,min+2
 8138 2ce8 8091 0000 		lds r24,max+2
 8139 2cec 90E0      		ldi r25,lo8(0)
 8140 2cee 820F      		add r24,r18
 8141 2cf0 911D      		adc r25,__zero_reg__
 8142 2cf2 9595      		asr r25
 8143 2cf4 8795      		ror r24
 8144 2cf6 8093 0000 		sts threshold1+2,r24
 8145 2cfa 2091 0000 		lds r18,min+3
 8146 2cfe 8091 0000 		lds r24,max+3
 8147 2d02 90E0      		ldi r25,lo8(0)
 8148 2d04 820F      		add r24,r18
 8149 2d06 911D      		adc r25,__zero_reg__
 8150 2d08 9595      		asr r25
 8151 2d0a 8795      		ror r24
 8152 2d0c 8093 0000 		sts threshold1+3,r24
 8153 2d10 C0E0      		ldi r28,lo8(0)
 8154 2d12 D0E0      		ldi r29,hi8(0)
 8155               	.LVL206:
 8156               	.L592:
 8157               	.LBB783:
 8158               	.LM1134:
 8159 2d14 FE01      		movw r30,r28
 8160 2d16 E050      		subi r30,lo8(-(threshold1))
 8161 2d18 F040      		sbci r31,hi8(-(threshold1))
 8162 2d1a CE01      		movw r24,r28
 8163 2d1c 6081      		ld r22,Z
 8164 2d1e 0E94 0000 		call __eewr_byte_m32
 8165               	.LM1135:
 8166 2d22 2196      		adiw r28,1
 8167 2d24 C430      		cpi r28,4
 8168 2d26 D105      		cpc r29,__zero_reg__
 8169 2d28 01F4      		brne .L592
 8170               	/* epilogue start */
 8171               	.LBE783:
 8172               	.LM1136:
 8173 2d2a DF91      		pop r29
 8174 2d2c CF91      		pop r28
 8175               	.LVL207:
 8176 2d2e 0895      		ret
 8177               	.LFE17:
 8179               	.global	sensorbyte
 8180               	.global	sensorbyte
 8181               		.section .bss
 8184               	sensorbyte:
 8185 0000 00        		.skip 1,0
 8186               	.global	mpos
 8187               	.global	mpos
 8190               	mpos:
 8191 0001 0000      		.skip 2,0
 8192               	.global	opt
 8193               		.data
 8196               	opt:
 8197 00ab FF00      		.word	255
 8198               	.global	kp
 8201               	kp:
 8202 00ad 00        		.byte	0
 8203 00ae 00        		.byte	0
 8204 00af 70        		.byte	112
 8205 00b0 41        		.byte	65
 8206               	.global	kd
 8209               	kd:
 8210 00b1 66        		.byte	102
 8211 00b2 66        		.byte	102
 8212 00b3 46        		.byte	70
 8213 00b4 40        		.byte	64
 8214               	.global	flcount
 8215               	.global	flcount
 8216               		.section .bss
 8219               	flcount:
 8220 0003 0000      		.skip 2,0
 8221               	.global	l
 8222               	.global	l
 8225               	l:
 8226 0005 0000      		.skip 2,0
 8227               	.global	lcount
 8228               	.global	lcount
 8231               	lcount:
 8232 0007 0000      		.skip 2,0
 8233               	.global	straight
 8234               	.global	straight
 8237               	straight:
 8238 0009 0000      		.skip 2,0
 8239               	.global	lcountPrev
 8240               	.global	lcountPrev
 8243               	lcountPrev:
 8244 000b 0000      		.skip 2,0
 8245               	.global	flag1
 8246               	.global	flag1
 8249               	flag1:
 8250 000d 0000      		.skip 2,0
 8251               	.global	irc
 8252               	.global	irc
 8255               	irc:
 8256 000f 0000      		.skip 2,0
 8257               	.global	temp
 8258               	.global	temp
 8261               	temp:
 8262 0011 0000      		.skip 2,0
 8263               	.global	turn
 8264               		.data
 8267               	turn:
 8268 00b5 73        		.byte	115
 8269               	.global	dir
 8272               	dir:
 8273 00b6 0200      		.word	2
 8274               	.global	Coordinates_changed_by
 8275               	.global	Coordinates_changed_by
 8276               		.section .bss
 8279               	Coordinates_changed_by:
 8280 0013 0000      		.skip 2,0
 8281               	.global	x_coordinate
 8282               		.data
 8285               	x_coordinate:
 8286 00b8 0700      		.word	7
 8287               	.global	y_coordinate
 8290               	y_coordinate:
 8291 00ba 0700      		.word	7
 8292               	.global	mx
 8293               	.global	mx
 8294               		.section .bss
 8297               	mx:
 8298 0015 0000      		.skip 2,0
 8299               	.global	my
 8300               	.global	my
 8303               	my:
 8304 0017 0000      		.skip 2,0
 8305               	.global	special_flag
 8306               	.global	special_flag
 8309               	special_flag:
 8310 0019 0000      		.skip 2,0
 8311               	.global	repeat
 8312               	.global	repeat
 8315               	repeat:
 8316 001b 0000      		.skip 2,0
 8317               	.global	ipl
 8318               	.global	ipl
 8321               	ipl:
 8322 001d 0000      		.skip 2,0
 8323               		.comm min,4,1
 8324               		.comm max,4,1
 8325               		.comm threshold1,4,1
 8326               		.comm control,4,1
 8327               		.comm prev_error,4,1
 8328               		.comm act_error,4,1
 8329               		.comm dir_array,1024,1
 8330               		.comm map_array,512,1
 8331               		.comm path_array,60,1
 8332               		.comm right,2,1
 8925               	.Letext0:
DEFINED SYMBOLS
                            *ABS*:00000000 main.c
C:\Users\Chirag\AppData\Local\Temp/cc6NGaKj.s:2      *ABS*:0000003f __SREG__
C:\Users\Chirag\AppData\Local\Temp/cc6NGaKj.s:3      *ABS*:0000003e __SP_H__
C:\Users\Chirag\AppData\Local\Temp/cc6NGaKj.s:4      *ABS*:0000003d __SP_L__
C:\Users\Chirag\AppData\Local\Temp/cc6NGaKj.s:5      *ABS*:00000034 __CCP__
C:\Users\Chirag\AppData\Local\Temp/cc6NGaKj.s:6      *ABS*:00000000 __tmp_reg__
C:\Users\Chirag\AppData\Local\Temp/cc6NGaKj.s:7      *ABS*:00000001 __zero_reg__
C:\Users\Chirag\AppData\Local\Temp/cc6NGaKj.s:18     .text:00000000 port_init
C:\Users\Chirag\AppData\Local\Temp/cc6NGaKj.s:47     .text:00000014 pwm1_init
C:\Users\Chirag\AppData\Local\Temp/cc6NGaKj.s:89     .text:00000038 adc_init
C:\Users\Chirag\AppData\Local\Temp/cc6NGaKj.s:114    .text:0000004a adc_start
C:\Users\Chirag\AppData\Local\Temp/cc6NGaKj.s:144    .text:0000005c delay_sec
C:\Users\Chirag\AppData\Local\Temp/cc6NGaKj.s:208    .text:0000008e delay_millisec
C:\Users\Chirag\AppData\Local\Temp/cc6NGaKj.s:343    .text:00000138 delay_microsec
C:\Users\Chirag\AppData\Local\Temp/cc6NGaKj.s:544    .text:0000023e check_sensors
C:\Users\Chirag\AppData\Local\Temp/cc6NGaKj.s:8184   .bss:00000000 sensorbyte
C:\Users\Chirag\AppData\Local\Temp/cc6NGaKj.s:595    .text:00000286 calibrate_white
                            *COM*:00000004 max
C:\Users\Chirag\AppData\Local\Temp/cc6NGaKj.s:620    .text:000002b0 calibrate_black
                            *COM*:00000004 min
C:\Users\Chirag\AppData\Local\Temp/cc6NGaKj.s:645    .text:000002da flick
C:\Users\Chirag\AppData\Local\Temp/cc6NGaKj.s:687    .text:0000030a set_pwm1a
C:\Users\Chirag\AppData\Local\Temp/cc6NGaKj.s:704    .text:00000310 set_pwm1b
C:\Users\Chirag\AppData\Local\Temp/cc6NGaKj.s:721    .text:00000316 lcd_busy_loop
C:\Users\Chirag\AppData\Local\Temp/cc6NGaKj.s:906    .text:0000036c lcd_byte
C:\Users\Chirag\AppData\Local\Temp/cc6NGaKj.s:1045   .text:000003bc lcd_init
C:\Users\Chirag\AppData\Local\Temp/cc6NGaKj.s:1181   .text:0000041c lcd_write_string
C:\Users\Chirag\AppData\Local\Temp/cc6NGaKj.s:1214   .text:00000438 lcd_write_int
C:\Users\Chirag\AppData\Local\Temp/cc6NGaKj.s:1345   .text:000004f4 lcd_goto_xy
C:\Users\Chirag\AppData\Local\Temp/cc6NGaKj.s:1372   .text:00000506 lcd_write_string_xy
C:\Users\Chirag\AppData\Local\Temp/cc6NGaKj.s:1397   .text:0000051c lcd_write_int_xy
C:\Users\Chirag\AppData\Local\Temp/cc6NGaKj.s:1429   .text:0000053e usart_init
C:\Users\Chirag\AppData\Local\Temp/cc6NGaKj.s:1456   .text:00000552 usart_transmit_char
C:\Users\Chirag\AppData\Local\Temp/cc6NGaKj.s:1475   .text:0000055a usart_transmit_string
C:\Users\Chirag\AppData\Local\Temp/cc6NGaKj.s:1509   .text:0000056e usart_transmit_newline
C:\Users\Chirag\AppData\Local\Temp/cc6NGaKj.s:1543   .text:00000580 usart_receive_char
C:\Users\Chirag\AppData\Local\Temp/cc6NGaKj.s:1561   .text:00000588 bot_motion_init
C:\Users\Chirag\AppData\Local\Temp/cc6NGaKj.s:1576   .text:0000058e bot_left_forward
C:\Users\Chirag\AppData\Local\Temp/cc6NGaKj.s:1596   .text:00000598 bot_left_backward
C:\Users\Chirag\AppData\Local\Temp/cc6NGaKj.s:1616   .text:000005a2 bot_right_forward
C:\Users\Chirag\AppData\Local\Temp/cc6NGaKj.s:1636   .text:000005ac bot_left
C:\Users\Chirag\AppData\Local\Temp/cc6NGaKj.s:1660   .text:000005b6 bot_right
C:\Users\Chirag\AppData\Local\Temp/cc6NGaKj.s:1684   .text:000005c0 bot_right_backward
C:\Users\Chirag\AppData\Local\Temp/cc6NGaKj.s:1704   .text:000005ca bot_forward
C:\Users\Chirag\AppData\Local\Temp/cc6NGaKj.s:1724   .text:000005d4 bot_backward
C:\Users\Chirag\AppData\Local\Temp/cc6NGaKj.s:1744   .text:000005de bot_spot_left
C:\Users\Chirag\AppData\Local\Temp/cc6NGaKj.s:1764   .text:000005e8 bot_spot_right
C:\Users\Chirag\AppData\Local\Temp/cc6NGaKj.s:1784   .text:000005f2 bot_stop
C:\Users\Chirag\AppData\Local\Temp/cc6NGaKj.s:1804   .text:000005fc bot_brake
C:\Users\Chirag\AppData\Local\Temp/cc6NGaKj.s:1824   .text:00000606 switch_init
C:\Users\Chirag\AppData\Local\Temp/cc6NGaKj.s:1844   .text:00000614 pressed_switch0
C:\Users\Chirag\AppData\Local\Temp/cc6NGaKj.s:1864   .text:00000624 pressed_switch1
C:\Users\Chirag\AppData\Local\Temp/cc6NGaKj.s:1886   .text:00000638 pressed_switch2
C:\Users\Chirag\AppData\Local\Temp/cc6NGaKj.s:1910   .text:00000650 pressed_switch3
C:\Users\Chirag\AppData\Local\Temp/cc6NGaKj.s:1935   .text:0000066a line_track
C:\Users\Chirag\AppData\Local\Temp/cc6NGaKj.s:8190   .bss:00000001 mpos
C:\Users\Chirag\AppData\Local\Temp/cc6NGaKj.s:8249   .bss:0000000d flag1
                            *COM*:00000004 prev_error
                            *COM*:00000004 act_error
C:\Users\Chirag\AppData\Local\Temp/cc6NGaKj.s:8201   .data:000000ad kp
C:\Users\Chirag\AppData\Local\Temp/cc6NGaKj.s:8209   .data:000000b1 kd
                            *COM*:00000004 control
C:\Users\Chirag\AppData\Local\Temp/cc6NGaKj.s:8196   .data:000000ab opt
C:\Users\Chirag\AppData\Local\Temp/cc6NGaKj.s:2155   .text:0000080c init_devices
C:\Users\Chirag\AppData\Local\Temp/cc6NGaKj.s:2210   .text:0000083c Uturn
C:\Users\Chirag\AppData\Local\Temp/cc6NGaKj.s:8267   .data:000000b5 turn
C:\Users\Chirag\AppData\Local\Temp/cc6NGaKj.s:2354   .text:000008a2 left_count
C:\Users\Chirag\AppData\Local\Temp/cc6NGaKj.s:8225   .bss:00000005 l
C:\Users\Chirag\AppData\Local\Temp/cc6NGaKj.s:8231   .bss:00000007 lcount
C:\Users\Chirag\AppData\Local\Temp/cc6NGaKj.s:2389   .text:000008dc special_case_check
C:\Users\Chirag\AppData\Local\Temp/cc6NGaKj.s:2488   .text:0000094c line_track_new
C:\Users\Chirag\AppData\Local\Temp/cc6NGaKj.s:2591   .text:000009bc end_zone_uturn
C:\Users\Chirag\AppData\Local\Temp/cc6NGaKj.s:2747   .text:00000a38 turn_left
C:\Users\Chirag\AppData\Local\Temp/cc6NGaKj.s:2941   .text:00000ad4 turn_right
C:\Users\Chirag\AppData\Local\Temp/cc6NGaKj.s:3137   .text:00000b74 sense_of_directon
C:\Users\Chirag\AppData\Local\Temp/cc6NGaKj.s:8272   .data:000000b6 dir
C:\Users\Chirag\AppData\Local\Temp/cc6NGaKj.s:3261   .text:00000c42 is_coordinate_null
                            *COM*:00000400 dir_array
C:\Users\Chirag\AppData\Local\Temp/cc6NGaKj.s:3326   .text:00000ca0 update_array
C:\Users\Chirag\AppData\Local\Temp/cc6NGaKj.s:8285   .data:000000b8 x_coordinate
C:\Users\Chirag\AppData\Local\Temp/cc6NGaKj.s:8290   .data:000000ba y_coordinate
C:\Users\Chirag\AppData\Local\Temp/cc6NGaKj.s:3519   .text:00000ddc update_coordinates
C:\Users\Chirag\AppData\Local\Temp/cc6NGaKj.s:8279   .bss:00000013 Coordinates_changed_by
C:\Users\Chirag\AppData\Local\Temp/cc6NGaKj.s:8315   .bss:0000001b repeat
C:\Users\Chirag\AppData\Local\Temp/cc6NGaKj.s:3805   .text:00001056 left_junc_check
C:\Users\Chirag\AppData\Local\Temp/cc6NGaKj.s:8255   .bss:0000000f irc
C:\Users\Chirag\AppData\Local\Temp/cc6NGaKj.s:8309   .bss:00000019 special_flag
C:\Users\Chirag\AppData\Local\Temp/cc6NGaKj.s:3961   .text:0000115e frSensorCheck
C:\Users\Chirag\AppData\Local\Temp/cc6NGaKj.s:4057   .text:000011f0 fill_missed_array
C:\Users\Chirag\AppData\Local\Temp/cc6NGaKj.s:4259   .text:00001328 coordinates_tobe_reached
C:\Users\Chirag\AppData\Local\Temp/cc6NGaKj.s:8297   .bss:00000015 mx
C:\Users\Chirag\AppData\Local\Temp/cc6NGaKj.s:8303   .bss:00000017 my
C:\Users\Chirag\AppData\Local\Temp/cc6NGaKj.s:4836   .text:00001782 get_path
                            *COM*:0000003c path_array
C:\Users\Chirag\AppData\Local\Temp/cc6NGaKj.s:8321   .bss:0000001d ipl
                            *COM*:00000200 map_array
C:\Users\Chirag\AppData\Local\Temp/cc6NGaKj.s:5457   .text:00001bc4 build_map
C:\Users\Chirag\AppData\Local\Temp/cc6NGaKj.s:5822   .text:00001e06 checkAndCorrectDirection
C:\Users\Chirag\AppData\Local\Temp/cc6NGaKj.s:6039   .text:00001f86 go_to_coordinate
                            *COM*:00000002 right
C:\Users\Chirag\AppData\Local\Temp/cc6NGaKj.s:6280   .text:000020de print_path
C:\Users\Chirag\AppData\Local\Temp/cc6NGaKj.s:6387   .text:0000216a end_zone
C:\Users\Chirag\AppData\Local\Temp/cc6NGaKj.s:7753   .text:00002a4e map_all
C:\Users\Chirag\AppData\Local\Temp/cc6NGaKj.s:6834   .text:00002418 right_junc_check
C:\Users\Chirag\AppData\Local\Temp/cc6NGaKj.s:8243   .bss:0000000b lcountPrev
C:\Users\Chirag\AppData\Local\Temp/cc6NGaKj.s:8237   .bss:00000009 straight
C:\Users\Chirag\AppData\Local\Temp/cc6NGaKj.s:8261   .bss:00000011 temp
C:\Users\Chirag\AppData\Local\Temp/cc6NGaKj.s:7164   .text:0000262a main
C:\Users\Chirag\AppData\Local\Temp/cc6NGaKj.s:8082   .text:00002c82 retrieve_threshold
                            *COM*:00000004 threshold1
C:\Users\Chirag\AppData\Local\Temp/cc6NGaKj.s:8113   .text:00002cb4 set_threshold
C:\Users\Chirag\AppData\Local\Temp/cc6NGaKj.s:8219   .bss:00000003 flcount

UNDEFINED SYMBOLS
__floatsisf
__mulsf3
__ltsf2
__gtsf2
__fixunssfsi
__divsf3
__divmodhi4
__subsf3
__floatunsisf
__fixsfsi
__addsf3
__eewr_word_m32
__eerd_word_m32
__eerd_byte_m32
__eewr_byte_m32
__do_copy_data
__do_clear_bss
