   1               		.file	"main.c"
   2               	__SREG__ = 0x3f
   3               	__SP_H__ = 0x3e
   4               	__SP_L__ = 0x3d
   5               	__CCP__  = 0x34
   6               	__tmp_reg__ = 0
   7               	__zero_reg__ = 1
  15               	.Ltext0:
  16               	.global	port_init
  18               	port_init:
  19               	.LFB7:
  20               	.LM1:
  21               	/* prologue: function */
  22               	/* frame size = 0 */
  23               	.LM2:
  24 0000 8FEF      		ldi r24,lo8(-1)
  25 0002 8BBB      		out 59-32,r24
  26               	.LM3:
  27 0004 1ABA      		out 58-32,__zero_reg__
  28               	.LM4:
  29 0006 88BB      		out 56-32,r24
  30               	.LM5:
  31 0008 17BA      		out 55-32,__zero_reg__
  32               	.LM6:
  33 000a 15BA      		out 53-32,__zero_reg__
  34               	.LM7:
  35 000c 84BB      		out 52-32,r24
  36               	.LM8:
  37 000e 82BB      		out 50-32,r24
  38               	.LM9:
  39 0010 11BA      		out 49-32,__zero_reg__
  40               	/* epilogue start */
  41               	.LM10:
  42 0012 0895      		ret
  43               	.LFE7:
  45               	.global	pwm1_init
  47               	pwm1_init:
  48               	.LFB8:
  49               	.LM11:
  50               	/* prologue: function */
  51               	/* frame size = 0 */
  52               	.LM12:
  53 0014 8C9A      		sbi 49-32,4
  54               	.LM13:
  55 0016 8D9A      		sbi 49-32,5
  56               	.LM14:
  57 0018 1EBC      		out 78-32,__zero_reg__
  58               	.LM15:
  59 001a 1DBC      		out 77-32,__zero_reg__
  60               	.LM16:
  61 001c 1CBC      		out 76-32,__zero_reg__
  62               	.LM17:
  63 001e 1BBC      		out 75-32,__zero_reg__
  64               	.LM18:
  65 0020 1ABC      		out 74-32,__zero_reg__
  66               	.LM19:
  67 0022 19BC      		out 73-32,__zero_reg__
  68               	.LM20:
  69 0024 18BC      		out 72-32,__zero_reg__
  70               	.LM21:
  71 0026 81E0      		ldi r24,lo8(1)
  72 0028 87BD      		out 71-32,r24
  73               	.LM22:
  74 002a 8FE8      		ldi r24,lo8(-113)
  75 002c 86BD      		out 70-32,r24
  76               	.LM23:
  77 002e 82EA      		ldi r24,lo8(-94)
  78 0030 8FBD      		out 79-32,r24
  79               	.LM24:
  80 0032 89E1      		ldi r24,lo8(25)
  81 0034 8EBD      		out 78-32,r24
  82               	/* epilogue start */
  83               	.LM25:
  84 0036 0895      		ret
  85               	.LFE8:
  87               	.global	adc_init
  89               	adc_init:
  90               	.LFB9:
  91               	.LM26:
  92               	/* prologue: function */
  93               	/* frame size = 0 */
  94               	.LM27:
  95 0038 1ABA      		out 58-32,__zero_reg__
  96               	.LM28:
  97 003a 16B8      		out 38-32,__zero_reg__
  98               	.LM29:
  99 003c 80E6      		ldi r24,lo8(96)
 100 003e 87B9      		out 39-32,r24
 101               	.LM30:
 102 0040 87E8      		ldi r24,lo8(-121)
 103 0042 86B9      		out 38-32,r24
 104               	.LM31:
 105 0044 80E8      		ldi r24,lo8(-128)
 106 0046 88B9      		out 40-32,r24
 107               	/* epilogue start */
 108               	.LM32:
 109 0048 0895      		ret
 110               	.LFE9:
 112               	.global	adc_start
 114               	adc_start:
 115               	.LFB10:
 116               	.LM33:
 117               	.LVL0:
 118               	/* prologue: function */
 119               	/* frame size = 0 */
 120               	.LM34:
 121 004a 15B8      		out 37-32,__zero_reg__
 122               	.LM35:
 123 004c 8770      		andi r24,lo8(7)
 124               	.LVL1:
 125 004e 8066      		ori r24,lo8(96)
 126 0050 87B9      		out 39-32,r24
 127               	.LM36:
 128 0052 369A      		sbi 38-32,6
 129               	.L8:
 130               	.LM37:
 131 0054 3699      		sbic 38-32,6
 132 0056 00C0      		rjmp .L8
 133               	.LM38:
 134 0058 85B1      		in r24,37-32
 135               	.LVL2:
 136               	.LVL3:
 137               	/* epilogue start */
 138               	.LM39:
 139 005a 0895      		ret
 140               	.LFE10:
 142               	.global	delay_sec
 144               	delay_sec:
 145               	.LFB11:
 146               	.LM40:
 147               	.LVL4:
 148               	/* prologue: function */
 149               	/* frame size = 0 */
 150 005c AC01      		movw r20,r24
 151               	.LM41:
 152 005e 30E0      		ldi r19,lo8(0)
 153               	.LVL5:
 154               	.LBB407:
 155               	.LBB408:
 156               	.LBB409:
 157               	.LBB410:
 158               	.LM42:
 159 0060 60E9      		ldi r22,lo8(400)
 160 0062 71E0      		ldi r23,hi8(400)
 161 0064 00C0      		rjmp .L12
 162               	.LVL6:
 163               	.L13:
 164 0066 FB01      		movw r30,r22
 165               	/* #APP */
 166               	 ;  105 "c:/winavr-20100110/lib/gcc/../../avr/include/util/delay_basic.h" 1
 167 0068 3197      		1: sbiw r30,1
 168 006a 01F4      		brne 1b
 169               	 ;  0 "" 2
 170               	/* #NOAPP */
 171               	.LBE410:
 172               	.LBE409:
 173               	.LM43:
 174 006c 0197      		sbiw r24,1
 175               	.LM44:
 176 006e 01F4      		brne .L13
 177               	.LBE408:
 178               	.LBE407:
 179               	.LM45:
 180 0070 2F5F      		subi r18,lo8(-(1))
 181 0072 2430      		cpi r18,lo8(4)
 182 0074 01F0      		breq .L14
 183               	.LVL7:
 184               	.L16:
 185 0076 84EC      		ldi r24,lo8(2500)
 186 0078 99E0      		ldi r25,hi8(2500)
 187 007a 00C0      		rjmp .L13
 188               	.L14:
 189               	.LM46:
 190 007c 3F5F      		subi r19,lo8(-(1))
 191               	.LVL8:
 192               	.L12:
 193 007e 832F      		mov r24,r19
 194               	.LVL9:
 195 0080 90E0      		ldi r25,lo8(0)
 196 0082 8417      		cp r24,r20
 197 0084 9507      		cpc r25,r21
 198 0086 04F4      		brge .L17
 199               	.LVL10:
 200 0088 20E0      		ldi r18,lo8(0)
 201 008a 00C0      		rjmp .L16
 202               	.L17:
 203 008c 0895      		ret
 204               	.LFE11:
 206               	.global	delay_millisec
 208               	delay_millisec:
 209               	.LFB12:
 210               	.LM47:
 211               	.LVL11:
 212 008e AF92      		push r10
 213 0090 BF92      		push r11
 214 0092 CF92      		push r12
 215 0094 DF92      		push r13
 216 0096 EF92      		push r14
 217 0098 FF92      		push r15
 218 009a 0F93      		push r16
 219 009c 1F93      		push r17
 220               	/* prologue: function */
 221               	/* frame size = 0 */
 222               	.LM48:
 223 009e AA27      		clr r26
 224 00a0 97FD      		sbrc r25,7
 225 00a2 A095      		com r26
 226 00a4 BA2F      		mov r27,r26
 227               	.LVL12:
 228 00a6 BC01      		movw r22,r24
 229 00a8 CD01      		movw r24,r26
 230 00aa 0E94 0000 		call __floatsisf
 231               	.LVL13:
 232 00ae 5B01      		movw r10,r22
 233 00b0 6C01      		movw r12,r24
 234               	.LBB411:
 235               	.LBB412:
 236               	.LM49:
 237 00b2 20E0      		ldi r18,lo8(0x457a0000)
 238 00b4 30E0      		ldi r19,hi8(0x457a0000)
 239 00b6 4AE7      		ldi r20,hlo8(0x457a0000)
 240 00b8 55E4      		ldi r21,hhi8(0x457a0000)
 241 00ba 0E94 0000 		call __mulsf3
 242 00be 7B01      		movw r14,r22
 243 00c0 8C01      		movw r16,r24
 244               	.LM50:
 245 00c2 20E0      		ldi r18,lo8(0x3f800000)
 246 00c4 30E0      		ldi r19,hi8(0x3f800000)
 247 00c6 40E8      		ldi r20,hlo8(0x3f800000)
 248 00c8 5FE3      		ldi r21,hhi8(0x3f800000)
 249 00ca 0E94 0000 		call __ltsf2
 250 00ce 8823      		tst r24
 251 00d0 04F4      		brge .L31
 252 00d2 61E0      		ldi r22,lo8(1)
 253 00d4 70E0      		ldi r23,hi8(1)
 254               	.LVL14:
 255 00d6 00C0      		rjmp .L22
 256               	.LVL15:
 257               	.L31:
 258               	.LM51:
 259 00d8 C801      		movw r24,r16
 260 00da B701      		movw r22,r14
 261 00dc 20E0      		ldi r18,lo8(0x477fff00)
 262 00de 3FEF      		ldi r19,hi8(0x477fff00)
 263 00e0 4FE7      		ldi r20,hlo8(0x477fff00)
 264 00e2 57E4      		ldi r21,hhi8(0x477fff00)
 265 00e4 0E94 0000 		call __gtsf2
 266 00e8 1816      		cp __zero_reg__,r24
 267 00ea 04F4      		brge .L32
 268               	.LM52:
 269 00ec C601      		movw r24,r12
 270 00ee B501      		movw r22,r10
 271 00f0 20E0      		ldi r18,lo8(0x41200000)
 272 00f2 30E0      		ldi r19,hi8(0x41200000)
 273 00f4 40E2      		ldi r20,hlo8(0x41200000)
 274 00f6 51E4      		ldi r21,hhi8(0x41200000)
 275 00f8 0E94 0000 		call __mulsf3
 276 00fc 0E94 0000 		call __fixunssfsi
 277               	.LBB413:
 278               	.LBB414:
 279               	.LM53:
 280 0100 80E9      		ldi r24,lo8(400)
 281 0102 91E0      		ldi r25,hi8(400)
 282 0104 00C0      		rjmp .L25
 283               	.LVL16:
 284               	.L26:
 285 0106 FC01      		movw r30,r24
 286               	/* #APP */
 287               	 ;  105 "c:/winavr-20100110/lib/gcc/../../avr/include/util/delay_basic.h" 1
 288 0108 3197      		1: sbiw r30,1
 289 010a 01F4      		brne 1b
 290               	 ;  0 "" 2
 291               	/* #NOAPP */
 292               	.LBE414:
 293               	.LBE413:
 294               	.LM54:
 295 010c 6150      		subi r22,lo8(-(-1))
 296 010e 7040      		sbci r23,hi8(-(-1))
 297               	.L25:
 298               	.LM55:
 299 0110 6115      		cp r22,__zero_reg__
 300 0112 7105      		cpc r23,__zero_reg__
 301 0114 01F4      		brne .L26
 302 0116 00C0      		rjmp .L28
 303               	.LVL17:
 304               	.L32:
 305               	.LM56:
 306 0118 C801      		movw r24,r16
 307 011a B701      		movw r22,r14
 308 011c 0E94 0000 		call __fixunssfsi
 309               	.LVL18:
 310               	.L22:
 311               	.LBB415:
 312               	.LBB416:
 313               	.LM57:
 314 0120 CB01      		movw r24,r22
 315               	.LVL19:
 316               	/* #APP */
 317               	 ;  105 "c:/winavr-20100110/lib/gcc/../../avr/include/util/delay_basic.h" 1
 318 0122 0197      		1: sbiw r24,1
 319 0124 01F4      		brne 1b
 320               	 ;  0 "" 2
 321               	.LVL20:
 322               	/* #NOAPP */
 323               	.L28:
 324               	/* epilogue start */
 325               	.LBE416:
 326               	.LBE415:
 327               	.LBE412:
 328               	.LBE411:
 329               	.LM58:
 330 0126 1F91      		pop r17
 331 0128 0F91      		pop r16
 332 012a FF90      		pop r15
 333 012c EF90      		pop r14
 334 012e DF90      		pop r13
 335 0130 CF90      		pop r12
 336 0132 BF90      		pop r11
 337 0134 AF90      		pop r10
 338 0136 0895      		ret
 339               	.LFE12:
 341               	.global	delay_microsec
 343               	delay_microsec:
 344               	.LFB13:
 345               	.LM59:
 346               	.LVL21:
 347 0138 AF92      		push r10
 348 013a BF92      		push r11
 349 013c CF92      		push r12
 350 013e DF92      		push r13
 351 0140 EF92      		push r14
 352 0142 FF92      		push r15
 353 0144 0F93      		push r16
 354 0146 1F93      		push r17
 355               	/* prologue: function */
 356               	/* frame size = 0 */
 357               	.LM60:
 358 0148 AA27      		clr r26
 359 014a 97FD      		sbrc r25,7
 360 014c A095      		com r26
 361 014e BA2F      		mov r27,r26
 362               	.LVL22:
 363 0150 BC01      		movw r22,r24
 364 0152 CD01      		movw r24,r26
 365 0154 0E94 0000 		call __floatsisf
 366               	.LVL23:
 367 0158 5B01      		movw r10,r22
 368 015a 6C01      		movw r12,r24
 369               	.LBB417:
 370               	.LBB418:
 371               	.LM61:
 372 015c 2BEA      		ldi r18,lo8(0x40aaaaab)
 373 015e 3AEA      		ldi r19,hi8(0x40aaaaab)
 374 0160 4AEA      		ldi r20,hlo8(0x40aaaaab)
 375 0162 50E4      		ldi r21,hhi8(0x40aaaaab)
 376 0164 0E94 0000 		call __mulsf3
 377 0168 7B01      		movw r14,r22
 378 016a 8C01      		movw r16,r24
 379               	.LM62:
 380 016c 20E0      		ldi r18,lo8(0x3f800000)
 381 016e 30E0      		ldi r19,hi8(0x3f800000)
 382 0170 40E8      		ldi r20,hlo8(0x3f800000)
 383 0172 5FE3      		ldi r21,hhi8(0x3f800000)
 384 0174 0E94 0000 		call __ltsf2
 385 0178 8823      		tst r24
 386 017a 04F4      		brge .L52
 387 017c 61E0      		ldi r22,lo8(1)
 388               	.LVL24:
 389 017e 00C0      		rjmp .L36
 390               	.LVL25:
 391               	.L52:
 392               	.LM63:
 393 0180 C801      		movw r24,r16
 394 0182 B701      		movw r22,r14
 395 0184 20E0      		ldi r18,lo8(0x437f0000)
 396 0186 30E0      		ldi r19,hi8(0x437f0000)
 397 0188 4FE7      		ldi r20,hlo8(0x437f0000)
 398 018a 53E4      		ldi r21,hhi8(0x437f0000)
 399 018c 0E94 0000 		call __gtsf2
 400 0190 1816      		cp __zero_reg__,r24
 401 0192 04F0      		brlt .+2
 402 0194 00C0      		rjmp .L53
 403               	.LM64:
 404 0196 C601      		movw r24,r12
 405 0198 B501      		movw r22,r10
 406 019a 20E0      		ldi r18,lo8(0x447a0000)
 407 019c 30E0      		ldi r19,hi8(0x447a0000)
 408 019e 4AE7      		ldi r20,hlo8(0x447a0000)
 409 01a0 54E4      		ldi r21,hhi8(0x447a0000)
 410 01a2 0E94 0000 		call __divsf3
 411 01a6 5B01      		movw r10,r22
 412 01a8 6C01      		movw r12,r24
 413               	.LBB419:
 414               	.LBB420:
 415               	.LM65:
 416 01aa 20E0      		ldi r18,lo8(0x457a0000)
 417 01ac 30E0      		ldi r19,hi8(0x457a0000)
 418 01ae 4AE7      		ldi r20,hlo8(0x457a0000)
 419 01b0 55E4      		ldi r21,hhi8(0x457a0000)
 420 01b2 0E94 0000 		call __mulsf3
 421 01b6 7B01      		movw r14,r22
 422 01b8 8C01      		movw r16,r24
 423               	.LM66:
 424 01ba 20E0      		ldi r18,lo8(0x3f800000)
 425 01bc 30E0      		ldi r19,hi8(0x3f800000)
 426 01be 40E8      		ldi r20,hlo8(0x3f800000)
 427 01c0 5FE3      		ldi r21,hhi8(0x3f800000)
 428 01c2 0E94 0000 		call __ltsf2
 429 01c6 8823      		tst r24
 430 01c8 04F4      		brge .L54
 431 01ca 61E0      		ldi r22,lo8(1)
 432 01cc 70E0      		ldi r23,hi8(1)
 433               	.LVL26:
 434 01ce 00C0      		rjmp .L41
 435               	.LVL27:
 436               	.L54:
 437               	.LM67:
 438 01d0 C801      		movw r24,r16
 439 01d2 B701      		movw r22,r14
 440 01d4 20E0      		ldi r18,lo8(0x477fff00)
 441 01d6 3FEF      		ldi r19,hi8(0x477fff00)
 442 01d8 4FE7      		ldi r20,hlo8(0x477fff00)
 443 01da 57E4      		ldi r21,hhi8(0x477fff00)
 444 01dc 0E94 0000 		call __gtsf2
 445 01e0 1816      		cp __zero_reg__,r24
 446 01e2 04F4      		brge .L55
 447               	.LM68:
 448 01e4 C601      		movw r24,r12
 449 01e6 B501      		movw r22,r10
 450 01e8 20E0      		ldi r18,lo8(0x41200000)
 451 01ea 30E0      		ldi r19,hi8(0x41200000)
 452 01ec 40E2      		ldi r20,hlo8(0x41200000)
 453 01ee 51E4      		ldi r21,hhi8(0x41200000)
 454 01f0 0E94 0000 		call __mulsf3
 455 01f4 0E94 0000 		call __fixunssfsi
 456               	.LBB421:
 457               	.LBB422:
 458               	.LM69:
 459 01f8 80E9      		ldi r24,lo8(400)
 460 01fa 91E0      		ldi r25,hi8(400)
 461 01fc 00C0      		rjmp .L44
 462               	.LVL28:
 463               	.L45:
 464 01fe FC01      		movw r30,r24
 465               	/* #APP */
 466               	 ;  105 "c:/winavr-20100110/lib/gcc/../../avr/include/util/delay_basic.h" 1
 467 0200 3197      		1: sbiw r30,1
 468 0202 01F4      		brne 1b
 469               	 ;  0 "" 2
 470               	/* #NOAPP */
 471               	.LBE422:
 472               	.LBE421:
 473               	.LM70:
 474 0204 6150      		subi r22,lo8(-(-1))
 475 0206 7040      		sbci r23,hi8(-(-1))
 476               	.L44:
 477               	.LM71:
 478 0208 6115      		cp r22,__zero_reg__
 479 020a 7105      		cpc r23,__zero_reg__
 480 020c 01F4      		brne .L45
 481 020e 00C0      		rjmp .L47
 482               	.LVL29:
 483               	.L55:
 484               	.LM72:
 485 0210 C801      		movw r24,r16
 486 0212 B701      		movw r22,r14
 487 0214 0E94 0000 		call __fixunssfsi
 488               	.LVL30:
 489               	.L41:
 490               	.LBB423:
 491               	.LBB424:
 492               	.LM73:
 493 0218 CB01      		movw r24,r22
 494               	.LVL31:
 495               	/* #APP */
 496               	 ;  105 "c:/winavr-20100110/lib/gcc/../../avr/include/util/delay_basic.h" 1
 497 021a 0197      		1: sbiw r24,1
 498 021c 01F4      		brne 1b
 499               	 ;  0 "" 2
 500               	/* #NOAPP */
 501 021e 00C0      		rjmp .L47
 502               	.LVL32:
 503               	.L53:
 504               	.LBE424:
 505               	.LBE423:
 506               	.LBE420:
 507               	.LBE419:
 508               	.LM74:
 509 0220 C801      		movw r24,r16
 510 0222 B701      		movw r22,r14
 511 0224 0E94 0000 		call __fixunssfsi
 512               	.LVL33:
 513               	.L36:
 514               	.LBB425:
 515               	.LBB426:
 516               	.LM75:
 517               	/* #APP */
 518               	 ;  83 "c:/winavr-20100110/lib/gcc/../../avr/include/util/delay_basic.h" 1
 519 0228 6A95      		1: dec r22
 520 022a 01F4      		brne 1b
 521               	 ;  0 "" 2
 522               	.LVL34:
 523               	/* #NOAPP */
 524               	.L47:
 525               	/* epilogue start */
 526               	.LBE426:
 527               	.LBE425:
 528               	.LBE418:
 529               	.LBE417:
 530               	.LM76:
 531 022c 1F91      		pop r17
 532 022e 0F91      		pop r16
 533 0230 FF90      		pop r15
 534 0232 EF90      		pop r14
 535 0234 DF90      		pop r13
 536 0236 CF90      		pop r12
 537 0238 BF90      		pop r11
 538 023a AF90      		pop r10
 539 023c 0895      		ret
 540               	.LFE13:
 542               	.global	check_sensors
 544               	check_sensors:
 545               	.LFB14:
 546               	.LM77:
 547 023e 0F93      		push r16
 548 0240 1F93      		push r17
 549 0242 CF93      		push r28
 550 0244 DF93      		push r29
 551               	/* prologue: function */
 552               	/* frame size = 0 */
 553               	.LM78:
 554 0246 1092 0000 		sts sensorbyte,__zero_reg__
 555 024a C0E0      		ldi r28,lo8(0)
 556 024c D0E0      		ldi r29,hi8(0)
 557               	.LM79:
 558 024e 01E0      		ldi r16,lo8(1)
 559 0250 10E0      		ldi r17,hi8(1)
 560               	.L58:
 561               	.LM80:
 562 0252 8C2F      		mov r24,r28
 563 0254 0E94 0000 		call adc_start
 564               	.LM81:
 565 0258 8634      		cpi r24,lo8(70)
 566 025a 00F4      		brsh .L57
 567               	.LM82:
 568 025c 9801      		movw r18,r16
 569 025e 0C2E      		mov r0,r28
 570 0260 00C0      		rjmp 2f
 571 0262 220F      	1:	lsl r18
 572 0264 331F      		rol r19
 573 0266 0A94      	2:	dec r0
 574 0268 02F4      		brpl 1b
 575 026a 8091 0000 		lds r24,sensorbyte
 576 026e 822B      		or r24,r18
 577 0270 8093 0000 		sts sensorbyte,r24
 578               	.L57:
 579 0274 2196      		adiw r28,1
 580               	.LM83:
 581 0276 C430      		cpi r28,4
 582 0278 D105      		cpc r29,__zero_reg__
 583 027a 01F4      		brne .L58
 584               	/* epilogue start */
 585               	.LM84:
 586 027c DF91      		pop r29
 587 027e CF91      		pop r28
 588 0280 1F91      		pop r17
 589 0282 0F91      		pop r16
 590 0284 0895      		ret
 591               	.LFE14:
 593               	.global	calibrate_white
 595               	calibrate_white:
 596               	.LFB15:
 597               	.LM85:
 598               	/* prologue: function */
 599               	/* frame size = 0 */
 600               	.LM86:
 601 0286 80E0      		ldi r24,lo8(0)
 602 0288 0E94 0000 		call adc_start
 603 028c 8093 0000 		sts max,r24
 604 0290 81E0      		ldi r24,lo8(1)
 605 0292 0E94 0000 		call adc_start
 606 0296 8093 0000 		sts max+1,r24
 607 029a 82E0      		ldi r24,lo8(2)
 608 029c 0E94 0000 		call adc_start
 609 02a0 8093 0000 		sts max+2,r24
 610 02a4 83E0      		ldi r24,lo8(3)
 611 02a6 0E94 0000 		call adc_start
 612 02aa 8093 0000 		sts max+3,r24
 613               	/* epilogue start */
 614               	.LM87:
 615 02ae 0895      		ret
 616               	.LFE15:
 618               	.global	calibrate_black
 620               	calibrate_black:
 621               	.LFB16:
 622               	.LM88:
 623               	/* prologue: function */
 624               	/* frame size = 0 */
 625               	.LM89:
 626 02b0 80E0      		ldi r24,lo8(0)
 627 02b2 0E94 0000 		call adc_start
 628 02b6 8093 0000 		sts min,r24
 629 02ba 81E0      		ldi r24,lo8(1)
 630 02bc 0E94 0000 		call adc_start
 631 02c0 8093 0000 		sts min+1,r24
 632 02c4 82E0      		ldi r24,lo8(2)
 633 02c6 0E94 0000 		call adc_start
 634 02ca 8093 0000 		sts min+2,r24
 635 02ce 83E0      		ldi r24,lo8(3)
 636 02d0 0E94 0000 		call adc_start
 637 02d4 8093 0000 		sts min+3,r24
 638               	/* epilogue start */
 639               	.LM90:
 640 02d8 0895      		ret
 641               	.LFE16:
 643               	.global	flick
 645               	flick:
 646               	.LFB18:
 647               	.LM91:
 648 02da 1F93      		push r17
 649 02dc CF93      		push r28
 650 02de DF93      		push r29
 651               	/* prologue: function */
 652               	/* frame size = 0 */
 653               	.LM92:
 654 02e0 C0E0      		ldi r28,lo8(0)
 655 02e2 D0E0      		ldi r29,hi8(0)
 656               	.LVL35:
 657               	.LM93:
 658 02e4 1FEF      		ldi r17,lo8(-1)
 659               	.L66:
 660 02e6 15BB      		out 53-32,r17
 661               	.LM94:
 662 02e8 84E6      		ldi r24,lo8(100)
 663 02ea 90E0      		ldi r25,hi8(100)
 664 02ec 0E94 0000 		call delay_millisec
 665               	.LM95:
 666 02f0 15BA      		out 53-32,__zero_reg__
 667               	.LM96:
 668 02f2 84E6      		ldi r24,lo8(100)
 669 02f4 90E0      		ldi r25,hi8(100)
 670 02f6 0E94 0000 		call delay_millisec
 671               	.LM97:
 672 02fa 2196      		adiw r28,1
 673 02fc C530      		cpi r28,5
 674 02fe D105      		cpc r29,__zero_reg__
 675 0300 01F4      		brne .L66
 676               	/* epilogue start */
 677               	.LM98:
 678 0302 DF91      		pop r29
 679 0304 CF91      		pop r28
 680               	.LVL36:
 681 0306 1F91      		pop r17
 682 0308 0895      		ret
 683               	.LFE18:
 685               	.global	set_pwm1a
 687               	set_pwm1a:
 688               	.LFB19:
 689               	.LM99:
 690               	.LVL37:
 691               	/* prologue: function */
 692               	/* frame size = 0 */
 693               	.LM100:
 694 030a 9BBD      		out (74)+1-32,r25
 695 030c 8ABD      		out 74-32,r24
 696               	.LVL38:
 697               	/* epilogue start */
 698               	.LM101:
 699 030e 0895      		ret
 700               	.LFE19:
 702               	.global	set_pwm1b
 704               	set_pwm1b:
 705               	.LFB20:
 706               	.LM102:
 707               	.LVL39:
 708               	/* prologue: function */
 709               	/* frame size = 0 */
 710               	.LM103:
 711 0310 99BD      		out (72)+1-32,r25
 712 0312 88BD      		out 72-32,r24
 713               	.LVL40:
 714               	/* epilogue start */
 715               	.LM104:
 716 0314 0895      		ret
 717               	.LFE20:
 719               	.global	lcd_busy_loop
 721               	lcd_busy_loop:
 722               	.LFB22:
 723               	.LM105:
 724               	/* prologue: function */
 725               	/* frame size = 0 */
 726               	.LM106:
 727 0316 87B3      		in r24,55-32
 728 0318 807F      		andi r24,lo8(-16)
 729 031a 87BB      		out 55-32,r24
 730               	.LM107:
 731 031c C69A      		sbi 56-32,6
 732               	.LM108:
 733 031e C598      		cbi 56-32,5
 734               	.LBB427:
 735               	.LBB428:
 736               	.LBB429:
 737               	.LBB430:
 738               	.LM109:
 739 0320 82E0      		ldi r24,lo8(2)
 740               	.LVL41:
 741               	/* #APP */
 742               	 ;  83 "c:/winavr-20100110/lib/gcc/../../avr/include/util/delay_basic.h" 1
 743 0322 8A95      		1: dec r24
 744 0324 01F4      		brne 1b
 745               	 ;  0 "" 2
 746               	/* #NOAPP */
 747               	.LBE430:
 748               	.LBE429:
 749               	.LBE428:
 750               	.LBE427:
 751               	.LBB431:
 752               	.LBB432:
 753               	.LBB433:
 754               	.LBB434:
 755 0326 22E0      		ldi r18,lo8(2)
 756               	.LBE434:
 757               	.LBE433:
 758               	.LBE432:
 759               	.LBE431:
 760               	.LBB438:
 761               	.LBB439:
 762               	.LBB440:
 763               	.LBB441:
 764 0328 35E0      		ldi r19,lo8(5)
 765               	.L74:
 766               	.LBE441:
 767               	.LBE440:
 768               	.LBE439:
 769               	.LBE438:
 770               	.LM110:
 771 032a C79A      		sbi 56-32,7
 772               	.LBB445:
 773               	.LBB437:
 774               	.LBB436:
 775               	.LBB435:
 776               	.LM111:
 777 032c 822F      		mov r24,r18
 778               	.LVL42:
 779               	/* #APP */
 780               	 ;  83 "c:/winavr-20100110/lib/gcc/../../avr/include/util/delay_basic.h" 1
 781 032e 8A95      		1: dec r24
 782 0330 01F4      		brne 1b
 783               	 ;  0 "" 2
 784               	/* #NOAPP */
 785               	.LBE435:
 786               	.LBE436:
 787               	.LBE437:
 788               	.LBE445:
 789               	.LM112:
 790 0332 86B3      		in r24,54-32
 791               	.LVL43:
 792               	.LM113:
 793 0334 8295      		swap r24
 794 0336 807F      		andi r24,lo8(-16)
 795               	.LBB446:
 796               	.LBB447:
 797               	.LBB448:
 798               	.LBB449:
 799               	.LM114:
 800 0338 922F      		mov r25,r18
 801               	.LVL44:
 802               	/* #APP */
 803               	 ;  83 "c:/winavr-20100110/lib/gcc/../../avr/include/util/delay_basic.h" 1
 804 033a 9A95      		1: dec r25
 805 033c 01F4      		brne 1b
 806               	 ;  0 "" 2
 807               	/* #NOAPP */
 808               	.LBE449:
 809               	.LBE448:
 810               	.LBE447:
 811               	.LBE446:
 812               	.LM115:
 813 033e C798      		cbi 56-32,7
 814               	.LBB450:
 815               	.LBB444:
 816               	.LBB443:
 817               	.LBB442:
 818               	.LM116:
 819 0340 932F      		mov r25,r19
 820               	.LVL45:
 821               	/* #APP */
 822               	 ;  83 "c:/winavr-20100110/lib/gcc/../../avr/include/util/delay_basic.h" 1
 823 0342 9A95      		1: dec r25
 824 0344 01F4      		brne 1b
 825               	 ;  0 "" 2
 826               	/* #NOAPP */
 827               	.LBE442:
 828               	.LBE443:
 829               	.LBE444:
 830               	.LBE450:
 831               	.LM117:
 832 0346 C79A      		sbi 56-32,7
 833               	.LBB451:
 834               	.LBB452:
 835               	.LBB453:
 836               	.LBB454:
 837               	.LM118:
 838 0348 922F      		mov r25,r18
 839               	.LVL46:
 840               	/* #APP */
 841               	 ;  83 "c:/winavr-20100110/lib/gcc/../../avr/include/util/delay_basic.h" 1
 842 034a 9A95      		1: dec r25
 843 034c 01F4      		brne 1b
 844               	 ;  0 "" 2
 845               	/* #NOAPP */
 846               	.LBE454:
 847               	.LBE453:
 848               	.LBE452:
 849               	.LBE451:
 850               	.LM119:
 851 034e 96B3      		in r25,54-32
 852               	.LVL47:
 853               	.LBB455:
 854               	.LBB456:
 855               	.LBB457:
 856               	.LBB458:
 857               	.LM120:
 858 0350 922F      		mov r25,r18
 859               	.LVL48:
 860               	/* #APP */
 861               	 ;  83 "c:/winavr-20100110/lib/gcc/../../avr/include/util/delay_basic.h" 1
 862 0352 9A95      		1: dec r25
 863 0354 01F4      		brne 1b
 864               	 ;  0 "" 2
 865               	/* #NOAPP */
 866               	.LBE458:
 867               	.LBE457:
 868               	.LBE456:
 869               	.LBE455:
 870               	.LM121:
 871 0356 C798      		cbi 56-32,7
 872               	.LBB459:
 873               	.LBB460:
 874               	.LBB461:
 875               	.LBB462:
 876               	.LM122:
 877 0358 932F      		mov r25,r19
 878               	.LVL49:
 879               	/* #APP */
 880               	 ;  83 "c:/winavr-20100110/lib/gcc/../../avr/include/util/delay_basic.h" 1
 881 035a 9A95      		1: dec r25
 882 035c 01F4      		brne 1b
 883               	 ;  0 "" 2
 884               	/* #NOAPP */
 885               	.LBE462:
 886               	.LBE461:
 887               	.LBE460:
 888               	.LBE459:
 889               	.LM123:
 890 035e 87FD      		sbrc r24,7
 891 0360 00C0      		rjmp .L74
 892               	.LM124:
 893 0362 C698      		cbi 56-32,6
 894               	.LM125:
 895 0364 87B3      		in r24,55-32
 896               	.LVL50:
 897 0366 8F60      		ori r24,lo8(15)
 898 0368 87BB      		out 55-32,r24
 899               	/* epilogue start */
 900               	.LM126:
 901 036a 0895      		ret
 902               	.LFE22:
 904               	.global	lcd_byte
 906               	lcd_byte:
 907               	.LFB21:
 908               	.LM127:
 909               	.LVL51:
 910               	/* prologue: function */
 911               	/* frame size = 0 */
 912 036c 282F      		mov r18,r24
 913               	.LM128:
 914 036e 6623      		tst r22
 915 0370 01F4      		brne .L78
 916               	.LVL52:
 917               	.LM129:
 918 0372 C598      		cbi 56-32,5
 919 0374 00C0      		rjmp .L79
 920               	.L78:
 921               	.LM130:
 922 0376 C59A      		sbi 56-32,5
 923               	.L79:
 924               	.LBB463:
 925               	.LBB464:
 926               	.LBB465:
 927               	.LBB466:
 928               	.LM131:
 929 0378 82E0      		ldi r24,lo8(2)
 930               	.LVL53:
 931               	/* #APP */
 932               	 ;  83 "c:/winavr-20100110/lib/gcc/../../avr/include/util/delay_basic.h" 1
 933 037a 8A95      		1: dec r24
 934 037c 01F4      		brne 1b
 935               	 ;  0 "" 2
 936               	/* #NOAPP */
 937               	.LBE466:
 938               	.LBE465:
 939               	.LBE464:
 940               	.LBE463:
 941               	.LM132:
 942 037e C79A      		sbi 56-32,7
 943               	.LM133:
 944 0380 88B3      		in r24,56-32
 945               	.LVL54:
 946 0382 922F      		mov r25,r18
 947 0384 9295      		swap r25
 948 0386 9F70      		andi r25,lo8(15)
 949 0388 807F      		andi r24,lo8(-16)
 950 038a 982B      		or r25,r24
 951               	.LM134:
 952 038c 98BB      		out 56-32,r25
 953               	.LBB467:
 954               	.LBB468:
 955               	.LBB469:
 956               	.LBB470:
 957               	.LM135:
 958 038e 95E0      		ldi r25,lo8(5)
 959 0390 892F      		mov r24,r25
 960               	.LVL55:
 961               	/* #APP */
 962               	 ;  83 "c:/winavr-20100110/lib/gcc/../../avr/include/util/delay_basic.h" 1
 963 0392 8A95      		1: dec r24
 964 0394 01F4      		brne 1b
 965               	 ;  0 "" 2
 966               	/* #NOAPP */
 967               	.LBE470:
 968               	.LBE469:
 969               	.LBE468:
 970               	.LBE467:
 971               	.LM136:
 972 0396 C798      		cbi 56-32,7
 973               	.LBB471:
 974               	.LBB472:
 975               	.LBB473:
 976               	.LBB474:
 977               	.LM137:
 978 0398 892F      		mov r24,r25
 979               	.LVL56:
 980               	/* #APP */
 981               	 ;  83 "c:/winavr-20100110/lib/gcc/../../avr/include/util/delay_basic.h" 1
 982 039a 8A95      		1: dec r24
 983 039c 01F4      		brne 1b
 984               	 ;  0 "" 2
 985               	/* #NOAPP */
 986               	.LBE474:
 987               	.LBE473:
 988               	.LBE472:
 989               	.LBE471:
 990               	.LM138:
 991 039e C79A      		sbi 56-32,7
 992               	.LM139:
 993 03a0 88B3      		in r24,56-32
 994               	.LVL57:
 995 03a2 2F70      		andi r18,lo8(15)
 996 03a4 807F      		andi r24,lo8(-16)
 997 03a6 822B      		or r24,r18
 998               	.LM140:
 999 03a8 88BB      		out 56-32,r24
 1000               	.LBB475:
 1001               	.LBB476:
 1002               	.LBB477:
 1003               	.LBB478:
 1004               	.LM141:
 1005 03aa 892F      		mov r24,r25
 1006               	.LVL58:
 1007               	/* #APP */
 1008               	 ;  83 "c:/winavr-20100110/lib/gcc/../../avr/include/util/delay_basic.h" 1
 1009 03ac 8A95      		1: dec r24
 1010 03ae 01F4      		brne 1b
 1011               	 ;  0 "" 2
 1012               	/* #NOAPP */
 1013               	.LBE478:
 1014               	.LBE477:
 1015               	.LBE476:
 1016               	.LBE475:
 1017               	.LM142:
 1018 03b0 C798      		cbi 56-32,7
 1019               	.LBB479:
 1020               	.LBB480:
 1021               	.LBB481:
 1022               	.LBB482:
 1023               	.LM143:
 1024               	/* #APP */
 1025               	 ;  83 "c:/winavr-20100110/lib/gcc/../../avr/include/util/delay_basic.h" 1
 1026 03b2 9A95      		1: dec r25
 1027 03b4 01F4      		brne 1b
 1028               	 ;  0 "" 2
 1029               	.LVL59:
 1030               	/* #NOAPP */
 1031               	.LBE482:
 1032               	.LBE481:
 1033               	.LBE480:
 1034               	.LBE479:
 1035               	.LM144:
 1036 03b6 0E94 0000 		call lcd_busy_loop
 1037               	.LVL60:
 1038               	/* epilogue start */
 1039               	.LM145:
 1040 03ba 0895      		ret
 1041               	.LFE21:
 1043               	.global	lcd_init
 1045               	lcd_init:
 1046               	.LFB23:
 1047               	.LM146:
 1048               	.LVL61:
 1049 03bc 1F93      		push r17
 1050               	/* prologue: function */
 1051               	/* frame size = 0 */
 1052 03be 182F      		mov r17,r24
 1053               	.LM147:
 1054 03c0 8CE2      		ldi r24,lo8(300)
 1055 03c2 91E0      		ldi r25,hi8(300)
 1056               	.LVL62:
 1057               	.LBB483:
 1058               	.LBB484:
 1059               	.LBB485:
 1060               	.LBB486:
 1061               	.LM148:
 1062 03c4 20E9      		ldi r18,lo8(400)
 1063 03c6 31E0      		ldi r19,hi8(400)
 1064               	.L82:
 1065 03c8 F901      		movw r30,r18
 1066               	.LVL63:
 1067               	/* #APP */
 1068               	 ;  105 "c:/winavr-20100110/lib/gcc/../../avr/include/util/delay_basic.h" 1
 1069 03ca 3197      		1: sbiw r30,1
 1070 03cc 01F4      		brne 1b
 1071               	 ;  0 "" 2
 1072               	/* #NOAPP */
 1073               	.LBE486:
 1074               	.LBE485:
 1075               	.LM149:
 1076 03ce 0197      		sbiw r24,1
 1077               	.LM150:
 1078 03d0 01F4      		brne .L82
 1079               	.LBE484:
 1080               	.LBE483:
 1081               	.LM151:
 1082 03d2 87B3      		in r24,55-32
 1083               	.LVL64:
 1084 03d4 8F60      		ori r24,lo8(15)
 1085 03d6 87BB      		out 55-32,r24
 1086               	.LM152:
 1087 03d8 BF9A      		sbi 55-32,7
 1088               	.LM153:
 1089 03da BD9A      		sbi 55-32,5
 1090               	.LM154:
 1091 03dc BE9A      		sbi 55-32,6
 1092               	.LM155:
 1093 03de 88B3      		in r24,56-32
 1094 03e0 807F      		andi r24,lo8(-16)
 1095 03e2 88BB      		out 56-32,r24
 1096               	.LM156:
 1097 03e4 C798      		cbi 56-32,7
 1098               	.LM157:
 1099 03e6 C698      		cbi 56-32,6
 1100               	.LM158:
 1101 03e8 C598      		cbi 56-32,5
 1102               	.LBB487:
 1103               	.LBB488:
 1104               	.LBB489:
 1105               	.LBB490:
 1106               	.LM159:
 1107 03ea 81E0      		ldi r24,lo8(1)
 1108               	.LVL65:
 1109               	/* #APP */
 1110               	 ;  83 "c:/winavr-20100110/lib/gcc/../../avr/include/util/delay_basic.h" 1
 1111 03ec 8A95      		1: dec r24
 1112 03ee 01F4      		brne 1b
 1113               	 ;  0 "" 2
 1114               	/* #NOAPP */
 1115               	.LBE490:
 1116               	.LBE489:
 1117               	.LBE488:
 1118               	.LBE487:
 1119               	.LM160:
 1120 03f0 C79A      		sbi 56-32,7
 1121               	.LM161:
 1122 03f2 C19A      		sbi 56-32,1
 1123               	.LBB491:
 1124               	.LBB492:
 1125               	.LBB493:
 1126               	.LBB494:
 1127               	.LM162:
 1128 03f4 85E0      		ldi r24,lo8(5)
 1129               	.LVL66:
 1130 03f6 982F      		mov r25,r24
 1131               	.LVL67:
 1132               	/* #APP */
 1133               	 ;  83 "c:/winavr-20100110/lib/gcc/../../avr/include/util/delay_basic.h" 1
 1134 03f8 9A95      		1: dec r25
 1135 03fa 01F4      		brne 1b
 1136               	 ;  0 "" 2
 1137               	/* #NOAPP */
 1138               	.LBE494:
 1139               	.LBE493:
 1140               	.LBE492:
 1141               	.LBE491:
 1142               	.LM163:
 1143 03fc C798      		cbi 56-32,7
 1144               	.LBB495:
 1145               	.LBB496:
 1146               	.LBB497:
 1147               	.LBB498:
 1148               	.LM164:
 1149               	/* #APP */
 1150               	 ;  83 "c:/winavr-20100110/lib/gcc/../../avr/include/util/delay_basic.h" 1
 1151 03fe 8A95      		1: dec r24
 1152 0400 01F4      		brne 1b
 1153               	 ;  0 "" 2
 1154               	.LVL68:
 1155               	/* #NOAPP */
 1156               	.LBE498:
 1157               	.LBE497:
 1158               	.LBE496:
 1159               	.LBE495:
 1160               	.LM165:
 1161 0402 0E94 0000 		call lcd_busy_loop
 1162               	.LVL69:
 1163               	.LM166:
 1164 0406 812F      		mov r24,r17
 1165 0408 8C60      		ori r24,lo8(12)
 1166 040a 60E0      		ldi r22,lo8(0)
 1167 040c 0E94 0000 		call lcd_byte
 1168               	.LM167:
 1169 0410 88E2      		ldi r24,lo8(40)
 1170 0412 60E0      		ldi r22,lo8(0)
 1171 0414 0E94 0000 		call lcd_byte
 1172               	/* epilogue start */
 1173               	.LM168:
 1174 0418 1F91      		pop r17
 1175               	.LVL70:
 1176 041a 0895      		ret
 1177               	.LFE23:
 1179               	.global	lcd_write_string
 1181               	lcd_write_string:
 1182               	.LFB24:
 1183               	.LM169:
 1184               	.LVL71:
 1185 041c CF93      		push r28
 1186 041e DF93      		push r29
 1187               	/* prologue: function */
 1188               	/* frame size = 0 */
 1189 0420 EC01      		movw r28,r24
 1190 0422 00C0      		rjmp .L86
 1191               	.LVL72:
 1192               	.L87:
 1193               	.LM170:
 1194 0424 61E0      		ldi r22,lo8(1)
 1195 0426 0E94 0000 		call lcd_byte
 1196               	.LM171:
 1197 042a 2196      		adiw r28,1
 1198               	.LVL73:
 1199               	.L86:
 1200               	.LM172:
 1201 042c 8881      		ld r24,Y
 1202 042e 8823      		tst r24
 1203 0430 01F4      		brne .L87
 1204               	/* epilogue start */
 1205               	.LM173:
 1206 0432 DF91      		pop r29
 1207 0434 CF91      		pop r28
 1208               	.LVL74:
 1209 0436 0895      		ret
 1210               	.LFE24:
 1212               	.global	lcd_write_int
 1214               	lcd_write_int:
 1215               	.LFB25:
 1216               	.LM174:
 1217               	.LVL75:
 1218 0438 EF92      		push r14
 1219 043a FF92      		push r15
 1220 043c 0F93      		push r16
 1221 043e 1F93      		push r17
 1222 0440 DF93      		push r29
 1223 0442 CF93      		push r28
 1224 0444 00D0      		rcall .
 1225 0446 00D0      		rcall .
 1226 0448 0F92      		push __tmp_reg__
 1227 044a CDB7      		in r28,__SP_L__
 1228 044c DEB7      		in r29,__SP_H__
 1229               	/* prologue: function */
 1230               	/* frame size = 5 */
 1231 044e 9C01      		movw r18,r24
 1232 0450 8B01      		movw r16,r22
 1233               	.LM175:
 1234 0452 FE01      		movw r30,r28
 1235 0454 3196      		adiw r30,1
 1236 0456 85E0      		ldi r24,lo8(5)
 1237               	.LVL76:
 1238 0458 DF01      		movw r26,r30
 1239 045a 1D92      		st X+,__zero_reg__
 1240 045c 8A95      	        dec r24
 1241 045e 01F4      		brne .-6
 1242 0460 FE01      		movw r30,r28
 1243 0462 3596      		adiw r30,5
 1244 0464 00C0      		rjmp .L90
 1245               	.LVL77:
 1246               	.L91:
 1247               	.LM176:
 1248 0466 C901      		movw r24,r18
 1249 0468 6AE0      		ldi r22,lo8(10)
 1250 046a 70E0      		ldi r23,hi8(10)
 1251 046c 0E94 0000 		call __divmodhi4
 1252 0470 8083      		st Z,r24
 1253               	.LM177:
 1254 0472 C901      		movw r24,r18
 1255 0474 6AE0      		ldi r22,lo8(10)
 1256 0476 70E0      		ldi r23,hi8(10)
 1257 0478 0E94 0000 		call __divmodhi4
 1258 047c 9B01      		movw r18,r22
 1259 047e 3197      		sbiw r30,1
 1260               	.LVL78:
 1261               	.L90:
 1262               	.LM178:
 1263 0480 2115      		cp r18,__zero_reg__
 1264 0482 3105      		cpc r19,__zero_reg__
 1265 0484 01F4      		brne .L91
 1266               	.LM179:
 1267 0486 BFEF      		ldi r27,hi8(-1)
 1268 0488 0F3F      		cpi r16,lo8(-1)
 1269 048a 1B07      		cpc r17,r27
 1270 048c 01F4      		brne .L92
 1271 048e 20E0      		ldi r18,lo8(0)
 1272 0490 30E0      		ldi r19,hi8(0)
 1273               	.LVL79:
 1274               	.LM180:
 1275 0492 AE01      		movw r20,r28
 1276 0494 4F5F      		subi r20,lo8(-(1))
 1277 0496 5F4F      		sbci r21,hi8(-(1))
 1278 0498 00C0      		rjmp .L93
 1279               	.L94:
 1280 049a 2F5F      		subi r18,lo8(-(1))
 1281 049c 3F4F      		sbci r19,hi8(-(1))
 1282               	.L93:
 1283 049e FA01      		movw r30,r20
 1284 04a0 E20F      		add r30,r18
 1285 04a2 F31F      		adc r31,r19
 1286 04a4 8081      		ld r24,Z
 1287 04a6 8823      		tst r24
 1288 04a8 01F0      		breq .L94
 1289 04aa 00C0      		rjmp .L95
 1290               	.LVL80:
 1291               	.L92:
 1292               	.LM181:
 1293 04ac 25E0      		ldi r18,lo8(5)
 1294 04ae 30E0      		ldi r19,hi8(5)
 1295               	.LVL81:
 1296 04b0 201B      		sub r18,r16
 1297 04b2 310B      		sbc r19,r17
 1298               	.L95:
 1299 04b4 7E01      		movw r14,r28
 1300 04b6 0894      		sec
 1301 04b8 E11C      		adc r14,__zero_reg__
 1302 04ba F11C      		adc r15,__zero_reg__
 1303 04bc E20E      		add r14,r18
 1304 04be F31E      		adc r15,r19
 1305 04c0 8901      		movw r16,r18
 1306               	.LVL82:
 1307 04c2 00C0      		rjmp .L96
 1308               	.L97:
 1309               	.LM182:
 1310 04c4 F701      		movw r30,r14
 1311 04c6 8191      		ld r24,Z+
 1312 04c8 7F01      		movw r14,r30
 1313 04ca 805D      		subi r24,lo8(-(48))
 1314 04cc 61E0      		ldi r22,lo8(1)
 1315               	.LVL83:
 1316 04ce 0E94 0000 		call lcd_byte
 1317               	.LVL84:
 1318               	.LM183:
 1319 04d2 0F5F      		subi r16,lo8(-(1))
 1320 04d4 1F4F      		sbci r17,hi8(-(1))
 1321               	.LVL85:
 1322               	.L96:
 1323 04d6 0530      		cpi r16,5
 1324 04d8 1105      		cpc r17,__zero_reg__
 1325 04da 04F0      		brlt .L97
 1326               	/* epilogue start */
 1327               	.LM184:
 1328 04dc 0F90      		pop __tmp_reg__
 1329 04de 0F90      		pop __tmp_reg__
 1330 04e0 0F90      		pop __tmp_reg__
 1331 04e2 0F90      		pop __tmp_reg__
 1332 04e4 0F90      		pop __tmp_reg__
 1333 04e6 CF91      		pop r28
 1334 04e8 DF91      		pop r29
 1335 04ea 1F91      		pop r17
 1336 04ec 0F91      		pop r16
 1337               	.LVL86:
 1338 04ee FF90      		pop r15
 1339 04f0 EF90      		pop r14
 1340 04f2 0895      		ret
 1341               	.LFE25:
 1343               	.global	lcd_goto_xy
 1345               	lcd_goto_xy:
 1346               	.LFB26:
 1347               	.LM185:
 1348               	.LVL87:
 1349               	/* prologue: function */
 1350               	/* frame size = 0 */
 1351               	.LM186:
 1352 04f4 8832      		cpi r24,lo8(40)
 1353 04f6 00F4      		brsh .L102
 1354               	.LM187:
 1355 04f8 6111      		cpse r22,__zero_reg__
 1356 04fa 8064      		ori r24,lo8(64)
 1357               	.LVL88:
 1358               	.L101:
 1359               	.LM188:
 1360 04fc 8068      		ori r24,lo8(-128)
 1361               	.LVL89:
 1362 04fe 60E0      		ldi r22,lo8(0)
 1363               	.LVL90:
 1364 0500 0E94 0000 		call lcd_byte
 1365               	.LVL91:
 1366               	.L102:
 1367 0504 0895      		ret
 1368               	.LFE26:
 1370               	.global	lcd_write_string_xy
 1372               	lcd_write_string_xy:
 1373               	.LFB27:
 1374               	.LM189:
 1375               	.LVL92:
 1376 0506 0F93      		push r16
 1377 0508 1F93      		push r17
 1378               	/* prologue: function */
 1379               	/* frame size = 0 */
 1380 050a 8A01      		movw r16,r20
 1381               	.LM190:
 1382 050c 0E94 0000 		call lcd_goto_xy
 1383               	.LVL93:
 1384               	.LM191:
 1385 0510 C801      		movw r24,r16
 1386 0512 0E94 0000 		call lcd_write_string
 1387               	/* epilogue start */
 1388               	.LM192:
 1389 0516 1F91      		pop r17
 1390 0518 0F91      		pop r16
 1391               	.LVL94:
 1392 051a 0895      		ret
 1393               	.LFE27:
 1395               	.global	lcd_write_int_xy
 1397               	lcd_write_int_xy:
 1398               	.LFB28:
 1399               	.LM193:
 1400               	.LVL95:
 1401 051c EF92      		push r14
 1402 051e FF92      		push r15
 1403 0520 0F93      		push r16
 1404 0522 1F93      		push r17
 1405               	/* prologue: function */
 1406               	/* frame size = 0 */
 1407 0524 8A01      		movw r16,r20
 1408 0526 7901      		movw r14,r18
 1409               	.LM194:
 1410 0528 0E94 0000 		call lcd_goto_xy
 1411               	.LVL96:
 1412               	.LM195:
 1413 052c C801      		movw r24,r16
 1414 052e B701      		movw r22,r14
 1415 0530 0E94 0000 		call lcd_write_int
 1416               	/* epilogue start */
 1417               	.LM196:
 1418 0534 1F91      		pop r17
 1419 0536 0F91      		pop r16
 1420               	.LVL97:
 1421 0538 FF90      		pop r15
 1422 053a EF90      		pop r14
 1423               	.LVL98:
 1424 053c 0895      		ret
 1425               	.LFE28:
 1427               	.global	usart_init
 1429               	usart_init:
 1430               	.LFB29:
 1431               	.LM197:
 1432               	/* prologue: function */
 1433               	/* frame size = 0 */
 1434               	.LM198:
 1435 053e 1AB8      		out 42-32,__zero_reg__
 1436               	.LM199:
 1437 0540 1BB8      		out 43-32,__zero_reg__
 1438               	.LM200:
 1439 0542 87E0      		ldi r24,lo8(7)
 1440 0544 80BD      		out 64-32,r24
 1441               	.LM201:
 1442 0546 87E6      		ldi r24,lo8(103)
 1443 0548 89B9      		out 41-32,r24
 1444               	.LM202:
 1445 054a 10BC      		out 64-32,__zero_reg__
 1446               	.LM203:
 1447 054c 88E9      		ldi r24,lo8(-104)
 1448 054e 8AB9      		out 42-32,r24
 1449               	/* epilogue start */
 1450               	.LM204:
 1451 0550 0895      		ret
 1452               	.LFE29:
 1454               	.global	usart_transmit_char
 1456               	usart_transmit_char:
 1457               	.LFB30:
 1458               	.LM205:
 1459               	/* prologue: function */
 1460               	/* frame size = 0 */
 1461               	.LVL99:
 1462               	.L110:
 1463               	.LM206:
 1464 0552 5D9B      		sbis 43-32,5
 1465 0554 00C0      		rjmp .L110
 1466               	.LM207:
 1467 0556 8CB9      		out 44-32,r24
 1468               	/* epilogue start */
 1469               	.LM208:
 1470 0558 0895      		ret
 1471               	.LFE30:
 1473               	.global	usart_transmit_string
 1475               	usart_transmit_string:
 1476               	.LFB31:
 1477               	.LM209:
 1478               	.LVL100:
 1479               	/* prologue: function */
 1480               	/* frame size = 0 */
 1481 055a FC01      		movw r30,r24
 1482 055c 00C0      		rjmp .L114
 1483               	.LVL101:
 1484               	.L117:
 1485               	.LBB499:
 1486               	.LBB500:
 1487               	.LM210:
 1488 055e 5D9B      		sbis 43-32,5
 1489 0560 00C0      		rjmp .L117
 1490               	.LM211:
 1491 0562 8CB9      		out 44-32,r24
 1492               	.LBE500:
 1493               	.LBE499:
 1494               	.LM212:
 1495 0564 3196      		adiw r30,1
 1496               	.LVL102:
 1497               	.L114:
 1498               	.LM213:
 1499 0566 8081      		ld r24,Z
 1500 0568 8823      		tst r24
 1501 056a 01F4      		brne .L117
 1502               	/* epilogue start */
 1503               	.LM214:
 1504 056c 0895      		ret
 1505               	.LFE31:
 1507               	.global	usart_transmit_newline
 1509               	usart_transmit_newline:
 1510               	.LFB32:
 1511               	.LM215:
 1512               	/* prologue: function */
 1513               	/* frame size = 0 */
 1514               	.L120:
 1515               	.LBB501:
 1516               	.LBB502:
 1517               	.LM216:
 1518 056e 5D9B      		sbis 43-32,5
 1519 0570 00C0      		rjmp .L120
 1520               	.LM217:
 1521 0572 8AE0      		ldi r24,lo8(10)
 1522 0574 8CB9      		out 44-32,r24
 1523               	.L121:
 1524               	.LBE502:
 1525               	.LBE501:
 1526               	.LBB503:
 1527               	.LBB504:
 1528               	.LM218:
 1529 0576 5D9B      		sbis 43-32,5
 1530 0578 00C0      		rjmp .L121
 1531               	.LM219:
 1532 057a 8DE0      		ldi r24,lo8(13)
 1533 057c 8CB9      		out 44-32,r24
 1534               	/* epilogue start */
 1535               	.LBE504:
 1536               	.LBE503:
 1537               	.LM220:
 1538 057e 0895      		ret
 1539               	.LFE32:
 1541               	.global	usart_receive_char
 1543               	usart_receive_char:
 1544               	.LFB33:
 1545               	.LM221:
 1546               	/* prologue: function */
 1547               	/* frame size = 0 */
 1548               	.L126:
 1549               	.LM222:
 1550 0580 5F9B      		sbis 43-32,7
 1551 0582 00C0      		rjmp .L126
 1552               	.LM223:
 1553 0584 8CB1      		in r24,44-32
 1554               	/* epilogue start */
 1555               	.LM224:
 1556 0586 0895      		ret
 1557               	.LFE33:
 1559               	.global	bot_motion_init
 1561               	bot_motion_init:
 1562               	.LFB34:
 1563               	.LM225:
 1564               	/* prologue: function */
 1565               	/* frame size = 0 */
 1566               	.LM226:
 1567 0588 8FEF      		ldi r24,lo8(-1)
 1568 058a 84BB      		out 52-32,r24
 1569               	/* epilogue start */
 1570               	.LM227:
 1571 058c 0895      		ret
 1572               	.LFE34:
 1574               	.global	bot_left_forward
 1576               	bot_left_forward:
 1577               	.LFB35:
 1578               	.LM228:
 1579               	/* prologue: function */
 1580               	/* frame size = 0 */
 1581               	.LM229:
 1582 058e AC9A      		sbi 53-32,4
 1583               	.LM230:
 1584 0590 AD98      		cbi 53-32,5
 1585               	.LM231:
 1586 0592 AE98      		cbi 53-32,6
 1587               	.LM232:
 1588 0594 AF98      		cbi 53-32,7
 1589               	/* epilogue start */
 1590               	.LM233:
 1591 0596 0895      		ret
 1592               	.LFE35:
 1594               	.global	bot_left_backward
 1596               	bot_left_backward:
 1597               	.LFB36:
 1598               	.LM234:
 1599               	/* prologue: function */
 1600               	/* frame size = 0 */
 1601               	.LM235:
 1602 0598 AC98      		cbi 53-32,4
 1603               	.LM236:
 1604 059a AD9A      		sbi 53-32,5
 1605               	.LM237:
 1606 059c AE98      		cbi 53-32,6
 1607               	.LM238:
 1608 059e AF98      		cbi 53-32,7
 1609               	/* epilogue start */
 1610               	.LM239:
 1611 05a0 0895      		ret
 1612               	.LFE36:
 1614               	.global	bot_right_forward
 1616               	bot_right_forward:
 1617               	.LFB37:
 1618               	.LM240:
 1619               	/* prologue: function */
 1620               	/* frame size = 0 */
 1621               	.LM241:
 1622 05a2 AC98      		cbi 53-32,4
 1623               	.LM242:
 1624 05a4 AD98      		cbi 53-32,5
 1625               	.LM243:
 1626 05a6 AE9A      		sbi 53-32,6
 1627               	.LM244:
 1628 05a8 AF98      		cbi 53-32,7
 1629               	/* epilogue start */
 1630               	.LM245:
 1631 05aa 0895      		ret
 1632               	.LFE37:
 1634               	.global	bot_left
 1636               	bot_left:
 1637               	.LFB38:
 1638               	.LM246:
 1639               	/* prologue: function */
 1640               	/* frame size = 0 */
 1641               	.LBB505:
 1642               	.LBB506:
 1643               	.LM247:
 1644 05ac AC98      		cbi 53-32,4
 1645               	.LM248:
 1646 05ae AD98      		cbi 53-32,5
 1647               	.LM249:
 1648 05b0 AE9A      		sbi 53-32,6
 1649               	.LM250:
 1650 05b2 AF98      		cbi 53-32,7
 1651               	/* epilogue start */
 1652               	.LBE506:
 1653               	.LBE505:
 1654               	.LM251:
 1655 05b4 0895      		ret
 1656               	.LFE38:
 1658               	.global	bot_right
 1660               	bot_right:
 1661               	.LFB39:
 1662               	.LM252:
 1663               	/* prologue: function */
 1664               	/* frame size = 0 */
 1665               	.LBB507:
 1666               	.LBB508:
 1667               	.LM253:
 1668 05b6 AC9A      		sbi 53-32,4
 1669               	.LM254:
 1670 05b8 AD98      		cbi 53-32,5
 1671               	.LM255:
 1672 05ba AE98      		cbi 53-32,6
 1673               	.LM256:
 1674 05bc AF98      		cbi 53-32,7
 1675               	/* epilogue start */
 1676               	.LBE508:
 1677               	.LBE507:
 1678               	.LM257:
 1679 05be 0895      		ret
 1680               	.LFE39:
 1682               	.global	bot_right_backward
 1684               	bot_right_backward:
 1685               	.LFB40:
 1686               	.LM258:
 1687               	/* prologue: function */
 1688               	/* frame size = 0 */
 1689               	.LM259:
 1690 05c0 AC98      		cbi 53-32,4
 1691               	.LM260:
 1692 05c2 AD98      		cbi 53-32,5
 1693               	.LM261:
 1694 05c4 AE98      		cbi 53-32,6
 1695               	.LM262:
 1696 05c6 AF9A      		sbi 53-32,7
 1697               	/* epilogue start */
 1698               	.LM263:
 1699 05c8 0895      		ret
 1700               	.LFE40:
 1702               	.global	bot_forward
 1704               	bot_forward:
 1705               	.LFB41:
 1706               	.LM264:
 1707               	/* prologue: function */
 1708               	/* frame size = 0 */
 1709               	.LM265:
 1710 05ca AC9A      		sbi 53-32,4
 1711               	.LM266:
 1712 05cc AD98      		cbi 53-32,5
 1713               	.LM267:
 1714 05ce AE9A      		sbi 53-32,6
 1715               	.LM268:
 1716 05d0 AF98      		cbi 53-32,7
 1717               	/* epilogue start */
 1718               	.LM269:
 1719 05d2 0895      		ret
 1720               	.LFE41:
 1722               	.global	bot_backward
 1724               	bot_backward:
 1725               	.LFB42:
 1726               	.LM270:
 1727               	/* prologue: function */
 1728               	/* frame size = 0 */
 1729               	.LM271:
 1730 05d4 AC98      		cbi 53-32,4
 1731               	.LM272:
 1732 05d6 AD9A      		sbi 53-32,5
 1733               	.LM273:
 1734 05d8 AE98      		cbi 53-32,6
 1735               	.LM274:
 1736 05da AF9A      		sbi 53-32,7
 1737               	/* epilogue start */
 1738               	.LM275:
 1739 05dc 0895      		ret
 1740               	.LFE42:
 1742               	.global	bot_spot_left
 1744               	bot_spot_left:
 1745               	.LFB43:
 1746               	.LM276:
 1747               	/* prologue: function */
 1748               	/* frame size = 0 */
 1749               	.LM277:
 1750 05de AC98      		cbi 53-32,4
 1751               	.LM278:
 1752 05e0 AD9A      		sbi 53-32,5
 1753               	.LM279:
 1754 05e2 AE9A      		sbi 53-32,6
 1755               	.LM280:
 1756 05e4 AF98      		cbi 53-32,7
 1757               	/* epilogue start */
 1758               	.LM281:
 1759 05e6 0895      		ret
 1760               	.LFE43:
 1762               	.global	bot_spot_right
 1764               	bot_spot_right:
 1765               	.LFB44:
 1766               	.LM282:
 1767               	/* prologue: function */
 1768               	/* frame size = 0 */
 1769               	.LM283:
 1770 05e8 AC9A      		sbi 53-32,4
 1771               	.LM284:
 1772 05ea AD98      		cbi 53-32,5
 1773               	.LM285:
 1774 05ec AE98      		cbi 53-32,6
 1775               	.LM286:
 1776 05ee AF9A      		sbi 53-32,7
 1777               	/* epilogue start */
 1778               	.LM287:
 1779 05f0 0895      		ret
 1780               	.LFE44:
 1782               	.global	bot_stop
 1784               	bot_stop:
 1785               	.LFB45:
 1786               	.LM288:
 1787               	/* prologue: function */
 1788               	/* frame size = 0 */
 1789               	.LM289:
 1790 05f2 AC98      		cbi 53-32,4
 1791               	.LM290:
 1792 05f4 AD98      		cbi 53-32,5
 1793               	.LM291:
 1794 05f6 AE98      		cbi 53-32,6
 1795               	.LM292:
 1796 05f8 AF98      		cbi 53-32,7
 1797               	/* epilogue start */
 1798               	.LM293:
 1799 05fa 0895      		ret
 1800               	.LFE45:
 1802               	.global	bot_brake
 1804               	bot_brake:
 1805               	.LFB46:
 1806               	.LM294:
 1807               	/* prologue: function */
 1808               	/* frame size = 0 */
 1809               	.LM295:
 1810 05fc AC9A      		sbi 53-32,4
 1811               	.LM296:
 1812 05fe AD9A      		sbi 53-32,5
 1813               	.LM297:
 1814 0600 AE9A      		sbi 53-32,6
 1815               	.LM298:
 1816 0602 AF9A      		sbi 53-32,7
 1817               	/* epilogue start */
 1818               	.LM299:
 1819 0604 0895      		ret
 1820               	.LFE46:
 1822               	.global	switch_init
 1824               	switch_init:
 1825               	.LFB47:
 1826               	.LM300:
 1827               	/* prologue: function */
 1828               	/* frame size = 0 */
 1829               	.LM301:
 1830 0606 82B3      		in r24,50-32
 1831 0608 8F60      		ori r24,lo8(15)
 1832 060a 82BB      		out 50-32,r24
 1833               	.LM302:
 1834 060c 81B3      		in r24,49-32
 1835 060e 807F      		andi r24,lo8(-16)
 1836 0610 81BB      		out 49-32,r24
 1837               	/* epilogue start */
 1838               	.LM303:
 1839 0612 0895      		ret
 1840               	.LFE47:
 1842               	.global	pressed_switch0
 1844               	pressed_switch0:
 1845               	.LFB48:
 1846               	.LM304:
 1847               	/* prologue: function */
 1848               	/* frame size = 0 */
 1849               	.LM305:
 1850 0614 20B3      		in r18,48-32
 1851 0616 30E0      		ldi r19,lo8(0)
 1852 0618 2095      		com r18
 1853 061a 3095      		com r19
 1854 061c 2170      		andi r18,lo8(1)
 1855 061e 3070      		andi r19,hi8(1)
 1856               	.LM306:
 1857 0620 C901      		movw r24,r18
 1858               	/* epilogue start */
 1859 0622 0895      		ret
 1860               	.LFE48:
 1862               	.global	pressed_switch1
 1864               	pressed_switch1:
 1865               	.LFB49:
 1866               	.LM307:
 1867               	/* prologue: function */
 1868               	/* frame size = 0 */
 1869               	.LM308:
 1870 0624 20B3      		in r18,48-32
 1871 0626 30E0      		ldi r19,lo8(0)
 1872 0628 3695      		lsr r19
 1873 062a 2795      		ror r18
 1874 062c 2095      		com r18
 1875 062e 3095      		com r19
 1876 0630 2170      		andi r18,lo8(1)
 1877 0632 3070      		andi r19,hi8(1)
 1878               	.LM309:
 1879 0634 C901      		movw r24,r18
 1880               	/* epilogue start */
 1881 0636 0895      		ret
 1882               	.LFE49:
 1884               	.global	pressed_switch2
 1886               	pressed_switch2:
 1887               	.LFB50:
 1888               	.LM310:
 1889               	/* prologue: function */
 1890               	/* frame size = 0 */
 1891               	.LM311:
 1892 0638 20B3      		in r18,48-32
 1893 063a 30E0      		ldi r19,lo8(0)
 1894 063c 3695      		lsr r19
 1895 063e 2795      		ror r18
 1896 0640 3695      		lsr r19
 1897 0642 2795      		ror r18
 1898 0644 2095      		com r18
 1899 0646 3095      		com r19
 1900 0648 2170      		andi r18,lo8(1)
 1901 064a 3070      		andi r19,hi8(1)
 1902               	.LM312:
 1903 064c C901      		movw r24,r18
 1904               	/* epilogue start */
 1905 064e 0895      		ret
 1906               	.LFE50:
 1908               	.global	pressed_switch3
 1910               	pressed_switch3:
 1911               	.LFB51:
 1912               	.LM313:
 1913               	/* prologue: function */
 1914               	/* frame size = 0 */
 1915               	.LM314:
 1916 0650 20B3      		in r18,48-32
 1917 0652 30E0      		ldi r19,lo8(0)
 1918 0654 43E0      		ldi r20,3
 1919 0656 3695      	1:	lsr r19
 1920 0658 2795      		ror r18
 1921 065a 4A95      		dec r20
 1922 065c 01F4      		brne 1b
 1923 065e 2095      		com r18
 1924 0660 3095      		com r19
 1925 0662 2170      		andi r18,lo8(1)
 1926 0664 3070      		andi r19,hi8(1)
 1927               	.LM315:
 1928 0666 C901      		movw r24,r18
 1929               	/* epilogue start */
 1930 0668 0895      		ret
 1931               	.LFE51:
 1933               	.global	line_track
 1935               	line_track:
 1936               	.LFB53:
 1937               	.LM316:
 1938 066a 6F92      		push r6
 1939 066c 7F92      		push r7
 1940 066e 8F92      		push r8
 1941 0670 9F92      		push r9
 1942 0672 AF92      		push r10
 1943 0674 BF92      		push r11
 1944 0676 CF92      		push r12
 1945 0678 DF92      		push r13
 1946 067a EF92      		push r14
 1947 067c FF92      		push r15
 1948 067e 0F93      		push r16
 1949 0680 1F93      		push r17
 1950               	/* prologue: function */
 1951               	/* frame size = 0 */
 1952               	.LBB509:
 1953               	.LBB510:
 1954               	.LM317:
 1955 0682 AC9A      		sbi 53-32,4
 1956               	.LM318:
 1957 0684 AD98      		cbi 53-32,5
 1958               	.LM319:
 1959 0686 AE9A      		sbi 53-32,6
 1960               	.LM320:
 1961 0688 AF98      		cbi 53-32,7
 1962               	.LBE510:
 1963               	.LBE509:
 1964               	.LM321:
 1965 068a 8091 0000 		lds r24,sensorbyte
 1966 068e 8630      		cpi r24,lo8(6)
 1967 0690 01F0      		breq .L181
 1968 0692 8730      		cpi r24,lo8(7)
 1969 0694 00F4      		brsh .L176
 1970 0696 8230      		cpi r24,lo8(2)
 1971 0698 01F0      		breq .L168
 1972 069a 8330      		cpi r24,lo8(3)
 1973 069c 00F4      		brsh .L177
 1974 069e 8130      		cpi r24,lo8(1)
 1975 06a0 01F4      		brne .L166
 1976 06a2 00C0      		rjmp .L184
 1977               	.L177:
 1978 06a4 8330      		cpi r24,lo8(3)
 1979 06a6 01F0      		breq .L169
 1980 06a8 8430      		cpi r24,lo8(4)
 1981 06aa 01F4      		brne .L166
 1982 06ac 00C0      		rjmp .L185
 1983               	.L176:
 1984 06ae 8830      		cpi r24,lo8(8)
 1985 06b0 01F0      		breq .L173
 1986 06b2 8830      		cpi r24,lo8(8)
 1987 06b4 00F0      		brlo .L172
 1988 06b6 8C30      		cpi r24,lo8(12)
 1989 06b8 01F0      		breq .L174
 1990 06ba 8E30      		cpi r24,lo8(14)
 1991 06bc 01F4      		brne .L166
 1992 06be 00C0      		rjmp .L186
 1993               	.L185:
 1994               	.LM322:
 1995 06c0 81E0      		ldi r24,lo8(1)
 1996 06c2 90E0      		ldi r25,hi8(1)
 1997 06c4 00C0      		rjmp .L180
 1998               	.L168:
 1999               	.LM323:
 2000 06c6 8FEF      		ldi r24,lo8(-1)
 2001 06c8 9FEF      		ldi r25,hi8(-1)
 2002 06ca 00C0      		rjmp .L180
 2003               	.L174:
 2004               	.LM324:
 2005 06cc 83E0      		ldi r24,lo8(3)
 2006 06ce 90E0      		ldi r25,hi8(3)
 2007 06d0 00C0      		rjmp .L180
 2008               	.L169:
 2009               	.LM325:
 2010 06d2 8DEF      		ldi r24,lo8(-3)
 2011 06d4 9FEF      		ldi r25,hi8(-3)
 2012 06d6 00C0      		rjmp .L183
 2013               	.L186:
 2014               	.LM326:
 2015 06d8 84E0      		ldi r24,lo8(4)
 2016 06da 90E0      		ldi r25,hi8(4)
 2017 06dc 00C0      		rjmp .L180
 2018               	.L172:
 2019               	.LM327:
 2020 06de 8CEF      		ldi r24,lo8(-4)
 2021 06e0 9FEF      		ldi r25,hi8(-4)
 2022               	.L183:
 2023 06e2 9093 0000 		sts (mpos)+1,r25
 2024 06e6 8093 0000 		sts mpos,r24
 2025               	.LM328:
 2026 06ea 8091 0000 		lds r24,flag1
 2027 06ee 9091 0000 		lds r25,(flag1)+1
 2028 06f2 0197      		sbiw r24,1
 2029 06f4 01F4      		brne .L166
 2030               	.L181:
 2031               	.LM329:
 2032 06f6 1092 0000 		sts (mpos)+1,__zero_reg__
 2033 06fa 1092 0000 		sts mpos,__zero_reg__
 2034 06fe 00C0      		rjmp .L166
 2035               	.L173:
 2036               	.LM330:
 2037 0700 86E0      		ldi r24,lo8(6)
 2038 0702 90E0      		ldi r25,hi8(6)
 2039 0704 00C0      		rjmp .L180
 2040               	.L184:
 2041               	.LM331:
 2042 0706 8AEF      		ldi r24,lo8(-6)
 2043 0708 9FEF      		ldi r25,hi8(-6)
 2044               	.L180:
 2045 070a 9093 0000 		sts (mpos)+1,r25
 2046 070e 8093 0000 		sts mpos,r24
 2047               	.L166:
 2048               	.LM332:
 2049 0712 6091 0000 		lds r22,mpos
 2050 0716 7091 0000 		lds r23,(mpos)+1
 2051 071a 8827      		clr r24
 2052 071c 77FD      		sbrc r23,7
 2053 071e 8095      		com r24
 2054 0720 982F      		mov r25,r24
 2055 0722 0E94 0000 		call __floatsisf
 2056 0726 5B01      		movw r10,r22
 2057 0728 6C01      		movw r12,r24
 2058 072a 6091 0000 		lds r22,prev_error
 2059 072e 7091 0000 		lds r23,(prev_error)+1
 2060 0732 8091 0000 		lds r24,(prev_error)+2
 2061 0736 9091 0000 		lds r25,(prev_error)+3
 2062 073a A601      		movw r20,r12
 2063 073c 9501      		movw r18,r10
 2064 073e 0E94 0000 		call __subsf3
 2065 0742 7B01      		movw r14,r22
 2066 0744 8C01      		movw r16,r24
 2067 0746 6093 0000 		sts act_error,r22
 2068 074a 7093 0000 		sts (act_error)+1,r23
 2069 074e 8093 0000 		sts (act_error)+2,r24
 2070 0752 9093 0000 		sts (act_error)+3,r25
 2071               	.LM333:
 2072 0756 C601      		movw r24,r12
 2073 0758 B501      		movw r22,r10
 2074 075a 2091 0000 		lds r18,kp
 2075 075e 3091 0000 		lds r19,(kp)+1
 2076 0762 4091 0000 		lds r20,(kp)+2
 2077 0766 5091 0000 		lds r21,(kp)+3
 2078 076a 0E94 0000 		call __mulsf3
 2079 076e 3B01      		movw r6,r22
 2080 0770 4C01      		movw r8,r24
 2081 0772 C801      		movw r24,r16
 2082 0774 B701      		movw r22,r14
 2083 0776 2091 0000 		lds r18,kd
 2084 077a 3091 0000 		lds r19,(kd)+1
 2085 077e 4091 0000 		lds r20,(kd)+2
 2086 0782 5091 0000 		lds r21,(kd)+3
 2087 0786 0E94 0000 		call __mulsf3
 2088 078a 9B01      		movw r18,r22
 2089 078c AC01      		movw r20,r24
 2090 078e C401      		movw r24,r8
 2091 0790 B301      		movw r22,r6
 2092 0792 0E94 0000 		call __subsf3
 2093 0796 7B01      		movw r14,r22
 2094 0798 8C01      		movw r16,r24
 2095 079a 6093 0000 		sts control,r22
 2096 079e 7093 0000 		sts (control)+1,r23
 2097 07a2 8093 0000 		sts (control)+2,r24
 2098 07a6 9093 0000 		sts (control)+3,r25
 2099               	.LM334:
 2100 07aa A092 0000 		sts prev_error,r10
 2101 07ae B092 0000 		sts (prev_error)+1,r11
 2102 07b2 C092 0000 		sts (prev_error)+2,r12
 2103 07b6 D092 0000 		sts (prev_error)+3,r13
 2104               	.LM335:
 2105 07ba 6091 0000 		lds r22,opt
 2106 07be 7091 0000 		lds r23,(opt)+1
 2107 07c2 80E0      		ldi r24,lo8(0)
 2108 07c4 90E0      		ldi r25,hi8(0)
 2109 07c6 0E94 0000 		call __floatunsisf
 2110 07ca 5B01      		movw r10,r22
 2111 07cc 6C01      		movw r12,r24
 2112               	.LBB511:
 2113               	.LBB512:
 2114               	.LM336:
 2115 07ce A801      		movw r20,r16
 2116 07d0 9701      		movw r18,r14
 2117 07d2 0E94 0000 		call __subsf3
 2118 07d6 0E94 0000 		call __fixsfsi
 2119 07da 7BBD      		out (74)+1-32,r23
 2120 07dc 6ABD      		out 74-32,r22
 2121               	.LBE512:
 2122               	.LBE511:
 2123               	.LBB513:
 2124               	.LBB514:
 2125               	.LM337:
 2126 07de C601      		movw r24,r12
 2127 07e0 B501      		movw r22,r10
 2128 07e2 A801      		movw r20,r16
 2129 07e4 9701      		movw r18,r14
 2130 07e6 0E94 0000 		call __addsf3
 2131 07ea 0E94 0000 		call __fixsfsi
 2132 07ee 79BD      		out (72)+1-32,r23
 2133 07f0 68BD      		out 72-32,r22
 2134               	/* epilogue start */
 2135               	.LBE514:
 2136               	.LBE513:
 2137               	.LM338:
 2138 07f2 1F91      		pop r17
 2139 07f4 0F91      		pop r16
 2140 07f6 FF90      		pop r15
 2141 07f8 EF90      		pop r14
 2142 07fa DF90      		pop r13
 2143 07fc CF90      		pop r12
 2144 07fe BF90      		pop r11
 2145 0800 AF90      		pop r10
 2146 0802 9F90      		pop r9
 2147 0804 8F90      		pop r8
 2148 0806 7F90      		pop r7
 2149 0808 6F90      		pop r6
 2150 080a 0895      		ret
 2151               	.LFE53:
 2153               	.global	init_devices
 2155               	init_devices:
 2156               	.LFB54:
 2157               	.LM339:
 2158               	/* prologue: function */
 2159               	/* frame size = 0 */
 2160               	.LM340:
 2161 080c 0E94 0000 		call port_init
 2162               	.LBB515:
 2163               	.LBB516:
 2164               	.LM341:
 2165 0810 1ABA      		out 58-32,__zero_reg__
 2166               	.LM342:
 2167 0812 16B8      		out 38-32,__zero_reg__
 2168               	.LM343:
 2169 0814 80E6      		ldi r24,lo8(96)
 2170 0816 87B9      		out 39-32,r24
 2171               	.LM344:
 2172 0818 87E8      		ldi r24,lo8(-121)
 2173 081a 86B9      		out 38-32,r24
 2174               	.LM345:
 2175 081c 80E8      		ldi r24,lo8(-128)
 2176 081e 88B9      		out 40-32,r24
 2177               	.LBE516:
 2178               	.LBE515:
 2179               	.LBB517:
 2180               	.LBB518:
 2181               	.LM346:
 2182 0820 8FEF      		ldi r24,lo8(-1)
 2183 0822 84BB      		out 52-32,r24
 2184               	.LBE518:
 2185               	.LBE517:
 2186               	.LM347:
 2187 0824 82E0      		ldi r24,lo8(2)
 2188 0826 0E94 0000 		call lcd_init
 2189               	.LBB519:
 2190               	.LBB520:
 2191               	.LM348:
 2192 082a 82B3      		in r24,50-32
 2193 082c 8F60      		ori r24,lo8(15)
 2194 082e 82BB      		out 50-32,r24
 2195               	.LM349:
 2196 0830 81B3      		in r24,49-32
 2197 0832 807F      		andi r24,lo8(-16)
 2198 0834 81BB      		out 49-32,r24
 2199               	.LBE520:
 2200               	.LBE519:
 2201               	.LM350:
 2202 0836 0E94 0000 		call pwm1_init
 2203               	/* epilogue start */
 2204               	.LM351:
 2205 083a 0895      		ret
 2206               	.LFE54:
 2208               	.global	Uturn
 2210               	Uturn:
 2211               	.LFB55:
 2212               	.LM352:
 2213               	/* prologue: function */
 2214               	/* frame size = 0 */
 2215               	.LM353:
 2216 083c 85E7      		ldi r24,lo8(117)
 2217 083e 8093 0000 		sts turn,r24
 2218               	.LBB521:
 2219               	.LBB522:
 2220               	.LM354:
 2221 0842 20EF      		ldi r18,lo8(240)
 2222 0844 30E0      		ldi r19,hi8(240)
 2223               	.LBE522:
 2224               	.LBE521:
 2225               	.LBB524:
 2226               	.LBB525:
 2227               	.LM355:
 2228 0846 82E2      		ldi r24,lo8(290)
 2229 0848 91E0      		ldi r25,hi8(290)
 2230 084a 00C0      		rjmp .L190
 2231               	.L191:
 2232               	.LBE525:
 2233               	.LBE524:
 2234               	.LBB527:
 2235               	.LBB523:
 2236               	.LM356:
 2237 084c 3BBD      		out (74)+1-32,r19
 2238 084e 2ABD      		out 74-32,r18
 2239               	.LBE523:
 2240               	.LBE527:
 2241               	.LBB528:
 2242               	.LBB526:
 2243               	.LM357:
 2244 0850 99BD      		out (72)+1-32,r25
 2245 0852 88BD      		out 72-32,r24
 2246               	.LBE526:
 2247               	.LBE528:
 2248               	.LBB529:
 2249               	.LBB530:
 2250               	.LM358:
 2251 0854 AC98      		cbi 53-32,4
 2252               	.LM359:
 2253 0856 AD9A      		sbi 53-32,5
 2254               	.LM360:
 2255 0858 AE9A      		sbi 53-32,6
 2256               	.LM361:
 2257 085a AF98      		cbi 53-32,7
 2258               	.L190:
 2259               	.LBE530:
 2260               	.LBE529:
 2261               	.LM362:
 2262 085c CD99      		sbic 57-32,5
 2263 085e 00C0      		rjmp .L191
 2264 0860 00C0      		rjmp .L198
 2265               	.L194:
 2266               	.LBB531:
 2267               	.LBB532:
 2268               	.LM363:
 2269 0862 3BBD      		out (74)+1-32,r19
 2270 0864 2ABD      		out 74-32,r18
 2271               	.LBE532:
 2272               	.LBE531:
 2273               	.LBB534:
 2274               	.LBB535:
 2275               	.LM364:
 2276 0866 99BD      		out (72)+1-32,r25
 2277 0868 88BD      		out 72-32,r24
 2278               	.LBE535:
 2279               	.LBE534:
 2280               	.LBB537:
 2281               	.LBB538:
 2282               	.LM365:
 2283 086a AC98      		cbi 53-32,4
 2284               	.LM366:
 2285 086c AD9A      		sbi 53-32,5
 2286               	.LM367:
 2287 086e AE9A      		sbi 53-32,6
 2288               	.LM368:
 2289 0870 AF98      		cbi 53-32,7
 2290 0872 00C0      		rjmp .L197
 2291               	.L198:
 2292               	.LBE538:
 2293               	.LBE537:
 2294               	.LBB539:
 2295               	.LBB533:
 2296               	.LM369:
 2297 0874 29EB      		ldi r18,lo8(185)
 2298 0876 30E0      		ldi r19,hi8(185)
 2299               	.LBE533:
 2300               	.LBE539:
 2301               	.LBB540:
 2302               	.LBB536:
 2303               	.LM370:
 2304 0878 87ED      		ldi r24,lo8(215)
 2305 087a 90E0      		ldi r25,hi8(215)
 2306               	.L197:
 2307               	.LBE536:
 2308               	.LBE540:
 2309               	.LM371:
 2310 087c CE9B      		sbis 57-32,6
 2311 087e 00C0      		rjmp .L193
 2312 0880 8699      		sbic 48-32,6
 2313 0882 00C0      		rjmp .L194
 2314               	.L193:
 2315               	.LBB541:
 2316               	.LBB542:
 2317               	.LM372:
 2318 0884 8FE8      		ldi r24,lo8(399)
 2319 0886 91E0      		ldi r25,hi8(399)
 2320 0888 9BBD      		out (74)+1-32,r25
 2321 088a 8ABD      		out 74-32,r24
 2322               	.LBE542:
 2323               	.LBE541:
 2324               	.LBB543:
 2325               	.LBB544:
 2326               	.LM373:
 2327 088c 99BD      		out (72)+1-32,r25
 2328 088e 88BD      		out 72-32,r24
 2329               	.LBE544:
 2330               	.LBE543:
 2331               	.LBB545:
 2332               	.LBB546:
 2333               	.LM374:
 2334 0890 AC9A      		sbi 53-32,4
 2335               	.LM375:
 2336 0892 AD9A      		sbi 53-32,5
 2337               	.LM376:
 2338 0894 AE9A      		sbi 53-32,6
 2339               	.LM377:
 2340 0896 AF9A      		sbi 53-32,7
 2341               	/* epilogue start */
 2342               	.LBE546:
 2343               	.LBE545:
 2344               	.LM378:
 2345 0898 0895      		ret
 2346               	.LFE55:
 2348               	.global	left_count
 2350               	left_count:
 2351               	.LFB58:
 2352               	.LM379:
 2353               	/* prologue: function */
 2354               	/* frame size = 0 */
 2355               	.LM380:
 2356 089a CC99      		sbic 57-32,4
 2357 089c 00C0      		rjmp .L200
 2358               	.LM381:
 2359 089e 8091 0000 		lds r24,l
 2360 08a2 9091 0000 		lds r25,(l)+1
 2361 08a6 892B      		or r24,r25
 2362 08a8 01F4      		brne .L202
 2363               	.LM382:
 2364 08aa 8091 0000 		lds r24,lcount
 2365 08ae 9091 0000 		lds r25,(lcount)+1
 2366 08b2 0196      		adiw r24,1
 2367 08b4 9093 0000 		sts (lcount)+1,r25
 2368 08b8 8093 0000 		sts lcount,r24
 2369               	.LM383:
 2370 08bc 81E0      		ldi r24,lo8(1)
 2371 08be 90E0      		ldi r25,hi8(1)
 2372 08c0 9093 0000 		sts (l)+1,r25
 2373 08c4 8093 0000 		sts l,r24
 2374 08c8 0895      		ret
 2375               	.L200:
 2376               	.LM384:
 2377 08ca 1092 0000 		sts (l)+1,__zero_reg__
 2378 08ce 1092 0000 		sts l,__zero_reg__
 2379               	.L202:
 2380 08d2 0895      		ret
 2381               	.LFE58:
 2383               	.global	special_case_check
 2385               	special_case_check:
 2386               	.LFB60:
 2387               	.LM385:
 2388               	/* prologue: function */
 2389               	/* frame size = 0 */
 2390               	.LM386:
 2391 08d4 CD9B      		sbis 57-32,5
 2392 08d6 00C0      		rjmp .L204
 2393 08d8 8091 0000 		lds r24,flag1
 2394 08dc 9091 0000 		lds r25,(flag1)+1
 2395 08e0 0197      		sbiw r24,1
 2396 08e2 01F4      		brne .L210
 2397               	.L204:
 2398               	.LM387:
 2399 08e4 81E0      		ldi r24,lo8(1)
 2400 08e6 90E0      		ldi r25,hi8(1)
 2401 08e8 9093 0000 		sts (flag1)+1,r25
 2402 08ec 8093 0000 		sts flag1,r24
 2403               	.LM388:
 2404 08f0 CC99      		sbic 57-32,4
 2405 08f2 00C0      		rjmp .L210
 2406 08f4 869B      		sbis 48-32,6
 2407 08f6 00C0      		rjmp .L206
 2408 08f8 CE9B      		sbis 57-32,6
 2409 08fa 00C0      		rjmp .L206
 2410 08fc 0895      		ret
 2411               	.L209:
 2412               	.LBB547:
 2413               	.LBB548:
 2414               	.LM389:
 2415 08fe 3BBD      		out (74)+1-32,r19
 2416 0900 2ABD      		out 74-32,r18
 2417               	.LBE548:
 2418               	.LBE547:
 2419               	.LBB550:
 2420               	.LBB551:
 2421               	.LM390:
 2422 0902 39BD      		out (72)+1-32,r19
 2423 0904 28BD      		out 72-32,r18
 2424               	.LBE551:
 2425               	.LBE550:
 2426               	.LBB552:
 2427               	.LBB553:
 2428               	.LM391:
 2429 0906 AC9A      		sbi 53-32,4
 2430               	.LM392:
 2431 0908 AD98      		cbi 53-32,5
 2432               	.LM393:
 2433 090a AE9A      		sbi 53-32,6
 2434               	.LM394:
 2435 090c AF98      		cbi 53-32,7
 2436               	.LBE553:
 2437               	.LBE552:
 2438               	.LM395:
 2439 090e 80E0      		ldi r24,lo8(0)
 2440 0910 90E0      		ldi r25,hi8(0)
 2441 0912 8799      		sbic 48-32,7
 2442 0914 00C0      		rjmp .L213
 2443               	.LBB554:
 2444               	.LBB555:
 2445               	.LM396:
 2446 0916 AC9A      		sbi 53-32,4
 2447               	.LM397:
 2448 0918 AD9A      		sbi 53-32,5
 2449               	.LM398:
 2450 091a AE9A      		sbi 53-32,6
 2451               	.LM399:
 2452 091c AF9A      		sbi 53-32,7
 2453 091e 00C0      		rjmp .L213
 2454               	.L206:
 2455 0920 81E0      		ldi r24,lo8(1)
 2456 0922 90E0      		ldi r25,hi8(1)
 2457               	.LBE555:
 2458               	.LBE554:
 2459               	.LBB556:
 2460               	.LBB549:
 2461               	.LM400:
 2462 0924 20EF      		ldi r18,lo8(240)
 2463 0926 30E0      		ldi r19,hi8(240)
 2464               	.L213:
 2465               	.LBE549:
 2466               	.LBE556:
 2467               	.LM401:
 2468 0928 CC9B      		sbis 57-32,4
 2469 092a 00C0      		rjmp .L208
 2470 092c 9093 0000 		sts (flag1)+1,r25
 2471 0930 8093 0000 		sts flag1,r24
 2472 0934 0895      		ret
 2473               	.L208:
 2474 0936 8799      		sbic 48-32,7
 2475 0938 00C0      		rjmp .L209
 2476 093a 9093 0000 		sts (flag1)+1,r25
 2477 093e 8093 0000 		sts flag1,r24
 2478               	.L210:
 2479 0942 0895      		ret
 2480               	.LFE60:
 2482               	.global	line_track_new
 2484               	line_track_new:
 2485               	.LFB63:
 2486               	.LM402:
 2487               	/* prologue: function */
 2488               	/* frame size = 0 */
 2489               	.LM403:
 2490 0944 0E94 0000 		call check_sensors
 2491               	.LBB557:
 2492               	.LBB558:
 2493               	.LM404:
 2494 0948 AC9A      		sbi 53-32,4
 2495               	.LM405:
 2496 094a AD98      		cbi 53-32,5
 2497               	.LM406:
 2498 094c AE9A      		sbi 53-32,6
 2499               	.LM407:
 2500 094e AF98      		cbi 53-32,7
 2501               	.LBE558:
 2502               	.LBE557:
 2503               	.LM408:
 2504 0950 CE9B      		sbis 57-32,6
 2505 0952 00C0      		rjmp .L215
 2506 0954 8699      		sbic 48-32,6
 2507 0956 00C0      		rjmp .L215
 2508               	.LM409:
 2509 0958 8091 0000 		lds r24,opt
 2510 095c 9091 0000 		lds r25,(opt)+1
 2511 0960 4E97      		sbiw r24,30
 2512               	.LBB559:
 2513               	.LBB560:
 2514               	.LM410:
 2515 0962 9BBD      		out (74)+1-32,r25
 2516 0964 8ABD      		out 74-32,r24
 2517               	.LBE560:
 2518               	.LBE559:
 2519               	.LM411:
 2520 0966 CC96      		adiw r24,60
 2521 0968 00C0      		rjmp .L220
 2522               	.L215:
 2523               	.LM412:
 2524 096a 869B      		sbis 48-32,6
 2525 096c 00C0      		rjmp .L217
 2526 096e CE99      		sbic 57-32,6
 2527 0970 00C0      		rjmp .L217
 2528               	.LM413:
 2529 0972 8091 0000 		lds r24,opt
 2530 0976 9091 0000 		lds r25,(opt)+1
 2531 097a 4E96      		adiw r24,30
 2532               	.LBB561:
 2533               	.LBB562:
 2534               	.LM414:
 2535 097c 9BBD      		out (74)+1-32,r25
 2536 097e 8ABD      		out 74-32,r24
 2537               	.LBE562:
 2538               	.LBE561:
 2539               	.LM415:
 2540 0980 CC97      		sbiw r24,60
 2541 0982 00C0      		rjmp .L220
 2542               	.L217:
 2543               	.LM416:
 2544 0984 869B      		sbis 48-32,6
 2545 0986 00C0      		rjmp .L218
 2546 0988 CE9B      		sbis 57-32,6
 2547 098a 00C0      		rjmp .L218
 2548               	.LM417:
 2549 098c 0E94 0000 		call line_track
 2550 0990 00C0      		rjmp .L216
 2551               	.L218:
 2552               	.LM418:
 2553 0992 8699      		sbic 48-32,6
 2554 0994 00C0      		rjmp .L216
 2555 0996 CE99      		sbic 57-32,6
 2556 0998 00C0      		rjmp .L216
 2557               	.LM419:
 2558 099a 8091 0000 		lds r24,opt
 2559 099e 9091 0000 		lds r25,(opt)+1
 2560               	.LBB563:
 2561               	.LBB564:
 2562               	.LM420:
 2563 09a2 9BBD      		out (74)+1-32,r25
 2564 09a4 8ABD      		out 74-32,r24
 2565               	.L220:
 2566               	.LBE564:
 2567               	.LBE563:
 2568               	.LBB565:
 2569               	.LBB566:
 2570               	.LM421:
 2571 09a6 99BD      		out (72)+1-32,r25
 2572 09a8 88BD      		out 72-32,r24
 2573               	.L216:
 2574               	.LBE566:
 2575               	.LBE565:
 2576               	.LM422:
 2577 09aa 8AE0      		ldi r24,lo8(10)
 2578 09ac 90E0      		ldi r25,hi8(10)
 2579 09ae 0E94 0000 		call delay_microsec
 2580               	/* epilogue start */
 2581               	.LM423:
 2582 09b2 0895      		ret
 2583               	.LFE63:
 2585               	.global	end_zone_uturn
 2587               	end_zone_uturn:
 2588               	.LFB59:
 2589               	.LM424:
 2590               	/* prologue: function */
 2591               	/* frame size = 0 */
 2592               	.LM425:
 2593 09b4 85E7      		ldi r24,lo8(117)
 2594 09b6 8093 0000 		sts turn,r24
 2595               	.LBB567:
 2596               	.LBB568:
 2597               	.LM426:
 2598 09ba 24E0      		ldi r18,lo8(260)
 2599 09bc 31E0      		ldi r19,hi8(260)
 2600               	.LBE568:
 2601               	.LBE567:
 2602               	.LBB570:
 2603               	.LBB571:
 2604               	.LM427:
 2605 09be 88E1      		ldi r24,lo8(280)
 2606 09c0 91E0      		ldi r25,hi8(280)
 2607 09c2 00C0      		rjmp .L222
 2608               	.L223:
 2609               	.LBE571:
 2610               	.LBE570:
 2611               	.LBB573:
 2612               	.LBB569:
 2613               	.LM428:
 2614 09c4 3BBD      		out (74)+1-32,r19
 2615 09c6 2ABD      		out 74-32,r18
 2616               	.LBE569:
 2617               	.LBE573:
 2618               	.LBB574:
 2619               	.LBB572:
 2620               	.LM429:
 2621 09c8 99BD      		out (72)+1-32,r25
 2622 09ca 88BD      		out 72-32,r24
 2623               	.LBE572:
 2624               	.LBE574:
 2625               	.LBB575:
 2626               	.LBB576:
 2627               	.LM430:
 2628 09cc AC98      		cbi 53-32,4
 2629               	.LM431:
 2630 09ce AD9A      		sbi 53-32,5
 2631               	.LM432:
 2632 09d0 AE9A      		sbi 53-32,6
 2633               	.LM433:
 2634 09d2 AF98      		cbi 53-32,7
 2635               	.L222:
 2636               	.LBE576:
 2637               	.LBE575:
 2638               	.LM434:
 2639 09d4 CD9B      		sbis 57-32,5
 2640 09d6 00C0      		rjmp .L223
 2641               	.L236:
 2642               	.LM435:
 2643 09d8 CE9B      		sbis 57-32,6
 2644 09da 00C0      		rjmp .L236
 2645 09dc 869B      		sbis 48-32,6
 2646 09de 00C0      		rjmp .L236
 2647               	.L232:
 2648               	.LM436:
 2649 09e0 CD99      		sbic 57-32,5
 2650 09e2 00C0      		rjmp .L232
 2651 09e4 00C0      		rjmp .L239
 2652               	.L228:
 2653               	.LBB577:
 2654               	.LBB578:
 2655               	.LM437:
 2656 09e6 9BBD      		out (74)+1-32,r25
 2657 09e8 8ABD      		out 74-32,r24
 2658               	.LBE578:
 2659               	.LBE577:
 2660               	.LBB580:
 2661               	.LBB581:
 2662               	.LM438:
 2663 09ea 99BD      		out (72)+1-32,r25
 2664 09ec 88BD      		out 72-32,r24
 2665               	.LBE581:
 2666               	.LBE580:
 2667               	.LBB582:
 2668               	.LBB583:
 2669               	.LM439:
 2670 09ee AC98      		cbi 53-32,4
 2671               	.LM440:
 2672 09f0 AD9A      		sbi 53-32,5
 2673               	.LM441:
 2674 09f2 AE9A      		sbi 53-32,6
 2675               	.LM442:
 2676 09f4 AF98      		cbi 53-32,7
 2677 09f6 00C0      		rjmp .L238
 2678               	.L239:
 2679               	.LBE583:
 2680               	.LBE582:
 2681               	.LBB584:
 2682               	.LBB579:
 2683               	.LM443:
 2684 09f8 82ED      		ldi r24,lo8(210)
 2685 09fa 90E0      		ldi r25,hi8(210)
 2686               	.L238:
 2687               	.LBE579:
 2688               	.LBE584:
 2689               	.LM444:
 2690 09fc CE9B      		sbis 57-32,6
 2691 09fe 00C0      		rjmp .L235
 2692 0a00 8699      		sbic 48-32,6
 2693 0a02 00C0      		rjmp .L228
 2694 0a04 00C0      		rjmp .L235
 2695               	.L229:
 2696               	.LM445:
 2697 0a06 0E94 0000 		call line_track_new
 2698               	.L235:
 2699               	.LM446:
 2700 0a0a CC9B      		sbis 57-32,4
 2701 0a0c 00C0      		rjmp .L229
 2702 0a0e 879B      		sbis 48-32,7
 2703 0a10 00C0      		rjmp .L229
 2704               	.LBB585:
 2705               	.LBB586:
 2706               	.LM447:
 2707 0a12 8FE8      		ldi r24,lo8(399)
 2708 0a14 91E0      		ldi r25,hi8(399)
 2709 0a16 9BBD      		out (74)+1-32,r25
 2710 0a18 8ABD      		out 74-32,r24
 2711               	.LBE586:
 2712               	.LBE585:
 2713               	.LBB587:
 2714               	.LBB588:
 2715               	.LM448:
 2716 0a1a 99BD      		out (72)+1-32,r25
 2717 0a1c 88BD      		out 72-32,r24
 2718               	.LBE588:
 2719               	.LBE587:
 2720               	.LBB589:
 2721               	.LBB590:
 2722               	.LM449:
 2723 0a1e AC9A      		sbi 53-32,4
 2724               	.LM450:
 2725 0a20 AD9A      		sbi 53-32,5
 2726               	.LM451:
 2727 0a22 AE9A      		sbi 53-32,6
 2728               	.LM452:
 2729 0a24 AF9A      		sbi 53-32,7
 2730               	.LBE590:
 2731               	.LBE589:
 2732               	.LM453:
 2733 0a26 82E0      		ldi r24,lo8(2)
 2734 0a28 90E0      		ldi r25,hi8(2)
 2735 0a2a 0E94 0000 		call delay_sec
 2736               	/* epilogue start */
 2737               	.LM454:
 2738 0a2e 0895      		ret
 2739               	.LFE59:
 2741               	.global	turn_left
 2743               	turn_left:
 2744               	.LFB57:
 2745               	.LM455:
 2746               	/* prologue: function */
 2747               	/* frame size = 0 */
 2748               	.LM456:
 2749 0a30 8CE6      		ldi r24,lo8(108)
 2750 0a32 8093 0000 		sts turn,r24
 2751               	.LBB591:
 2752               	.LBB592:
 2753               	.LM457:
 2754 0a36 85EF      		ldi r24,lo8(245)
 2755 0a38 90E0      		ldi r25,hi8(245)
 2756 0a3a 00C0      		rjmp .L241
 2757               	.L242:
 2758 0a3c 9BBD      		out (74)+1-32,r25
 2759 0a3e 8ABD      		out 74-32,r24
 2760               	.LBE592:
 2761               	.LBE591:
 2762               	.LBB593:
 2763               	.LBB594:
 2764               	.LM458:
 2765 0a40 99BD      		out (72)+1-32,r25
 2766 0a42 88BD      		out 72-32,r24
 2767               	.LBE594:
 2768               	.LBE593:
 2769               	.LBB595:
 2770               	.LBB596:
 2771               	.LM459:
 2772 0a44 AC98      		cbi 53-32,4
 2773               	.LM460:
 2774 0a46 AD9A      		sbi 53-32,5
 2775               	.LM461:
 2776 0a48 AE9A      		sbi 53-32,6
 2777               	.LM462:
 2778 0a4a AF98      		cbi 53-32,7
 2779               	.L241:
 2780               	.LBE596:
 2781               	.LBE595:
 2782               	.LM463:
 2783 0a4c CD99      		sbic 57-32,5
 2784 0a4e 00C0      		rjmp .L242
 2785 0a50 00C0      		rjmp .L251
 2786               	.L245:
 2787               	.LBB597:
 2788               	.LBB598:
 2789               	.LM464:
 2790 0a52 9BBD      		out (74)+1-32,r25
 2791 0a54 8ABD      		out 74-32,r24
 2792               	.LBE598:
 2793               	.LBE597:
 2794               	.LBB600:
 2795               	.LBB601:
 2796               	.LM465:
 2797 0a56 99BD      		out (72)+1-32,r25
 2798 0a58 88BD      		out 72-32,r24
 2799               	.LBE601:
 2800               	.LBE600:
 2801               	.LBB602:
 2802               	.LBB603:
 2803               	.LM466:
 2804 0a5a AC98      		cbi 53-32,4
 2805               	.LM467:
 2806 0a5c AD9A      		sbi 53-32,5
 2807               	.LM468:
 2808 0a5e AE9A      		sbi 53-32,6
 2809               	.LM469:
 2810 0a60 AF98      		cbi 53-32,7
 2811 0a62 00C0      		rjmp .L250
 2812               	.L251:
 2813               	.LBE603:
 2814               	.LBE602:
 2815               	.LBB604:
 2816               	.LBB599:
 2817               	.LM470:
 2818 0a64 80EF      		ldi r24,lo8(240)
 2819 0a66 90E0      		ldi r25,hi8(240)
 2820               	.L250:
 2821               	.LBE599:
 2822               	.LBE604:
 2823               	.LM471:
 2824 0a68 CE9B      		sbis 57-32,6
 2825 0a6a 00C0      		rjmp .L248
 2826 0a6c 8699      		sbic 48-32,6
 2827 0a6e 00C0      		rjmp .L245
 2828 0a70 00C0      		rjmp .L248
 2829               	.L246:
 2830               	.LM472:
 2831 0a72 0E94 0000 		call line_track_new
 2832               	.L248:
 2833               	.LM473:
 2834 0a76 CC9B      		sbis 57-32,4
 2835 0a78 00C0      		rjmp .L246
 2836 0a7a 879B      		sbis 48-32,7
 2837 0a7c 00C0      		rjmp .L246
 2838               	.LBB605:
 2839               	.LBB606:
 2840               	.LM474:
 2841 0a7e 8FE8      		ldi r24,lo8(399)
 2842 0a80 91E0      		ldi r25,hi8(399)
 2843 0a82 9BBD      		out (74)+1-32,r25
 2844 0a84 8ABD      		out 74-32,r24
 2845               	.LBE606:
 2846               	.LBE605:
 2847               	.LBB607:
 2848               	.LBB608:
 2849               	.LM475:
 2850 0a86 99BD      		out (72)+1-32,r25
 2851 0a88 88BD      		out 72-32,r24
 2852               	.LBE608:
 2853               	.LBE607:
 2854               	.LBB609:
 2855               	.LBB610:
 2856               	.LM476:
 2857 0a8a AC9A      		sbi 53-32,4
 2858               	.LM477:
 2859 0a8c AD9A      		sbi 53-32,5
 2860               	.LM478:
 2861 0a8e AE9A      		sbi 53-32,6
 2862               	.LM479:
 2863 0a90 AF9A      		sbi 53-32,7
 2864               	.LBE610:
 2865               	.LBE609:
 2866               	.LM480:
 2867 0a92 82E3      		ldi r24,lo8(50)
 2868 0a94 90E0      		ldi r25,hi8(50)
 2869 0a96 0E94 0000 		call delay_millisec
 2870               	/* epilogue start */
 2871               	.LM481:
 2872 0a9a 0895      		ret
 2873               	.LFE57:
 2875               	.global	turn_right
 2877               	turn_right:
 2878               	.LFB56:
 2879               	.LM482:
 2880 0a9c CF93      		push r28
 2881 0a9e DF93      		push r29
 2882               	/* prologue: function */
 2883               	/* frame size = 0 */
 2884               	.LM483:
 2885 0aa0 82E7      		ldi r24,lo8(114)
 2886 0aa2 8093 0000 		sts turn,r24
 2887               	.LBB611:
 2888               	.LBB612:
 2889               	.LM484:
 2890 0aa6 C5EF      		ldi r28,lo8(245)
 2891 0aa8 D0E0      		ldi r29,hi8(245)
 2892 0aaa 00C0      		rjmp .L253
 2893               	.L254:
 2894 0aac DBBD      		out (74)+1-32,r29
 2895 0aae CABD      		out 74-32,r28
 2896               	.LBE612:
 2897               	.LBE611:
 2898               	.LBB613:
 2899               	.LBB614:
 2900               	.LM485:
 2901 0ab0 D9BD      		out (72)+1-32,r29
 2902 0ab2 C8BD      		out 72-32,r28
 2903               	.LBE614:
 2904               	.LBE613:
 2905               	.LBB615:
 2906               	.LBB616:
 2907               	.LM486:
 2908 0ab4 AC9A      		sbi 53-32,4
 2909               	.LM487:
 2910 0ab6 AD98      		cbi 53-32,5
 2911               	.LM488:
 2912 0ab8 AE98      		cbi 53-32,6
 2913               	.LM489:
 2914 0aba AF9A      		sbi 53-32,7
 2915               	.LBE616:
 2916               	.LBE615:
 2917               	.LM490:
 2918 0abc 0E94 0000 		call left_count
 2919               	.L253:
 2920               	.LM491:
 2921 0ac0 CF99      		sbic 57-32,7
 2922 0ac2 00C0      		rjmp .L254
 2923 0ac4 00C0      		rjmp .L263
 2924               	.L257:
 2925               	.LBB617:
 2926               	.LBB618:
 2927               	.LM492:
 2928 0ac6 DBBD      		out (74)+1-32,r29
 2929 0ac8 CABD      		out 74-32,r28
 2930               	.LBE618:
 2931               	.LBE617:
 2932               	.LBB620:
 2933               	.LBB621:
 2934               	.LM493:
 2935 0aca D9BD      		out (72)+1-32,r29
 2936 0acc C8BD      		out 72-32,r28
 2937               	.LBE621:
 2938               	.LBE620:
 2939               	.LBB622:
 2940               	.LBB623:
 2941               	.LM494:
 2942 0ace AC9A      		sbi 53-32,4
 2943               	.LM495:
 2944 0ad0 AD98      		cbi 53-32,5
 2945               	.LM496:
 2946 0ad2 AE98      		cbi 53-32,6
 2947               	.LM497:
 2948 0ad4 AF9A      		sbi 53-32,7
 2949               	.LBE623:
 2950               	.LBE622:
 2951               	.LM498:
 2952 0ad6 0E94 0000 		call left_count
 2953 0ada 00C0      		rjmp .L262
 2954               	.L263:
 2955               	.LBB624:
 2956               	.LBB619:
 2957               	.LM499:
 2958 0adc C0EF      		ldi r28,lo8(240)
 2959 0ade D0E0      		ldi r29,hi8(240)
 2960               	.L262:
 2961               	.LBE619:
 2962               	.LBE624:
 2963               	.LM500:
 2964 0ae0 CE9B      		sbis 57-32,6
 2965 0ae2 00C0      		rjmp .L260
 2966 0ae4 8699      		sbic 48-32,6
 2967 0ae6 00C0      		rjmp .L257
 2968 0ae8 00C0      		rjmp .L260
 2969               	.L258:
 2970               	.LM501:
 2971 0aea 0E94 0000 		call line_track_new
 2972               	.L260:
 2973               	.LM502:
 2974 0aee CC9B      		sbis 57-32,4
 2975 0af0 00C0      		rjmp .L258
 2976 0af2 879B      		sbis 48-32,7
 2977 0af4 00C0      		rjmp .L258
 2978               	.LBB625:
 2979               	.LBB626:
 2980               	.LM503:
 2981 0af6 8FE8      		ldi r24,lo8(399)
 2982 0af8 91E0      		ldi r25,hi8(399)
 2983 0afa 9BBD      		out (74)+1-32,r25
 2984 0afc 8ABD      		out 74-32,r24
 2985               	.LBE626:
 2986               	.LBE625:
 2987               	.LBB627:
 2988               	.LBB628:
 2989               	.LM504:
 2990 0afe 99BD      		out (72)+1-32,r25
 2991 0b00 88BD      		out 72-32,r24
 2992               	.LBE628:
 2993               	.LBE627:
 2994               	.LBB629:
 2995               	.LBB630:
 2996               	.LM505:
 2997 0b02 AC9A      		sbi 53-32,4
 2998               	.LM506:
 2999 0b04 AD9A      		sbi 53-32,5
 3000               	.LM507:
 3001 0b06 AE9A      		sbi 53-32,6
 3002               	.LM508:
 3003 0b08 AF9A      		sbi 53-32,7
 3004               	.LBE630:
 3005               	.LBE629:
 3006               	.LM509:
 3007 0b0a 82E3      		ldi r24,lo8(50)
 3008 0b0c 90E0      		ldi r25,hi8(50)
 3009 0b0e 0E94 0000 		call delay_millisec
 3010               	/* epilogue start */
 3011               	.LM510:
 3012 0b12 DF91      		pop r29
 3013 0b14 CF91      		pop r28
 3014 0b16 0895      		ret
 3015               	.LFE56:
 3017               	.global	sense_of_directon
 3019               	sense_of_directon:
 3020               	.LFB66:
 3021               	.LM511:
 3022               	/* prologue: function */
 3023               	/* frame size = 0 */
 3024               	.LM512:
 3025 0b18 8091 0000 		lds r24,turn
 3026 0b1c 8237      		cpi r24,lo8(114)
 3027 0b1e 01F4      		brne .L265
 3028               	.LM513:
 3029 0b20 8091 0000 		lds r24,dir
 3030 0b24 9091 0000 		lds r25,(dir)+1
 3031 0b28 2FEF      		ldi r18,hi8(-1)
 3032 0b2a 8F3F      		cpi r24,lo8(-1)
 3033 0b2c 9207      		cpc r25,r18
 3034 0b2e 01F0      		breq .L275
 3035 0b30 2FEF      		ldi r18,hi8(-1)
 3036 0b32 8F3F      		cpi r24,lo8(-1)
 3037 0b34 9207      		cpc r25,r18
 3038 0b36 01F0      		breq .+2
 3039 0b38 04F4      		brge .L271
 3040 0b3a 8E5F      		subi r24,lo8(-2)
 3041 0b3c 9F4F      		sbci r25,hi8(-2)
 3042 0b3e 01F0      		breq .+2
 3043 0b40 00C0      		rjmp .L283
 3044 0b42 00C0      		rjmp .L280
 3045               	.L271:
 3046 0b44 8130      		cpi r24,1
 3047 0b46 9105      		cpc r25,__zero_reg__
 3048 0b48 01F4      		brne .+2
 3049 0b4a 00C0      		rjmp .L281
 3050 0b4c 0297      		sbiw r24,2
 3051 0b4e 01F0      		breq .+2
 3052 0b50 00C0      		rjmp .L283
 3053 0b52 00C0      		rjmp .L279
 3054               	.L265:
 3055               	.LM514:
 3056 0b54 8C36      		cpi r24,lo8(108)
 3057 0b56 01F4      		brne .L272
 3058               	.LM515:
 3059 0b58 8091 0000 		lds r24,dir
 3060 0b5c 9091 0000 		lds r25,(dir)+1
 3061 0b60 2FEF      		ldi r18,hi8(-1)
 3062 0b62 8F3F      		cpi r24,lo8(-1)
 3063 0b64 9207      		cpc r25,r18
 3064 0b66 01F0      		breq .L281
 3065 0b68 2FEF      		ldi r18,hi8(-1)
 3066 0b6a 8F3F      		cpi r24,lo8(-1)
 3067 0b6c 9207      		cpc r25,r18
 3068 0b6e 01F0      		breq .+2
 3069 0b70 04F4      		brge .L277
 3070 0b72 8E5F      		subi r24,lo8(-2)
 3071 0b74 9F4F      		sbci r25,hi8(-2)
 3072 0b76 01F4      		brne .L283
 3073 0b78 00C0      		rjmp .L279
 3074               	.L277:
 3075 0b7a 8130      		cpi r24,1
 3076 0b7c 9105      		cpc r25,__zero_reg__
 3077 0b7e 01F0      		breq .L275
 3078 0b80 0297      		sbiw r24,2
 3079 0b82 01F4      		brne .L283
 3080 0b84 00C0      		rjmp .L280
 3081               	.L275:
 3082               	.LM516:
 3083 0b86 82E0      		ldi r24,lo8(2)
 3084 0b88 90E0      		ldi r25,hi8(2)
 3085 0b8a 00C0      		rjmp .L284
 3086               	.L272:
 3087               	.LM517:
 3088 0b8c 8537      		cpi r24,lo8(117)
 3089 0b8e 01F4      		brne .L283
 3090               	.LM518:
 3091 0b90 8091 0000 		lds r24,dir
 3092 0b94 9091 0000 		lds r25,(dir)+1
 3093 0b98 2FEF      		ldi r18,hi8(-1)
 3094 0b9a 8F3F      		cpi r24,lo8(-1)
 3095 0b9c 9207      		cpc r25,r18
 3096 0b9e 01F0      		breq .L279
 3097 0ba0 2FEF      		ldi r18,hi8(-1)
 3098 0ba2 8F3F      		cpi r24,lo8(-1)
 3099 0ba4 9207      		cpc r25,r18
 3100 0ba6 01F0      		breq .+2
 3101 0ba8 04F4      		brge .L282
 3102 0baa 8E5F      		subi r24,lo8(-2)
 3103 0bac 9F4F      		sbci r25,hi8(-2)
 3104 0bae 01F4      		brne .L283
 3105 0bb0 00C0      		rjmp .L285
 3106               	.L282:
 3107 0bb2 8130      		cpi r24,1
 3108 0bb4 9105      		cpc r25,__zero_reg__
 3109 0bb6 01F0      		breq .L280
 3110 0bb8 0297      		sbiw r24,2
 3111 0bba 01F4      		brne .L283
 3112 0bbc 00C0      		rjmp .L281
 3113               	.L280:
 3114               	.LM519:
 3115 0bbe 8FEF      		ldi r24,lo8(-1)
 3116 0bc0 9FEF      		ldi r25,hi8(-1)
 3117 0bc2 00C0      		rjmp .L284
 3118               	.L279:
 3119               	.LM520:
 3120 0bc4 81E0      		ldi r24,lo8(1)
 3121 0bc6 90E0      		ldi r25,hi8(1)
 3122 0bc8 00C0      		rjmp .L284
 3123               	.L281:
 3124               	.LM521:
 3125 0bca 8EEF      		ldi r24,lo8(-2)
 3126 0bcc 9FEF      		ldi r25,hi8(-2)
 3127               	.L284:
 3128 0bce 9093 0000 		sts (dir)+1,r25
 3129 0bd2 8093 0000 		sts dir,r24
 3130 0bd6 0895      		ret
 3131               	.L285:
 3132               	.LM522:
 3133 0bd8 82E0      		ldi r24,lo8(2)
 3134 0bda 90E0      		ldi r25,hi8(2)
 3135 0bdc 9093 0000 		sts (dir)+1,r25
 3136 0be0 8093 0000 		sts dir,r24
 3137               	.L283:
 3138 0be4 0895      		ret
 3139               	.LFE66:
 3141               	.global	is_coordinate_null
 3143               	is_coordinate_null:
 3144               	.LFB68:
 3145               	.LM523:
 3146               	.LVL103:
 3147               	/* prologue: function */
 3148               	/* frame size = 0 */
 3149 0be6 382F      		mov r19,r24
 3150 0be8 492F      		mov r20,r25
 3151               	.LVL104:
 3152               	.LM524:
 3153 0bea FC01      		movw r30,r24
 3154 0bec B3E0      		ldi r27,3
 3155 0bee EE0F      	1:	lsl r30
 3156 0bf0 FF1F      		rol r31
 3157 0bf2 BA95      		dec r27
 3158 0bf4 01F4      		brne 1b
 3159 0bf6 880F      		lsl r24
 3160 0bf8 991F      		rol r25
 3161 0bfa E80F      		add r30,r24
 3162 0bfc F91F      		adc r31,r25
 3163 0bfe E60F      		add r30,r22
 3164 0c00 F71F      		adc r31,r23
 3165 0c02 53E0      		ldi r21,3
 3166 0c04 EE0F      	1:	lsl r30
 3167 0c06 FF1F      		rol r31
 3168 0c08 5A95      		dec r21
 3169 0c0a 01F4      		brne 1b
 3170 0c0c E050      		subi r30,lo8(-(dir_array))
 3171 0c0e F040      		sbci r31,hi8(-(dir_array))
 3172 0c10 8081      		ld r24,Z
 3173 0c12 9181      		ldd r25,Z+1
 3174               	.LVL105:
 3175 0c14 892B      		or r24,r25
 3176 0c16 01F0      		breq .+2
 3177 0c18 00C0      		rjmp .L287
 3178               	.LVL106:
 3179 0c1a 832F      		mov r24,r19
 3180               	.LVL107:
 3181 0c1c 942F      		mov r25,r20
 3182 0c1e FC01      		movw r30,r24
 3183 0c20 23E0      		ldi r18,3
 3184 0c22 EE0F      	1:	lsl r30
 3185 0c24 FF1F      		rol r31
 3186 0c26 2A95      		dec r18
 3187 0c28 01F4      		brne 1b
 3188 0c2a 880F      		lsl r24
 3189 0c2c 991F      		rol r25
 3190               	.LVL108:
 3191 0c2e E80F      		add r30,r24
 3192 0c30 F91F      		adc r31,r25
 3193 0c32 E60F      		add r30,r22
 3194 0c34 F71F      		adc r31,r23
 3195 0c36 A3E0      		ldi r26,3
 3196 0c38 EE0F      	1:	lsl r30
 3197 0c3a FF1F      		rol r31
 3198 0c3c AA95      		dec r26
 3199 0c3e 01F4      		brne 1b
 3200 0c40 E050      		subi r30,lo8(-(dir_array+2))
 3201 0c42 F040      		sbci r31,hi8(-(dir_array+2))
 3202 0c44 8081      		ld r24,Z
 3203 0c46 9181      		ldd r25,Z+1
 3204               	.LVL109:
 3205 0c48 892B      		or r24,r25
 3206 0c4a 01F4      		brne .L287
 3207               	.LVL110:
 3208 0c4c 832F      		mov r24,r19
 3209               	.LVL111:
 3210 0c4e 942F      		mov r25,r20
 3211 0c50 FC01      		movw r30,r24
 3212 0c52 53E0      		ldi r21,3
 3213 0c54 EE0F      	1:	lsl r30
 3214 0c56 FF1F      		rol r31
 3215 0c58 5A95      		dec r21
 3216 0c5a 01F4      		brne 1b
 3217 0c5c 880F      		lsl r24
 3218 0c5e 991F      		rol r25
 3219               	.LVL112:
 3220 0c60 E80F      		add r30,r24
 3221 0c62 F91F      		adc r31,r25
 3222 0c64 E60F      		add r30,r22
 3223 0c66 F71F      		adc r31,r23
 3224 0c68 83E0      		ldi r24,3
 3225 0c6a EE0F      	1:	lsl r30
 3226 0c6c FF1F      		rol r31
 3227 0c6e 8A95      		dec r24
 3228 0c70 01F4      		brne 1b
 3229               	.LVL113:
 3230 0c72 E050      		subi r30,lo8(-(dir_array+4))
 3231 0c74 F040      		sbci r31,hi8(-(dir_array+4))
 3232 0c76 8081      		ld r24,Z
 3233 0c78 9181      		ldd r25,Z+1
 3234 0c7a 892B      		or r24,r25
 3235 0c7c 01F4      		brne .L287
 3236 0c7e 20E0      		ldi r18,lo8(0)
 3237 0c80 832F      		mov r24,r19
 3238               	.LVL114:
 3239 0c82 942F      		mov r25,r20
 3240 0c84 FC01      		movw r30,r24
 3241 0c86 B3E0      		ldi r27,3
 3242 0c88 EE0F      	1:	lsl r30
 3243 0c8a FF1F      		rol r31
 3244 0c8c BA95      		dec r27
 3245 0c8e 01F4      		brne 1b
 3246 0c90 880F      		lsl r24
 3247 0c92 991F      		rol r25
 3248               	.LVL115:
 3249 0c94 E80F      		add r30,r24
 3250 0c96 F91F      		adc r31,r25
 3251 0c98 E60F      		add r30,r22
 3252 0c9a F71F      		adc r31,r23
 3253 0c9c 53E0      		ldi r21,3
 3254 0c9e EE0F      	1:	lsl r30
 3255 0ca0 FF1F      		rol r31
 3256 0ca2 5A95      		dec r21
 3257 0ca4 01F4      		brne 1b
 3258 0ca6 E050      		subi r30,lo8(-(dir_array))
 3259 0ca8 F040      		sbci r31,hi8(-(dir_array))
 3260 0caa 8681      		ldd r24,Z+6
 3261 0cac 9781      		ldd r25,Z+7
 3262               	.LVL116:
 3263 0cae 892B      		or r24,r25
 3264 0cb0 01F0      		breq .L288
 3265 0cb2 21E0      		ldi r18,lo8(1)
 3266               	.L288:
 3267 0cb4 81E0      		ldi r24,lo8(1)
 3268 0cb6 2827      		eor r18,r24
 3269 0cb8 30E0      		ldi r19,lo8(0)
 3270 0cba 00C0      		rjmp .L289
 3271               	.L287:
 3272 0cbc 20E0      		ldi r18,lo8(0)
 3273 0cbe 30E0      		ldi r19,hi8(0)
 3274               	.L289:
 3275               	.LM525:
 3276 0cc0 C901      		movw r24,r18
 3277               	/* epilogue start */
 3278 0cc2 0895      		ret
 3279               	.LFE68:
 3281               	.global	update_array
 3283               	update_array:
 3284               	.LFB67:
 3285               	.LM526:
 3286               	.LVL117:
 3287 0cc4 8F92      		push r8
 3288 0cc6 9F92      		push r9
 3289 0cc8 AF92      		push r10
 3290 0cca BF92      		push r11
 3291 0ccc CF92      		push r12
 3292 0cce DF92      		push r13
 3293 0cd0 EF92      		push r14
 3294 0cd2 FF92      		push r15
 3295 0cd4 0F93      		push r16
 3296 0cd6 1F93      		push r17
 3297 0cd8 CF93      		push r28
 3298 0cda DF93      		push r29
 3299               	/* prologue: function */
 3300               	/* frame size = 0 */
 3301 0cdc 7C01      		movw r14,r24
 3302 0cde 6B01      		movw r12,r22
 3303 0ce0 5A01      		movw r10,r20
 3304 0ce2 4901      		movw r8,r18
 3305               	.LM527:
 3306 0ce4 1091 0000 		lds r17,x_coordinate
 3307 0ce8 0091 0000 		lds r16,x_coordinate+1
 3308 0cec C091 0000 		lds r28,y_coordinate
 3309 0cf0 D091 0000 		lds r29,(y_coordinate)+1
 3310 0cf4 812F      		mov r24,r17
 3311               	.LVL118:
 3312 0cf6 902F      		mov r25,r16
 3313 0cf8 BE01      		movw r22,r28
 3314               	.LVL119:
 3315 0cfa 0E94 0000 		call is_coordinate_null
 3316               	.LVL120:
 3317 0cfe 892B      		or r24,r25
 3318 0d00 01F4      		brne .+2
 3319 0d02 00C0      		rjmp .L298
 3320               	.LM528:
 3321 0d04 8091 0000 		lds r24,dir
 3322 0d08 9091 0000 		lds r25,(dir)+1
 3323 0d0c 2FEF      		ldi r18,hi8(-1)
 3324 0d0e 8F3F      		cpi r24,lo8(-1)
 3325 0d10 9207      		cpc r25,r18
 3326 0d12 01F4      		brne .+2
 3327 0d14 00C0      		rjmp .L294
 3328 0d16 2FEF      		ldi r18,hi8(-1)
 3329 0d18 8F3F      		cpi r24,lo8(-1)
 3330 0d1a 9207      		cpc r25,r18
 3331 0d1c 01F0      		breq .+2
 3332 0d1e 04F4      		brge .L297
 3333 0d20 8E5F      		subi r24,lo8(-2)
 3334 0d22 9F4F      		sbci r25,hi8(-2)
 3335 0d24 01F0      		breq .+2
 3336 0d26 00C0      		rjmp .L298
 3337 0d28 00C0      		rjmp .L300
 3338               	.L297:
 3339 0d2a 8130      		cpi r24,1
 3340 0d2c 9105      		cpc r25,__zero_reg__
 3341 0d2e 01F4      		brne .+2
 3342 0d30 00C0      		rjmp .L295
 3343 0d32 0297      		sbiw r24,2
 3344 0d34 01F0      		breq .+2
 3345 0d36 00C0      		rjmp .L298
 3346               	.LM529:
 3347 0d38 812F      		mov r24,r17
 3348 0d3a 902F      		mov r25,r16
 3349 0d3c FC01      		movw r30,r24
 3350 0d3e 33E0      		ldi r19,3
 3351 0d40 EE0F      	1:	lsl r30
 3352 0d42 FF1F      		rol r31
 3353 0d44 3A95      		dec r19
 3354 0d46 01F4      		brne 1b
 3355 0d48 880F      		lsl r24
 3356 0d4a 991F      		rol r25
 3357 0d4c E80F      		add r30,r24
 3358 0d4e F91F      		adc r31,r25
 3359 0d50 EC0F      		add r30,r28
 3360 0d52 FD1F      		adc r31,r29
 3361 0d54 B3E0      		ldi r27,3
 3362 0d56 EE0F      	1:	lsl r30
 3363 0d58 FF1F      		rol r31
 3364 0d5a BA95      		dec r27
 3365 0d5c 01F4      		brne 1b
 3366 0d5e E050      		subi r30,lo8(-(dir_array))
 3367 0d60 F040      		sbci r31,hi8(-(dir_array))
 3368 0d62 F182      		std Z+1,r15
 3369 0d64 E082      		st Z,r14
 3370               	.LM530:
 3371 0d66 812F      		mov r24,r17
 3372 0d68 902F      		mov r25,r16
 3373 0d6a FC01      		movw r30,r24
 3374 0d6c A3E0      		ldi r26,3
 3375 0d6e EE0F      	1:	lsl r30
 3376 0d70 FF1F      		rol r31
 3377 0d72 AA95      		dec r26
 3378 0d74 01F4      		brne 1b
 3379 0d76 880F      		lsl r24
 3380 0d78 991F      		rol r25
 3381 0d7a E80F      		add r30,r24
 3382 0d7c F91F      		adc r31,r25
 3383 0d7e EC0F      		add r30,r28
 3384 0d80 FD1F      		adc r31,r29
 3385 0d82 63E0      		ldi r22,3
 3386 0d84 EE0F      	1:	lsl r30
 3387 0d86 FF1F      		rol r31
 3388 0d88 6A95      		dec r22
 3389 0d8a 01F4      		brne 1b
 3390 0d8c E050      		subi r30,lo8(-(dir_array+2))
 3391 0d8e F040      		sbci r31,hi8(-(dir_array+2))
 3392 0d90 D182      		std Z+1,r13
 3393 0d92 C082      		st Z,r12
 3394               	.LM531:
 3395 0d94 812F      		mov r24,r17
 3396 0d96 902F      		mov r25,r16
 3397 0d98 FC01      		movw r30,r24
 3398 0d9a 53E0      		ldi r21,3
 3399 0d9c EE0F      	1:	lsl r30
 3400 0d9e FF1F      		rol r31
 3401 0da0 5A95      		dec r21
 3402 0da2 01F4      		brne 1b
 3403 0da4 880F      		lsl r24
 3404 0da6 991F      		rol r25
 3405 0da8 E80F      		add r30,r24
 3406 0daa F91F      		adc r31,r25
 3407 0dac EC0F      		add r30,r28
 3408 0dae FD1F      		adc r31,r29
 3409 0db0 33E0      		ldi r19,3
 3410 0db2 EE0F      	1:	lsl r30
 3411 0db4 FF1F      		rol r31
 3412 0db6 3A95      		dec r19
 3413 0db8 01F4      		brne 1b
 3414 0dba E050      		subi r30,lo8(-(dir_array+4))
 3415 0dbc F040      		sbci r31,hi8(-(dir_array+4))
 3416 0dbe B182      		std Z+1,r11
 3417 0dc0 A082      		st Z,r10
 3418               	.LM532:
 3419 0dc2 812F      		mov r24,r17
 3420 0dc4 902F      		mov r25,r16
 3421 0dc6 FC01      		movw r30,r24
 3422 0dc8 23E0      		ldi r18,3
 3423 0dca EE0F      	1:	lsl r30
 3424 0dcc FF1F      		rol r31
 3425 0dce 2A95      		dec r18
 3426 0dd0 01F4      		brne 1b
 3427 0dd2 880F      		lsl r24
 3428 0dd4 991F      		rol r25
 3429 0dd6 E80F      		add r30,r24
 3430 0dd8 F91F      		adc r31,r25
 3431 0dda EC0F      		add r30,r28
 3432 0ddc FD1F      		adc r31,r29
 3433 0dde 13E0      		ldi r17,3
 3434 0de0 EE0F      	1:	lsl r30
 3435 0de2 FF1F      		rol r31
 3436 0de4 1A95      		dec r17
 3437 0de6 01F4      		brne 1b
 3438 0de8 E050      		subi r30,lo8(-(dir_array))
 3439 0dea F040      		sbci r31,hi8(-(dir_array))
 3440 0dec 9782      		std Z+7,r9
 3441 0dee 8682      		std Z+6,r8
 3442 0df0 00C0      		rjmp .L298
 3443               	.L295:
 3444               	.LM533:
 3445 0df2 812F      		mov r24,r17
 3446 0df4 902F      		mov r25,r16
 3447 0df6 FC01      		movw r30,r24
 3448 0df8 B3E0      		ldi r27,3
 3449 0dfa EE0F      	1:	lsl r30
 3450 0dfc FF1F      		rol r31
 3451 0dfe BA95      		dec r27
 3452 0e00 01F4      		brne 1b
 3453 0e02 880F      		lsl r24
 3454 0e04 991F      		rol r25
 3455 0e06 E80F      		add r30,r24
 3456 0e08 F91F      		adc r31,r25
 3457 0e0a EC0F      		add r30,r28
 3458 0e0c FD1F      		adc r31,r29
 3459 0e0e 73E0      		ldi r23,3
 3460 0e10 EE0F      	1:	lsl r30
 3461 0e12 FF1F      		rol r31
 3462 0e14 7A95      		dec r23
 3463 0e16 01F4      		brne 1b
 3464 0e18 E050      		subi r30,lo8(-(dir_array+2))
 3465 0e1a F040      		sbci r31,hi8(-(dir_array+2))
 3466 0e1c F182      		std Z+1,r15
 3467 0e1e E082      		st Z,r14
 3468               	.LM534:
 3469 0e20 812F      		mov r24,r17
 3470 0e22 902F      		mov r25,r16
 3471 0e24 FC01      		movw r30,r24
 3472 0e26 63E0      		ldi r22,3
 3473 0e28 EE0F      	1:	lsl r30
 3474 0e2a FF1F      		rol r31
 3475 0e2c 6A95      		dec r22
 3476 0e2e 01F4      		brne 1b
 3477 0e30 880F      		lsl r24
 3478 0e32 991F      		rol r25
 3479 0e34 E80F      		add r30,r24
 3480 0e36 F91F      		adc r31,r25
 3481 0e38 EC0F      		add r30,r28
 3482 0e3a FD1F      		adc r31,r29
 3483 0e3c 43E0      		ldi r20,3
 3484 0e3e EE0F      	1:	lsl r30
 3485 0e40 FF1F      		rol r31
 3486 0e42 4A95      		dec r20
 3487 0e44 01F4      		brne 1b
 3488 0e46 E050      		subi r30,lo8(-(dir_array+4))
 3489 0e48 F040      		sbci r31,hi8(-(dir_array+4))
 3490 0e4a D182      		std Z+1,r13
 3491 0e4c C082      		st Z,r12
 3492               	.LM535:
 3493 0e4e 812F      		mov r24,r17
 3494 0e50 902F      		mov r25,r16
 3495 0e52 FC01      		movw r30,r24
 3496 0e54 33E0      		ldi r19,3
 3497 0e56 EE0F      	1:	lsl r30
 3498 0e58 FF1F      		rol r31
 3499 0e5a 3A95      		dec r19
 3500 0e5c 01F4      		brne 1b
 3501 0e5e 880F      		lsl r24
 3502 0e60 991F      		rol r25
 3503 0e62 E80F      		add r30,r24
 3504 0e64 F91F      		adc r31,r25
 3505 0e66 EC0F      		add r30,r28
 3506 0e68 FD1F      		adc r31,r29
 3507 0e6a 83E0      		ldi r24,3
 3508 0e6c EE0F      	1:	lsl r30
 3509 0e6e FF1F      		rol r31
 3510 0e70 8A95      		dec r24
 3511 0e72 01F4      		brne 1b
 3512 0e74 E050      		subi r30,lo8(-(dir_array))
 3513 0e76 F040      		sbci r31,hi8(-(dir_array))
 3514 0e78 B782      		std Z+7,r11
 3515 0e7a A682      		std Z+6,r10
 3516               	.LM536:
 3517 0e7c 812F      		mov r24,r17
 3518 0e7e 902F      		mov r25,r16
 3519 0e80 FC01      		movw r30,r24
 3520 0e82 B3E0      		ldi r27,3
 3521 0e84 EE0F      	1:	lsl r30
 3522 0e86 FF1F      		rol r31
 3523 0e88 BA95      		dec r27
 3524 0e8a 01F4      		brne 1b
 3525 0e8c 880F      		lsl r24
 3526 0e8e 991F      		rol r25
 3527 0e90 E80F      		add r30,r24
 3528 0e92 F91F      		adc r31,r25
 3529 0e94 EC0F      		add r30,r28
 3530 0e96 FD1F      		adc r31,r29
 3531 0e98 73E0      		ldi r23,3
 3532 0e9a EE0F      	1:	lsl r30
 3533 0e9c FF1F      		rol r31
 3534 0e9e 7A95      		dec r23
 3535 0ea0 01F4      		brne 1b
 3536 0ea2 E050      		subi r30,lo8(-(dir_array))
 3537 0ea4 F040      		sbci r31,hi8(-(dir_array))
 3538 0ea6 00C0      		rjmp .L299
 3539               	.L300:
 3540               	.LM537:
 3541 0ea8 812F      		mov r24,r17
 3542 0eaa 902F      		mov r25,r16
 3543 0eac FC01      		movw r30,r24
 3544 0eae 63E0      		ldi r22,3
 3545 0eb0 EE0F      	1:	lsl r30
 3546 0eb2 FF1F      		rol r31
 3547 0eb4 6A95      		dec r22
 3548 0eb6 01F4      		brne 1b
 3549 0eb8 880F      		lsl r24
 3550 0eba 991F      		rol r25
 3551 0ebc E80F      		add r30,r24
 3552 0ebe F91F      		adc r31,r25
 3553 0ec0 EC0F      		add r30,r28
 3554 0ec2 FD1F      		adc r31,r29
 3555 0ec4 43E0      		ldi r20,3
 3556 0ec6 EE0F      	1:	lsl r30
 3557 0ec8 FF1F      		rol r31
 3558 0eca 4A95      		dec r20
 3559 0ecc 01F4      		brne 1b
 3560 0ece E050      		subi r30,lo8(-(dir_array+4))
 3561 0ed0 F040      		sbci r31,hi8(-(dir_array+4))
 3562 0ed2 F182      		std Z+1,r15
 3563 0ed4 E082      		st Z,r14
 3564               	.LM538:
 3565 0ed6 812F      		mov r24,r17
 3566 0ed8 902F      		mov r25,r16
 3567 0eda FC01      		movw r30,r24
 3568 0edc 33E0      		ldi r19,3
 3569 0ede EE0F      	1:	lsl r30
 3570 0ee0 FF1F      		rol r31
 3571 0ee2 3A95      		dec r19
 3572 0ee4 01F4      		brne 1b
 3573 0ee6 880F      		lsl r24
 3574 0ee8 991F      		rol r25
 3575 0eea E80F      		add r30,r24
 3576 0eec F91F      		adc r31,r25
 3577 0eee EC0F      		add r30,r28
 3578 0ef0 FD1F      		adc r31,r29
 3579 0ef2 83E0      		ldi r24,3
 3580 0ef4 EE0F      	1:	lsl r30
 3581 0ef6 FF1F      		rol r31
 3582 0ef8 8A95      		dec r24
 3583 0efa 01F4      		brne 1b
 3584 0efc E050      		subi r30,lo8(-(dir_array))
 3585 0efe F040      		sbci r31,hi8(-(dir_array))
 3586 0f00 D782      		std Z+7,r13
 3587 0f02 C682      		std Z+6,r12
 3588               	.LM539:
 3589 0f04 812F      		mov r24,r17
 3590 0f06 902F      		mov r25,r16
 3591 0f08 FC01      		movw r30,r24
 3592 0f0a B3E0      		ldi r27,3
 3593 0f0c EE0F      	1:	lsl r30
 3594 0f0e FF1F      		rol r31
 3595 0f10 BA95      		dec r27
 3596 0f12 01F4      		brne 1b
 3597 0f14 880F      		lsl r24
 3598 0f16 991F      		rol r25
 3599 0f18 E80F      		add r30,r24
 3600 0f1a F91F      		adc r31,r25
 3601 0f1c EC0F      		add r30,r28
 3602 0f1e FD1F      		adc r31,r29
 3603 0f20 73E0      		ldi r23,3
 3604 0f22 EE0F      	1:	lsl r30
 3605 0f24 FF1F      		rol r31
 3606 0f26 7A95      		dec r23
 3607 0f28 01F4      		brne 1b
 3608 0f2a E050      		subi r30,lo8(-(dir_array))
 3609 0f2c F040      		sbci r31,hi8(-(dir_array))
 3610 0f2e B182      		std Z+1,r11
 3611 0f30 A082      		st Z,r10
 3612               	.LM540:
 3613 0f32 812F      		mov r24,r17
 3614 0f34 902F      		mov r25,r16
 3615 0f36 FC01      		movw r30,r24
 3616 0f38 63E0      		ldi r22,3
 3617 0f3a EE0F      	1:	lsl r30
 3618 0f3c FF1F      		rol r31
 3619 0f3e 6A95      		dec r22
 3620 0f40 01F4      		brne 1b
 3621 0f42 880F      		lsl r24
 3622 0f44 991F      		rol r25
 3623 0f46 E80F      		add r30,r24
 3624 0f48 F91F      		adc r31,r25
 3625 0f4a EC0F      		add r30,r28
 3626 0f4c FD1F      		adc r31,r29
 3627 0f4e 43E0      		ldi r20,3
 3628 0f50 EE0F      	1:	lsl r30
 3629 0f52 FF1F      		rol r31
 3630 0f54 4A95      		dec r20
 3631 0f56 01F4      		brne 1b
 3632 0f58 E050      		subi r30,lo8(-(dir_array+2))
 3633 0f5a F040      		sbci r31,hi8(-(dir_array+2))
 3634 0f5c 00C0      		rjmp .L299
 3635               	.L294:
 3636               	.LM541:
 3637 0f5e 812F      		mov r24,r17
 3638 0f60 902F      		mov r25,r16
 3639 0f62 FC01      		movw r30,r24
 3640 0f64 33E0      		ldi r19,3
 3641 0f66 EE0F      	1:	lsl r30
 3642 0f68 FF1F      		rol r31
 3643 0f6a 3A95      		dec r19
 3644 0f6c 01F4      		brne 1b
 3645 0f6e 880F      		lsl r24
 3646 0f70 991F      		rol r25
 3647 0f72 E80F      		add r30,r24
 3648 0f74 F91F      		adc r31,r25
 3649 0f76 EC0F      		add r30,r28
 3650 0f78 FD1F      		adc r31,r29
 3651 0f7a B3E0      		ldi r27,3
 3652 0f7c EE0F      	1:	lsl r30
 3653 0f7e FF1F      		rol r31
 3654 0f80 BA95      		dec r27
 3655 0f82 01F4      		brne 1b
 3656 0f84 E050      		subi r30,lo8(-(dir_array))
 3657 0f86 F040      		sbci r31,hi8(-(dir_array))
 3658 0f88 F782      		std Z+7,r15
 3659 0f8a E682      		std Z+6,r14
 3660               	.LM542:
 3661 0f8c 812F      		mov r24,r17
 3662 0f8e 902F      		mov r25,r16
 3663 0f90 FC01      		movw r30,r24
 3664 0f92 A3E0      		ldi r26,3
 3665 0f94 EE0F      	1:	lsl r30
 3666 0f96 FF1F      		rol r31
 3667 0f98 AA95      		dec r26
 3668 0f9a 01F4      		brne 1b
 3669 0f9c 880F      		lsl r24
 3670 0f9e 991F      		rol r25
 3671 0fa0 E80F      		add r30,r24
 3672 0fa2 F91F      		adc r31,r25
 3673 0fa4 EC0F      		add r30,r28
 3674 0fa6 FD1F      		adc r31,r29
 3675 0fa8 63E0      		ldi r22,3
 3676 0faa EE0F      	1:	lsl r30
 3677 0fac FF1F      		rol r31
 3678 0fae 6A95      		dec r22
 3679 0fb0 01F4      		brne 1b
 3680 0fb2 E050      		subi r30,lo8(-(dir_array))
 3681 0fb4 F040      		sbci r31,hi8(-(dir_array))
 3682 0fb6 D182      		std Z+1,r13
 3683 0fb8 C082      		st Z,r12
 3684               	.LM543:
 3685 0fba 812F      		mov r24,r17
 3686 0fbc 902F      		mov r25,r16
 3687 0fbe FC01      		movw r30,r24
 3688 0fc0 53E0      		ldi r21,3
 3689 0fc2 EE0F      	1:	lsl r30
 3690 0fc4 FF1F      		rol r31
 3691 0fc6 5A95      		dec r21
 3692 0fc8 01F4      		brne 1b
 3693 0fca 880F      		lsl r24
 3694 0fcc 991F      		rol r25
 3695 0fce E80F      		add r30,r24
 3696 0fd0 F91F      		adc r31,r25
 3697 0fd2 EC0F      		add r30,r28
 3698 0fd4 FD1F      		adc r31,r29
 3699 0fd6 33E0      		ldi r19,3
 3700 0fd8 EE0F      	1:	lsl r30
 3701 0fda FF1F      		rol r31
 3702 0fdc 3A95      		dec r19
 3703 0fde 01F4      		brne 1b
 3704 0fe0 E050      		subi r30,lo8(-(dir_array+2))
 3705 0fe2 F040      		sbci r31,hi8(-(dir_array+2))
 3706 0fe4 B182      		std Z+1,r11
 3707 0fe6 A082      		st Z,r10
 3708               	.LM544:
 3709 0fe8 812F      		mov r24,r17
 3710 0fea 902F      		mov r25,r16
 3711 0fec FC01      		movw r30,r24
 3712 0fee 23E0      		ldi r18,3
 3713 0ff0 EE0F      	1:	lsl r30
 3714 0ff2 FF1F      		rol r31
 3715 0ff4 2A95      		dec r18
 3716 0ff6 01F4      		brne 1b
 3717 0ff8 880F      		lsl r24
 3718 0ffa 991F      		rol r25
 3719 0ffc E80F      		add r30,r24
 3720 0ffe F91F      		adc r31,r25
 3721 1000 EC0F      		add r30,r28
 3722 1002 FD1F      		adc r31,r29
 3723 1004 13E0      		ldi r17,3
 3724 1006 EE0F      	1:	lsl r30
 3725 1008 FF1F      		rol r31
 3726 100a 1A95      		dec r17
 3727 100c 01F4      		brne 1b
 3728 100e E050      		subi r30,lo8(-(dir_array+4))
 3729 1010 F040      		sbci r31,hi8(-(dir_array+4))
 3730               	.L299:
 3731 1012 9182      		std Z+1,r9
 3732 1014 8082      		st Z,r8
 3733               	.L298:
 3734               	/* epilogue start */
 3735               	.LM545:
 3736 1016 DF91      		pop r29
 3737 1018 CF91      		pop r28
 3738 101a 1F91      		pop r17
 3739 101c 0F91      		pop r16
 3740 101e FF90      		pop r15
 3741 1020 EF90      		pop r14
 3742               	.LVL121:
 3743 1022 DF90      		pop r13
 3744 1024 CF90      		pop r12
 3745               	.LVL122:
 3746 1026 BF90      		pop r11
 3747 1028 AF90      		pop r10
 3748               	.LVL123:
 3749 102a 9F90      		pop r9
 3750 102c 8F90      		pop r8
 3751               	.LVL124:
 3752 102e 0895      		ret
 3753               	.LFE67:
 3755               	.global	update_coordinates
 3757               	update_coordinates:
 3758               	.LFB65:
 3759               	.LM546:
 3760               	/* prologue: function */
 3761               	/* frame size = 0 */
 3762               	.LM547:
 3763 1030 8091 0000 		lds r24,Coordinates_changed_by
 3764 1034 9091 0000 		lds r25,(Coordinates_changed_by)+1
 3765               	.LVL125:
 3766               	.LM548:
 3767 1038 8230      		cpi r24,2
 3768 103a 9105      		cpc r25,__zero_reg__
 3769 103c 01F0      		breq .+2
 3770 103e 00C0      		rjmp .L302
 3771               	.LM549:
 3772 1040 8091 0000 		lds r24,dir
 3773 1044 9091 0000 		lds r25,(dir)+1
 3774               	.LVL126:
 3775 1048 2FEF      		ldi r18,hi8(-1)
 3776 104a 8F3F      		cpi r24,lo8(-1)
 3777 104c 9207      		cpc r25,r18
 3778 104e 01F0      		breq .L305
 3779 1050 2FEF      		ldi r18,hi8(-1)
 3780 1052 8F3F      		cpi r24,lo8(-1)
 3781 1054 9207      		cpc r25,r18
 3782 1056 01F0      		breq .+2
 3783 1058 04F4      		brge .L308
 3784 105a 8E5F      		subi r24,lo8(-2)
 3785 105c 9F4F      		sbci r25,hi8(-2)
 3786 105e 01F0      		breq .+2
 3787 1060 00C0      		rjmp .L303
 3788 1062 00C0      		rjmp .L333
 3789               	.L308:
 3790 1064 8130      		cpi r24,1
 3791 1066 9105      		cpc r25,__zero_reg__
 3792 1068 01F0      		breq .L306
 3793 106a 0297      		sbiw r24,2
 3794 106c 01F0      		breq .+2
 3795 106e 00C0      		rjmp .L303
 3796 1070 00C0      		rjmp .L334
 3797               	.L306:
 3798               	.LM550:
 3799 1072 8091 0000 		lds r24,x_coordinate
 3800 1076 9091 0000 		lds r25,(x_coordinate)+1
 3801 107a 0196      		adiw r24,1
 3802 107c 9093 0000 		sts (x_coordinate)+1,r25
 3803 1080 8093 0000 		sts x_coordinate,r24
 3804               	.LM551:
 3805 1084 81E0      		ldi r24,lo8(1)
 3806 1086 90E0      		ldi r25,hi8(1)
 3807 1088 60E0      		ldi r22,lo8(0)
 3808 108a 70E0      		ldi r23,hi8(0)
 3809 108c 41E0      		ldi r20,lo8(1)
 3810 108e 50E0      		ldi r21,hi8(1)
 3811 1090 20E0      		ldi r18,lo8(0)
 3812 1092 30E0      		ldi r19,hi8(0)
 3813 1094 0E94 0000 		call update_array
 3814               	.LM552:
 3815 1098 8091 0000 		lds r24,x_coordinate
 3816 109c 9091 0000 		lds r25,(x_coordinate)+1
 3817 10a0 0196      		adiw r24,1
 3818 10a2 9093 0000 		sts (x_coordinate)+1,r25
 3819 10a6 8093 0000 		sts x_coordinate,r24
 3820               	.LM553:
 3821 10aa 6091 0000 		lds r22,y_coordinate
 3822 10ae 7091 0000 		lds r23,(y_coordinate)+1
 3823 10b2 0E94 0000 		call is_coordinate_null
 3824 10b6 00C0      		rjmp .L326
 3825               	.L305:
 3826               	.LM554:
 3827 10b8 8091 0000 		lds r24,x_coordinate
 3828 10bc 9091 0000 		lds r25,(x_coordinate)+1
 3829 10c0 0197      		sbiw r24,1
 3830 10c2 9093 0000 		sts (x_coordinate)+1,r25
 3831 10c6 8093 0000 		sts x_coordinate,r24
 3832               	.LM555:
 3833 10ca 81E0      		ldi r24,lo8(1)
 3834 10cc 90E0      		ldi r25,hi8(1)
 3835 10ce 60E0      		ldi r22,lo8(0)
 3836 10d0 70E0      		ldi r23,hi8(0)
 3837 10d2 41E0      		ldi r20,lo8(1)
 3838 10d4 50E0      		ldi r21,hi8(1)
 3839 10d6 20E0      		ldi r18,lo8(0)
 3840 10d8 30E0      		ldi r19,hi8(0)
 3841 10da 0E94 0000 		call update_array
 3842               	.LM556:
 3843 10de 8091 0000 		lds r24,x_coordinate
 3844 10e2 9091 0000 		lds r25,(x_coordinate)+1
 3845 10e6 0197      		sbiw r24,1
 3846 10e8 9093 0000 		sts (x_coordinate)+1,r25
 3847 10ec 8093 0000 		sts x_coordinate,r24
 3848               	.LM557:
 3849 10f0 6091 0000 		lds r22,y_coordinate
 3850 10f4 7091 0000 		lds r23,(y_coordinate)+1
 3851 10f8 0E94 0000 		call is_coordinate_null
 3852 10fc 00C0      		rjmp .L326
 3853               	.L334:
 3854               	.LM558:
 3855 10fe 8091 0000 		lds r24,y_coordinate
 3856 1102 9091 0000 		lds r25,(y_coordinate)+1
 3857 1106 0196      		adiw r24,1
 3858 1108 9093 0000 		sts (y_coordinate)+1,r25
 3859 110c 8093 0000 		sts y_coordinate,r24
 3860               	.LM559:
 3861 1110 81E0      		ldi r24,lo8(1)
 3862 1112 90E0      		ldi r25,hi8(1)
 3863 1114 60E0      		ldi r22,lo8(0)
 3864 1116 70E0      		ldi r23,hi8(0)
 3865 1118 41E0      		ldi r20,lo8(1)
 3866 111a 50E0      		ldi r21,hi8(1)
 3867 111c 20E0      		ldi r18,lo8(0)
 3868 111e 30E0      		ldi r19,hi8(0)
 3869 1120 0E94 0000 		call update_array
 3870               	.LM560:
 3871 1124 6091 0000 		lds r22,y_coordinate
 3872 1128 7091 0000 		lds r23,(y_coordinate)+1
 3873 112c 6F5F      		subi r22,lo8(-(1))
 3874 112e 7F4F      		sbci r23,hi8(-(1))
 3875 1130 7093 0000 		sts (y_coordinate)+1,r23
 3876 1134 6093 0000 		sts y_coordinate,r22
 3877               	.LM561:
 3878 1138 8091 0000 		lds r24,x_coordinate
 3879 113c 9091 0000 		lds r25,(x_coordinate)+1
 3880 1140 0E94 0000 		call is_coordinate_null
 3881 1144 00C0      		rjmp .L326
 3882               	.L333:
 3883               	.LM562:
 3884 1146 8091 0000 		lds r24,y_coordinate
 3885 114a 9091 0000 		lds r25,(y_coordinate)+1
 3886 114e 0197      		sbiw r24,1
 3887 1150 9093 0000 		sts (y_coordinate)+1,r25
 3888 1154 8093 0000 		sts y_coordinate,r24
 3889               	.LM563:
 3890 1158 81E0      		ldi r24,lo8(1)
 3891 115a 90E0      		ldi r25,hi8(1)
 3892 115c 60E0      		ldi r22,lo8(0)
 3893 115e 70E0      		ldi r23,hi8(0)
 3894 1160 41E0      		ldi r20,lo8(1)
 3895 1162 50E0      		ldi r21,hi8(1)
 3896 1164 20E0      		ldi r18,lo8(0)
 3897 1166 30E0      		ldi r19,hi8(0)
 3898 1168 0E94 0000 		call update_array
 3899               	.LM564:
 3900 116c 6091 0000 		lds r22,y_coordinate
 3901 1170 7091 0000 		lds r23,(y_coordinate)+1
 3902 1174 6150      		subi r22,lo8(-(-1))
 3903 1176 7040      		sbci r23,hi8(-(-1))
 3904 1178 7093 0000 		sts (y_coordinate)+1,r23
 3905 117c 6093 0000 		sts y_coordinate,r22
 3906               	.LM565:
 3907 1180 8091 0000 		lds r24,x_coordinate
 3908 1184 9091 0000 		lds r25,(x_coordinate)+1
 3909 1188 0E94 0000 		call is_coordinate_null
 3910 118c 00C0      		rjmp .L326
 3911               	.LVL127:
 3912               	.L302:
 3913               	.LM566:
 3914 118e 0197      		sbiw r24,1
 3915 1190 01F0      		breq .+2
 3916 1192 00C0      		rjmp .L303
 3917               	.LM567:
 3918 1194 8091 0000 		lds r24,dir
 3919 1198 9091 0000 		lds r25,(dir)+1
 3920               	.LVL128:
 3921 119c 2FEF      		ldi r18,hi8(-1)
 3922 119e 8F3F      		cpi r24,lo8(-1)
 3923 11a0 9207      		cpc r25,r18
 3924 11a2 01F0      		breq .L314
 3925 11a4 2FEF      		ldi r18,hi8(-1)
 3926 11a6 8F3F      		cpi r24,lo8(-1)
 3927 11a8 9207      		cpc r25,r18
 3928 11aa 01F0      		breq .+2
 3929 11ac 04F4      		brge .L317
 3930 11ae 8E5F      		subi r24,lo8(-2)
 3931 11b0 9F4F      		sbci r25,hi8(-2)
 3932 11b2 01F0      		breq .+2
 3933 11b4 00C0      		rjmp .L303
 3934 11b6 00C0      		rjmp .L335
 3935               	.L317:
 3936 11b8 8130      		cpi r24,1
 3937 11ba 9105      		cpc r25,__zero_reg__
 3938 11bc 01F0      		breq .L315
 3939 11be 0297      		sbiw r24,2
 3940 11c0 01F0      		breq .+2
 3941 11c2 00C0      		rjmp .L303
 3942 11c4 00C0      		rjmp .L336
 3943               	.L315:
 3944               	.LM568:
 3945 11c6 8091 0000 		lds r24,x_coordinate
 3946 11ca 9091 0000 		lds r25,(x_coordinate)+1
 3947 11ce 0196      		adiw r24,1
 3948 11d0 9093 0000 		sts (x_coordinate)+1,r25
 3949 11d4 8093 0000 		sts x_coordinate,r24
 3950               	.LM569:
 3951 11d8 6091 0000 		lds r22,y_coordinate
 3952 11dc 7091 0000 		lds r23,(y_coordinate)+1
 3953 11e0 0E94 0000 		call is_coordinate_null
 3954 11e4 00C0      		rjmp .L326
 3955               	.L314:
 3956               	.LM570:
 3957 11e6 8091 0000 		lds r24,x_coordinate
 3958 11ea 9091 0000 		lds r25,(x_coordinate)+1
 3959 11ee 0197      		sbiw r24,1
 3960 11f0 9093 0000 		sts (x_coordinate)+1,r25
 3961 11f4 8093 0000 		sts x_coordinate,r24
 3962               	.LM571:
 3963 11f8 6091 0000 		lds r22,y_coordinate
 3964 11fc 7091 0000 		lds r23,(y_coordinate)+1
 3965 1200 0E94 0000 		call is_coordinate_null
 3966 1204 00C0      		rjmp .L326
 3967               	.L336:
 3968               	.LM572:
 3969 1206 6091 0000 		lds r22,y_coordinate
 3970 120a 7091 0000 		lds r23,(y_coordinate)+1
 3971 120e 6F5F      		subi r22,lo8(-(1))
 3972 1210 7F4F      		sbci r23,hi8(-(1))
 3973 1212 7093 0000 		sts (y_coordinate)+1,r23
 3974 1216 6093 0000 		sts y_coordinate,r22
 3975               	.LM573:
 3976 121a 8091 0000 		lds r24,x_coordinate
 3977 121e 9091 0000 		lds r25,(x_coordinate)+1
 3978 1222 0E94 0000 		call is_coordinate_null
 3979 1226 00C0      		rjmp .L326
 3980               	.L335:
 3981               	.LM574:
 3982 1228 6091 0000 		lds r22,y_coordinate
 3983 122c 7091 0000 		lds r23,(y_coordinate)+1
 3984 1230 6150      		subi r22,lo8(-(-1))
 3985 1232 7040      		sbci r23,hi8(-(-1))
 3986 1234 7093 0000 		sts (y_coordinate)+1,r23
 3987 1238 6093 0000 		sts y_coordinate,r22
 3988               	.LM575:
 3989 123c 8091 0000 		lds r24,x_coordinate
 3990 1240 9091 0000 		lds r25,(x_coordinate)+1
 3991 1244 0E94 0000 		call is_coordinate_null
 3992               	.L326:
 3993 1248 892B      		or r24,r25
 3994 124a 01F4      		brne .L321
 3995               	.LM576:
 3996 124c 8091 0000 		lds r24,repeat
 3997 1250 9091 0000 		lds r25,(repeat)+1
 3998 1254 0196      		adiw r24,1
 3999 1256 9093 0000 		sts (repeat)+1,r25
 4000 125a 8093 0000 		sts repeat,r24
 4001 125e 00C0      		rjmp .L303
 4002               	.L321:
 4003               	.LM577:
 4004 1260 1092 0000 		sts (repeat)+1,__zero_reg__
 4005 1264 1092 0000 		sts repeat,__zero_reg__
 4006               	.LVL129:
 4007               	.L303:
 4008               	.LM578:
 4009 1268 81E0      		ldi r24,lo8(1)
 4010               	.LVL130:
 4011 126a 60E0      		ldi r22,lo8(0)
 4012 126c 0E94 0000 		call lcd_byte
 4013               	.LM579:
 4014 1270 4091 0000 		lds r20,x_coordinate
 4015 1274 5091 0000 		lds r21,(x_coordinate)+1
 4016 1278 84E0      		ldi r24,lo8(4)
 4017 127a 90E0      		ldi r25,hi8(4)
 4018 127c 60E0      		ldi r22,lo8(0)
 4019 127e 70E0      		ldi r23,hi8(0)
 4020 1280 22E0      		ldi r18,lo8(2)
 4021 1282 30E0      		ldi r19,hi8(2)
 4022 1284 0E94 0000 		call lcd_write_int_xy
 4023               	.LM580:
 4024 1288 4091 0000 		lds r20,y_coordinate
 4025 128c 5091 0000 		lds r21,(y_coordinate)+1
 4026 1290 88E0      		ldi r24,lo8(8)
 4027 1292 90E0      		ldi r25,hi8(8)
 4028 1294 60E0      		ldi r22,lo8(0)
 4029 1296 70E0      		ldi r23,hi8(0)
 4030 1298 22E0      		ldi r18,lo8(2)
 4031 129a 30E0      		ldi r19,hi8(2)
 4032 129c 0E94 0000 		call lcd_write_int_xy
 4033               	.LM581:
 4034 12a0 1092 0000 		sts (Coordinates_changed_by)+1,__zero_reg__
 4035 12a4 1092 0000 		sts Coordinates_changed_by,__zero_reg__
 4036               	/* epilogue start */
 4037               	.LM582:
 4038 12a8 0895      		ret
 4039               	.LFE65:
 4041               	.global	left_junc_check
 4043               	left_junc_check:
 4044               	.LFB64:
 4045               	.LM583:
 4046 12aa CF93      		push r28
 4047 12ac DF93      		push r29
 4048               	/* prologue: function */
 4049               	/* frame size = 0 */
 4050               	.LM584:
 4051 12ae CD99      		sbic 57-32,5
 4052 12b0 00C0      		rjmp .L338
 4053               	.LM585:
 4054 12b2 C1E0      		ldi r28,lo8(1)
 4055 12b4 D0E0      		ldi r29,hi8(1)
 4056 12b6 D093 0000 		sts (flag1)+1,r29
 4057 12ba C093 0000 		sts flag1,r28
 4058               	.LM586:
 4059 12be 8091 0000 		lds r24,irc
 4060 12c2 9091 0000 		lds r25,(irc)+1
 4061 12c6 815D      		subi r24,lo8(2001)
 4062 12c8 9740      		sbci r25,hi8(2001)
 4063 12ca 04F0      		brlt .L339
 4064               	.LM587:
 4065 12cc 81E0      		ldi r24,lo8(1)
 4066 12ce 60E0      		ldi r22,lo8(0)
 4067 12d0 0E94 0000 		call lcd_byte
 4068               	.LM588:
 4069 12d4 82E0      		ldi r24,lo8(2)
 4070 12d6 90E0      		ldi r25,hi8(2)
 4071 12d8 9093 0000 		sts (Coordinates_changed_by)+1,r25
 4072 12dc 8093 0000 		sts Coordinates_changed_by,r24
 4073 12e0 00C0      		rjmp .L340
 4074               	.L339:
 4075               	.LM589:
 4076 12e2 81E0      		ldi r24,lo8(1)
 4077 12e4 60E0      		ldi r22,lo8(0)
 4078 12e6 0E94 0000 		call lcd_byte
 4079               	.LM590:
 4080 12ea D093 0000 		sts (Coordinates_changed_by)+1,r29
 4081 12ee C093 0000 		sts Coordinates_changed_by,r28
 4082               	.L340:
 4083               	.LM591:
 4084 12f2 8091 0000 		lds r24,irc
 4085 12f6 9091 0000 		lds r25,(irc)+1
 4086 12fa 892B      		or r24,r25
 4087 12fc 01F4      		brne .L338
 4088               	.LM592:
 4089 12fe 1092 0000 		sts (Coordinates_changed_by)+1,__zero_reg__
 4090 1302 1092 0000 		sts Coordinates_changed_by,__zero_reg__
 4091               	.L338:
 4092               	.LM593:
 4093 1306 CE9B      		sbis 57-32,6
 4094 1308 00C0      		rjmp .L341
 4095 130a 8699      		sbic 48-32,6
 4096 130c 00C0      		rjmp .L342
 4097               	.L341:
 4098 130e CC9B      		sbis 57-32,4
 4099 1310 00C0      		rjmp .L343
 4100 1312 8091 0000 		lds r24,special_flag
 4101 1316 9091 0000 		lds r25,(special_flag)+1
 4102 131a 0197      		sbiw r24,1
 4103 131c 01F4      		brne .L342
 4104               	.L343:
 4105               	.LBB631:
 4106               	.LBB632:
 4107               	.LM594:
 4108 131e AC9A      		sbi 53-32,4
 4109               	.LM595:
 4110 1320 AD9A      		sbi 53-32,5
 4111               	.LM596:
 4112 1322 AE9A      		sbi 53-32,6
 4113               	.LM597:
 4114 1324 AF9A      		sbi 53-32,7
 4115               	.LBE632:
 4116               	.LBE631:
 4117               	.LM598:
 4118 1326 0E94 0000 		call update_coordinates
 4119               	.LM599:
 4120 132a 81E0      		ldi r24,lo8(1)
 4121 132c 90E0      		ldi r25,hi8(1)
 4122 132e 60E0      		ldi r22,lo8(0)
 4123 1330 70E0      		ldi r23,hi8(0)
 4124 1332 41E0      		ldi r20,lo8(1)
 4125 1334 50E0      		ldi r21,hi8(1)
 4126 1336 21E0      		ldi r18,lo8(1)
 4127 1338 30E0      		ldi r19,hi8(1)
 4128 133a 0E94 0000 		call update_array
 4129               	.LM600:
 4130 133e 1092 0000 		sts (irc)+1,__zero_reg__
 4131 1342 1092 0000 		sts irc,__zero_reg__
 4132 1346 00C0      		rjmp .L347
 4133               	.L342:
 4134               	.LM601:
 4135 1348 CC9B      		sbis 57-32,4
 4136 134a 00C0      		rjmp .L345
 4137 134c 8091 0000 		lds r24,special_flag
 4138 1350 9091 0000 		lds r25,(special_flag)+1
 4139 1354 0197      		sbiw r24,1
 4140 1356 01F4      		brne .L344
 4141               	.L345:
 4142 1358 CE9B      		sbis 57-32,6
 4143 135a 00C0      		rjmp .L344
 4144 135c 869B      		sbis 48-32,6
 4145 135e 00C0      		rjmp .L344
 4146               	.LM602:
 4147 1360 0E94 0000 		call update_coordinates
 4148               	.LM603:
 4149 1364 1092 0000 		sts (irc)+1,__zero_reg__
 4150 1368 1092 0000 		sts irc,__zero_reg__
 4151               	.LM604:
 4152 136c 8091 0000 		lds r24,repeat
 4153 1370 9091 0000 		lds r25,(repeat)+1
 4154 1374 0497      		sbiw r24,4
 4155 1376 04F4      		brge .L344
 4156               	.LM605:
 4157 1378 0E94 0000 		call turn_left
 4158               	.LM606:
 4159 137c 80E0      		ldi r24,lo8(0)
 4160 137e 90E0      		ldi r25,hi8(0)
 4161 1380 60E0      		ldi r22,lo8(0)
 4162 1382 70E0      		ldi r23,hi8(0)
 4163 1384 41E0      		ldi r20,lo8(1)
 4164 1386 50E0      		ldi r21,hi8(1)
 4165 1388 21E0      		ldi r18,lo8(1)
 4166 138a 30E0      		ldi r19,hi8(1)
 4167 138c 0E94 0000 		call update_array
 4168               	.LBB633:
 4169               	.LBB634:
 4170               	.LM607:
 4171 1390 AC9A      		sbi 53-32,4
 4172               	.LM608:
 4173 1392 AD9A      		sbi 53-32,5
 4174               	.LM609:
 4175 1394 AE9A      		sbi 53-32,6
 4176               	.LM610:
 4177 1396 AF9A      		sbi 53-32,7
 4178               	.LBE634:
 4179               	.LBE633:
 4180               	.LM611:
 4181 1398 0E94 0000 		call sense_of_directon
 4182               	.LM612:
 4183 139c 1092 0000 		sts (flag1)+1,__zero_reg__
 4184 13a0 1092 0000 		sts flag1,__zero_reg__
 4185               	.L347:
 4186               	.LM613:
 4187 13a4 1092 0000 		sts (special_flag)+1,__zero_reg__
 4188 13a8 1092 0000 		sts special_flag,__zero_reg__
 4189               	.L344:
 4190               	.LM614:
 4191 13ac 0E94 0000 		call special_case_check
 4192               	/* epilogue start */
 4193               	.LM615:
 4194 13b0 DF91      		pop r29
 4195 13b2 CF91      		pop r28
 4196 13b4 0895      		ret
 4197               	.LFE64:
 4199               		.data
 4200               	.LC0:
 4201 0000 4552 524F 		.string	"ERROR Fr Snsr"
 4201      5220 4672 
 4201      2053 6E73 
 4201      7200 
 4202               		.text
 4203               	.global	frSensorCheck
 4205               	frSensorCheck:
 4206               	.LFB62:
 4207               	.LM616:
 4208               	/* prologue: function */
 4209               	/* frame size = 0 */
 4210               	.LM617:
 4211 13b6 CE9B      		sbis 57-32,6
 4212 13b8 00C0      		rjmp .L349
 4213 13ba 869B      		sbis 48-32,6
 4214 13bc 00C0      		rjmp .L349
 4215               	.LM618:
 4216 13be 8091 0000 		lds r24,sensorbyte
 4217 13c2 8330      		cpi r24,lo8(3)
 4218 13c4 01F0      		breq .L350
 4219 13c6 8C30      		cpi r24,lo8(12)
 4220 13c8 01F0      		breq .L350
 4221 13ca 8430      		cpi r24,lo8(4)
 4222 13cc 01F0      		breq .L350
 4223 13ce 8230      		cpi r24,lo8(2)
 4224 13d0 01F0      		breq .L350
 4225 13d2 8630      		cpi r24,lo8(6)
 4226 13d4 01F4      		brne .L351
 4227               	.L350:
 4228               	.LM619:
 4229 13d6 8091 0000 		lds r24,flag1
 4230 13da 9091 0000 		lds r25,(flag1)+1
 4231 13de 892B      		or r24,r25
 4232 13e0 01F4      		brne .L349
 4233               	.LM620:
 4234 13e2 8091 0000 		lds r24,irc
 4235 13e6 9091 0000 		lds r25,(irc)+1
 4236 13ea 2091 0000 		lds r18,Coordinates_changed_by
 4237 13ee 3091 0000 		lds r19,(Coordinates_changed_by)+1
 4238 13f2 815D      		subi r24,lo8(2001)
 4239 13f4 9740      		sbci r25,hi8(2001)
 4240 13f6 04F0      		brlt .L352
 4241               	.LM621:
 4242 13f8 232B      		or r18,r19
 4243 13fa 01F4      		brne .L349
 4244               	.LM622:
 4245 13fc 82E0      		ldi r24,lo8(2)
 4246 13fe 90E0      		ldi r25,hi8(2)
 4247 1400 00C0      		rjmp .L355
 4248               	.L352:
 4249               	.LM623:
 4250 1402 232B      		or r18,r19
 4251 1404 01F4      		brne .L349
 4252               	.LM624:
 4253 1406 81E0      		ldi r24,lo8(1)
 4254 1408 90E0      		ldi r25,hi8(1)
 4255               	.L355:
 4256 140a 9093 0000 		sts (Coordinates_changed_by)+1,r25
 4257 140e 8093 0000 		sts Coordinates_changed_by,r24
 4258 1412 00C0      		rjmp .L349
 4259               	.L351:
 4260               	.LM625:
 4261 1414 81E0      		ldi r24,lo8(1)
 4262 1416 60E0      		ldi r22,lo8(0)
 4263 1418 0E94 0000 		call lcd_byte
 4264               	.LM626:
 4265 141c 80E0      		ldi r24,lo8(.LC0)
 4266 141e 90E0      		ldi r25,hi8(.LC0)
 4267 1420 0E94 0000 		call lcd_write_string
 4268               	.L349:
 4269               	.LM627:
 4270 1424 8091 0000 		lds r24,sensorbyte
 4271 1428 8823      		tst r24
 4272 142a 01F4      		brne .L354
 4273 142c CC9B      		sbis 57-32,4
 4274 142e 00C0      		rjmp .L354
 4275 1430 CD9B      		sbis 57-32,5
 4276 1432 00C0      		rjmp .L354
 4277 1434 CE9B      		sbis 57-32,6
 4278 1436 00C0      		rjmp .L354
 4279 1438 CF9B      		sbis 57-32,7
 4280 143a 00C0      		rjmp .L354
 4281 143c 869B      		sbis 48-32,6
 4282 143e 00C0      		rjmp .L354
 4283 1440 879B      		sbis 48-32,7
 4284 1442 00C0      		rjmp .L354
 4285 1444 8091 0000 		lds r24,flag1
 4286 1448 9091 0000 		lds r25,(flag1)+1
 4287 144c 892B      		or r24,r25
 4288 144e 01F4      		brne .L354
 4289               	.LBB635:
 4290               	.LBB636:
 4291               	.LM628:
 4292 1450 AC9A      		sbi 53-32,4
 4293               	.LM629:
 4294 1452 AD9A      		sbi 53-32,5
 4295               	.LM630:
 4296 1454 AE9A      		sbi 53-32,6
 4297               	.LM631:
 4298 1456 AF9A      		sbi 53-32,7
 4299               	.LBE636:
 4300               	.LBE635:
 4301               	.LM632:
 4302 1458 0E94 0000 		call update_coordinates
 4303               	.LM633:
 4304 145c 80E0      		ldi r24,lo8(0)
 4305 145e 90E0      		ldi r25,hi8(0)
 4306 1460 60E0      		ldi r22,lo8(0)
 4307 1462 70E0      		ldi r23,hi8(0)
 4308 1464 41E0      		ldi r20,lo8(1)
 4309 1466 50E0      		ldi r21,hi8(1)
 4310 1468 20E0      		ldi r18,lo8(0)
 4311 146a 30E0      		ldi r19,hi8(0)
 4312 146c 0E94 0000 		call update_array
 4313               	.LM634:
 4314 1470 0E94 0000 		call Uturn
 4315               	.LM635:
 4316 1474 0E94 0000 		call sense_of_directon
 4317               	.LM636:
 4318 1478 1092 0000 		sts (flag1)+1,__zero_reg__
 4319 147c 1092 0000 		sts flag1,__zero_reg__
 4320               	.LM637:
 4321 1480 1092 0000 		sts (irc)+1,__zero_reg__
 4322 1484 1092 0000 		sts irc,__zero_reg__
 4323               	.L354:
 4324 1488 0895      		ret
 4325               	.LFE62:
 4327               		.data
 4328               	.LC1:
 4329 000e 4669 6C6C 		.string	"Filliable"
 4329      6961 626C 
 4329      6500 
 4330               		.text
 4331               	.global	fill_missed_array
 4333               	fill_missed_array:
 4334               	.LFB69:
 4335               	.LM638:
 4336 148a 8F92      		push r8
 4337 148c 9F92      		push r9
 4338 148e AF92      		push r10
 4339 1490 BF92      		push r11
 4340 1492 CF92      		push r12
 4341 1494 DF92      		push r13
 4342 1496 EF92      		push r14
 4343 1498 FF92      		push r15
 4344 149a 0F93      		push r16
 4345 149c 1F93      		push r17
 4346 149e CF93      		push r28
 4347 14a0 DF93      		push r29
 4348               	/* prologue: function */
 4349               	/* frame size = 0 */
 4350               	.LM639:
 4351 14a2 E1E0      		ldi r30,lo8(1)
 4352 14a4 EE2E      		mov r14,r30
 4353 14a6 F12C      		mov r15,__zero_reg__
 4354               	.LVL131:
 4355 14a8 00C0      		rjmp .L357
 4356               	.LVL132:
 4357               	.L366:
 4358               	.LBB637:
 4359               	.LBB638:
 4360               	.LM640:
 4361 14aa C701      		movw r24,r14
 4362 14ac B601      		movw r22,r12
 4363 14ae 0E94 0000 		call is_coordinate_null
 4364 14b2 892B      		or r24,r25
 4365 14b4 01F4      		brne .+2
 4366 14b6 00C0      		rjmp .L358
 4367               	.LM641:
 4368 14b8 81E0      		ldi r24,lo8(1)
 4369 14ba 60E0      		ldi r22,lo8(0)
 4370 14bc 0E94 0000 		call lcd_byte
 4371               	.LM642:
 4372 14c0 C401      		movw r24,r8
 4373 14c2 B601      		movw r22,r12
 4374 14c4 0E94 0000 		call is_coordinate_null
 4375 14c8 892B      		or r24,r25
 4376 14ca 01F0      		breq .+2
 4377 14cc 00C0      		rjmp .L358
 4378 14ce C501      		movw r24,r10
 4379 14d0 B601      		movw r22,r12
 4380 14d2 0E94 0000 		call is_coordinate_null
 4381 14d6 892B      		or r24,r25
 4382 14d8 01F0      		breq .+2
 4383 14da 00C0      		rjmp .L358
 4384 14dc B601      		movw r22,r12
 4385 14de 6150      		subi r22,lo8(-(-1))
 4386 14e0 7040      		sbci r23,hi8(-(-1))
 4387 14e2 C701      		movw r24,r14
 4388 14e4 0E94 0000 		call is_coordinate_null
 4389 14e8 892B      		or r24,r25
 4390 14ea 01F0      		breq .+2
 4391 14ec 00C0      		rjmp .L358
 4392 14ee B601      		movw r22,r12
 4393 14f0 6F5F      		subi r22,lo8(-(1))
 4394 14f2 7F4F      		sbci r23,hi8(-(1))
 4395 14f4 C701      		movw r24,r14
 4396 14f6 0E94 0000 		call is_coordinate_null
 4397 14fa 892B      		or r24,r25
 4398 14fc 01F4      		brne .L358
 4399               	.LM643:
 4400 14fe 81E0      		ldi r24,lo8(1)
 4401 1500 60E0      		ldi r22,lo8(0)
 4402 1502 0E94 0000 		call lcd_byte
 4403               	.LM644:
 4404 1506 80E0      		ldi r24,lo8(.LC1)
 4405 1508 90E0      		ldi r25,hi8(.LC1)
 4406 150a 0E94 0000 		call lcd_write_string
 4407               	.LM645:
 4408 150e 80ED      		ldi r24,lo8(2000)
 4409 1510 97E0      		ldi r25,hi8(2000)
 4410 1512 0E94 0000 		call delay_millisec
 4411               	.LM646:
 4412 1516 CA5A      		subi r28,lo8(-(86))
 4413 1518 DF4F      		sbci r29,hi8(-(86))
 4414 151a 8881      		ld r24,Y
 4415 151c 9981      		ldd r25,Y+1
 4416 151e C655      		subi r28,lo8(-(-86))
 4417 1520 D040      		sbci r29,hi8(-(-86))
 4418 1522 8130      		cpi r24,1
 4419 1524 9105      		cpc r25,__zero_reg__
 4420 1526 01F4      		brne .L359
 4421               	.LM647:
 4422 1528 9B83      		std Y+3,r25
 4423 152a 8A83      		std Y+2,r24
 4424 152c 00C0      		rjmp .L360
 4425               	.L359:
 4426               	.LM648:
 4427 152e 1B82      		std Y+3,__zero_reg__
 4428 1530 1A82      		std Y+2,__zero_reg__
 4429               	.L360:
 4430               	.LM649:
 4431 1532 CE54      		subi r28,lo8(-(-78))
 4432 1534 D040      		sbci r29,hi8(-(-78))
 4433 1536 8881      		ld r24,Y
 4434 1538 9981      		ldd r25,Y+1
 4435 153a C25B      		subi r28,lo8(-(78))
 4436 153c DF4F      		sbci r29,hi8(-(78))
 4437 153e 8130      		cpi r24,1
 4438 1540 9105      		cpc r25,__zero_reg__
 4439 1542 01F4      		brne .L361
 4440               	.LM650:
 4441 1544 9F83      		std Y+7,r25
 4442 1546 8E83      		std Y+6,r24
 4443 1548 00C0      		rjmp .L362
 4444               	.L361:
 4445               	.LM651:
 4446 154a 1F82      		std Y+7,__zero_reg__
 4447 154c 1E82      		std Y+6,__zero_reg__
 4448               	.L362:
 4449               	.LM652:
 4450 154e 8C85      		ldd r24,Y+12
 4451 1550 9D85      		ldd r25,Y+13
 4452 1552 8130      		cpi r24,1
 4453 1554 9105      		cpc r25,__zero_reg__
 4454 1556 01F4      		brne .L363
 4455               	.LM653:
 4456 1558 9983      		std Y+1,r25
 4457 155a 8883      		st Y,r24
 4458 155c 00C0      		rjmp .L364
 4459               	.L363:
 4460               	.LM654:
 4461 155e 1982      		std Y+1,__zero_reg__
 4462 1560 1882      		st Y,__zero_reg__
 4463               	.L364:
 4464               	.LM655:
 4465 1562 F801      		movw r30,r16
 4466 1564 8081      		ld r24,Z
 4467 1566 9181      		ldd r25,Z+1
 4468 1568 8130      		cpi r24,1
 4469 156a 9105      		cpc r25,__zero_reg__
 4470 156c 01F4      		brne .L365
 4471               	.LM656:
 4472 156e 9D83      		std Y+5,r25
 4473 1570 8C83      		std Y+4,r24
 4474 1572 00C0      		rjmp .L358
 4475               	.L365:
 4476               	.LM657:
 4477 1574 1D82      		std Y+5,__zero_reg__
 4478 1576 1C82      		std Y+4,__zero_reg__
 4479               	.L358:
 4480               	.LM658:
 4481 1578 0894      		sec
 4482 157a C11C      		adc r12,__zero_reg__
 4483 157c D11C      		adc r13,__zero_reg__
 4484 157e 065F      		subi r16,lo8(-(10))
 4485 1580 1F4F      		sbci r17,hi8(-(10))
 4486 1582 2896      		adiw r28,8
 4487 1584 F9E0      		ldi r31,lo8(9)
 4488 1586 CF16      		cp r12,r31
 4489 1588 D104      		cpc r13,__zero_reg__
 4490 158a 01F0      		breq .+2
 4491 158c 00C0      		rjmp .L366
 4492               	.LBE638:
 4493               	.LM659:
 4494 158e 0894      		sec
 4495 1590 E11C      		adc r14,__zero_reg__
 4496 1592 F11C      		adc r15,__zero_reg__
 4497 1594 89E0      		ldi r24,lo8(9)
 4498 1596 E816      		cp r14,r24
 4499 1598 F104      		cpc r15,__zero_reg__
 4500 159a 01F0      		breq .L368
 4501               	.L357:
 4502 159c 8701      		movw r16,r14
 4503 159e 000F      		lsl r16
 4504 15a0 111F      		rol r17
 4505 15a2 C701      		movw r24,r14
 4506 15a4 63E0      		ldi r22,3
 4507 15a6 880F      	1:	lsl r24
 4508 15a8 991F      		rol r25
 4509 15aa 6A95      		dec r22
 4510 15ac 01F4      		brne 1b
 4511 15ae 080F      		add r16,r24
 4512 15b0 191F      		adc r17,r25
 4513 15b2 53E0      		ldi r21,3
 4514 15b4 000F      	1:	lsl r16
 4515 15b6 111F      		rol r17
 4516 15b8 5A95      		dec r21
 4517 15ba 01F4      		brne 1b
 4518 15bc 0050      		subi r16,lo8(-(dir_array+8))
 4519 15be 1040      		sbci r17,hi8(-(dir_array+8))
 4520 15c0 E801      		movw r28,r16
 4521 15c2 41E0      		ldi r20,lo8(1)
 4522 15c4 C42E      		mov r12,r20
 4523 15c6 D12C      		mov r13,__zero_reg__
 4524               	.LBB639:
 4525               	.LM660:
 4526 15c8 4701      		movw r8,r14
 4527 15ca 0894      		sec
 4528 15cc 811C      		adc r8,__zero_reg__
 4529 15ce 911C      		adc r9,__zero_reg__
 4530 15d0 5701      		movw r10,r14
 4531 15d2 0894      		sec
 4532 15d4 A108      		sbc r10,__zero_reg__
 4533 15d6 B108      		sbc r11,__zero_reg__
 4534 15d8 00C0      		rjmp .L366
 4535               	.L368:
 4536               	/* epilogue start */
 4537               	.LBE639:
 4538               	.LBE637:
 4539               	.LM661:
 4540 15da DF91      		pop r29
 4541 15dc CF91      		pop r28
 4542 15de 1F91      		pop r17
 4543 15e0 0F91      		pop r16
 4544 15e2 FF90      		pop r15
 4545 15e4 EF90      		pop r14
 4546               	.LVL133:
 4547 15e6 DF90      		pop r13
 4548 15e8 CF90      		pop r12
 4549               	.LVL134:
 4550 15ea BF90      		pop r11
 4551 15ec AF90      		pop r10
 4552 15ee 9F90      		pop r9
 4553 15f0 8F90      		pop r8
 4554 15f2 0895      		ret
 4555               	.LFE69:
 4557               	.global	coordinates_tobe_reached
 4559               	coordinates_tobe_reached:
 4560               	.LFB70:
 4561               	.LM662:
 4562 15f4 2F92      		push r2
 4563 15f6 3F92      		push r3
 4564 15f8 4F92      		push r4
 4565 15fa 5F92      		push r5
 4566 15fc 6F92      		push r6
 4567 15fe 7F92      		push r7
 4568 1600 8F92      		push r8
 4569 1602 9F92      		push r9
 4570 1604 AF92      		push r10
 4571 1606 BF92      		push r11
 4572 1608 CF92      		push r12
 4573 160a DF92      		push r13
 4574 160c EF92      		push r14
 4575 160e FF92      		push r15
 4576 1610 0F93      		push r16
 4577 1612 1F93      		push r17
 4578 1614 DF93      		push r29
 4579 1616 CF93      		push r28
 4580 1618 CDB7      		in r28,__SP_L__
 4581 161a DEB7      		in r29,__SP_H__
 4582 161c 6897      		sbiw r28,24
 4583 161e 0FB6      		in __tmp_reg__,__SREG__
 4584 1620 F894      		cli
 4585 1622 DEBF      		out __SP_H__,r29
 4586 1624 0FBE      		out __SREG__,__tmp_reg__
 4587 1626 CDBF      		out __SP_L__,r28
 4588               	/* prologue: function */
 4589               	/* frame size = 24 */
 4590               	.LM663:
 4591 1628 1092 0000 		sts (mx)+1,__zero_reg__
 4592 162c 1092 0000 		sts mx,__zero_reg__
 4593               	.LM664:
 4594 1630 1092 0000 		sts (my)+1,__zero_reg__
 4595 1634 1092 0000 		sts my,__zero_reg__
 4596               	.LBB640:
 4597               	.LBB641:
 4598               	.LM665:
 4599 1638 8090 0000 		lds r8,x_coordinate
 4600 163c 9090 0000 		lds r9,(x_coordinate)+1
 4601 1640 A090 0000 		lds r10,y_coordinate
 4602 1644 B090 0000 		lds r11,(y_coordinate)+1
 4603 1648 CC24      		clr r12
 4604 164a DD24      		clr r13
 4605 164c C818      		sub r12,r8
 4606 164e D908      		sbc r13,r9
 4607 1650 DE82      		std Y+6,r13
 4608 1652 CD82      		std Y+5,r12
 4609 1654 DC82      		std Y+4,r13
 4610 1656 CB82      		std Y+3,r12
 4611 1658 DA82      		std Y+2,r13
 4612 165a C982      		std Y+1,r12
 4613 165c 00E0      		ldi r16,lo8(0)
 4614 165e 10E0      		ldi r17,hi8(0)
 4615               	.LVL135:
 4616               	.LM666:
 4617 1660 2227      		clr r18
 4618 1662 3327      		clr r19
 4619 1664 2A19      		sub r18,r10
 4620 1666 3B09      		sbc r19,r11
 4621 1668 3E8B      		std Y+22,r19
 4622 166a 2D8B      		std Y+21,r18
 4623 166c 00C0      		rjmp .L371
 4624               	.LVL136:
 4625               	.L380:
 4626               	.LM667:
 4627 166e C801      		movw r24,r16
 4628 1670 6F89      		ldd r22,Y+23
 4629 1672 788D      		ldd r23,Y+24
 4630 1674 0E94 0000 		call is_coordinate_null
 4631 1678 892B      		or r24,r25
 4632 167a 01F0      		breq .+2
 4633 167c 00C0      		rjmp .L372
 4634               	.LM668:
 4635 167e F701      		movw r30,r14
 4636 1680 8081      		ld r24,Z
 4637 1682 9181      		ldd r25,Z+1
 4638 1684 0197      		sbiw r24,1
 4639 1686 01F0      		breq .+2
 4640 1688 00C0      		rjmp .L373
 4641               	.LM669:
 4642 168a 6F89      		ldd r22,Y+23
 4643 168c 788D      		ldd r23,Y+24
 4644 168e 6F5F      		subi r22,lo8(-(1))
 4645 1690 7F4F      		sbci r23,hi8(-(1))
 4646 1692 C801      		movw r24,r16
 4647 1694 0E94 0000 		call is_coordinate_null
 4648 1698 892B      		or r24,r25
 4649 169a 01F4      		brne .+2
 4650 169c 00C0      		rjmp .L373
 4651               	.LM670:
 4652 169e 6091 0000 		lds r22,mx
 4653 16a2 7091 0000 		lds r23,(mx)+1
 4654 16a6 6115      		cp r22,__zero_reg__
 4655 16a8 7105      		cpc r23,__zero_reg__
 4656 16aa 01F4      		brne .L374
 4657 16ac 8091 0000 		lds r24,my
 4658 16b0 9091 0000 		lds r25,(my)+1
 4659 16b4 892B      		or r24,r25
 4660 16b6 01F0      		breq .L384
 4661               	.L374:
 4662               	.LM671:
 4663 16b8 6819      		sub r22,r8
 4664 16ba 7909      		sbc r23,r9
 4665 16bc 8091 0000 		lds r24,my
 4666 16c0 9091 0000 		lds r25,(my)+1
 4667 16c4 8A19      		sub r24,r10
 4668 16c6 9B09      		sbc r25,r11
 4669               	.LM672:
 4670 16c8 ED85      		ldd r30,Y+13
 4671 16ca FE85      		ldd r31,Y+14
 4672 16cc EE9F      		mul r30,r30
 4673 16ce A001      		movw r20,r0
 4674 16d0 EF9F      		mul r30,r31
 4675 16d2 500D      		add r21,r0
 4676 16d4 FE9F      		mul r31,r30
 4677 16d6 500D      		add r21,r0
 4678 16d8 1124      		clr r1
 4679 16da 2F85      		ldd r18,Y+15
 4680 16dc 3889      		ldd r19,Y+16
 4681 16de 420F      		add r20,r18
 4682 16e0 531F      		adc r21,r19
 4683 16e2 FC01      		movw r30,r24
 4684 16e4 EE9F      		mul r30,r30
 4685 16e6 C001      		movw r24,r0
 4686 16e8 EF9F      		mul r30,r31
 4687 16ea 900D      		add r25,r0
 4688 16ec FE9F      		mul r31,r30
 4689 16ee 900D      		add r25,r0
 4690 16f0 1124      		clr r1
 4691 16f2 669F      		mul r22,r22
 4692 16f4 9001      		movw r18,r0
 4693 16f6 679F      		mul r22,r23
 4694 16f8 300D      		add r19,r0
 4695 16fa 769F      		mul r23,r22
 4696 16fc 300D      		add r19,r0
 4697 16fe 1124      		clr r1
 4698 1700 820F      		add r24,r18
 4699 1702 931F      		adc r25,r19
 4700 1704 4817      		cp r20,r24
 4701 1706 5907      		cpc r21,r25
 4702 1708 04F4      		brge .L373
 4703               	.L384:
 4704               	.LM673:
 4705 170a 1093 0000 		sts (mx)+1,r17
 4706 170e 0093 0000 		sts mx,r16
 4707               	.LM674:
 4708 1712 2F89      		ldd r18,Y+23
 4709 1714 388D      		ldd r19,Y+24
 4710 1716 3093 0000 		sts (my)+1,r19
 4711 171a 2093 0000 		sts my,r18
 4712               	.L373:
 4713               	.LM675:
 4714 171e F701      		movw r30,r14
 4715 1720 8281      		ldd r24,Z+2
 4716 1722 9381      		ldd r25,Z+3
 4717 1724 0197      		sbiw r24,1
 4718 1726 01F0      		breq .+2
 4719 1728 00C0      		rjmp .L375
 4720               	.LM676:
 4721 172a 8B89      		ldd r24,Y+19
 4722 172c 9C89      		ldd r25,Y+20
 4723 172e 6F89      		ldd r22,Y+23
 4724 1730 788D      		ldd r23,Y+24
 4725 1732 0E94 0000 		call is_coordinate_null
 4726 1736 892B      		or r24,r25
 4727 1738 01F4      		brne .+2
 4728 173a 00C0      		rjmp .L375
 4729               	.LM677:
 4730 173c 6091 0000 		lds r22,mx
 4731 1740 7091 0000 		lds r23,(mx)+1
 4732 1744 6115      		cp r22,__zero_reg__
 4733 1746 7105      		cpc r23,__zero_reg__
 4734 1748 01F4      		brne .L376
 4735 174a 8091 0000 		lds r24,my
 4736 174e 9091 0000 		lds r25,(my)+1
 4737 1752 892B      		or r24,r25
 4738 1754 01F4      		brne .L376
 4739               	.LM678:
 4740 1756 1093 0000 		sts (mx)+1,r17
 4741 175a 0093 0000 		sts mx,r16
 4742               	.LM679:
 4743 175e 2F89      		ldd r18,Y+23
 4744 1760 388D      		ldd r19,Y+24
 4745 1762 3093 0000 		sts (my)+1,r19
 4746 1766 2093 0000 		sts my,r18
 4747 176a 00C0      		rjmp .L375
 4748               	.L376:
 4749               	.LM680:
 4750 176c 6819      		sub r22,r8
 4751 176e 7909      		sbc r23,r9
 4752 1770 8091 0000 		lds r24,my
 4753 1774 9091 0000 		lds r25,(my)+1
 4754 1778 8A19      		sub r24,r10
 4755 177a 9B09      		sbc r25,r11
 4756               	.LM681:
 4757 177c 669C      		mul r6,r6
 4758 177e A001      		movw r20,r0
 4759 1780 679C      		mul r6,r7
 4760 1782 500D      		add r21,r0
 4761 1784 769C      		mul r7,r6
 4762 1786 500D      		add r21,r0
 4763 1788 1124      		clr r1
 4764 178a EB85      		ldd r30,Y+11
 4765 178c FC85      		ldd r31,Y+12
 4766 178e 4E0F      		add r20,r30
 4767 1790 5F1F      		adc r21,r31
 4768 1792 9C01      		movw r18,r24
 4769 1794 229F      		mul r18,r18
 4770 1796 C001      		movw r24,r0
 4771 1798 239F      		mul r18,r19
 4772 179a 900D      		add r25,r0
 4773 179c 329F      		mul r19,r18
 4774 179e 900D      		add r25,r0
 4775 17a0 1124      		clr r1
 4776 17a2 669F      		mul r22,r22
 4777 17a4 9001      		movw r18,r0
 4778 17a6 679F      		mul r22,r23
 4779 17a8 300D      		add r19,r0
 4780 17aa 769F      		mul r23,r22
 4781 17ac 300D      		add r19,r0
 4782 17ae 1124      		clr r1
 4783 17b0 820F      		add r24,r18
 4784 17b2 931F      		adc r25,r19
 4785 17b4 4817      		cp r20,r24
 4786 17b6 5907      		cpc r21,r25
 4787 17b8 04F4      		brge .L375
 4788               	.LM682:
 4789 17ba 1093 0000 		sts (mx)+1,r17
 4790 17be 0093 0000 		sts mx,r16
 4791               	.LM683:
 4792 17c2 8F89      		ldd r24,Y+23
 4793 17c4 988D      		ldd r25,Y+24
 4794 17c6 9093 0000 		sts (my)+1,r25
 4795 17ca 8093 0000 		sts my,r24
 4796               	.L375:
 4797               	.LM684:
 4798 17ce F701      		movw r30,r14
 4799 17d0 8481      		ldd r24,Z+4
 4800 17d2 9581      		ldd r25,Z+5
 4801 17d4 0197      		sbiw r24,1
 4802 17d6 01F0      		breq .+2
 4803 17d8 00C0      		rjmp .L377
 4804               	.LM685:
 4805 17da 6F89      		ldd r22,Y+23
 4806 17dc 788D      		ldd r23,Y+24
 4807 17de 6150      		subi r22,lo8(-(-1))
 4808 17e0 7040      		sbci r23,hi8(-(-1))
 4809 17e2 C801      		movw r24,r16
 4810 17e4 0E94 0000 		call is_coordinate_null
 4811 17e8 892B      		or r24,r25
 4812 17ea 01F4      		brne .+2
 4813 17ec 00C0      		rjmp .L377
 4814               	.LM686:
 4815 17ee 6091 0000 		lds r22,mx
 4816 17f2 7091 0000 		lds r23,(mx)+1
 4817 17f6 6115      		cp r22,__zero_reg__
 4818 17f8 7105      		cpc r23,__zero_reg__
 4819 17fa 01F4      		brne .L378
 4820 17fc 8091 0000 		lds r24,my
 4821 1800 9091 0000 		lds r25,(my)+1
 4822 1804 892B      		or r24,r25
 4823 1806 01F4      		brne .L378
 4824               	.LM687:
 4825 1808 1093 0000 		sts (mx)+1,r17
 4826 180c 0093 0000 		sts mx,r16
 4827               	.LM688:
 4828 1810 2F89      		ldd r18,Y+23
 4829 1812 388D      		ldd r19,Y+24
 4830 1814 3093 0000 		sts (my)+1,r19
 4831 1818 2093 0000 		sts my,r18
 4832 181c 00C0      		rjmp .L377
 4833               	.L378:
 4834               	.LM689:
 4835 181e 6819      		sub r22,r8
 4836 1820 7909      		sbc r23,r9
 4837 1822 8091 0000 		lds r24,my
 4838 1826 9091 0000 		lds r25,(my)+1
 4839 182a 8A19      		sub r24,r10
 4840 182c 9B09      		sbc r25,r11
 4841               	.LM690:
 4842 182e 449C      		mul r4,r4
 4843 1830 A001      		movw r20,r0
 4844 1832 459C      		mul r4,r5
 4845 1834 500D      		add r21,r0
 4846 1836 549C      		mul r5,r4
 4847 1838 500D      		add r21,r0
 4848 183a 1124      		clr r1
 4849 183c E985      		ldd r30,Y+9
 4850 183e FA85      		ldd r31,Y+10
 4851 1840 4E0F      		add r20,r30
 4852 1842 5F1F      		adc r21,r31
 4853 1844 9C01      		movw r18,r24
 4854 1846 229F      		mul r18,r18
 4855 1848 C001      		movw r24,r0
 4856 184a 239F      		mul r18,r19
 4857 184c 900D      		add r25,r0
 4858 184e 329F      		mul r19,r18
 4859 1850 900D      		add r25,r0
 4860 1852 1124      		clr r1
 4861 1854 669F      		mul r22,r22
 4862 1856 9001      		movw r18,r0
 4863 1858 679F      		mul r22,r23
 4864 185a 300D      		add r19,r0
 4865 185c 769F      		mul r23,r22
 4866 185e 300D      		add r19,r0
 4867 1860 1124      		clr r1
 4868 1862 820F      		add r24,r18
 4869 1864 931F      		adc r25,r19
 4870 1866 4817      		cp r20,r24
 4871 1868 5907      		cpc r21,r25
 4872 186a 04F4      		brge .L377
 4873               	.LM691:
 4874 186c 1093 0000 		sts (mx)+1,r17
 4875 1870 0093 0000 		sts mx,r16
 4876               	.LM692:
 4877 1874 8F89      		ldd r24,Y+23
 4878 1876 988D      		ldd r25,Y+24
 4879 1878 9093 0000 		sts (my)+1,r25
 4880 187c 8093 0000 		sts my,r24
 4881               	.L377:
 4882               	.LM693:
 4883 1880 F701      		movw r30,r14
 4884 1882 8681      		ldd r24,Z+6
 4885 1884 9781      		ldd r25,Z+7
 4886 1886 0197      		sbiw r24,1
 4887 1888 01F0      		breq .+2
 4888 188a 00C0      		rjmp .L372
 4889               	.LM694:
 4890 188c 8989      		ldd r24,Y+17
 4891 188e 9A89      		ldd r25,Y+18
 4892 1890 6F89      		ldd r22,Y+23
 4893 1892 788D      		ldd r23,Y+24
 4894 1894 0E94 0000 		call is_coordinate_null
 4895 1898 892B      		or r24,r25
 4896 189a 01F4      		brne .+2
 4897 189c 00C0      		rjmp .L372
 4898               	.LM695:
 4899 189e 6091 0000 		lds r22,mx
 4900 18a2 7091 0000 		lds r23,(mx)+1
 4901 18a6 6115      		cp r22,__zero_reg__
 4902 18a8 7105      		cpc r23,__zero_reg__
 4903 18aa 01F4      		brne .L379
 4904 18ac 8091 0000 		lds r24,my
 4905 18b0 9091 0000 		lds r25,(my)+1
 4906 18b4 892B      		or r24,r25
 4907 18b6 01F4      		brne .L379
 4908               	.LM696:
 4909 18b8 1093 0000 		sts (mx)+1,r17
 4910 18bc 0093 0000 		sts mx,r16
 4911               	.LM697:
 4912 18c0 2F89      		ldd r18,Y+23
 4913 18c2 388D      		ldd r19,Y+24
 4914 18c4 3093 0000 		sts (my)+1,r19
 4915 18c8 2093 0000 		sts my,r18
 4916 18cc 00C0      		rjmp .L372
 4917               	.L379:
 4918               	.LM698:
 4919 18ce 6819      		sub r22,r8
 4920 18d0 7909      		sbc r23,r9
 4921 18d2 8091 0000 		lds r24,my
 4922 18d6 9091 0000 		lds r25,(my)+1
 4923 18da 8A19      		sub r24,r10
 4924 18dc 9B09      		sbc r25,r11
 4925               	.LM699:
 4926 18de 229C      		mul r2,r2
 4927 18e0 A001      		movw r20,r0
 4928 18e2 239C      		mul r2,r3
 4929 18e4 500D      		add r21,r0
 4930 18e6 329C      		mul r3,r2
 4931 18e8 500D      		add r21,r0
 4932 18ea 1124      		clr r1
 4933 18ec EF81      		ldd r30,Y+7
 4934 18ee F885      		ldd r31,Y+8
 4935 18f0 4E0F      		add r20,r30
 4936 18f2 5F1F      		adc r21,r31
 4937 18f4 9C01      		movw r18,r24
 4938 18f6 229F      		mul r18,r18
 4939 18f8 C001      		movw r24,r0
 4940 18fa 239F      		mul r18,r19
 4941 18fc 900D      		add r25,r0
 4942 18fe 329F      		mul r19,r18
 4943 1900 900D      		add r25,r0
 4944 1902 1124      		clr r1
 4945 1904 669F      		mul r22,r22
 4946 1906 9001      		movw r18,r0
 4947 1908 679F      		mul r22,r23
 4948 190a 300D      		add r19,r0
 4949 190c 769F      		mul r23,r22
 4950 190e 300D      		add r19,r0
 4951 1910 1124      		clr r1
 4952 1912 820F      		add r24,r18
 4953 1914 931F      		adc r25,r19
 4954 1916 4817      		cp r20,r24
 4955 1918 5907      		cpc r21,r25
 4956 191a 04F4      		brge .L372
 4957               	.LM700:
 4958 191c 1093 0000 		sts (mx)+1,r17
 4959 1920 0093 0000 		sts mx,r16
 4960               	.LM701:
 4961 1924 8F89      		ldd r24,Y+23
 4962 1926 988D      		ldd r25,Y+24
 4963 1928 9093 0000 		sts (my)+1,r25
 4964 192c 8093 0000 		sts my,r24
 4965               	.L372:
 4966               	.LM702:
 4967 1930 EF89      		ldd r30,Y+23
 4968 1932 F88D      		ldd r31,Y+24
 4969 1934 3196      		adiw r30,1
 4970 1936 F88F      		std Y+24,r31
 4971 1938 EF8B      		std Y+23,r30
 4972               	.LVL137:
 4973 193a 28E0      		ldi r18,lo8(8)
 4974 193c 30E0      		ldi r19,hi8(8)
 4975 193e E20E      		add r14,r18
 4976 1940 F31E      		adc r15,r19
 4977 1942 0894      		sec
 4978 1944 211C      		adc r2,__zero_reg__
 4979 1946 311C      		adc r3,__zero_reg__
 4980 1948 0894      		sec
 4981 194a 411C      		adc r4,__zero_reg__
 4982 194c 511C      		adc r5,__zero_reg__
 4983 194e 0894      		sec
 4984 1950 611C      		adc r6,__zero_reg__
 4985 1952 711C      		adc r7,__zero_reg__
 4986 1954 8D85      		ldd r24,Y+13
 4987 1956 9E85      		ldd r25,Y+14
 4988 1958 0196      		adiw r24,1
 4989 195a 9E87      		std Y+14,r25
 4990 195c 8D87      		std Y+13,r24
 4991 195e 3A97      		sbiw r30,10
 4992 1960 01F0      		breq .+2
 4993 1962 00C0      		rjmp .L380
 4994               	.LBE641:
 4995               	.LM703:
 4996 1964 0F5F      		subi r16,lo8(-(1))
 4997 1966 1F4F      		sbci r17,hi8(-(1))
 4998 1968 0894      		sec
 4999 196a C11C      		adc r12,__zero_reg__
 5000 196c D11C      		adc r13,__zero_reg__
 5001 196e ED81      		ldd r30,Y+5
 5002 1970 FE81      		ldd r31,Y+6
 5003 1972 3196      		adiw r30,1
 5004 1974 FE83      		std Y+6,r31
 5005 1976 ED83      		std Y+5,r30
 5006 1978 2B81      		ldd r18,Y+3
 5007 197a 3C81      		ldd r19,Y+4
 5008 197c 2F5F      		subi r18,lo8(-(1))
 5009 197e 3F4F      		sbci r19,hi8(-(1))
 5010 1980 3C83      		std Y+4,r19
 5011 1982 2B83      		std Y+3,r18
 5012 1984 8981      		ldd r24,Y+1
 5013 1986 9A81      		ldd r25,Y+2
 5014 1988 0196      		adiw r24,1
 5015 198a 9A83      		std Y+2,r25
 5016 198c 8983      		std Y+1,r24
 5017 198e 0A30      		cpi r16,10
 5018 1990 1105      		cpc r17,__zero_reg__
 5019 1992 01F4      		brne .+2
 5020 1994 00C0      		rjmp .L382
 5021               	.L371:
 5022               	.LBB642:
 5023               	.LM704:
 5024 1996 CC9C      		mul r12,r12
 5025 1998 F001      		movw r30,r0
 5026 199a CD9C      		mul r12,r13
 5027 199c F00D      		add r31,r0
 5028 199e DC9C      		mul r13,r12
 5029 19a0 F00D      		add r31,r0
 5030 19a2 1124      		clr r1
 5031 19a4 F88B      		std Y+16,r31
 5032 19a6 EF87      		std Y+15,r30
 5033               	.LM705:
 5034 19a8 8D81      		ldd r24,Y+5
 5035 19aa 9E81      		ldd r25,Y+6
 5036 19ac 889F      		mul r24,r24
 5037 19ae 9001      		movw r18,r0
 5038 19b0 899F      		mul r24,r25
 5039 19b2 300D      		add r19,r0
 5040 19b4 989F      		mul r25,r24
 5041 19b6 300D      		add r19,r0
 5042 19b8 1124      		clr r1
 5043 19ba 3C87      		std Y+12,r19
 5044 19bc 2B87      		std Y+11,r18
 5045               	.LM706:
 5046 19be 2B81      		ldd r18,Y+3
 5047 19c0 3C81      		ldd r19,Y+4
 5048 19c2 229F      		mul r18,r18
 5049 19c4 F001      		movw r30,r0
 5050 19c6 239F      		mul r18,r19
 5051 19c8 F00D      		add r31,r0
 5052 19ca 329F      		mul r19,r18
 5053 19cc F00D      		add r31,r0
 5054 19ce 1124      		clr r1
 5055 19d0 FA87      		std Y+10,r31
 5056 19d2 E987      		std Y+9,r30
 5057               	.LM707:
 5058 19d4 E981      		ldd r30,Y+1
 5059 19d6 FA81      		ldd r31,Y+2
 5060 19d8 EE9F      		mul r30,r30
 5061 19da C001      		movw r24,r0
 5062 19dc EF9F      		mul r30,r31
 5063 19de 900D      		add r25,r0
 5064 19e0 FE9F      		mul r31,r30
 5065 19e2 900D      		add r25,r0
 5066 19e4 1124      		clr r1
 5067 19e6 9887      		std Y+8,r25
 5068 19e8 8F83      		std Y+7,r24
 5069 19ea 20E5      		ldi r18,lo8(80)
 5070 19ec 30E0      		ldi r19,hi8(80)
 5071 19ee 029F      		mul r16,r18
 5072 19f0 7001      		movw r14,r0
 5073 19f2 039F      		mul r16,r19
 5074 19f4 F00C      		add r15,r0
 5075 19f6 129F      		mul r17,r18
 5076 19f8 F00C      		add r15,r0
 5077 19fa 1124      		clr r1
 5078 19fc 80E0      		ldi r24,lo8(dir_array)
 5079 19fe 90E0      		ldi r25,hi8(dir_array)
 5080 1a00 E80E      		add r14,r24
 5081 1a02 F91E      		adc r15,r25
 5082 1a04 ED89      		ldd r30,Y+21
 5083 1a06 FE89      		ldd r31,Y+22
 5084 1a08 FE87      		std Y+14,r31
 5085 1a0a ED87      		std Y+13,r30
 5086 1a0c 1F01      		movw r2,r30
 5087 1a0e 2F01      		movw r4,r30
 5088 1a10 3F01      		movw r6,r30
 5089 1a12 188E      		std Y+24,__zero_reg__
 5090 1a14 1F8A      		std Y+23,__zero_reg__
 5091               	.LVL138:
 5092               	.LM708:
 5093 1a16 9801      		movw r18,r16
 5094 1a18 2150      		subi r18,lo8(-(-1))
 5095 1a1a 3040      		sbci r19,hi8(-(-1))
 5096 1a1c 3A8B      		std Y+18,r19
 5097 1a1e 298B      		std Y+17,r18
 5098               	.LM709:
 5099 1a20 C801      		movw r24,r16
 5100 1a22 0196      		adiw r24,1
 5101 1a24 9C8B      		std Y+20,r25
 5102 1a26 8B8B      		std Y+19,r24
 5103 1a28 00C0      		rjmp .L380
 5104               	.L382:
 5105               	/* epilogue start */
 5106               	.LBE642:
 5107               	.LBE640:
 5108               	.LM710:
 5109 1a2a 6896      		adiw r28,24
 5110 1a2c 0FB6      		in __tmp_reg__,__SREG__
 5111 1a2e F894      		cli
 5112 1a30 DEBF      		out __SP_H__,r29
 5113 1a32 0FBE      		out __SREG__,__tmp_reg__
 5114 1a34 CDBF      		out __SP_L__,r28
 5115 1a36 CF91      		pop r28
 5116 1a38 DF91      		pop r29
 5117 1a3a 1F91      		pop r17
 5118 1a3c 0F91      		pop r16
 5119               	.LVL139:
 5120 1a3e FF90      		pop r15
 5121 1a40 EF90      		pop r14
 5122 1a42 DF90      		pop r13
 5123 1a44 CF90      		pop r12
 5124 1a46 BF90      		pop r11
 5125 1a48 AF90      		pop r10
 5126 1a4a 9F90      		pop r9
 5127 1a4c 8F90      		pop r8
 5128 1a4e 7F90      		pop r7
 5129 1a50 6F90      		pop r6
 5130 1a52 5F90      		pop r5
 5131 1a54 4F90      		pop r4
 5132 1a56 3F90      		pop r3
 5133 1a58 2F90      		pop r2
 5134 1a5a 0895      		ret
 5135               	.LFE70:
 5137               		.data
 5138               	.LC2:
 5139 0018 4272 6F6B 		.string	"Broke path "
 5139      6520 7061 
 5139      7468 2000 
 5140               		.text
 5141               	.global	get_path
 5143               	get_path:
 5144               	.LFB71:
 5145               	.LM711:
 5146 1a5c 6F92      		push r6
 5147 1a5e 7F92      		push r7
 5148 1a60 8F92      		push r8
 5149 1a62 9F92      		push r9
 5150 1a64 AF92      		push r10
 5151 1a66 BF92      		push r11
 5152 1a68 CF92      		push r12
 5153 1a6a DF92      		push r13
 5154 1a6c EF92      		push r14
 5155 1a6e FF92      		push r15
 5156 1a70 0F93      		push r16
 5157 1a72 1F93      		push r17
 5158 1a74 CF93      		push r28
 5159 1a76 DF93      		push r29
 5160               	/* prologue: function */
 5161               	/* frame size = 0 */
 5162               	.LM712:
 5163 1a78 6091 0000 		lds r22,y_coordinate
 5164 1a7c 7091 0000 		lds r23,(y_coordinate)+1
 5165               	.LVL140:
 5166               	.LM713:
 5167 1a80 4091 0000 		lds r20,x_coordinate
 5168 1a84 5091 0000 		lds r21,(x_coordinate)+1
 5169               	.LVL141:
 5170 1a88 00E0      		ldi r16,lo8(path_array)
 5171 1a8a 10E0      		ldi r17,hi8(path_array)
 5172 1a8c F801      		movw r30,r16
 5173               	.L386:
 5174               	.LBB643:
 5175               	.LM714:
 5176 1a8e 1182      		std Z+1,__zero_reg__
 5177 1a90 1082      		st Z,__zero_reg__
 5178               	.LM715:
 5179 1a92 1382      		std Z+3,__zero_reg__
 5180 1a94 1282      		std Z+2,__zero_reg__
 5181 1a96 3496      		adiw r30,4
 5182               	.LM716:
 5183 1a98 80E0      		ldi r24,hi8(path_array+60)
 5184 1a9a E030      		cpi r30,lo8(path_array+60)
 5185 1a9c F807      		cpc r31,r24
 5186 1a9e 01F4      		brne .L386
 5187 1aa0 00C0      		rjmp .L399
 5188               	.LVL142:
 5189               	.L397:
 5190               	.LBE643:
 5191               	.LM717:
 5192 1aa2 6A01      		movw r12,r20
 5193 1aa4 0894      		sec
 5194 1aa6 C11C      		adc r12,__zero_reg__
 5195 1aa8 D11C      		adc r13,__zero_reg__
 5196               	.LVL143:
 5197 1aaa E601      		movw r28,r12
 5198 1aac CC0F      		lsl r28
 5199 1aae DD1F      		rol r29
 5200 1ab0 C601      		movw r24,r12
 5201 1ab2 23E0      		ldi r18,3
 5202 1ab4 880F      	1:	lsl r24
 5203 1ab6 991F      		rol r25
 5204 1ab8 2A95      		dec r18
 5205 1aba 01F4      		brne 1b
 5206 1abc C80F      		add r28,r24
 5207 1abe D91F      		adc r29,r25
 5208 1ac0 C60F      		add r28,r22
 5209 1ac2 D71F      		adc r29,r23
 5210 1ac4 7E01      		movw r14,r28
 5211 1ac6 EE0C      		lsl r14
 5212 1ac8 FF1C      		rol r15
 5213 1aca F701      		movw r30,r14
 5214 1acc E050      		subi r30,lo8(-(map_array))
 5215 1ace F040      		sbci r31,hi8(-(map_array))
 5216 1ad0 A080      		ld r10,Z
 5217 1ad2 B180      		ldd r11,Z+1
 5218 1ad4 A814      		cp r10,r8
 5219 1ad6 B904      		cpc r11,r9
 5220 1ad8 04F0      		brlt .+2
 5221 1ada 00C0      		rjmp .L388
 5222 1adc 83E0      		ldi r24,3
 5223 1ade AA0F      	1:	lsl r26
 5224 1ae0 BB1F      		rol r27
 5225 1ae2 8A95      		dec r24
 5226 1ae4 01F4      		brne 1b
 5227 1ae6 A050      		subi r26,lo8(-(dir_array+2))
 5228 1ae8 B040      		sbci r27,hi8(-(dir_array+2))
 5229 1aea 8D91      		ld r24,X+
 5230 1aec 9C91      		ld r25,X
 5231 1aee 0197      		sbiw r24,1
 5232 1af0 01F0      		breq .+2
 5233 1af2 00C0      		rjmp .L388
 5234 1af4 9E01      		movw r18,r28
 5235 1af6 A3E0      		ldi r26,3
 5236 1af8 220F      	1:	lsl r18
 5237 1afa 331F      		rol r19
 5238 1afc AA95      		dec r26
 5239 1afe 01F4      		brne 1b
 5240 1b00 2050      		subi r18,lo8(-(dir_array))
 5241 1b02 3040      		sbci r19,hi8(-(dir_array))
 5242 1b04 F901      		movw r30,r18
 5243 1b06 8681      		ldd r24,Z+6
 5244 1b08 9781      		ldd r25,Z+7
 5245 1b0a 0197      		sbiw r24,1
 5246 1b0c 01F0      		breq .+2
 5247 1b0e 00C0      		rjmp .L388
 5248 1b10 4930      		cpi r20,9
 5249 1b12 5105      		cpc r21,__zero_reg__
 5250 1b14 04F0      		brlt .+2
 5251 1b16 00C0      		rjmp .L388
 5252               	.LVL144:
 5253               	.LM718:
 5254 1b18 F801      		movw r30,r16
 5255 1b1a D182      		std Z+1,r13
 5256 1b1c C082      		st Z,r12
 5257               	.LM719:
 5258 1b1e 7383      		std Z+3,r23
 5259 1b20 6283      		std Z+2,r22
 5260               	.LM720:
 5261 1b22 A601      		movw r20,r12
 5262 1b24 4F5F      		subi r20,lo8(-(1))
 5263 1b26 5F4F      		sbci r21,hi8(-(1))
 5264 1b28 DA01      		movw r26,r20
 5265 1b2a AA0F      		lsl r26
 5266 1b2c BB1F      		rol r27
 5267 1b2e CA01      		movw r24,r20
 5268 1b30 E3E0      		ldi r30,3
 5269 1b32 880F      	1:	lsl r24
 5270 1b34 991F      		rol r25
 5271 1b36 EA95      		dec r30
 5272 1b38 01F4      		brne 1b
 5273 1b3a A80F      		add r26,r24
 5274 1b3c B91F      		adc r27,r25
 5275 1b3e A60F      		add r26,r22
 5276 1b40 B71F      		adc r27,r23
 5277 1b42 FD01      		movw r30,r26
 5278 1b44 EE0F      		lsl r30
 5279 1b46 FF1F      		rol r31
 5280 1b48 E050      		subi r30,lo8(-(map_array))
 5281 1b4a F040      		sbci r31,hi8(-(map_array))
 5282 1b4c 8081      		ld r24,Z
 5283 1b4e 9181      		ldd r25,Z+1
 5284 1b50 8A15      		cp r24,r10
 5285 1b52 9B05      		cpc r25,r11
 5286 1b54 04F0      		brlt .+2
 5287 1b56 00C0      		rjmp .L389
 5288 1b58 83E0      		ldi r24,3
 5289 1b5a AA0F      	1:	lsl r26
 5290 1b5c BB1F      		rol r27
 5291 1b5e 8A95      		dec r24
 5292 1b60 01F4      		brne 1b
 5293 1b62 A050      		subi r26,lo8(-(dir_array))
 5294 1b64 B040      		sbci r27,hi8(-(dir_array))
 5295 1b66 1696      		adiw r26,6
 5296 1b68 8D91      		ld r24,X+
 5297 1b6a 9C91      		ld r25,X
 5298 1b6c 1797      		sbiw r26,6+1
 5299 1b6e 0197      		sbiw r24,1
 5300 1b70 01F0      		breq .+2
 5301 1b72 00C0      		rjmp .L389
 5302 1b74 F901      		movw r30,r18
 5303 1b76 8081      		ld r24,Z
 5304 1b78 9181      		ldd r25,Z+1
 5305 1b7a 892B      		or r24,r25
 5306 1b7c 01F0      		breq .+2
 5307 1b7e 00C0      		rjmp .L389
 5308 1b80 B3E0      		ldi r27,3
 5309 1b82 CC0F      	1:	lsl r28
 5310 1b84 DD1F      		rol r29
 5311 1b86 BA95      		dec r27
 5312 1b88 01F4      		brne 1b
 5313 1b8a C050      		subi r28,lo8(-(dir_array+2))
 5314 1b8c D040      		sbci r29,hi8(-(dir_array+2))
 5315 1b8e 8881      		ld r24,Y
 5316 1b90 9981      		ldd r25,Y+1
 5317 1b92 0197      		sbiw r24,1
 5318 1b94 01F0      		breq .+2
 5319 1b96 00C0      		rjmp .L389
 5320 1b98 EE0C      		lsl r14
 5321 1b9a FF1C      		rol r15
 5322 1b9c EE0C      		lsl r14
 5323 1b9e FF1C      		rol r15
 5324 1ba0 80E0      		ldi r24,lo8(dir_array+4)
 5325 1ba2 90E0      		ldi r25,hi8(dir_array+4)
 5326 1ba4 E80E      		add r14,r24
 5327 1ba6 F91E      		adc r15,r25
 5328 1ba8 F701      		movw r30,r14
 5329 1baa 8081      		ld r24,Z
 5330 1bac 9181      		ldd r25,Z+1
 5331 1bae 892B      		or r24,r25
 5332 1bb0 01F0      		breq .+2
 5333 1bb2 00C0      		rjmp .L389
 5334 1bb4 F9E0      		ldi r31,lo8(9)
 5335 1bb6 CF16      		cp r12,r31
 5336 1bb8 D104      		cpc r13,__zero_reg__
 5337 1bba 04F0      		brlt .+2
 5338 1bbc 00C0      		rjmp .L389
 5339               	.LVL145:
 5340 1bbe 00C0      		rjmp .L403
 5341               	.L388:
 5342               	.LM721:
 5343 1bc0 7A01      		movw r14,r20
 5344 1bc2 0894      		sec
 5345 1bc4 E108      		sbc r14,__zero_reg__
 5346 1bc6 F108      		sbc r15,__zero_reg__
 5347               	.LVL146:
 5348 1bc8 9701      		movw r18,r14
 5349 1bca 220F      		lsl r18
 5350 1bcc 331F      		rol r19
 5351 1bce C701      		movw r24,r14
 5352 1bd0 E3E0      		ldi r30,3
 5353 1bd2 880F      	1:	lsl r24
 5354 1bd4 991F      		rol r25
 5355 1bd6 EA95      		dec r30
 5356 1bd8 01F4      		brne 1b
 5357 1bda 280F      		add r18,r24
 5358 1bdc 391F      		adc r19,r25
 5359 1bde 260F      		add r18,r22
 5360 1be0 371F      		adc r19,r23
 5361 1be2 E901      		movw r28,r18
 5362 1be4 CC0F      		lsl r28
 5363 1be6 DD1F      		rol r29
 5364 1be8 FE01      		movw r30,r28
 5365 1bea E050      		subi r30,lo8(-(map_array))
 5366 1bec F040      		sbci r31,hi8(-(map_array))
 5367 1bee C080      		ld r12,Z
 5368 1bf0 D180      		ldd r13,Z+1
 5369 1bf2 C814      		cp r12,r8
 5370 1bf4 D904      		cpc r13,r9
 5371 1bf6 04F0      		brlt .+2
 5372 1bf8 00C0      		rjmp .L391
 5373 1bfa FA01      		movw r30,r20
 5374 1bfc EE0F      		lsl r30
 5375 1bfe FF1F      		rol r31
 5376 1c00 CA01      		movw r24,r20
 5377 1c02 A3E0      		ldi r26,3
 5378 1c04 880F      	1:	lsl r24
 5379 1c06 991F      		rol r25
 5380 1c08 AA95      		dec r26
 5381 1c0a 01F4      		brne 1b
 5382 1c0c E80F      		add r30,r24
 5383 1c0e F91F      		adc r31,r25
 5384 1c10 E60F      		add r30,r22
 5385 1c12 F71F      		adc r31,r23
 5386 1c14 B3E0      		ldi r27,3
 5387 1c16 EE0F      	1:	lsl r30
 5388 1c18 FF1F      		rol r31
 5389 1c1a BA95      		dec r27
 5390 1c1c 01F4      		brne 1b
 5391 1c1e E050      		subi r30,lo8(-(dir_array))
 5392 1c20 F040      		sbci r31,hi8(-(dir_array))
 5393 1c22 8681      		ldd r24,Z+6
 5394 1c24 9781      		ldd r25,Z+7
 5395 1c26 0197      		sbiw r24,1
 5396 1c28 01F0      		breq .+2
 5397 1c2a 00C0      		rjmp .L391
 5398               	.LVL147:
 5399 1c2c F901      		movw r30,r18
 5400 1c2e A3E0      		ldi r26,3
 5401 1c30 EE0F      	1:	lsl r30
 5402 1c32 FF1F      		rol r31
 5403 1c34 AA95      		dec r26
 5404 1c36 01F4      		brne 1b
 5405 1c38 E050      		subi r30,lo8(-(dir_array+2))
 5406 1c3a F040      		sbci r31,hi8(-(dir_array+2))
 5407 1c3c 8081      		ld r24,Z
 5408 1c3e 9181      		ldd r25,Z+1
 5409 1c40 0197      		sbiw r24,1
 5410 1c42 01F0      		breq .+2
 5411 1c44 00C0      		rjmp .L391
 5412 1c46 1416      		cp __zero_reg__,r20
 5413 1c48 1506      		cpc __zero_reg__,r21
 5414 1c4a 04F0      		brlt .+2
 5415 1c4c 00C0      		rjmp .L391
 5416               	.LM722:
 5417 1c4e F801      		movw r30,r16
 5418 1c50 F182      		std Z+1,r15
 5419 1c52 E082      		st Z,r14
 5420               	.LM723:
 5421 1c54 7383      		std Z+3,r23
 5422 1c56 6283      		std Z+2,r22
 5423               	.LM724:
 5424 1c58 A701      		movw r20,r14
 5425 1c5a 4150      		subi r20,lo8(-(-1))
 5426 1c5c 5040      		sbci r21,hi8(-(-1))
 5427 1c5e DA01      		movw r26,r20
 5428 1c60 AA0F      		lsl r26
 5429 1c62 BB1F      		rol r27
 5430 1c64 CA01      		movw r24,r20
 5431 1c66 E3E0      		ldi r30,3
 5432 1c68 880F      	1:	lsl r24
 5433 1c6a 991F      		rol r25
 5434 1c6c EA95      		dec r30
 5435 1c6e 01F4      		brne 1b
 5436 1c70 A80F      		add r26,r24
 5437 1c72 B91F      		adc r27,r25
 5438 1c74 A60F      		add r26,r22
 5439 1c76 B71F      		adc r27,r23
 5440 1c78 FD01      		movw r30,r26
 5441 1c7a EE0F      		lsl r30
 5442 1c7c FF1F      		rol r31
 5443 1c7e E050      		subi r30,lo8(-(map_array))
 5444 1c80 F040      		sbci r31,hi8(-(map_array))
 5445 1c82 8081      		ld r24,Z
 5446 1c84 9181      		ldd r25,Z+1
 5447 1c86 8C15      		cp r24,r12
 5448 1c88 9D05      		cpc r25,r13
 5449 1c8a 04F0      		brlt .+2
 5450 1c8c 00C0      		rjmp .L392
 5451 1c8e 83E0      		ldi r24,3
 5452 1c90 AA0F      	1:	lsl r26
 5453 1c92 BB1F      		rol r27
 5454 1c94 8A95      		dec r24
 5455 1c96 01F4      		brne 1b
 5456 1c98 A050      		subi r26,lo8(-(dir_array+2))
 5457 1c9a B040      		sbci r27,hi8(-(dir_array+2))
 5458 1c9c 8D91      		ld r24,X+
 5459 1c9e 9C91      		ld r25,X
 5460 1ca0 0197      		sbiw r24,1
 5461 1ca2 01F0      		breq .+2
 5462 1ca4 00C0      		rjmp .L392
 5463 1ca6 F901      		movw r30,r18
 5464 1ca8 B3E0      		ldi r27,3
 5465 1caa EE0F      	1:	lsl r30
 5466 1cac FF1F      		rol r31
 5467 1cae BA95      		dec r27
 5468 1cb0 01F4      		brne 1b
 5469 1cb2 E050      		subi r30,lo8(-(dir_array))
 5470 1cb4 F040      		sbci r31,hi8(-(dir_array))
 5471 1cb6 8081      		ld r24,Z
 5472 1cb8 9181      		ldd r25,Z+1
 5473 1cba 892B      		or r24,r25
 5474 1cbc 01F0      		breq .+2
 5475 1cbe 00C0      		rjmp .L392
 5476 1cc0 CC0F      		lsl r28
 5477 1cc2 DD1F      		rol r29
 5478 1cc4 CC0F      		lsl r28
 5479 1cc6 DD1F      		rol r29
 5480 1cc8 C050      		subi r28,lo8(-(dir_array+4))
 5481 1cca D040      		sbci r29,hi8(-(dir_array+4))
 5482 1ccc 8881      		ld r24,Y
 5483 1cce 9981      		ldd r25,Y+1
 5484 1cd0 892B      		or r24,r25
 5485 1cd2 01F0      		breq .+2
 5486 1cd4 00C0      		rjmp .L392
 5487 1cd6 8681      		ldd r24,Z+6
 5488 1cd8 9781      		ldd r25,Z+7
 5489 1cda 0197      		sbiw r24,1
 5490 1cdc 01F0      		breq .+2
 5491 1cde 00C0      		rjmp .L392
 5492 1ce0 1E14      		cp __zero_reg__,r14
 5493 1ce2 1F04      		cpc __zero_reg__,r15
 5494 1ce4 04F0      		brlt .+2
 5495 1ce6 00C0      		rjmp .L392
 5496               	.LVL148:
 5497               	.L403:
 5498               	.LM725:
 5499 1ce8 F801      		movw r30,r16
 5500 1cea 5183      		std Z+1,r21
 5501 1cec 4083      		st Z,r20
 5502 1cee 00C0      		rjmp .L390
 5503               	.LVL149:
 5504               	.L391:
 5505               	.LM726:
 5506 1cf0 7B01      		movw r14,r22
 5507               	.LVL150:
 5508 1cf2 0894      		sec
 5509 1cf4 E11C      		adc r14,__zero_reg__
 5510 1cf6 F11C      		adc r15,__zero_reg__
 5511               	.LVL151:
 5512 1cf8 9A01      		movw r18,r20
 5513 1cfa 220F      		lsl r18
 5514 1cfc 331F      		rol r19
 5515 1cfe CA01      		movw r24,r20
 5516 1d00 E3E0      		ldi r30,3
 5517 1d02 880F      	1:	lsl r24
 5518 1d04 991F      		rol r25
 5519 1d06 EA95      		dec r30
 5520 1d08 01F4      		brne 1b
 5521 1d0a 280F      		add r18,r24
 5522 1d0c 391F      		adc r19,r25
 5523 1d0e E901      		movw r28,r18
 5524 1d10 CE0D      		add r28,r14
 5525 1d12 DF1D      		adc r29,r15
 5526 1d14 DE01      		movw r26,r28
 5527 1d16 AA0F      		lsl r26
 5528 1d18 BB1F      		rol r27
 5529 1d1a FD01      		movw r30,r26
 5530 1d1c E050      		subi r30,lo8(-(map_array))
 5531 1d1e F040      		sbci r31,hi8(-(map_array))
 5532 1d20 C080      		ld r12,Z
 5533 1d22 D180      		ldd r13,Z+1
 5534 1d24 C814      		cp r12,r8
 5535 1d26 D904      		cpc r13,r9
 5536 1d28 04F0      		brlt .+2
 5537 1d2a 00C0      		rjmp .L393
 5538 1d2c F901      		movw r30,r18
 5539 1d2e E60F      		add r30,r22
 5540 1d30 F71F      		adc r31,r23
 5541 1d32 83E0      		ldi r24,3
 5542 1d34 EE0F      	1:	lsl r30
 5543 1d36 FF1F      		rol r31
 5544 1d38 8A95      		dec r24
 5545 1d3a 01F4      		brne 1b
 5546 1d3c E050      		subi r30,lo8(-(dir_array))
 5547 1d3e F040      		sbci r31,hi8(-(dir_array))
 5548 1d40 8081      		ld r24,Z
 5549 1d42 9181      		ldd r25,Z+1
 5550 1d44 0197      		sbiw r24,1
 5551 1d46 01F0      		breq .+2
 5552 1d48 00C0      		rjmp .L393
 5553               	.LVL152:
 5554 1d4a AA0F      		lsl r26
 5555 1d4c BB1F      		rol r27
 5556 1d4e AA0F      		lsl r26
 5557 1d50 BB1F      		rol r27
 5558 1d52 A050      		subi r26,lo8(-(dir_array+4))
 5559 1d54 B040      		sbci r27,hi8(-(dir_array+4))
 5560 1d56 8D91      		ld r24,X+
 5561 1d58 9C91      		ld r25,X
 5562 1d5a 0197      		sbiw r24,1
 5563 1d5c 01F0      		breq .+2
 5564 1d5e 00C0      		rjmp .L393
 5565 1d60 6930      		cpi r22,9
 5566 1d62 7105      		cpc r23,__zero_reg__
 5567 1d64 04F0      		brlt .+2
 5568 1d66 00C0      		rjmp .L393
 5569               	.LM727:
 5570 1d68 F801      		movw r30,r16
 5571 1d6a 5183      		std Z+1,r21
 5572 1d6c 4083      		st Z,r20
 5573               	.LM728:
 5574 1d6e F382      		std Z+3,r15
 5575 1d70 E282      		std Z+2,r14
 5576               	.LM729:
 5577 1d72 B701      		movw r22,r14
 5578 1d74 6F5F      		subi r22,lo8(-(1))
 5579 1d76 7F4F      		sbci r23,hi8(-(1))
 5580 1d78 D901      		movw r26,r18
 5581 1d7a A60F      		add r26,r22
 5582 1d7c B71F      		adc r27,r23
 5583 1d7e AA0F      		lsl r26
 5584 1d80 BB1F      		rol r27
 5585 1d82 FD01      		movw r30,r26
 5586 1d84 E050      		subi r30,lo8(-(map_array))
 5587 1d86 F040      		sbci r31,hi8(-(map_array))
 5588 1d88 8081      		ld r24,Z
 5589 1d8a 9181      		ldd r25,Z+1
 5590 1d8c 8C15      		cp r24,r12
 5591 1d8e 9D05      		cpc r25,r13
 5592 1d90 04F0      		brlt .+2
 5593 1d92 00C0      		rjmp .L394
 5594 1d94 AA0F      		lsl r26
 5595 1d96 BB1F      		rol r27
 5596 1d98 AA0F      		lsl r26
 5597 1d9a BB1F      		rol r27
 5598 1d9c A050      		subi r26,lo8(-(dir_array+4))
 5599 1d9e B040      		sbci r27,hi8(-(dir_array+4))
 5600 1da0 8D91      		ld r24,X+
 5601 1da2 9C91      		ld r25,X
 5602 1da4 0197      		sbiw r24,1
 5603 1da6 01F0      		breq .+2
 5604 1da8 00C0      		rjmp .L394
 5605 1daa FE01      		movw r30,r28
 5606 1dac B3E0      		ldi r27,3
 5607 1dae EE0F      	1:	lsl r30
 5608 1db0 FF1F      		rol r31
 5609 1db2 BA95      		dec r27
 5610 1db4 01F4      		brne 1b
 5611 1db6 E050      		subi r30,lo8(-(dir_array))
 5612 1db8 F040      		sbci r31,hi8(-(dir_array))
 5613 1dba 8081      		ld r24,Z
 5614 1dbc 9181      		ldd r25,Z+1
 5615 1dbe 0197      		sbiw r24,1
 5616 1dc0 01F0      		breq .+2
 5617 1dc2 00C0      		rjmp .L394
 5618 1dc4 A3E0      		ldi r26,3
 5619 1dc6 CC0F      	1:	lsl r28
 5620 1dc8 DD1F      		rol r29
 5621 1dca AA95      		dec r26
 5622 1dcc 01F4      		brne 1b
 5623 1dce C050      		subi r28,lo8(-(dir_array+2))
 5624 1dd0 D040      		sbci r29,hi8(-(dir_array+2))
 5625 1dd2 8881      		ld r24,Y
 5626 1dd4 9981      		ldd r25,Y+1
 5627 1dd6 892B      		or r24,r25
 5628 1dd8 01F0      		breq .+2
 5629 1dda 00C0      		rjmp .L394
 5630 1ddc 8681      		ldd r24,Z+6
 5631 1dde 9781      		ldd r25,Z+7
 5632 1de0 892B      		or r24,r25
 5633 1de2 01F0      		breq .+2
 5634 1de4 00C0      		rjmp .L394
 5635 1de6 F9E0      		ldi r31,lo8(9)
 5636 1de8 EF16      		cp r14,r31
 5637 1dea F104      		cpc r15,__zero_reg__
 5638 1dec 04F0      		brlt .+2
 5639 1dee 00C0      		rjmp .L394
 5640               	.LVL153:
 5641 1df0 00C0      		rjmp .L402
 5642               	.L393:
 5643               	.LM730:
 5644 1df2 5B01      		movw r10,r22
 5645 1df4 0894      		sec
 5646 1df6 A108      		sbc r10,__zero_reg__
 5647 1df8 B108      		sbc r11,__zero_reg__
 5648               	.LVL154:
 5649 1dfa 9A01      		movw r18,r20
 5650 1dfc 220F      		lsl r18
 5651 1dfe 331F      		rol r19
 5652 1e00 CA01      		movw r24,r20
 5653 1e02 E3E0      		ldi r30,3
 5654 1e04 880F      	1:	lsl r24
 5655 1e06 991F      		rol r25
 5656 1e08 EA95      		dec r30
 5657 1e0a 01F4      		brne 1b
 5658 1e0c 280F      		add r18,r24
 5659 1e0e 391F      		adc r19,r25
 5660 1e10 E901      		movw r28,r18
 5661 1e12 CA0D      		add r28,r10
 5662 1e14 DB1D      		adc r29,r11
 5663 1e16 7E01      		movw r14,r28
 5664 1e18 EE0C      		lsl r14
 5665 1e1a FF1C      		rol r15
 5666 1e1c F701      		movw r30,r14
 5667 1e1e E050      		subi r30,lo8(-(map_array))
 5668 1e20 F040      		sbci r31,hi8(-(map_array))
 5669 1e22 6080      		ld r6,Z
 5670 1e24 7180      		ldd r7,Z+1
 5671 1e26 6814      		cp r6,r8
 5672 1e28 7904      		cpc r7,r9
 5673 1e2a 04F0      		brlt .+2
 5674 1e2c 00C0      		rjmp .L390
 5675 1e2e F901      		movw r30,r18
 5676 1e30 E60F      		add r30,r22
 5677 1e32 F71F      		adc r31,r23
 5678 1e34 A3E0      		ldi r26,3
 5679 1e36 EE0F      	1:	lsl r30
 5680 1e38 FF1F      		rol r31
 5681 1e3a AA95      		dec r26
 5682 1e3c 01F4      		brne 1b
 5683 1e3e E050      		subi r30,lo8(-(dir_array+4))
 5684 1e40 F040      		sbci r31,hi8(-(dir_array+4))
 5685 1e42 8081      		ld r24,Z
 5686 1e44 9181      		ldd r25,Z+1
 5687 1e46 0197      		sbiw r24,1
 5688 1e48 01F0      		breq .+2
 5689 1e4a 00C0      		rjmp .L390
 5690               	.LVL155:
 5691 1e4c 6E01      		movw r12,r28
 5692 1e4e E3E0      		ldi r30,3
 5693 1e50 CC0C      	1:	lsl r12
 5694 1e52 DD1C      		rol r13
 5695 1e54 EA95      		dec r30
 5696 1e56 01F4      		brne 1b
 5697 1e58 80E0      		ldi r24,lo8(dir_array)
 5698 1e5a 90E0      		ldi r25,hi8(dir_array)
 5699 1e5c C80E      		add r12,r24
 5700 1e5e D91E      		adc r13,r25
 5701 1e60 F601      		movw r30,r12
 5702 1e62 8081      		ld r24,Z
 5703 1e64 9181      		ldd r25,Z+1
 5704 1e66 0197      		sbiw r24,1
 5705 1e68 01F0      		breq .+2
 5706 1e6a 00C0      		rjmp .L390
 5707 1e6c 1616      		cp __zero_reg__,r22
 5708 1e6e 1706      		cpc __zero_reg__,r23
 5709 1e70 04F0      		brlt .+2
 5710 1e72 00C0      		rjmp .L390
 5711               	.LM731:
 5712 1e74 F801      		movw r30,r16
 5713 1e76 5183      		std Z+1,r21
 5714 1e78 4083      		st Z,r20
 5715               	.LM732:
 5716 1e7a B382      		std Z+3,r11
 5717 1e7c A282      		std Z+2,r10
 5718               	.LM733:
 5719 1e7e B501      		movw r22,r10
 5720 1e80 6150      		subi r22,lo8(-(-1))
 5721 1e82 7040      		sbci r23,hi8(-(-1))
 5722 1e84 D901      		movw r26,r18
 5723 1e86 A60F      		add r26,r22
 5724 1e88 B71F      		adc r27,r23
 5725 1e8a FD01      		movw r30,r26
 5726 1e8c EE0F      		lsl r30
 5727 1e8e FF1F      		rol r31
 5728 1e90 E050      		subi r30,lo8(-(map_array))
 5729 1e92 F040      		sbci r31,hi8(-(map_array))
 5730 1e94 8081      		ld r24,Z
 5731 1e96 9181      		ldd r25,Z+1
 5732 1e98 8615      		cp r24,r6
 5733 1e9a 9705      		cpc r25,r7
 5734 1e9c 04F4      		brge .L395
 5735 1e9e 83E0      		ldi r24,3
 5736 1ea0 AA0F      	1:	lsl r26
 5737 1ea2 BB1F      		rol r27
 5738 1ea4 8A95      		dec r24
 5739 1ea6 01F4      		brne 1b
 5740 1ea8 A050      		subi r26,lo8(-(dir_array))
 5741 1eaa B040      		sbci r27,hi8(-(dir_array))
 5742 1eac 8D91      		ld r24,X+
 5743 1eae 9C91      		ld r25,X
 5744 1eb0 0197      		sbiw r24,1
 5745 1eb2 01F4      		brne .L395
 5746 1eb4 F3E0      		ldi r31,3
 5747 1eb6 CC0F      	1:	lsl r28
 5748 1eb8 DD1F      		rol r29
 5749 1eba FA95      		dec r31
 5750 1ebc 01F4      		brne 1b
 5751 1ebe C050      		subi r28,lo8(-(dir_array+2))
 5752 1ec0 D040      		sbci r29,hi8(-(dir_array+2))
 5753 1ec2 8881      		ld r24,Y
 5754 1ec4 9981      		ldd r25,Y+1
 5755 1ec6 892B      		or r24,r25
 5756 1ec8 01F4      		brne .L395
 5757 1eca EE0C      		lsl r14
 5758 1ecc FF1C      		rol r15
 5759 1ece EE0C      		lsl r14
 5760 1ed0 FF1C      		rol r15
 5761 1ed2 80E0      		ldi r24,lo8(dir_array+4)
 5762 1ed4 90E0      		ldi r25,hi8(dir_array+4)
 5763 1ed6 E80E      		add r14,r24
 5764 1ed8 F91E      		adc r15,r25
 5765 1eda F701      		movw r30,r14
 5766 1edc 8081      		ld r24,Z
 5767 1ede 9181      		ldd r25,Z+1
 5768 1ee0 0197      		sbiw r24,1
 5769 1ee2 01F4      		brne .L395
 5770 1ee4 F601      		movw r30,r12
 5771 1ee6 8681      		ldd r24,Z+6
 5772 1ee8 9781      		ldd r25,Z+7
 5773 1eea 892B      		or r24,r25
 5774 1eec 01F4      		brne .L395
 5775 1eee 1A14      		cp __zero_reg__,r10
 5776 1ef0 1B04      		cpc __zero_reg__,r11
 5777 1ef2 04F4      		brge .L395
 5778               	.LVL156:
 5779               	.L402:
 5780               	.LM734:
 5781 1ef4 F801      		movw r30,r16
 5782               	.LM735:
 5783 1ef6 7383      		std Z+3,r23
 5784 1ef8 6283      		std Z+2,r22
 5785 1efa 00C0      		rjmp .L390
 5786               	.LVL157:
 5787               	.L389:
 5788 1efc A601      		movw r20,r12
 5789 1efe 00C0      		rjmp .L390
 5790               	.LVL158:
 5791               	.L392:
 5792 1f00 A701      		movw r20,r14
 5793 1f02 00C0      		rjmp .L390
 5794               	.LVL159:
 5795               	.L394:
 5796 1f04 B701      		movw r22,r14
 5797 1f06 00C0      		rjmp .L390
 5798               	.LVL160:
 5799               	.L395:
 5800 1f08 B501      		movw r22,r10
 5801               	.LVL161:
 5802               	.L390:
 5803 1f0a 0C5F      		subi r16,lo8(-(4))
 5804 1f0c 1F4F      		sbci r17,hi8(-(4))
 5805               	.LM736:
 5806 1f0e F0E0      		ldi r31,hi8(path_array+64)
 5807 1f10 0030      		cpi r16,lo8(path_array+64)
 5808 1f12 1F07      		cpc r17,r31
 5809 1f14 01F4      		brne .L399
 5810               	.LM737:
 5811 1f16 81E0      		ldi r24,lo8(1)
 5812 1f18 60E0      		ldi r22,lo8(0)
 5813               	.LVL162:
 5814 1f1a 0E94 0000 		call lcd_byte
 5815               	.LVL163:
 5816               	.LM738:
 5817 1f1e 80E0      		ldi r24,lo8(.LC2)
 5818 1f20 90E0      		ldi r25,hi8(.LC2)
 5819 1f22 0E94 0000 		call lcd_write_string
 5820               	.LM739:
 5821 1f26 82E0      		ldi r24,lo8(2)
 5822 1f28 90E0      		ldi r25,hi8(2)
 5823 1f2a 0E94 0000 		call delay_sec
 5824 1f2e 00C0      		rjmp .L398
 5825               	.LVL164:
 5826               	.L399:
 5827               	.LM740:
 5828 1f30 DA01      		movw r26,r20
 5829 1f32 AA0F      		lsl r26
 5830 1f34 BB1F      		rol r27
 5831 1f36 CA01      		movw r24,r20
 5832 1f38 23E0      		ldi r18,3
 5833 1f3a 880F      	1:	lsl r24
 5834 1f3c 991F      		rol r25
 5835 1f3e 2A95      		dec r18
 5836 1f40 01F4      		brne 1b
 5837 1f42 A80F      		add r26,r24
 5838 1f44 B91F      		adc r27,r25
 5839 1f46 A60F      		add r26,r22
 5840 1f48 B71F      		adc r27,r23
 5841 1f4a FD01      		movw r30,r26
 5842 1f4c EE0F      		lsl r30
 5843 1f4e FF1F      		rol r31
 5844 1f50 E050      		subi r30,lo8(-(map_array))
 5845 1f52 F040      		sbci r31,hi8(-(map_array))
 5846 1f54 8080      		ld r8,Z
 5847 1f56 9180      		ldd r9,Z+1
 5848 1f58 8114      		cp r8,__zero_reg__
 5849 1f5a 9104      		cpc r9,__zero_reg__
 5850 1f5c 01F0      		breq .+2
 5851 1f5e 00C0      		rjmp .L397
 5852               	.LVL165:
 5853               	.L398:
 5854               	/* epilogue start */
 5855               	.LM741:
 5856 1f60 DF91      		pop r29
 5857 1f62 CF91      		pop r28
 5858 1f64 1F91      		pop r17
 5859 1f66 0F91      		pop r16
 5860 1f68 FF90      		pop r15
 5861 1f6a EF90      		pop r14
 5862               	.LVL166:
 5863 1f6c DF90      		pop r13
 5864 1f6e CF90      		pop r12
 5865               	.LVL167:
 5866 1f70 BF90      		pop r11
 5867 1f72 AF90      		pop r10
 5868               	.LVL168:
 5869 1f74 9F90      		pop r9
 5870 1f76 8F90      		pop r8
 5871 1f78 7F90      		pop r7
 5872 1f7a 6F90      		pop r6
 5873 1f7c 0895      		ret
 5874               	.LFE71:
 5876               		.data
 5877               	.LC3:
 5878 0024 4272 6F6B 		.string	"Broke build"
 5878      6520 6275 
 5878      696C 6400 
 5879               		.text
 5880               	.global	build_map
 5882               	build_map:
 5883               	.LFB72:
 5884               	.LM742:
 5885               	.LVL169:
 5886 1f7e 6F92      		push r6
 5887 1f80 7F92      		push r7
 5888 1f82 8F92      		push r8
 5889 1f84 9F92      		push r9
 5890 1f86 AF92      		push r10
 5891 1f88 BF92      		push r11
 5892 1f8a CF92      		push r12
 5893 1f8c DF92      		push r13
 5894 1f8e EF92      		push r14
 5895 1f90 FF92      		push r15
 5896 1f92 0F93      		push r16
 5897 1f94 1F93      		push r17
 5898 1f96 CF93      		push r28
 5899 1f98 DF93      		push r29
 5900               	/* prologue: function */
 5901               	/* frame size = 0 */
 5902 1f9a 3C01      		movw r6,r24
 5903               	.LVL170:
 5904 1f9c 6B01      		movw r12,r22
 5905               	.LM743:
 5906 1f9e A0E0      		ldi r26,lo8(0)
 5907 1fa0 B0E0      		ldi r27,hi8(0)
 5908               	.LVL171:
 5909               	.LBB644:
 5910               	.LM744:
 5911 1fa2 04E1      		ldi r16,lo8(20)
 5912 1fa4 10E0      		ldi r17,hi8(20)
 5913               	.LBB645:
 5914               	.LM745:
 5915 1fa6 C4E6      		ldi r28,lo8(100)
 5916 1fa8 D0E0      		ldi r29,hi8(100)
 5917 1faa 00C0      		rjmp .L405
 5918               	.LVL172:
 5919               	.L406:
 5920 1fac C193      		st Z+,r28
 5921 1fae D193      		st Z+,r29
 5922               	.LM746:
 5923 1fb0 0196      		adiw r24,1
 5924 1fb2 8A30      		cpi r24,10
 5925 1fb4 9105      		cpc r25,__zero_reg__
 5926 1fb6 01F4      		brne .L406
 5927               	.LBE645:
 5928               	.LM747:
 5929 1fb8 1196      		adiw r26,1
 5930 1fba AA30      		cpi r26,10
 5931 1fbc B105      		cpc r27,__zero_reg__
 5932 1fbe 01F0      		breq .L407
 5933               	.L405:
 5934 1fc0 A09F      		mul r26,r16
 5935 1fc2 F001      		movw r30,r0
 5936 1fc4 A19F      		mul r26,r17
 5937 1fc6 F00D      		add r31,r0
 5938 1fc8 B09F      		mul r27,r16
 5939 1fca F00D      		add r31,r0
 5940 1fcc 1124      		clr r1
 5941 1fce E050      		subi r30,lo8(-(map_array))
 5942 1fd0 F040      		sbci r31,hi8(-(map_array))
 5943 1fd2 80E0      		ldi r24,lo8(0)
 5944 1fd4 90E0      		ldi r25,hi8(0)
 5945 1fd6 00C0      		rjmp .L406
 5946               	.L407:
 5947               	.LBE644:
 5948               	.LM748:
 5949 1fd8 CA01      		movw r24,r20
 5950               	.LVL173:
 5951 1fda FA01      		movw r30,r20
 5952               	.LVL174:
 5953 1fdc 43E0      		ldi r20,3
 5954 1fde EE0F      	1:	lsl r30
 5955 1fe0 FF1F      		rol r31
 5956 1fe2 4A95      		dec r20
 5957 1fe4 01F4      		brne 1b
 5958               	.LVL175:
 5959 1fe6 880F      		lsl r24
 5960 1fe8 991F      		rol r25
 5961               	.LVL176:
 5962 1fea E80F      		add r30,r24
 5963 1fec F91F      		adc r31,r25
 5964 1fee E20F      		add r30,r18
 5965 1ff0 F31F      		adc r31,r19
 5966 1ff2 EE0F      		lsl r30
 5967 1ff4 FF1F      		rol r31
 5968 1ff6 E050      		subi r30,lo8(-(map_array))
 5969 1ff8 F040      		sbci r31,hi8(-(map_array))
 5970 1ffa 1182      		std Z+1,__zero_reg__
 5971 1ffc 1082      		st Z,__zero_reg__
 5972 1ffe 00E0      		ldi r16,lo8(0)
 5973 2000 10E0      		ldi r17,hi8(0)
 5974               	.LVL177:
 5975               	.LBB646:
 5976               	.LM749:
 5977 2002 B4E1      		ldi r27,lo8(20)
 5978 2004 8B2E      		mov r8,r27
 5979 2006 912C      		mov r9,__zero_reg__
 5980 2008 A6EF      		ldi r26,lo8(-10)
 5981 200a AA2E      		mov r10,r26
 5982 200c AFEF      		ldi r26,hi8(-10)
 5983 200e BA2E      		mov r11,r26
 5984               	.LVL178:
 5985 2010 00C0      		rjmp .L408
 5986               	.LVL179:
 5987               	.L413:
 5988               	.LBB647:
 5989               	.LM750:
 5990 2012 5496      		adiw r26,20
 5991 2014 8D91      		ld r24,X+
 5992 2016 9C91      		ld r25,X
 5993 2018 5597      		sbiw r26,20+1
 5994 201a 8017      		cp r24,r16
 5995 201c 9107      		cpc r25,r17
 5996 201e 01F0      		breq .+2
 5997 2020 00C0      		rjmp .L409
 5998               	.LM751:
 5999 2022 8085      		ldd r24,Z+8
 6000 2024 9185      		ldd r25,Z+9
 6001 2026 0197      		sbiw r24,1
 6002 2028 01F4      		brne .L410
 6003 202a 8489      		ldd r24,Z+20
 6004 202c 9589      		ldd r25,Z+21
 6005 202e 0197      		sbiw r24,1
 6006 2030 01F4      		brne .L410
 6007               	.LM752:
 6008 2032 5696      		adiw r26,22
 6009 2034 8D91      		ld r24,X+
 6010 2036 9C91      		ld r25,X
 6011 2038 5797      		sbiw r26,22+1
 6012 203a 8436      		cpi r24,100
 6013 203c 9105      		cpc r25,__zero_reg__
 6014 203e 01F4      		brne .L410
 6015               	.LM753:
 6016 2040 5796      		adiw r26,22+1
 6017 2042 7C93      		st X,r23
 6018 2044 6E93      		st -X,r22
 6019 2046 5697      		sbiw r26,22
 6020               	.L410:
 6021               	.LM754:
 6022 2048 8285      		ldd r24,Z+10
 6023 204a 9385      		ldd r25,Z+11
 6024 204c 0197      		sbiw r24,1
 6025 204e 01F4      		brne .L411
 6026 2050 E25A      		subi r30,lo8(-(94))
 6027 2052 FF4F      		sbci r31,hi8(-(94))
 6028 2054 8081      		ld r24,Z
 6029 2056 9181      		ldd r25,Z+1
 6030 2058 EE55      		subi r30,lo8(-(-94))
 6031 205a F040      		sbci r31,hi8(-(-94))
 6032 205c 0197      		sbiw r24,1
 6033 205e 01F4      		brne .L411
 6034               	.LM755:
 6035 2060 8E89      		ldd r24,Y+22
 6036 2062 9F89      		ldd r25,Y+23
 6037 2064 8436      		cpi r24,100
 6038 2066 9105      		cpc r25,__zero_reg__
 6039 2068 01F4      		brne .L411
 6040               	.LM756:
 6041 206a 7F8B      		std Y+23,r23
 6042 206c 6E8B      		std Y+22,r22
 6043               	.L411:
 6044               	.LM757:
 6045 206e 8485      		ldd r24,Z+12
 6046 2070 9585      		ldd r25,Z+13
 6047 2072 0197      		sbiw r24,1
 6048 2074 01F4      		brne .L412
 6049 2076 8081      		ld r24,Z
 6050 2078 9181      		ldd r25,Z+1
 6051 207a 0197      		sbiw r24,1
 6052 207c 01F4      		brne .L412
 6053               	.LM758:
 6054 207e 8881      		ld r24,Y
 6055 2080 9981      		ldd r25,Y+1
 6056 2082 8436      		cpi r24,100
 6057 2084 9105      		cpc r25,__zero_reg__
 6058 2086 01F4      		brne .L412
 6059               	.LM759:
 6060 2088 7983      		std Y+1,r23
 6061 208a 6883      		st Y,r22
 6062               	.L412:
 6063               	.LM760:
 6064 208c 8685      		ldd r24,Z+14
 6065 208e 9785      		ldd r25,Z+15
 6066 2090 0197      		sbiw r24,1
 6067 2092 01F4      		brne .L409
 6068 2094 E654      		subi r30,lo8(-(-70))
 6069 2096 F040      		sbci r31,hi8(-(-70))
 6070 2098 8081      		ld r24,Z
 6071 209a 9181      		ldd r25,Z+1
 6072 209c EA5B      		subi r30,lo8(-(70))
 6073 209e FF4F      		sbci r31,hi8(-(70))
 6074 20a0 0197      		sbiw r24,1
 6075 20a2 01F4      		brne .L409
 6076               	.LM761:
 6077 20a4 8D91      		ld r24,X+
 6078 20a6 9C91      		ld r25,X
 6079 20a8 1197      		sbiw r26,1
 6080 20aa 8436      		cpi r24,100
 6081 20ac 9105      		cpc r25,__zero_reg__
 6082 20ae 01F4      		brne .L409
 6083               	.LM762:
 6084 20b0 1196      		adiw r26,1
 6085 20b2 7C93      		st X,r23
 6086 20b4 6E93      		st -X,r22
 6087               	.L409:
 6088 20b6 1296      		adiw r26,2
 6089 20b8 3896      		adiw r30,8
 6090 20ba 2296      		adiw r28,2
 6091               	.LM763:
 6092 20bc AE15      		cp r26,r14
 6093 20be BF05      		cpc r27,r15
 6094 20c0 01F0      		breq .+2
 6095 20c2 00C0      		rjmp .L413
 6096               	.LBE647:
 6097               	.LM764:
 6098 20c4 4F5F      		subi r20,lo8(-(1))
 6099 20c6 5F4F      		sbci r21,hi8(-(1))
 6100 20c8 F4E1      		ldi r31,lo8(20)
 6101 20ca EF2E      		mov r14,r31
 6102 20cc F12C      		mov r15,__zero_reg__
 6103 20ce EA0E      		add r14,r26
 6104 20d0 FB1E      		adc r15,r27
 6105 20d2 4A30      		cpi r20,10
 6106 20d4 5105      		cpc r21,__zero_reg__
 6107 20d6 01F0      		breq .L414
 6108               	.LVL180:
 6109               	.L416:
 6110 20d8 489D      		mul r20,r8
 6111 20da D001      		movw r26,r0
 6112 20dc 499D      		mul r20,r9
 6113 20de B00D      		add r27,r0
 6114 20e0 589D      		mul r21,r8
 6115 20e2 B00D      		add r27,r0
 6116 20e4 1124      		clr r1
 6117 20e6 A050      		subi r26,lo8(-(map_array-20))
 6118 20e8 B040      		sbci r27,hi8(-(map_array-20))
 6119 20ea 4A9D      		mul r20,r10
 6120 20ec C001      		movw r24,r0
 6121 20ee 4B9D      		mul r20,r11
 6122 20f0 900D      		add r25,r0
 6123 20f2 5A9D      		mul r21,r10
 6124 20f4 900D      		add r25,r0
 6125 20f6 1124      		clr r1
 6126 20f8 0196      		adiw r24,1
 6127 20fa 9C01      		movw r18,r24
 6128               	.LVL181:
 6129 20fc E3E0      		ldi r30,3
 6130 20fe 220F      	1:	lsl r18
 6131 2100 331F      		rol r19
 6132 2102 EA95      		dec r30
 6133 2104 01F4      		brne 1b
 6134 2106 EE27      		clr r30
 6135 2108 FF27      		clr r31
 6136 210a E21B      		sub r30,r18
 6137 210c F30B      		sbc r31,r19
 6138 210e E050      		subi r30,lo8(-(dir_array))
 6139 2110 F040      		sbci r31,hi8(-(dir_array))
 6140 2112 880F      		lsl r24
 6141 2114 991F      		rol r25
 6142 2116 CC27      		clr r28
 6143 2118 DD27      		clr r29
 6144 211a C81B      		sub r28,r24
 6145 211c D90B      		sbc r29,r25
 6146 211e C050      		subi r28,lo8(-(map_array))
 6147 2120 D040      		sbci r29,hi8(-(map_array))
 6148 2122 00C0      		rjmp .L413
 6149               	.L414:
 6150               	.LBE646:
 6151               	.LM765:
 6152 2124 0F5F      		subi r16,lo8(-(1))
 6153 2126 1F4F      		sbci r17,hi8(-(1))
 6154               	.LM766:
 6155 2128 0333      		cpi r16,51
 6156 212a 1105      		cpc r17,__zero_reg__
 6157 212c 01F4      		brne .L408
 6158               	.LM767:
 6159 212e 81E0      		ldi r24,lo8(1)
 6160 2130 60E0      		ldi r22,lo8(0)
 6161 2132 0E94 0000 		call lcd_byte
 6162               	.LVL182:
 6163               	.LM768:
 6164 2136 80E0      		ldi r24,lo8(.LC3)
 6165 2138 90E0      		ldi r25,hi8(.LC3)
 6166 213a 0E94 0000 		call lcd_write_string
 6167               	.LM769:
 6168 213e 82E0      		ldi r24,lo8(2)
 6169 2140 90E0      		ldi r25,hi8(2)
 6170 2142 0E94 0000 		call delay_sec
 6171 2146 00C0      		rjmp .L417
 6172               	.LVL183:
 6173               	.L408:
 6174               	.LM770:
 6175 2148 C301      		movw r24,r6
 6176               	.LVL184:
 6177 214a F301      		movw r30,r6
 6178               	.LVL185:
 6179 214c 73E0      		ldi r23,3
 6180 214e EE0F      	1:	lsl r30
 6181 2150 FF1F      		rol r31
 6182 2152 7A95      		dec r23
 6183 2154 01F4      		brne 1b
 6184 2156 880F      		lsl r24
 6185 2158 991F      		rol r25
 6186               	.LVL186:
 6187 215a E80F      		add r30,r24
 6188 215c F91F      		adc r31,r25
 6189 215e EC0D      		add r30,r12
 6190 2160 FD1D      		adc r31,r13
 6191 2162 EE0F      		lsl r30
 6192 2164 FF1F      		rol r31
 6193 2166 E050      		subi r30,lo8(-(map_array))
 6194 2168 F040      		sbci r31,hi8(-(map_array))
 6195 216a 8081      		ld r24,Z
 6196 216c 9181      		ldd r25,Z+1
 6197               	.LVL187:
 6198 216e 8436      		cpi r24,100
 6199 2170 9105      		cpc r25,__zero_reg__
 6200 2172 01F4      		brne .L417
 6201 2174 40E0      		ldi r20,lo8(map_array)
 6202 2176 E42E      		mov r14,r20
 6203 2178 40E0      		ldi r20,hi8(map_array)
 6204 217a F42E      		mov r15,r20
 6205               	.LVL188:
 6206 217c 40E0      		ldi r20,lo8(0)
 6207 217e 50E0      		ldi r21,hi8(0)
 6208               	.LVL189:
 6209               	.LBB649:
 6210               	.LBB648:
 6211               	.LM771:
 6212 2180 B801      		movw r22,r16
 6213 2182 6F5F      		subi r22,lo8(-(1))
 6214 2184 7F4F      		sbci r23,hi8(-(1))
 6215 2186 00C0      		rjmp .L416
 6216               	.L417:
 6217               	/* epilogue start */
 6218               	.LBE648:
 6219               	.LBE649:
 6220               	.LM772:
 6221 2188 DF91      		pop r29
 6222 218a CF91      		pop r28
 6223 218c 1F91      		pop r17
 6224 218e 0F91      		pop r16
 6225               	.LVL190:
 6226 2190 FF90      		pop r15
 6227 2192 EF90      		pop r14
 6228 2194 DF90      		pop r13
 6229 2196 CF90      		pop r12
 6230               	.LVL191:
 6231 2198 BF90      		pop r11
 6232 219a AF90      		pop r10
 6233 219c 9F90      		pop r9
 6234 219e 8F90      		pop r8
 6235 21a0 7F90      		pop r7
 6236 21a2 6F90      		pop r6
 6237 21a4 0895      		ret
 6238               	.LFE72:
 6240               	.global	checkAndCorrectDirection
 6242               	checkAndCorrectDirection:
 6243               	.LFB74:
 6244               	.LM773:
 6245               	.LVL192:
 6246 21a6 0F93      		push r16
 6247 21a8 1F93      		push r17
 6248 21aa CF93      		push r28
 6249 21ac DF93      		push r29
 6250               	/* prologue: function */
 6251               	/* frame size = 0 */
 6252 21ae 8C01      		movw r16,r24
 6253               	.LM774:
 6254 21b0 8130      		cpi r24,1
 6255 21b2 9105      		cpc r25,__zero_reg__
 6256 21b4 01F4      		brne .L422
 6257               	.LM775:
 6258 21b6 8091 0000 		lds r24,dir
 6259 21ba 9091 0000 		lds r25,(dir)+1
 6260               	.LVL193:
 6261 21be 2FEF      		ldi r18,hi8(-1)
 6262 21c0 8F3F      		cpi r24,lo8(-1)
 6263 21c2 9207      		cpc r25,r18
 6264 21c4 01F0      		breq .L425
 6265 21c6 8230      		cpi r24,2
 6266 21c8 9105      		cpc r25,__zero_reg__
 6267 21ca 01F4      		brne .+2
 6268 21cc 00C0      		rjmp .L434
 6269 21ce 8E5F      		subi r24,lo8(-2)
 6270 21d0 9F4F      		sbci r25,hi8(-2)
 6271 21d2 01F0      		breq .+2
 6272 21d4 00C0      		rjmp .L423
 6273 21d6 00C0      		rjmp .L438
 6274               	.L425:
 6275               	.LM776:
 6276 21d8 8091 0000 		lds r24,x_coordinate
 6277 21dc 9091 0000 		lds r25,x_coordinate+1
 6278 21e0 FC01      		movw r30,r24
 6279 21e2 A3E0      		ldi r26,3
 6280 21e4 EE0F      	1:	lsl r30
 6281 21e6 FF1F      		rol r31
 6282 21e8 AA95      		dec r26
 6283 21ea 01F4      		brne 1b
 6284 21ec 880F      		lsl r24
 6285 21ee 991F      		rol r25
 6286 21f0 E80F      		add r30,r24
 6287 21f2 F91F      		adc r31,r25
 6288 21f4 8091 0000 		lds r24,y_coordinate
 6289 21f8 9091 0000 		lds r25,(y_coordinate)+1
 6290 21fc E80F      		add r30,r24
 6291 21fe F91F      		adc r31,r25
 6292 2200 63E0      		ldi r22,3
 6293 2202 EE0F      	1:	lsl r30
 6294 2204 FF1F      		rol r31
 6295 2206 6A95      		dec r22
 6296 2208 01F4      		brne 1b
 6297 220a E050      		subi r30,lo8(-(dir_array))
 6298 220c F040      		sbci r31,hi8(-(dir_array))
 6299 220e C081      		ld r28,Z
 6300 2210 D181      		ldd r29,Z+1
 6301 2212 C130      		cpi r28,1
 6302 2214 D105      		cpc r29,__zero_reg__
 6303 2216 01F0      		breq .+2
 6304 2218 00C0      		rjmp .L441
 6305               	.LM777:
 6306 221a 0E94 0000 		call turn_right
 6307               	.LM778:
 6308 221e 0E94 0000 		call turn_right
 6309               	.LM779:
 6310 2222 D093 0000 		sts (dir)+1,r29
 6311 2226 C093 0000 		sts dir,r28
 6312 222a 00C0      		rjmp .L423
 6313               	.LVL194:
 6314               	.L422:
 6315               	.LM780:
 6316 222c 8230      		cpi r24,2
 6317 222e 9105      		cpc r25,__zero_reg__
 6318 2230 01F4      		brne .L428
 6319               	.LM781:
 6320 2232 8091 0000 		lds r24,dir
 6321 2236 9091 0000 		lds r25,(dir)+1
 6322               	.LVL195:
 6323 223a 2FEF      		ldi r18,hi8(-1)
 6324 223c 8F3F      		cpi r24,lo8(-1)
 6325 223e 9207      		cpc r25,r18
 6326 2240 01F0      		breq .L434
 6327 2242 8130      		cpi r24,1
 6328 2244 9105      		cpc r25,__zero_reg__
 6329 2246 01F4      		brne .+2
 6330 2248 00C0      		rjmp .L438
 6331 224a 8E5F      		subi r24,lo8(-2)
 6332 224c 9F4F      		sbci r25,hi8(-2)
 6333 224e 01F0      		breq .+2
 6334 2250 00C0      		rjmp .L423
 6335               	.LM782:
 6336 2252 8091 0000 		lds r24,x_coordinate
 6337 2256 9091 0000 		lds r25,x_coordinate+1
 6338 225a FC01      		movw r30,r24
 6339 225c 53E0      		ldi r21,3
 6340 225e EE0F      	1:	lsl r30
 6341 2260 FF1F      		rol r31
 6342 2262 5A95      		dec r21
 6343 2264 01F4      		brne 1b
 6344 2266 880F      		lsl r24
 6345 2268 991F      		rol r25
 6346 226a E80F      		add r30,r24
 6347 226c F91F      		adc r31,r25
 6348 226e 8091 0000 		lds r24,y_coordinate
 6349 2272 9091 0000 		lds r25,(y_coordinate)+1
 6350 2276 E80F      		add r30,r24
 6351 2278 F91F      		adc r31,r25
 6352 227a 33E0      		ldi r19,3
 6353 227c EE0F      	1:	lsl r30
 6354 227e FF1F      		rol r31
 6355 2280 3A95      		dec r19
 6356 2282 01F4      		brne 1b
 6357 2284 E050      		subi r30,lo8(-(dir_array))
 6358 2286 F040      		sbci r31,hi8(-(dir_array))
 6359 2288 8681      		ldd r24,Z+6
 6360 228a 9781      		ldd r25,Z+7
 6361 228c 00C0      		rjmp .L448
 6362               	.LVL196:
 6363               	.L428:
 6364               	.LM783:
 6365 228e 8FEF      		ldi r24,hi8(-1)
 6366 2290 0F3F      		cpi r16,lo8(-1)
 6367 2292 1807      		cpc r17,r24
 6368               	.LVL197:
 6369 2294 01F4      		brne .L433
 6370               	.LM784:
 6371 2296 8091 0000 		lds r24,dir
 6372 229a 9091 0000 		lds r25,(dir)+1
 6373 229e 8130      		cpi r24,1
 6374 22a0 9105      		cpc r25,__zero_reg__
 6375 22a2 01F0      		breq .L435
 6376 22a4 8230      		cpi r24,2
 6377 22a6 9105      		cpc r25,__zero_reg__
 6378 22a8 01F0      		breq .L438
 6379 22aa 8E5F      		subi r24,lo8(-2)
 6380 22ac 9F4F      		sbci r25,hi8(-2)
 6381 22ae 01F0      		breq .+2
 6382 22b0 00C0      		rjmp .L423
 6383               	.L434:
 6384               	.LM785:
 6385 22b2 0E94 0000 		call turn_right
 6386               	.L443:
 6387 22b6 0E94 0000 		call sense_of_directon
 6388 22ba 00C0      		rjmp .L423
 6389               	.L435:
 6390               	.LM786:
 6391 22bc 8091 0000 		lds r24,x_coordinate
 6392 22c0 9091 0000 		lds r25,x_coordinate+1
 6393 22c4 FC01      		movw r30,r24
 6394 22c6 23E0      		ldi r18,3
 6395 22c8 EE0F      	1:	lsl r30
 6396 22ca FF1F      		rol r31
 6397 22cc 2A95      		dec r18
 6398 22ce 01F4      		brne 1b
 6399 22d0 880F      		lsl r24
 6400 22d2 991F      		rol r25
 6401 22d4 E80F      		add r30,r24
 6402 22d6 F91F      		adc r31,r25
 6403 22d8 8091 0000 		lds r24,y_coordinate
 6404 22dc 9091 0000 		lds r25,(y_coordinate)+1
 6405 22e0 E80F      		add r30,r24
 6406 22e2 F91F      		adc r31,r25
 6407 22e4 A3E0      		ldi r26,3
 6408 22e6 EE0F      	1:	lsl r30
 6409 22e8 FF1F      		rol r31
 6410 22ea AA95      		dec r26
 6411 22ec 01F4      		brne 1b
 6412 22ee E050      		subi r30,lo8(-(dir_array+4))
 6413 22f0 F040      		sbci r31,hi8(-(dir_array+4))
 6414 22f2 00C0      		rjmp .L446
 6415               	.L433:
 6416               	.LM787:
 6417 22f4 8FEF      		ldi r24,hi8(-2)
 6418 22f6 0E3F      		cpi r16,lo8(-2)
 6419 22f8 1807      		cpc r17,r24
 6420 22fa 01F4      		brne .L423
 6421               	.LM788:
 6422 22fc 8091 0000 		lds r24,dir
 6423 2300 9091 0000 		lds r25,(dir)+1
 6424 2304 8130      		cpi r24,1
 6425 2306 9105      		cpc r25,__zero_reg__
 6426 2308 01F0      		breq .L434
 6427 230a 8230      		cpi r24,2
 6428 230c 9105      		cpc r25,__zero_reg__
 6429 230e 01F0      		breq .L440
 6430 2310 8F5F      		subi r24,lo8(-1)
 6431 2312 9F4F      		sbci r25,hi8(-1)
 6432 2314 01F4      		brne .L423
 6433               	.L438:
 6434               	.LM789:
 6435 2316 0E94 0000 		call turn_left
 6436 231a 00C0      		rjmp .L443
 6437               	.L440:
 6438               	.LM790:
 6439 231c 8091 0000 		lds r24,x_coordinate
 6440 2320 9091 0000 		lds r25,x_coordinate+1
 6441 2324 FC01      		movw r30,r24
 6442 2326 73E0      		ldi r23,3
 6443 2328 EE0F      	1:	lsl r30
 6444 232a FF1F      		rol r31
 6445 232c 7A95      		dec r23
 6446 232e 01F4      		brne 1b
 6447 2330 880F      		lsl r24
 6448 2332 991F      		rol r25
 6449 2334 E80F      		add r30,r24
 6450 2336 F91F      		adc r31,r25
 6451 2338 8091 0000 		lds r24,y_coordinate
 6452 233c 9091 0000 		lds r25,(y_coordinate)+1
 6453 2340 E80F      		add r30,r24
 6454 2342 F91F      		adc r31,r25
 6455 2344 53E0      		ldi r21,3
 6456 2346 EE0F      	1:	lsl r30
 6457 2348 FF1F      		rol r31
 6458 234a 5A95      		dec r21
 6459 234c 01F4      		brne 1b
 6460 234e E050      		subi r30,lo8(-(dir_array+2))
 6461 2350 F040      		sbci r31,hi8(-(dir_array+2))
 6462               	.L446:
 6463 2352 8081      		ld r24,Z
 6464 2354 9181      		ldd r25,Z+1
 6465               	.L448:
 6466 2356 0197      		sbiw r24,1
 6467 2358 01F4      		brne .L441
 6468               	.LM791:
 6469 235a 0E94 0000 		call turn_right
 6470               	.L441:
 6471               	.LM792:
 6472 235e 0E94 0000 		call turn_right
 6473               	.LM793:
 6474 2362 1093 0000 		sts (dir)+1,r17
 6475 2366 0093 0000 		sts dir,r16
 6476               	.L423:
 6477               	.LBB650:
 6478               	.LBB651:
 6479               	.LM794:
 6480 236a AC9A      		sbi 53-32,4
 6481               	.LM795:
 6482 236c AD9A      		sbi 53-32,5
 6483               	.LM796:
 6484 236e AE9A      		sbi 53-32,6
 6485               	.LM797:
 6486 2370 AF9A      		sbi 53-32,7
 6487               	/* epilogue start */
 6488               	.LBE651:
 6489               	.LBE650:
 6490               	.LM798:
 6491 2372 DF91      		pop r29
 6492 2374 CF91      		pop r28
 6493 2376 1F91      		pop r17
 6494 2378 0F91      		pop r16
 6495               	.LVL198:
 6496 237a 0895      		ret
 6497               	.LFE74:
 6499               	.global	go_to_coordinate
 6501               	go_to_coordinate:
 6502               	.LFB73:
 6503               	.LM799:
 6504               	.LVL199:
 6505 237c 0F93      		push r16
 6506 237e 1F93      		push r17
 6507 2380 CF93      		push r28
 6508 2382 DF93      		push r29
 6509               	/* prologue: function */
 6510               	/* frame size = 0 */
 6511 2384 EC01      		movw r28,r24
 6512 2386 8B01      		movw r16,r22
 6513               	.LM800:
 6514 2388 8091 0000 		lds r24,x_coordinate
 6515 238c 9091 0000 		lds r25,(x_coordinate)+1
 6516               	.LVL200:
 6517 2390 8C17      		cp r24,r28
 6518 2392 9D07      		cpc r25,r29
 6519 2394 04F4      		brge .L450
 6520               	.LVL201:
 6521               	.LM801:
 6522 2396 1092 0000 		sts (right)+1,__zero_reg__
 6523 239a 1092 0000 		sts right,__zero_reg__
 6524               	.LM802:
 6525 239e 81E0      		ldi r24,lo8(1)
 6526 23a0 90E0      		ldi r25,hi8(1)
 6527 23a2 0E94 0000 		call checkAndCorrectDirection
 6528 23a6 00C0      		rjmp .L451
 6529               	.L453:
 6530               	.LM803:
 6531 23a8 0E94 0000 		call line_track_new
 6532               	.L451:
 6533               	.LM804:
 6534 23ac CD9B      		sbis 57-32,5
 6535 23ae 00C0      		rjmp .L475
 6536 23b0 CF99      		sbic 57-32,7
 6537 23b2 00C0      		rjmp .L453
 6538 23b4 00C0      		rjmp .L475
 6539               	.L455:
 6540               	.LM805:
 6541 23b6 0E94 0000 		call line_track_new
 6542               	.L475:
 6543               	.LM806:
 6544 23ba CC9B      		sbis 57-32,4
 6545 23bc 00C0      		rjmp .L472
 6546 23be 8799      		sbic 48-32,7
 6547 23c0 00C0      		rjmp .L455
 6548 23c2 00C0      		rjmp .L472
 6549               	.LVL202:
 6550               	.L450:
 6551               	.LM807:
 6552 23c4 C817      		cp r28,r24
 6553 23c6 D907      		cpc r29,r25
 6554 23c8 04F4      		brge .L457
 6555               	.LM808:
 6556 23ca 1092 0000 		sts (right)+1,__zero_reg__
 6557 23ce 1092 0000 		sts right,__zero_reg__
 6558               	.LM809:
 6559 23d2 8FEF      		ldi r24,lo8(-1)
 6560 23d4 9FEF      		ldi r25,hi8(-1)
 6561 23d6 0E94 0000 		call checkAndCorrectDirection
 6562 23da 00C0      		rjmp .L458
 6563               	.L460:
 6564               	.LM810:
 6565 23dc 0E94 0000 		call line_track_new
 6566               	.L458:
 6567               	.LM811:
 6568 23e0 CD9B      		sbis 57-32,5
 6569 23e2 00C0      		rjmp .L476
 6570 23e4 CF99      		sbic 57-32,7
 6571 23e6 00C0      		rjmp .L460
 6572 23e8 00C0      		rjmp .L476
 6573               	.L462:
 6574               	.LM812:
 6575 23ea 0E94 0000 		call line_track_new
 6576               	.L476:
 6577               	.LM813:
 6578 23ee CC9B      		sbis 57-32,4
 6579 23f0 00C0      		rjmp .L472
 6580 23f2 8799      		sbic 48-32,7
 6581 23f4 00C0      		rjmp .L462
 6582 23f6 00C0      		rjmp .L472
 6583               	.LVL203:
 6584               	.L457:
 6585               	.LM814:
 6586 23f8 8091 0000 		lds r24,y_coordinate
 6587 23fc 9091 0000 		lds r25,(y_coordinate)+1
 6588 2400 8617      		cp r24,r22
 6589 2402 9707      		cpc r25,r23
 6590 2404 04F4      		brge .L463
 6591               	.LVL204:
 6592               	.LM815:
 6593 2406 1092 0000 		sts (right)+1,__zero_reg__
 6594 240a 1092 0000 		sts right,__zero_reg__
 6595               	.LM816:
 6596 240e 82E0      		ldi r24,lo8(2)
 6597 2410 90E0      		ldi r25,hi8(2)
 6598 2412 0E94 0000 		call checkAndCorrectDirection
 6599               	.LVL205:
 6600 2416 00C0      		rjmp .L464
 6601               	.L466:
 6602               	.LM817:
 6603 2418 0E94 0000 		call line_track_new
 6604               	.L464:
 6605               	.LM818:
 6606 241c CD9B      		sbis 57-32,5
 6607 241e 00C0      		rjmp .L477
 6608 2420 CF99      		sbic 57-32,7
 6609 2422 00C0      		rjmp .L466
 6610 2424 00C0      		rjmp .L477
 6611               	.L468:
 6612               	.LM819:
 6613 2426 0E94 0000 		call line_track_new
 6614               	.L477:
 6615               	.LM820:
 6616 242a CC9B      		sbis 57-32,4
 6617 242c 00C0      		rjmp .L472
 6618 242e 8799      		sbic 48-32,7
 6619 2430 00C0      		rjmp .L468
 6620 2432 00C0      		rjmp .L472
 6621               	.LVL206:
 6622               	.L463:
 6623               	.LM821:
 6624 2434 6817      		cp r22,r24
 6625 2436 7907      		cpc r23,r25
 6626 2438 04F4      		brge .L456
 6627               	.LM822:
 6628 243a 1092 0000 		sts (right)+1,__zero_reg__
 6629 243e 1092 0000 		sts right,__zero_reg__
 6630               	.LM823:
 6631 2442 8EEF      		ldi r24,lo8(-2)
 6632 2444 9FEF      		ldi r25,hi8(-2)
 6633 2446 0E94 0000 		call checkAndCorrectDirection
 6634               	.LVL207:
 6635 244a 00C0      		rjmp .L469
 6636               	.L471:
 6637               	.LM824:
 6638 244c 0E94 0000 		call line_track_new
 6639               	.L469:
 6640               	.LM825:
 6641 2450 CD9B      		sbis 57-32,5
 6642 2452 00C0      		rjmp .L478
 6643 2454 CF99      		sbic 57-32,7
 6644 2456 00C0      		rjmp .L471
 6645 2458 00C0      		rjmp .L478
 6646               	.L473:
 6647               	.LM826:
 6648 245a 0E94 0000 		call line_track_new
 6649               	.L478:
 6650               	.LM827:
 6651 245e CC9B      		sbis 57-32,4
 6652 2460 00C0      		rjmp .L472
 6653 2462 8799      		sbic 48-32,7
 6654 2464 00C0      		rjmp .L473
 6655               	.L472:
 6656               	.LBB652:
 6657               	.LBB653:
 6658               	.LM828:
 6659 2466 8FE8      		ldi r24,lo8(399)
 6660 2468 91E0      		ldi r25,hi8(399)
 6661 246a 99BD      		out (72)+1-32,r25
 6662 246c 88BD      		out 72-32,r24
 6663               	.LBE653:
 6664               	.LBE652:
 6665               	.LBB654:
 6666               	.LBB655:
 6667               	.LM829:
 6668 246e 9BBD      		out (74)+1-32,r25
 6669 2470 8ABD      		out 74-32,r24
 6670               	.LBE655:
 6671               	.LBE654:
 6672               	.LBB656:
 6673               	.LBB657:
 6674               	.LM830:
 6675 2472 AC9A      		sbi 53-32,4
 6676               	.LM831:
 6677 2474 AD9A      		sbi 53-32,5
 6678               	.LM832:
 6679 2476 AE9A      		sbi 53-32,6
 6680               	.LM833:
 6681 2478 AF9A      		sbi 53-32,7
 6682               	.LVL208:
 6683               	.L456:
 6684               	.LBE657:
 6685               	.LBE656:
 6686               	.LM834:
 6687 247a D093 0000 		sts (x_coordinate)+1,r29
 6688 247e C093 0000 		sts x_coordinate,r28
 6689               	.LM835:
 6690 2482 1093 0000 		sts (y_coordinate)+1,r17
 6691 2486 0093 0000 		sts y_coordinate,r16
 6692               	.LM836:
 6693 248a 81E0      		ldi r24,lo8(1)
 6694 248c 60E0      		ldi r22,lo8(0)
 6695 248e 0E94 0000 		call lcd_byte
 6696               	.LM837:
 6697 2492 4091 0000 		lds r20,x_coordinate
 6698 2496 5091 0000 		lds r21,(x_coordinate)+1
 6699 249a 80E0      		ldi r24,lo8(0)
 6700 249c 90E0      		ldi r25,hi8(0)
 6701 249e 61E0      		ldi r22,lo8(1)
 6702 24a0 70E0      		ldi r23,hi8(1)
 6703 24a2 22E0      		ldi r18,lo8(2)
 6704 24a4 30E0      		ldi r19,hi8(2)
 6705 24a6 0E94 0000 		call lcd_write_int_xy
 6706               	.LM838:
 6707 24aa 4091 0000 		lds r20,y_coordinate
 6708 24ae 5091 0000 		lds r21,(y_coordinate)+1
 6709 24b2 85E0      		ldi r24,lo8(5)
 6710 24b4 90E0      		ldi r25,hi8(5)
 6711 24b6 61E0      		ldi r22,lo8(1)
 6712 24b8 70E0      		ldi r23,hi8(1)
 6713 24ba 22E0      		ldi r18,lo8(2)
 6714 24bc 30E0      		ldi r19,hi8(2)
 6715 24be 0E94 0000 		call lcd_write_int_xy
 6716               	.LM839:
 6717 24c2 4091 0000 		lds r20,irc
 6718 24c6 5091 0000 		lds r21,(irc)+1
 6719 24ca 83E0      		ldi r24,lo8(3)
 6720 24cc 90E0      		ldi r25,hi8(3)
 6721 24ce 60E0      		ldi r22,lo8(0)
 6722 24d0 70E0      		ldi r23,hi8(0)
 6723 24d2 25E0      		ldi r18,lo8(5)
 6724 24d4 30E0      		ldi r19,hi8(5)
 6725 24d6 0E94 0000 		call lcd_write_int_xy
 6726               	.LBB658:
 6727               	.LBB659:
 6728               	.LM840:
 6729 24da AC9A      		sbi 53-32,4
 6730               	.LM841:
 6731 24dc AD9A      		sbi 53-32,5
 6732               	.LM842:
 6733 24de AE9A      		sbi 53-32,6
 6734               	.LM843:
 6735 24e0 AF9A      		sbi 53-32,7
 6736               	/* epilogue start */
 6737               	.LBE659:
 6738               	.LBE658:
 6739               	.LM844:
 6740 24e2 DF91      		pop r29
 6741 24e4 CF91      		pop r28
 6742               	.LVL209:
 6743 24e6 1F91      		pop r17
 6744 24e8 0F91      		pop r16
 6745               	.LVL210:
 6746 24ea 0895      		ret
 6747               	.LFE73:
 6749               		.data
 6750               	.LC4:
 6751 0030 6D78 3A20 		.string	"mx: "
 6751      00
 6752               	.LC5:
 6753 0035 6D79 3A20 		.string	"my: "
 6753      00
 6754               	.LC6:
 6755 003a 783A 2000 		.string	"x: "
 6756               	.LC7:
 6757 003e 793A 2000 		.string	"y: "
 6758               	.LC8:
 6759 0042 5072 6573 		.string	"Press Any Key"
 6759      7320 416E 
 6759      7920 4B65 
 6759      7900 
 6760               	.LC9:
 6761 0050 5374 6F72 		.string	"Stored In EP"
 6761      6564 2049 
 6761      6E20 4550 
 6761      00
 6762               	.LC10:
 6763 005d 3100      		.string	"1"
 6764               	.LC11:
 6765 005f 3000      		.string	"0"
 6766               		.text
 6767               	.global	right_junc_check
 6769               	right_junc_check:
 6770               	.LFB61:
 6771               	.LM845:
 6772 24ec AF92      		push r10
 6773 24ee BF92      		push r11
 6774 24f0 CF92      		push r12
 6775 24f2 DF92      		push r13
 6776 24f4 EF92      		push r14
 6777 24f6 FF92      		push r15
 6778 24f8 0F93      		push r16
 6779 24fa 1F93      		push r17
 6780 24fc CF93      		push r28
 6781 24fe DF93      		push r29
 6782               	/* prologue: function */
 6783               	/* frame size = 0 */
 6784               	.LBB660:
 6785               	.LBB661:
 6786               	.LM846:
 6787 2500 8FE8      		ldi r24,lo8(399)
 6788 2502 91E0      		ldi r25,hi8(399)
 6789 2504 9BBD      		out (74)+1-32,r25
 6790 2506 8ABD      		out 74-32,r24
 6791               	.LBE661:
 6792               	.LBE660:
 6793               	.LBB662:
 6794               	.LBB663:
 6795               	.LM847:
 6796 2508 99BD      		out (72)+1-32,r25
 6797 250a 88BD      		out 72-32,r24
 6798               	.LBE663:
 6799               	.LBE662:
 6800               	.LBB664:
 6801               	.LBB665:
 6802               	.LM848:
 6803 250c AC9A      		sbi 53-32,4
 6804               	.LM849:
 6805 250e AD9A      		sbi 53-32,5
 6806               	.LM850:
 6807 2510 AE9A      		sbi 53-32,6
 6808               	.LM851:
 6809 2512 AF9A      		sbi 53-32,7
 6810               	.LBE665:
 6811               	.LBE664:
 6812               	.LM852:
 6813 2514 81E0      		ldi r24,lo8(1)
 6814 2516 60E0      		ldi r22,lo8(0)
 6815 2518 0E94 0000 		call lcd_byte
 6816               	.LM853:
 6817 251c 2091 0000 		lds r18,irc
 6818 2520 3091 0000 		lds r19,(irc)+1
 6819 2524 87E0      		ldi r24,hi8(2001)
 6820 2526 213D      		cpi r18,lo8(2001)
 6821 2528 3807      		cpc r19,r24
 6822 252a 04F0      		brlt .L480
 6823               	.LM854:
 6824 252c 82E0      		ldi r24,lo8(2)
 6825 252e 90E0      		ldi r25,hi8(2)
 6826 2530 00C0      		rjmp .L511
 6827               	.L480:
 6828               	.LM855:
 6829 2532 81E0      		ldi r24,lo8(1)
 6830 2534 90E0      		ldi r25,hi8(1)
 6831               	.L511:
 6832 2536 9093 0000 		sts (Coordinates_changed_by)+1,r25
 6833 253a 8093 0000 		sts Coordinates_changed_by,r24
 6834               	.LM856:
 6835 253e 232B      		or r18,r19
 6836 2540 01F4      		brne .L482
 6837               	.LM857:
 6838 2542 1092 0000 		sts (Coordinates_changed_by)+1,__zero_reg__
 6839 2546 1092 0000 		sts Coordinates_changed_by,__zero_reg__
 6840               	.L482:
 6841               	.LM858:
 6842 254a 0E94 0000 		call update_coordinates
 6843 254e 00C0      		rjmp .L483
 6844               	.L484:
 6845               	.LM859:
 6846 2550 0E94 0000 		call line_track_new
 6847               	.L483:
 6848               	.LM860:
 6849 2554 8799      		sbic 48-32,7
 6850 2556 00C0      		rjmp .L484
 6851               	.LM861:
 6852 2558 8091 0000 		lds r24,repeat
 6853 255c 9091 0000 		lds r25,(repeat)+1
 6854 2560 0497      		sbiw r24,4
 6855 2562 04F0      		brlt .+2
 6856 2564 00C0      		rjmp .L507
 6857               	.LM862:
 6858 2566 8091 0000 		lds r24,lcount
 6859 256a 9091 0000 		lds r25,(lcount)+1
 6860 256e 9093 0000 		sts (lcountPrev)+1,r25
 6861 2572 8093 0000 		sts lcountPrev,r24
 6862 2576 00C0      		rjmp .L486
 6863               	.L487:
 6864               	.LM863:
 6865 2578 0E94 0000 		call line_track_new
 6866               	.LM864:
 6867 257c 0E94 0000 		call left_count
 6868               	.L486:
 6869               	.LM865:
 6870 2580 8799      		sbic 48-32,7
 6871 2582 00C0      		rjmp .L487
 6872               	.LM866:
 6873 2584 CE99      		sbic 57-32,6
 6874 2586 00C0      		rjmp .L488
 6875 2588 8699      		sbic 48-32,6
 6876 258a 00C0      		rjmp .L488
 6877 258c CD99      		sbic 57-32,5
 6878 258e 00C0      		rjmp .L488
 6879 2590 CF99      		sbic 57-32,7
 6880 2592 00C0      		rjmp .L488
 6881               	.LBB666:
 6882               	.LM867:
 6883 2594 C090 0000 		lds r12,x_coordinate
 6884 2598 D090 0000 		lds r13,(x_coordinate)+1
 6885               	.LVL211:
 6886 259c A090 0000 		lds r10,y_coordinate
 6887 25a0 B090 0000 		lds r11,(y_coordinate)+1
 6888               	.LVL212:
 6889               	.LM868:
 6890 25a4 80E0      		ldi r24,lo8(0)
 6891 25a6 90E0      		ldi r25,hi8(0)
 6892 25a8 60E0      		ldi r22,lo8(0)
 6893 25aa 70E0      		ldi r23,hi8(0)
 6894 25ac 41E0      		ldi r20,lo8(1)
 6895 25ae 50E0      		ldi r21,hi8(1)
 6896 25b0 20E0      		ldi r18,lo8(0)
 6897 25b2 30E0      		ldi r19,hi8(0)
 6898 25b4 0E94 0000 		call update_array
 6899               	.LM869:
 6900 25b8 81E0      		ldi r24,lo8(1)
 6901 25ba 60E0      		ldi r22,lo8(0)
 6902 25bc 0E94 0000 		call lcd_byte
 6903               	.LBB684:
 6904               	.LBB685:
 6905               	.LM870:
 6906 25c0 AC9A      		sbi 53-32,4
 6907               	.LM871:
 6908 25c2 AD9A      		sbi 53-32,5
 6909               	.LM872:
 6910 25c4 AE9A      		sbi 53-32,6
 6911               	.LM873:
 6912 25c6 AF9A      		sbi 53-32,7
 6913               	.LBE685:
 6914               	.LBE684:
 6915               	.LM874:
 6916 25c8 0E94 0000 		call end_zone_uturn
 6917               	.LM875:
 6918 25cc 0E94 0000 		call sense_of_directon
 6919               	.LM876:
 6920 25d0 0E94 0000 		call fill_missed_array
 6921               	.LM877:
 6922 25d4 0E94 0000 		call coordinates_tobe_reached
 6923               	.LM878:
 6924 25d8 0E94 0000 		call flick
 6925               	.LM879:
 6926 25dc 81E0      		ldi r24,lo8(1)
 6927 25de 60E0      		ldi r22,lo8(0)
 6928 25e0 0E94 0000 		call lcd_byte
 6929               	.LM880:
 6930 25e4 80E0      		ldi r24,lo8(0)
 6931 25e6 90E0      		ldi r25,hi8(0)
 6932 25e8 60E0      		ldi r22,lo8(0)
 6933 25ea 70E0      		ldi r23,hi8(0)
 6934 25ec 40E0      		ldi r20,lo8(.LC4)
 6935 25ee 50E0      		ldi r21,hi8(.LC4)
 6936 25f0 0E94 0000 		call lcd_write_string_xy
 6937               	.LM881:
 6938 25f4 4091 0000 		lds r20,mx
 6939 25f8 5091 0000 		lds r21,(mx)+1
 6940 25fc 84E0      		ldi r24,lo8(4)
 6941 25fe 90E0      		ldi r25,hi8(4)
 6942 2600 60E0      		ldi r22,lo8(0)
 6943 2602 70E0      		ldi r23,hi8(0)
 6944 2604 22E0      		ldi r18,lo8(2)
 6945 2606 30E0      		ldi r19,hi8(2)
 6946 2608 0E94 0000 		call lcd_write_int_xy
 6947               	.LM882:
 6948 260c 87E0      		ldi r24,lo8(7)
 6949 260e 90E0      		ldi r25,hi8(7)
 6950 2610 60E0      		ldi r22,lo8(0)
 6951 2612 70E0      		ldi r23,hi8(0)
 6952 2614 40E0      		ldi r20,lo8(.LC5)
 6953 2616 50E0      		ldi r21,hi8(.LC5)
 6954 2618 0E94 0000 		call lcd_write_string_xy
 6955               	.LM883:
 6956 261c 4091 0000 		lds r20,my
 6957 2620 5091 0000 		lds r21,(my)+1
 6958 2624 8BE0      		ldi r24,lo8(11)
 6959 2626 90E0      		ldi r25,hi8(11)
 6960 2628 60E0      		ldi r22,lo8(0)
 6961 262a 70E0      		ldi r23,hi8(0)
 6962 262c 22E0      		ldi r18,lo8(2)
 6963 262e 30E0      		ldi r19,hi8(2)
 6964 2630 0E94 0000 		call lcd_write_int_xy
 6965               	.LM884:
 6966 2634 80E0      		ldi r24,lo8(0)
 6967 2636 90E0      		ldi r25,hi8(0)
 6968 2638 61E0      		ldi r22,lo8(1)
 6969 263a 70E0      		ldi r23,hi8(1)
 6970 263c 40E0      		ldi r20,lo8(.LC6)
 6971 263e 50E0      		ldi r21,hi8(.LC6)
 6972 2640 0E94 0000 		call lcd_write_string_xy
 6973               	.LM885:
 6974 2644 4091 0000 		lds r20,x_coordinate
 6975 2648 5091 0000 		lds r21,(x_coordinate)+1
 6976 264c 84E0      		ldi r24,lo8(4)
 6977 264e 90E0      		ldi r25,hi8(4)
 6978 2650 61E0      		ldi r22,lo8(1)
 6979 2652 70E0      		ldi r23,hi8(1)
 6980 2654 22E0      		ldi r18,lo8(2)
 6981 2656 30E0      		ldi r19,hi8(2)
 6982 2658 0E94 0000 		call lcd_write_int_xy
 6983               	.LM886:
 6984 265c 87E0      		ldi r24,lo8(7)
 6985 265e 90E0      		ldi r25,hi8(7)
 6986 2660 61E0      		ldi r22,lo8(1)
 6987 2662 70E0      		ldi r23,hi8(1)
 6988 2664 40E0      		ldi r20,lo8(.LC7)
 6989 2666 50E0      		ldi r21,hi8(.LC7)
 6990 2668 0E94 0000 		call lcd_write_string_xy
 6991               	.LM887:
 6992 266c 4091 0000 		lds r20,y_coordinate
 6993 2670 5091 0000 		lds r21,(y_coordinate)+1
 6994 2674 8BE0      		ldi r24,lo8(11)
 6995 2676 90E0      		ldi r25,hi8(11)
 6996 2678 61E0      		ldi r22,lo8(1)
 6997 267a 70E0      		ldi r23,hi8(1)
 6998 267c 22E0      		ldi r18,lo8(2)
 6999 267e 30E0      		ldi r19,hi8(2)
 7000 2680 0E94 0000 		call lcd_write_int_xy
 7001               	.LM888:
 7002 2684 8091 0000 		lds r24,mx
 7003 2688 9091 0000 		lds r25,(mx)+1
 7004 268c 892B      		or r24,r25
 7005 268e 01F0      		breq .L489
 7006 2690 8091 0000 		lds r24,my
 7007 2694 9091 0000 		lds r25,(my)+1
 7008 2698 892B      		or r24,r25
 7009 269a 01F0      		breq .L489
 7010               	.LM889:
 7011 269c 0E94 0000 		call map_all
 7012               	.L489:
 7013               	.LM890:
 7014 26a0 84E0      		ldi r24,lo8(4)
 7015 26a2 90E0      		ldi r25,hi8(4)
 7016 26a4 9093 0000 		sts (x_coordinate)+1,r25
 7017 26a8 8093 0000 		sts x_coordinate,r24
 7018               	.LM891:
 7019 26ac 9093 0000 		sts (y_coordinate)+1,r25
 7020 26b0 8093 0000 		sts y_coordinate,r24
 7021               	.LM892:
 7022 26b4 82E0      		ldi r24,lo8(2)
 7023 26b6 90E0      		ldi r25,hi8(2)
 7024 26b8 9093 0000 		sts (dir)+1,r25
 7025 26bc 8093 0000 		sts dir,r24
 7026               	.LM893:
 7027 26c0 80E0      		ldi r24,lo8(.LC8)
 7028 26c2 90E0      		ldi r25,hi8(.LC8)
 7029 26c4 0E94 0000 		call lcd_write_string
 7030               	.L504:
 7031               	.LBB682:
 7032               	.LBB683:
 7033               	.LM894:
 7034 26c8 8299      		sbic 48-32,2
 7035 26ca 00C0      		rjmp .L490
 7036               	.L503:
 7037               	.LBE683:
 7038               	.LBE682:
 7039               	.LBB667:
 7040               	.LM895:
 7041 26cc 84E0      		ldi r24,lo8(4)
 7042 26ce 90E0      		ldi r25,hi8(4)
 7043 26d0 64E0      		ldi r22,lo8(4)
 7044 26d2 70E0      		ldi r23,hi8(4)
 7045 26d4 A601      		movw r20,r12
 7046 26d6 9501      		movw r18,r10
 7047 26d8 0E94 0000 		call build_map
 7048               	.LM896:
 7049 26dc 0E94 0000 		call get_path
 7050 26e0 B0E0      		ldi r27,lo8(path_array)
 7051 26e2 EB2E      		mov r14,r27
 7052 26e4 B0E0      		ldi r27,hi8(path_array)
 7053 26e6 FB2E      		mov r15,r27
 7054 26e8 8701      		movw r16,r14
 7055 26ea C0E0      		ldi r28,lo8(0)
 7056 26ec D0E0      		ldi r29,hi8(0)
 7057               	.L491:
 7058               	.LBB675:
 7059               	.LM897:
 7060 26ee F801      		movw r30,r16
 7061 26f0 6081      		ld r22,Z
 7062 26f2 7181      		ldd r23,Z+1
 7063 26f4 CE01      		movw r24,r28
 7064 26f6 0E94 0000 		call __eewr_word_m32
 7065               	.LM898:
 7066 26fa F801      		movw r30,r16
 7067 26fc 6281      		ldd r22,Z+2
 7068 26fe 7381      		ldd r23,Z+3
 7069 2700 CE01      		movw r24,r28
 7070 2702 0296      		adiw r24,2
 7071 2704 0E94 0000 		call __eewr_word_m32
 7072 2708 0C5F      		subi r16,lo8(-(4))
 7073 270a 1F4F      		sbci r17,hi8(-(4))
 7074 270c 2496      		adiw r28,4
 7075               	.LM899:
 7076 270e CC33      		cpi r28,60
 7077 2710 D105      		cpc r29,__zero_reg__
 7078 2712 01F4      		brne .L491
 7079               	.LBE675:
 7080               	.LM900:
 7081 2714 81E0      		ldi r24,lo8(1)
 7082 2716 60E0      		ldi r22,lo8(0)
 7083 2718 0E94 0000 		call lcd_byte
 7084               	.LM901:
 7085 271c 80E0      		ldi r24,lo8(.LC9)
 7086 271e 90E0      		ldi r25,hi8(.LC9)
 7087 2720 0E94 0000 		call lcd_write_string
 7088               	.LM902:
 7089 2724 81E0      		ldi r24,lo8(1)
 7090 2726 90E0      		ldi r25,hi8(1)
 7091 2728 0E94 0000 		call delay_sec
 7092               	.LM903:
 7093 272c 1092 0000 		sts (right)+1,__zero_reg__
 7094 2730 1092 0000 		sts right,__zero_reg__
 7095               	.LM904:
 7096 2734 81E0      		ldi r24,lo8(1)
 7097 2736 60E0      		ldi r22,lo8(0)
 7098 2738 0E94 0000 		call lcd_byte
 7099               	.LM905:
 7100 273c 80E0      		ldi r24,lo8(0)
 7101 273e 90E0      		ldi r25,hi8(0)
 7102 2740 60E0      		ldi r22,lo8(0)
 7103 2742 70E0      		ldi r23,hi8(0)
 7104 2744 A601      		movw r20,r12
 7105 2746 22E0      		ldi r18,lo8(2)
 7106 2748 30E0      		ldi r19,hi8(2)
 7107 274a 0E94 0000 		call lcd_write_int_xy
 7108               	.LM906:
 7109 274e 85E0      		ldi r24,lo8(5)
 7110 2750 90E0      		ldi r25,hi8(5)
 7111 2752 60E0      		ldi r22,lo8(0)
 7112 2754 70E0      		ldi r23,hi8(0)
 7113 2756 A501      		movw r20,r10
 7114 2758 22E0      		ldi r18,lo8(2)
 7115 275a 30E0      		ldi r19,hi8(2)
 7116 275c 0E94 0000 		call lcd_write_int_xy
 7117               	.LM907:
 7118 2760 85E0      		ldi r24,lo8(5)
 7119 2762 90E0      		ldi r25,hi8(5)
 7120 2764 0E94 0000 		call delay_sec
 7121               	.LM908:
 7122 2768 81E0      		ldi r24,lo8(1)
 7123 276a 60E0      		ldi r22,lo8(0)
 7124 276c 0E94 0000 		call lcd_byte
 7125               	.LM909:
 7126 2770 4091 0000 		lds r20,path_array
 7127 2774 5091 0000 		lds r21,(path_array)+1
 7128 2778 80E0      		ldi r24,lo8(0)
 7129 277a 90E0      		ldi r25,hi8(0)
 7130 277c 60E0      		ldi r22,lo8(0)
 7131 277e 70E0      		ldi r23,hi8(0)
 7132 2780 21E0      		ldi r18,lo8(1)
 7133 2782 30E0      		ldi r19,hi8(1)
 7134 2784 0E94 0000 		call lcd_write_int_xy
 7135               	.LM910:
 7136 2788 4091 0000 		lds r20,path_array+2
 7137 278c 5091 0000 		lds r21,(path_array+2)+1
 7138 2790 81E0      		ldi r24,lo8(1)
 7139 2792 90E0      		ldi r25,hi8(1)
 7140 2794 60E0      		ldi r22,lo8(0)
 7141 2796 70E0      		ldi r23,hi8(0)
 7142 2798 21E0      		ldi r18,lo8(1)
 7143 279a 30E0      		ldi r19,hi8(1)
 7144 279c 0E94 0000 		call lcd_write_int_xy
 7145               	.LM911:
 7146 27a0 4091 0000 		lds r20,path_array+4
 7147 27a4 5091 0000 		lds r21,(path_array+4)+1
 7148 27a8 83E0      		ldi r24,lo8(3)
 7149 27aa 90E0      		ldi r25,hi8(3)
 7150 27ac 60E0      		ldi r22,lo8(0)
 7151 27ae 70E0      		ldi r23,hi8(0)
 7152 27b0 21E0      		ldi r18,lo8(1)
 7153 27b2 30E0      		ldi r19,hi8(1)
 7154 27b4 0E94 0000 		call lcd_write_int_xy
 7155               	.LM912:
 7156 27b8 4091 0000 		lds r20,path_array+6
 7157 27bc 5091 0000 		lds r21,(path_array+6)+1
 7158 27c0 84E0      		ldi r24,lo8(4)
 7159 27c2 90E0      		ldi r25,hi8(4)
 7160 27c4 60E0      		ldi r22,lo8(0)
 7161 27c6 70E0      		ldi r23,hi8(0)
 7162 27c8 21E0      		ldi r18,lo8(1)
 7163 27ca 30E0      		ldi r19,hi8(1)
 7164 27cc 0E94 0000 		call lcd_write_int_xy
 7165               	.LM913:
 7166 27d0 4091 0000 		lds r20,path_array+8
 7167 27d4 5091 0000 		lds r21,(path_array+8)+1
 7168 27d8 86E0      		ldi r24,lo8(6)
 7169 27da 90E0      		ldi r25,hi8(6)
 7170 27dc 60E0      		ldi r22,lo8(0)
 7171 27de 70E0      		ldi r23,hi8(0)
 7172 27e0 21E0      		ldi r18,lo8(1)
 7173 27e2 30E0      		ldi r19,hi8(1)
 7174 27e4 0E94 0000 		call lcd_write_int_xy
 7175               	.LM914:
 7176 27e8 4091 0000 		lds r20,path_array+10
 7177 27ec 5091 0000 		lds r21,(path_array+10)+1
 7178 27f0 87E0      		ldi r24,lo8(7)
 7179 27f2 90E0      		ldi r25,hi8(7)
 7180 27f4 60E0      		ldi r22,lo8(0)
 7181 27f6 70E0      		ldi r23,hi8(0)
 7182 27f8 21E0      		ldi r18,lo8(1)
 7183 27fa 30E0      		ldi r19,hi8(1)
 7184 27fc 0E94 0000 		call lcd_write_int_xy
 7185               	.LM915:
 7186 2800 4091 0000 		lds r20,path_array+12
 7187 2804 5091 0000 		lds r21,(path_array+12)+1
 7188 2808 89E0      		ldi r24,lo8(9)
 7189 280a 90E0      		ldi r25,hi8(9)
 7190 280c 60E0      		ldi r22,lo8(0)
 7191 280e 70E0      		ldi r23,hi8(0)
 7192 2810 21E0      		ldi r18,lo8(1)
 7193 2812 30E0      		ldi r19,hi8(1)
 7194 2814 0E94 0000 		call lcd_write_int_xy
 7195               	.LM916:
 7196 2818 4091 0000 		lds r20,path_array+14
 7197 281c 5091 0000 		lds r21,(path_array+14)+1
 7198 2820 8AE0      		ldi r24,lo8(10)
 7199 2822 90E0      		ldi r25,hi8(10)
 7200 2824 60E0      		ldi r22,lo8(0)
 7201 2826 70E0      		ldi r23,hi8(0)
 7202 2828 21E0      		ldi r18,lo8(1)
 7203 282a 30E0      		ldi r19,hi8(1)
 7204 282c 0E94 0000 		call lcd_write_int_xy
 7205               	.LM917:
 7206 2830 4091 0000 		lds r20,path_array+16
 7207 2834 5091 0000 		lds r21,(path_array+16)+1
 7208 2838 8CE0      		ldi r24,lo8(12)
 7209 283a 90E0      		ldi r25,hi8(12)
 7210 283c 60E0      		ldi r22,lo8(0)
 7211 283e 70E0      		ldi r23,hi8(0)
 7212 2840 21E0      		ldi r18,lo8(1)
 7213 2842 30E0      		ldi r19,hi8(1)
 7214 2844 0E94 0000 		call lcd_write_int_xy
 7215               	.LM918:
 7216 2848 4091 0000 		lds r20,path_array+18
 7217 284c 5091 0000 		lds r21,(path_array+18)+1
 7218 2850 8DE0      		ldi r24,lo8(13)
 7219 2852 90E0      		ldi r25,hi8(13)
 7220 2854 60E0      		ldi r22,lo8(0)
 7221 2856 70E0      		ldi r23,hi8(0)
 7222 2858 21E0      		ldi r18,lo8(1)
 7223 285a 30E0      		ldi r19,hi8(1)
 7224 285c 0E94 0000 		call lcd_write_int_xy
 7225               	.LM919:
 7226 2860 4091 0000 		lds r20,path_array+20
 7227 2864 5091 0000 		lds r21,(path_array+20)+1
 7228 2868 80E0      		ldi r24,lo8(0)
 7229 286a 90E0      		ldi r25,hi8(0)
 7230 286c 61E0      		ldi r22,lo8(1)
 7231 286e 70E0      		ldi r23,hi8(1)
 7232 2870 21E0      		ldi r18,lo8(1)
 7233 2872 30E0      		ldi r19,hi8(1)
 7234 2874 0E94 0000 		call lcd_write_int_xy
 7235               	.LM920:
 7236 2878 4091 0000 		lds r20,path_array+22
 7237 287c 5091 0000 		lds r21,(path_array+22)+1
 7238 2880 81E0      		ldi r24,lo8(1)
 7239 2882 90E0      		ldi r25,hi8(1)
 7240 2884 61E0      		ldi r22,lo8(1)
 7241 2886 70E0      		ldi r23,hi8(1)
 7242 2888 21E0      		ldi r18,lo8(1)
 7243 288a 30E0      		ldi r19,hi8(1)
 7244 288c 0E94 0000 		call lcd_write_int_xy
 7245               	.LBB673:
 7246               	.LBB674:
 7247               	.LM921:
 7248 2890 AC9A      		sbi 53-32,4
 7249               	.LM922:
 7250 2892 AD9A      		sbi 53-32,5
 7251               	.LM923:
 7252 2894 AE9A      		sbi 53-32,6
 7253               	.LM924:
 7254 2896 AF9A      		sbi 53-32,7
 7255               	.L506:
 7256               	.LBE674:
 7257               	.LBE673:
 7258               	.LBB671:
 7259               	.LBB672:
 7260               	.LM925:
 7261 2898 8299      		sbic 48-32,2
 7262 289a 00C0      		rjmp .L492
 7263               	.L505:
 7264               	.LBE672:
 7265               	.LBE671:
 7266               	.LM926:
 7267 289c 81E0      		ldi r24,lo8(1)
 7268 289e 60E0      		ldi r22,lo8(0)
 7269 28a0 0E94 0000 		call lcd_byte
 7270               	.LM927:
 7271 28a4 81E0      		ldi r24,lo8(1)
 7272 28a6 90E0      		ldi r25,hi8(1)
 7273 28a8 0E94 0000 		call delay_sec
 7274               	.L495:
 7275               	.LBB670:
 7276               	.LM928:
 7277 28ac F701      		movw r30,r14
 7278 28ae 2081      		ld r18,Z
 7279 28b0 3181      		ldd r19,Z+1
 7280 28b2 2115      		cp r18,__zero_reg__
 7281 28b4 3105      		cpc r19,__zero_reg__
 7282 28b6 01F4      		brne .L493
 7283 28b8 8281      		ldd r24,Z+2
 7284 28ba 9381      		ldd r25,Z+3
 7285 28bc 892B      		or r24,r25
 7286 28be 01F0      		breq .L510
 7287               	.L493:
 7288               	.LM929:
 7289 28c0 F701      		movw r30,r14
 7290 28c2 6281      		ldd r22,Z+2
 7291 28c4 7381      		ldd r23,Z+3
 7292 28c6 C901      		movw r24,r18
 7293 28c8 0E94 0000 		call go_to_coordinate
 7294 28cc 84E0      		ldi r24,lo8(4)
 7295 28ce 90E0      		ldi r25,hi8(4)
 7296 28d0 E80E      		add r14,r24
 7297 28d2 F91E      		adc r15,r25
 7298               	.LM930:
 7299 28d4 90E0      		ldi r25,lo8(path_array+60)
 7300 28d6 E916      		cp r14,r25
 7301 28d8 90E0      		ldi r25,hi8(path_array+60)
 7302 28da F906      		cpc r15,r25
 7303 28dc 01F4      		brne .L495
 7304               	.L510:
 7305               	.LBE670:
 7306               	.LBB668:
 7307               	.LBB669:
 7308               	.LM931:
 7309 28de AC98      		cbi 53-32,4
 7310               	.LM932:
 7311 28e0 AD98      		cbi 53-32,5
 7312               	.LM933:
 7313 28e2 AE98      		cbi 53-32,6
 7314               	.LM934:
 7315 28e4 AF98      		cbi 53-32,7
 7316 28e6 00C0      		rjmp .L510
 7317               	.LVL213:
 7318               	.L488:
 7319               	.LBE669:
 7320               	.LBE668:
 7321               	.LBE667:
 7322               	.LBE666:
 7323               	.LM935:
 7324 28e8 CE9B      		sbis 57-32,6
 7325 28ea 00C0      		rjmp .L496
 7326 28ec 8699      		sbic 48-32,6
 7327 28ee 00C0      		rjmp .L497
 7328               	.L496:
 7329               	.LM936:
 7330 28f0 81E0      		ldi r24,lo8(1)
 7331 28f2 90E0      		ldi r25,hi8(1)
 7332 28f4 9093 0000 		sts (straight)+1,r25
 7333 28f8 8093 0000 		sts straight,r24
 7334 28fc 00C0      		rjmp .L498
 7335               	.L497:
 7336               	.LM937:
 7337 28fe 1092 0000 		sts (straight)+1,__zero_reg__
 7338 2902 1092 0000 		sts straight,__zero_reg__
 7339               	.L498:
 7340               	.LM938:
 7341 2906 0E94 0000 		call turn_right
 7342               	.LM939:
 7343 290a 1092 0000 		sts (l)+1,__zero_reg__
 7344 290e 1092 0000 		sts l,__zero_reg__
 7345               	.LBB693:
 7346               	.LBB694:
 7347               	.LM940:
 7348 2912 AC9A      		sbi 53-32,4
 7349               	.LM941:
 7350 2914 AD9A      		sbi 53-32,5
 7351               	.LM942:
 7352 2916 AE9A      		sbi 53-32,6
 7353               	.LM943:
 7354 2918 AF9A      		sbi 53-32,7
 7355               	.LBE694:
 7356               	.LBE693:
 7357               	.LM944:
 7358 291a 1092 0000 		sts (flag1)+1,__zero_reg__
 7359 291e 1092 0000 		sts flag1,__zero_reg__
 7360               	.LM945:
 7361 2922 1092 0000 		sts (irc)+1,__zero_reg__
 7362 2926 1092 0000 		sts irc,__zero_reg__
 7363               	.LM946:
 7364 292a 2091 0000 		lds r18,lcount
 7365 292e 3091 0000 		lds r19,(lcount)+1
 7366 2932 8091 0000 		lds r24,lcountPrev
 7367 2936 9091 0000 		lds r25,(lcountPrev)+1
 7368 293a 281B      		sub r18,r24
 7369 293c 390B      		sbc r19,r25
 7370 293e 3093 0000 		sts (temp)+1,r19
 7371 2942 2093 0000 		sts temp,r18
 7372               	.LM947:
 7373 2946 8091 0000 		lds r24,straight
 7374 294a 9091 0000 		lds r25,(straight)+1
 7375 294e 8130      		cpi r24,1
 7376 2950 9105      		cpc r25,__zero_reg__
 7377 2952 01F4      		brne .L499
 7378 2954 2130      		cpi r18,1
 7379 2956 3105      		cpc r19,__zero_reg__
 7380 2958 01F0      		breq .+2
 7381 295a 00C0      		rjmp .L500
 7382               	.LM948:
 7383 295c 81E0      		ldi r24,lo8(1)
 7384 295e 90E0      		ldi r25,hi8(1)
 7385 2960 61E0      		ldi r22,lo8(1)
 7386 2962 70E0      		ldi r23,hi8(1)
 7387 2964 41E0      		ldi r20,lo8(1)
 7388 2966 50E0      		ldi r21,hi8(1)
 7389 2968 20E0      		ldi r18,lo8(0)
 7390 296a 30E0      		ldi r19,hi8(0)
 7391 296c 0E94 0000 		call update_array
 7392               	.LM949:
 7393 2970 80E0      		ldi r24,lo8(0)
 7394 2972 90E0      		ldi r25,hi8(0)
 7395 2974 61E0      		ldi r22,lo8(1)
 7396 2976 70E0      		ldi r23,hi8(1)
 7397 2978 40E0      		ldi r20,lo8(.LC10)
 7398 297a 50E0      		ldi r21,hi8(.LC10)
 7399 297c 00C0      		rjmp .L513
 7400               	.L499:
 7401               	.LM950:
 7402 297e 892B      		or r24,r25
 7403 2980 01F0      		breq .+2
 7404 2982 00C0      		rjmp .L501
 7405 2984 2130      		cpi r18,1
 7406 2986 3105      		cpc r19,__zero_reg__
 7407 2988 01F4      		brne .L502
 7408               	.LM951:
 7409 298a 80E0      		ldi r24,lo8(0)
 7410 298c 90E0      		ldi r25,hi8(0)
 7411 298e 61E0      		ldi r22,lo8(1)
 7412 2990 70E0      		ldi r23,hi8(1)
 7413 2992 41E0      		ldi r20,lo8(1)
 7414 2994 50E0      		ldi r21,hi8(1)
 7415 2996 21E0      		ldi r18,lo8(1)
 7416 2998 30E0      		ldi r19,hi8(1)
 7417 299a 0E94 0000 		call update_array
 7418               	.LM952:
 7419 299e 80E0      		ldi r24,lo8(0)
 7420 29a0 90E0      		ldi r25,hi8(0)
 7421 29a2 61E0      		ldi r22,lo8(1)
 7422 29a4 70E0      		ldi r23,hi8(1)
 7423 29a6 40E0      		ldi r20,lo8(.LC11)
 7424 29a8 50E0      		ldi r21,hi8(.LC11)
 7425 29aa 00C0      		rjmp .L514
 7426               	.L502:
 7427               	.LM953:
 7428 29ac 232B      		or r18,r19
 7429 29ae 01F0      		breq .+2
 7430 29b0 00C0      		rjmp .L501
 7431               	.LM954:
 7432 29b2 80E0      		ldi r24,lo8(0)
 7433 29b4 90E0      		ldi r25,hi8(0)
 7434 29b6 61E0      		ldi r22,lo8(1)
 7435 29b8 70E0      		ldi r23,hi8(1)
 7436 29ba 41E0      		ldi r20,lo8(1)
 7437 29bc 50E0      		ldi r21,hi8(1)
 7438 29be 20E0      		ldi r18,lo8(0)
 7439 29c0 30E0      		ldi r19,hi8(0)
 7440 29c2 0E94 0000 		call update_array
 7441               	.LM955:
 7442 29c6 80E0      		ldi r24,lo8(0)
 7443 29c8 90E0      		ldi r25,hi8(0)
 7444 29ca 61E0      		ldi r22,lo8(1)
 7445 29cc 70E0      		ldi r23,hi8(1)
 7446 29ce 40E0      		ldi r20,lo8(.LC11)
 7447 29d0 50E0      		ldi r21,hi8(.LC11)
 7448               	.L513:
 7449 29d2 0E94 0000 		call lcd_write_string_xy
 7450               	.LM956:
 7451 29d6 82E0      		ldi r24,lo8(2)
 7452 29d8 90E0      		ldi r25,hi8(2)
 7453 29da 61E0      		ldi r22,lo8(1)
 7454 29dc 70E0      		ldi r23,hi8(1)
 7455 29de 40E0      		ldi r20,lo8(.LC10)
 7456 29e0 50E0      		ldi r21,hi8(.LC10)
 7457 29e2 0E94 0000 		call lcd_write_string_xy
 7458               	.LM957:
 7459 29e6 84E0      		ldi r24,lo8(4)
 7460 29e8 90E0      		ldi r25,hi8(4)
 7461 29ea 61E0      		ldi r22,lo8(1)
 7462 29ec 70E0      		ldi r23,hi8(1)
 7463 29ee 40E0      		ldi r20,lo8(.LC10)
 7464 29f0 50E0      		ldi r21,hi8(.LC10)
 7465 29f2 0E94 0000 		call lcd_write_string_xy
 7466               	.LM958:
 7467 29f6 86E0      		ldi r24,lo8(6)
 7468 29f8 90E0      		ldi r25,hi8(6)
 7469 29fa 61E0      		ldi r22,lo8(1)
 7470 29fc 70E0      		ldi r23,hi8(1)
 7471 29fe 40E0      		ldi r20,lo8(.LC11)
 7472 2a00 50E0      		ldi r21,hi8(.LC11)
 7473 2a02 00C0      		rjmp .L512
 7474               	.L500:
 7475               	.LM959:
 7476 2a04 2230      		cpi r18,2
 7477 2a06 3105      		cpc r19,__zero_reg__
 7478 2a08 01F4      		brne .L501
 7479               	.LM960:
 7480 2a0a 81E0      		ldi r24,lo8(1)
 7481 2a0c 90E0      		ldi r25,hi8(1)
 7482 2a0e 61E0      		ldi r22,lo8(1)
 7483 2a10 70E0      		ldi r23,hi8(1)
 7484 2a12 41E0      		ldi r20,lo8(1)
 7485 2a14 50E0      		ldi r21,hi8(1)
 7486 2a16 21E0      		ldi r18,lo8(1)
 7487 2a18 30E0      		ldi r19,hi8(1)
 7488 2a1a 0E94 0000 		call update_array
 7489               	.LM961:
 7490 2a1e 80E0      		ldi r24,lo8(0)
 7491 2a20 90E0      		ldi r25,hi8(0)
 7492 2a22 61E0      		ldi r22,lo8(1)
 7493 2a24 70E0      		ldi r23,hi8(1)
 7494 2a26 40E0      		ldi r20,lo8(.LC10)
 7495 2a28 50E0      		ldi r21,hi8(.LC10)
 7496               	.L514:
 7497 2a2a 0E94 0000 		call lcd_write_string_xy
 7498               	.LM962:
 7499 2a2e 82E0      		ldi r24,lo8(2)
 7500 2a30 90E0      		ldi r25,hi8(2)
 7501 2a32 61E0      		ldi r22,lo8(1)
 7502 2a34 70E0      		ldi r23,hi8(1)
 7503 2a36 40E0      		ldi r20,lo8(.LC10)
 7504 2a38 50E0      		ldi r21,hi8(.LC10)
 7505 2a3a 0E94 0000 		call lcd_write_string_xy
 7506               	.LM963:
 7507 2a3e 84E0      		ldi r24,lo8(4)
 7508 2a40 90E0      		ldi r25,hi8(4)
 7509 2a42 61E0      		ldi r22,lo8(1)
 7510 2a44 70E0      		ldi r23,hi8(1)
 7511 2a46 40E0      		ldi r20,lo8(.LC10)
 7512 2a48 50E0      		ldi r21,hi8(.LC10)
 7513 2a4a 0E94 0000 		call lcd_write_string_xy
 7514               	.LM964:
 7515 2a4e 86E0      		ldi r24,lo8(6)
 7516 2a50 90E0      		ldi r25,hi8(6)
 7517 2a52 61E0      		ldi r22,lo8(1)
 7518 2a54 70E0      		ldi r23,hi8(1)
 7519 2a56 40E0      		ldi r20,lo8(.LC10)
 7520 2a58 50E0      		ldi r21,hi8(.LC10)
 7521               	.L512:
 7522 2a5a 0E94 0000 		call lcd_write_string_xy
 7523               	.L501:
 7524               	.LM965:
 7525 2a5e 1092 0000 		sts (temp)+1,__zero_reg__
 7526 2a62 1092 0000 		sts temp,__zero_reg__
 7527               	.LM966:
 7528 2a66 0E94 0000 		call sense_of_directon
 7529 2a6a 00C0      		rjmp .L507
 7530               	.LVL214:
 7531               	.L490:
 7532               	.LBB695:
 7533               	.LBB686:
 7534               	.LBB687:
 7535               	.LM967:
 7536 2a6c 809B      		sbis 48-32,0
 7537 2a6e 00C0      		rjmp .L503
 7538               	.LBE687:
 7539               	.LBE686:
 7540               	.LBB688:
 7541               	.LBB689:
 7542               	.LM968:
 7543 2a70 819B      		sbis 48-32,1
 7544 2a72 00C0      		rjmp .L503
 7545               	.LBE689:
 7546               	.LBE688:
 7547               	.LBB690:
 7548               	.LBB691:
 7549               	.LM969:
 7550 2a74 839B      		sbis 48-32,3
 7551 2a76 00C0      		rjmp .L503
 7552 2a78 00C0      		rjmp .L504
 7553               	.L492:
 7554               	.LBE691:
 7555               	.LBE690:
 7556               	.LBB692:
 7557               	.LBB676:
 7558               	.LBB677:
 7559               	.LM970:
 7560 2a7a 809B      		sbis 48-32,0
 7561 2a7c 00C0      		rjmp .L505
 7562               	.LBE677:
 7563               	.LBE676:
 7564               	.LBB678:
 7565               	.LBB679:
 7566               	.LM971:
 7567 2a7e 819B      		sbis 48-32,1
 7568 2a80 00C0      		rjmp .L505
 7569               	.LBE679:
 7570               	.LBE678:
 7571               	.LBB680:
 7572               	.LBB681:
 7573               	.LM972:
 7574 2a82 839B      		sbis 48-32,3
 7575 2a84 00C0      		rjmp .L505
 7576 2a86 00C0      		rjmp .L506
 7577               	.LVL215:
 7578               	.L507:
 7579               	/* epilogue start */
 7580               	.LBE681:
 7581               	.LBE680:
 7582               	.LBE692:
 7583               	.LBE695:
 7584               	.LM973:
 7585 2a88 DF91      		pop r29
 7586 2a8a CF91      		pop r28
 7587 2a8c 1F91      		pop r17
 7588 2a8e 0F91      		pop r16
 7589 2a90 FF90      		pop r15
 7590 2a92 EF90      		pop r14
 7591 2a94 DF90      		pop r13
 7592 2a96 CF90      		pop r12
 7593 2a98 BF90      		pop r11
 7594 2a9a AF90      		pop r10
 7595 2a9c 0895      		ret
 7596               	.LFE61:
 7598               		.data
 7599               	.LC12:
 7600 0061 4C43 4420 		.string	"LCD Working"
 7600      576F 726B 
 7600      696E 6700 
 7601               	.LC13:
 7602 006d 5072 6573 		.string	"PressD3 dry run"
 7602      7344 3320 
 7602      6472 7920 
 7602      7275 6E00 
 7603               	.LC14:
 7604 007d 5072 6573 		.string	"Press0 Stst run"
 7604      7330 2053 
 7604      7473 7420 
 7604      7275 6E00 
 7605               		.text
 7606               	.global	main
 7608               	main:
 7609               	.LFB76:
 7610               	.LM974:
 7611 2a9e EF92      		push r14
 7612 2aa0 FF92      		push r15
 7613 2aa2 0F93      		push r16
 7614 2aa4 1F93      		push r17
 7615 2aa6 CF93      		push r28
 7616 2aa8 DF93      		push r29
 7617               	/* prologue: function */
 7618               	/* frame size = 0 */
 7619               	.LM975:
 7620 2aaa 0E94 0000 		call init_devices
 7621               	.LM976:
 7622 2aae 81E0      		ldi r24,lo8(1)
 7623 2ab0 60E0      		ldi r22,lo8(0)
 7624 2ab2 0E94 0000 		call lcd_byte
 7625               	.LM977:
 7626 2ab6 80E0      		ldi r24,lo8(.LC12)
 7627 2ab8 90E0      		ldi r25,hi8(.LC12)
 7628 2aba 0E94 0000 		call lcd_write_string
 7629 2abe 20E0      		ldi r18,lo8(0)
 7630 2ac0 30E0      		ldi r19,hi8(0)
 7631               	.LVL216:
 7632               	.LM978:
 7633 2ac2 40E5      		ldi r20,lo8(80)
 7634 2ac4 50E0      		ldi r21,hi8(80)
 7635 2ac6 00C0      		rjmp .L516
 7636               	.LVL217:
 7637               	.L517:
 7638               	.LM979:
 7639 2ac8 1182      		std Z+1,__zero_reg__
 7640 2aca 1082      		st Z,__zero_reg__
 7641 2acc 1382      		std Z+3,__zero_reg__
 7642 2ace 1282      		std Z+2,__zero_reg__
 7643 2ad0 1582      		std Z+5,__zero_reg__
 7644 2ad2 1482      		std Z+4,__zero_reg__
 7645 2ad4 1782      		std Z+7,__zero_reg__
 7646 2ad6 1682      		std Z+6,__zero_reg__
 7647               	.LM980:
 7648 2ad8 0196      		adiw r24,1
 7649 2ada 3896      		adiw r30,8
 7650 2adc 8A30      		cpi r24,10
 7651 2ade 9105      		cpc r25,__zero_reg__
 7652 2ae0 01F4      		brne .L517
 7653               	.LM981:
 7654 2ae2 2F5F      		subi r18,lo8(-(1))
 7655 2ae4 3F4F      		sbci r19,hi8(-(1))
 7656 2ae6 2A30      		cpi r18,10
 7657 2ae8 3105      		cpc r19,__zero_reg__
 7658 2aea 01F0      		breq .L518
 7659               	.L516:
 7660 2aec 249F      		mul r18,r20
 7661 2aee F001      		movw r30,r0
 7662 2af0 259F      		mul r18,r21
 7663 2af2 F00D      		add r31,r0
 7664 2af4 349F      		mul r19,r20
 7665 2af6 F00D      		add r31,r0
 7666 2af8 1124      		clr r1
 7667 2afa E050      		subi r30,lo8(-(dir_array))
 7668 2afc F040      		sbci r31,hi8(-(dir_array))
 7669 2afe 80E0      		ldi r24,lo8(0)
 7670 2b00 90E0      		ldi r25,hi8(0)
 7671 2b02 00C0      		rjmp .L517
 7672               	.L518:
 7673               	.LM982:
 7674 2b04 81E0      		ldi r24,lo8(1)
 7675               	.LVL218:
 7676 2b06 60E0      		ldi r22,lo8(0)
 7677 2b08 0E94 0000 		call lcd_byte
 7678               	.LVL219:
 7679               	.LM983:
 7680 2b0c 80E0      		ldi r24,lo8(.LC13)
 7681 2b0e 90E0      		ldi r25,hi8(.LC13)
 7682 2b10 0E94 0000 		call lcd_write_string
 7683               	.LM984:
 7684 2b14 80E0      		ldi r24,lo8(0)
 7685 2b16 90E0      		ldi r25,hi8(0)
 7686 2b18 61E0      		ldi r22,lo8(1)
 7687 2b1a 70E0      		ldi r23,hi8(1)
 7688 2b1c 40E0      		ldi r20,lo8(.LC14)
 7689 2b1e 50E0      		ldi r21,hi8(.LC14)
 7690 2b20 0E94 0000 		call lcd_write_string_xy
 7691               	.LM985:
 7692 2b24 81E0      		ldi r24,lo8(1)
 7693 2b26 90E0      		ldi r25,hi8(1)
 7694 2b28 60E0      		ldi r22,lo8(0)
 7695 2b2a 70E0      		ldi r23,hi8(0)
 7696 2b2c 40E0      		ldi r20,lo8(0)
 7697 2b2e 50E0      		ldi r21,hi8(0)
 7698 2b30 20E0      		ldi r18,lo8(0)
 7699 2b32 30E0      		ldi r19,hi8(0)
 7700 2b34 0E94 0000 		call update_array
 7701               	.L544:
 7702               	.LBB696:
 7703               	.LBB697:
 7704               	.LM986:
 7705 2b38 8399      		sbic 48-32,3
 7706 2b3a 00C0      		rjmp .L519
 7707               	.LBE697:
 7708               	.LBE696:
 7709               	.LM987:
 7710 2b3c 1092 0000 		sts (repeat)+1,__zero_reg__
 7711 2b40 1092 0000 		sts repeat,__zero_reg__
 7712 2b44 00C0      		rjmp .L520
 7713               	.L522:
 7714               	.LM988:
 7715 2b46 0E94 0000 		call line_track_new
 7716               	.LM989:
 7717 2b4a 85B3      		in r24,53-32
 7718 2b4c 807F      		andi r24,lo8(-16)
 7719 2b4e 85BB      		out 53-32,r24
 7720               	.LM990:
 7721 2b50 85B3      		in r24,53-32
 7722 2b52 9091 0000 		lds r25,sensorbyte
 7723 2b56 892B      		or r24,r25
 7724 2b58 85BB      		out 53-32,r24
 7725               	.LM991:
 7726 2b5a CF99      		sbic 57-32,7
 7727 2b5c 00C0      		rjmp .L521
 7728               	.LM992:
 7729 2b5e 0E94 0000 		call right_junc_check
 7730               	.L521:
 7731               	.LM993:
 7732 2b62 0E94 0000 		call left_junc_check
 7733               	.LM994:
 7734 2b66 0E94 0000 		call frSensorCheck
 7735               	.LM995:
 7736 2b6a 8091 0000 		lds r24,irc
 7737 2b6e 9091 0000 		lds r25,(irc)+1
 7738 2b72 0196      		adiw r24,1
 7739 2b74 9093 0000 		sts (irc)+1,r25
 7740 2b78 8093 0000 		sts irc,r24
 7741               	.L520:
 7742               	.LM996:
 7743 2b7c 8091 0000 		lds r24,repeat
 7744 2b80 9091 0000 		lds r25,(repeat)+1
 7745 2b84 0397      		sbiw r24,3
 7746 2b86 04F0      		brlt .L522
 7747               	.LBB698:
 7748               	.LBB699:
 7749               	.LM997:
 7750 2b88 AC9A      		sbi 53-32,4
 7751               	.LM998:
 7752 2b8a AD9A      		sbi 53-32,5
 7753               	.LM999:
 7754 2b8c AE9A      		sbi 53-32,6
 7755               	.LM1000:
 7756 2b8e AF9A      		sbi 53-32,7
 7757               	.LBE699:
 7758               	.LBE698:
 7759               	.LM1001:
 7760 2b90 0E94 0000 		call fill_missed_array
 7761               	.LM1002:
 7762 2b94 1092 0000 		sts (mx)+1,__zero_reg__
 7763 2b98 1092 0000 		sts mx,__zero_reg__
 7764               	.LM1003:
 7765 2b9c 1092 0000 		sts (my)+1,__zero_reg__
 7766 2ba0 1092 0000 		sts my,__zero_reg__
 7767               	.LM1004:
 7768 2ba4 0E94 0000 		call coordinates_tobe_reached
 7769               	.LM1005:
 7770 2ba8 6091 0000 		lds r22,y_coordinate
 7771 2bac 7091 0000 		lds r23,(y_coordinate)+1
 7772 2bb0 4091 0000 		lds r20,mx
 7773 2bb4 5091 0000 		lds r21,(mx)+1
 7774 2bb8 2091 0000 		lds r18,my
 7775 2bbc 3091 0000 		lds r19,(my)+1
 7776 2bc0 8091 0000 		lds r24,x_coordinate
 7777 2bc4 9091 0000 		lds r25,(x_coordinate)+1
 7778 2bc8 0E94 0000 		call build_map
 7779               	.LM1006:
 7780 2bcc 0E94 0000 		call get_path
 7781               	.LM1007:
 7782 2bd0 1092 0000 		sts (right)+1,__zero_reg__
 7783 2bd4 1092 0000 		sts right,__zero_reg__
 7784               	.LM1008:
 7785 2bd8 81E0      		ldi r24,lo8(1)
 7786 2bda 60E0      		ldi r22,lo8(0)
 7787 2bdc 0E94 0000 		call lcd_byte
 7788               	.LM1009:
 7789 2be0 4091 0000 		lds r20,path_array
 7790 2be4 5091 0000 		lds r21,(path_array)+1
 7791 2be8 80E0      		ldi r24,lo8(0)
 7792 2bea 90E0      		ldi r25,hi8(0)
 7793 2bec 60E0      		ldi r22,lo8(0)
 7794 2bee 70E0      		ldi r23,hi8(0)
 7795 2bf0 22E0      		ldi r18,lo8(2)
 7796 2bf2 30E0      		ldi r19,hi8(2)
 7797 2bf4 0E94 0000 		call lcd_write_int_xy
 7798               	.LM1010:
 7799 2bf8 4091 0000 		lds r20,path_array+2
 7800 2bfc 5091 0000 		lds r21,(path_array+2)+1
 7801 2c00 83E0      		ldi r24,lo8(3)
 7802 2c02 90E0      		ldi r25,hi8(3)
 7803 2c04 60E0      		ldi r22,lo8(0)
 7804 2c06 70E0      		ldi r23,hi8(0)
 7805 2c08 22E0      		ldi r18,lo8(2)
 7806 2c0a 30E0      		ldi r19,hi8(2)
 7807 2c0c 0E94 0000 		call lcd_write_int_xy
 7808               	.LM1011:
 7809 2c10 4091 0000 		lds r20,path_array+4
 7810 2c14 5091 0000 		lds r21,(path_array+4)+1
 7811 2c18 86E0      		ldi r24,lo8(6)
 7812 2c1a 90E0      		ldi r25,hi8(6)
 7813 2c1c 60E0      		ldi r22,lo8(0)
 7814 2c1e 70E0      		ldi r23,hi8(0)
 7815 2c20 22E0      		ldi r18,lo8(2)
 7816 2c22 30E0      		ldi r19,hi8(2)
 7817 2c24 0E94 0000 		call lcd_write_int_xy
 7818               	.LM1012:
 7819 2c28 4091 0000 		lds r20,path_array+6
 7820 2c2c 5091 0000 		lds r21,(path_array+6)+1
 7821 2c30 89E0      		ldi r24,lo8(9)
 7822 2c32 90E0      		ldi r25,hi8(9)
 7823 2c34 60E0      		ldi r22,lo8(0)
 7824 2c36 70E0      		ldi r23,hi8(0)
 7825 2c38 22E0      		ldi r18,lo8(2)
 7826 2c3a 30E0      		ldi r19,hi8(2)
 7827 2c3c 0E94 0000 		call lcd_write_int_xy
 7828               	.LM1013:
 7829 2c40 84E0      		ldi r24,lo8(4)
 7830 2c42 90E0      		ldi r25,hi8(4)
 7831 2c44 0E94 0000 		call delay_sec
 7832 2c48 C0E0      		ldi r28,lo8(path_array)
 7833 2c4a D0E0      		ldi r29,hi8(path_array)
 7834               	.L525:
 7835               	.LBB700:
 7836               	.LM1014:
 7837 2c4c 2881      		ld r18,Y
 7838 2c4e 3981      		ldd r19,Y+1
 7839 2c50 2115      		cp r18,__zero_reg__
 7840 2c52 3105      		cpc r19,__zero_reg__
 7841 2c54 01F4      		brne .L523
 7842 2c56 8A81      		ldd r24,Y+2
 7843 2c58 9B81      		ldd r25,Y+3
 7844 2c5a 892B      		or r24,r25
 7845 2c5c 01F0      		breq .L524
 7846               	.L523:
 7847               	.LM1015:
 7848 2c5e 6A81      		ldd r22,Y+2
 7849 2c60 7B81      		ldd r23,Y+3
 7850 2c62 C901      		movw r24,r18
 7851 2c64 0E94 0000 		call go_to_coordinate
 7852 2c68 2496      		adiw r28,4
 7853               	.LM1016:
 7854 2c6a 80E0      		ldi r24,hi8(path_array+60)
 7855 2c6c C030      		cpi r28,lo8(path_array+60)
 7856 2c6e D807      		cpc r29,r24
 7857 2c70 01F4      		brne .L525
 7858               	.L524:
 7859               	.LBE700:
 7860               	.LM1017:
 7861 2c72 C091 0000 		lds r28,x_coordinate
 7862 2c76 D091 0000 		lds r29,(x_coordinate)+1
 7863 2c7a 0091 0000 		lds r16,y_coordinate
 7864 2c7e 1091 0000 		lds r17,(y_coordinate)+1
 7865 2c82 FE01      		movw r30,r28
 7866 2c84 EE0F      		lsl r30
 7867 2c86 FF1F      		rol r31
 7868 2c88 CE01      		movw r24,r28
 7869 2c8a 23E0      		ldi r18,3
 7870 2c8c 880F      	1:	lsl r24
 7871 2c8e 991F      		rol r25
 7872 2c90 2A95      		dec r18
 7873 2c92 01F4      		brne 1b
 7874 2c94 E80F      		add r30,r24
 7875 2c96 F91F      		adc r31,r25
 7876 2c98 E00F      		add r30,r16
 7877 2c9a F11F      		adc r31,r17
 7878 2c9c 83E0      		ldi r24,3
 7879 2c9e EE0F      	1:	lsl r30
 7880 2ca0 FF1F      		rol r31
 7881 2ca2 8A95      		dec r24
 7882 2ca4 01F4      		brne 1b
 7883 2ca6 E050      		subi r30,lo8(-(dir_array))
 7884 2ca8 F040      		sbci r31,hi8(-(dir_array))
 7885 2caa 8081      		ld r24,Z
 7886 2cac 9181      		ldd r25,Z+1
 7887 2cae 0197      		sbiw r24,1
 7888 2cb0 01F4      		brne .L526
 7889 2cb2 B801      		movw r22,r16
 7890 2cb4 6F5F      		subi r22,lo8(-(1))
 7891 2cb6 7F4F      		sbci r23,hi8(-(1))
 7892 2cb8 CE01      		movw r24,r28
 7893 2cba 0E94 0000 		call is_coordinate_null
 7894 2cbe 892B      		or r24,r25
 7895 2cc0 01F0      		breq .L526
 7896               	.LM1018:
 7897 2cc2 82E0      		ldi r24,lo8(2)
 7898 2cc4 90E0      		ldi r25,hi8(2)
 7899 2cc6 00C0      		rjmp .L545
 7900               	.L526:
 7901               	.LM1019:
 7902 2cc8 FE01      		movw r30,r28
 7903 2cca EE0F      		lsl r30
 7904 2ccc FF1F      		rol r31
 7905 2cce CE01      		movw r24,r28
 7906 2cd0 A3E0      		ldi r26,3
 7907 2cd2 880F      	1:	lsl r24
 7908 2cd4 991F      		rol r25
 7909 2cd6 AA95      		dec r26
 7910 2cd8 01F4      		brne 1b
 7911 2cda E80F      		add r30,r24
 7912 2cdc F91F      		adc r31,r25
 7913 2cde E00F      		add r30,r16
 7914 2ce0 F11F      		adc r31,r17
 7915 2ce2 73E0      		ldi r23,3
 7916 2ce4 EE0F      	1:	lsl r30
 7917 2ce6 FF1F      		rol r31
 7918 2ce8 7A95      		dec r23
 7919 2cea 01F4      		brne 1b
 7920 2cec E050      		subi r30,lo8(-(dir_array+2))
 7921 2cee F040      		sbci r31,hi8(-(dir_array+2))
 7922 2cf0 8081      		ld r24,Z
 7923 2cf2 9181      		ldd r25,Z+1
 7924 2cf4 0197      		sbiw r24,1
 7925 2cf6 01F4      		brne .L528
 7926 2cf8 CE01      		movw r24,r28
 7927 2cfa 0196      		adiw r24,1
 7928 2cfc B801      		movw r22,r16
 7929 2cfe 0E94 0000 		call is_coordinate_null
 7930 2d02 892B      		or r24,r25
 7931 2d04 01F0      		breq .L528
 7932               	.LM1020:
 7933 2d06 81E0      		ldi r24,lo8(1)
 7934 2d08 90E0      		ldi r25,hi8(1)
 7935 2d0a 00C0      		rjmp .L545
 7936               	.L528:
 7937               	.LM1021:
 7938 2d0c FE01      		movw r30,r28
 7939 2d0e EE0F      		lsl r30
 7940 2d10 FF1F      		rol r31
 7941 2d12 CE01      		movw r24,r28
 7942 2d14 53E0      		ldi r21,3
 7943 2d16 880F      	1:	lsl r24
 7944 2d18 991F      		rol r25
 7945 2d1a 5A95      		dec r21
 7946 2d1c 01F4      		brne 1b
 7947 2d1e E80F      		add r30,r24
 7948 2d20 F91F      		adc r31,r25
 7949 2d22 E00F      		add r30,r16
 7950 2d24 F11F      		adc r31,r17
 7951 2d26 43E0      		ldi r20,3
 7952 2d28 EE0F      	1:	lsl r30
 7953 2d2a FF1F      		rol r31
 7954 2d2c 4A95      		dec r20
 7955 2d2e 01F4      		brne 1b
 7956 2d30 E050      		subi r30,lo8(-(dir_array+4))
 7957 2d32 F040      		sbci r31,hi8(-(dir_array+4))
 7958 2d34 8081      		ld r24,Z
 7959 2d36 9181      		ldd r25,Z+1
 7960 2d38 0197      		sbiw r24,1
 7961 2d3a 01F4      		brne .L529
 7962 2d3c B801      		movw r22,r16
 7963 2d3e 6150      		subi r22,lo8(-(-1))
 7964 2d40 7040      		sbci r23,hi8(-(-1))
 7965 2d42 CE01      		movw r24,r28
 7966 2d44 0E94 0000 		call is_coordinate_null
 7967 2d48 892B      		or r24,r25
 7968 2d4a 01F0      		breq .L529
 7969               	.LM1022:
 7970 2d4c 8EEF      		ldi r24,lo8(-2)
 7971 2d4e 9FEF      		ldi r25,hi8(-2)
 7972 2d50 00C0      		rjmp .L545
 7973               	.L529:
 7974               	.LM1023:
 7975 2d52 FE01      		movw r30,r28
 7976 2d54 EE0F      		lsl r30
 7977 2d56 FF1F      		rol r31
 7978 2d58 CE01      		movw r24,r28
 7979 2d5a 23E0      		ldi r18,3
 7980 2d5c 880F      	1:	lsl r24
 7981 2d5e 991F      		rol r25
 7982 2d60 2A95      		dec r18
 7983 2d62 01F4      		brne 1b
 7984 2d64 E80F      		add r30,r24
 7985 2d66 F91F      		adc r31,r25
 7986 2d68 E00F      		add r30,r16
 7987 2d6a F11F      		adc r31,r17
 7988 2d6c 83E0      		ldi r24,3
 7989 2d6e EE0F      	1:	lsl r30
 7990 2d70 FF1F      		rol r31
 7991 2d72 8A95      		dec r24
 7992 2d74 01F4      		brne 1b
 7993 2d76 E050      		subi r30,lo8(-(dir_array))
 7994 2d78 F040      		sbci r31,hi8(-(dir_array))
 7995 2d7a 8681      		ldd r24,Z+6
 7996 2d7c 9781      		ldd r25,Z+7
 7997 2d7e 0197      		sbiw r24,1
 7998 2d80 01F4      		brne .L527
 7999 2d82 CE01      		movw r24,r28
 8000 2d84 0197      		sbiw r24,1
 8001 2d86 B801      		movw r22,r16
 8002 2d88 0E94 0000 		call is_coordinate_null
 8003 2d8c 892B      		or r24,r25
 8004 2d8e 01F0      		breq .L527
 8005               	.LM1024:
 8006 2d90 8FEF      		ldi r24,lo8(-1)
 8007 2d92 9FEF      		ldi r25,hi8(-1)
 8008               	.L545:
 8009 2d94 0E94 0000 		call checkAndCorrectDirection
 8010               	.L527:
 8011               	.LBB701:
 8012               	.LBB702:
 8013               	.LM1025:
 8014 2d98 AC9A      		sbi 53-32,4
 8015               	.LM1026:
 8016 2d9a AD9A      		sbi 53-32,5
 8017               	.LM1027:
 8018 2d9c AE9A      		sbi 53-32,6
 8019               	.LM1028:
 8020 2d9e AF9A      		sbi 53-32,7
 8021               	.LBE702:
 8022               	.LBE701:
 8023               	.LM1029:
 8024 2da0 1092 0000 		sts (Coordinates_changed_by)+1,__zero_reg__
 8025 2da4 1092 0000 		sts Coordinates_changed_by,__zero_reg__
 8026               	.LM1030:
 8027 2da8 1092 0000 		sts (irc)+1,__zero_reg__
 8028 2dac 1092 0000 		sts irc,__zero_reg__
 8029               	.LM1031:
 8030 2db0 1092 0000 		sts (special_flag)+1,__zero_reg__
 8031 2db4 1092 0000 		sts special_flag,__zero_reg__
 8032               	.LM1032:
 8033 2db8 1092 0000 		sts (repeat)+1,__zero_reg__
 8034 2dbc 1092 0000 		sts repeat,__zero_reg__
 8035               	.L519:
 8036               	.LBB703:
 8037               	.LBB704:
 8038               	.LM1033:
 8039 2dc0 8099      		sbic 48-32,0
 8040 2dc2 00C0      		rjmp .L544
 8041 2dc4 10E0      		ldi r17,lo8(path_array)
 8042 2dc6 E12E      		mov r14,r17
 8043 2dc8 10E0      		ldi r17,hi8(path_array)
 8044 2dca F12E      		mov r15,r17
 8045 2dcc 8701      		movw r16,r14
 8046 2dce C0E0      		ldi r28,lo8(0)
 8047 2dd0 D0E0      		ldi r29,hi8(0)
 8048               	.L531:
 8049               	.LBE704:
 8050               	.LBE703:
 8051               	.LBB705:
 8052               	.LBB706:
 8053               	.LM1034:
 8054 2dd2 CE01      		movw r24,r28
 8055 2dd4 0E94 0000 		call __eerd_word_m32
 8056 2dd8 F801      		movw r30,r16
 8057 2dda 9183      		std Z+1,r25
 8058 2ddc 8083      		st Z,r24
 8059               	.LM1035:
 8060 2dde CE01      		movw r24,r28
 8061 2de0 0296      		adiw r24,2
 8062 2de2 0E94 0000 		call __eerd_word_m32
 8063 2de6 F801      		movw r30,r16
 8064 2de8 9383      		std Z+3,r25
 8065 2dea 8283      		std Z+2,r24
 8066 2dec 2496      		adiw r28,4
 8067 2dee 0C5F      		subi r16,lo8(-(4))
 8068 2df0 1F4F      		sbci r17,hi8(-(4))
 8069               	.LM1036:
 8070 2df2 CC33      		cpi r28,60
 8071 2df4 D105      		cpc r29,__zero_reg__
 8072 2df6 01F4      		brne .L531
 8073               	.LBE706:
 8074               	.LM1037:
 8075 2df8 81E0      		ldi r24,lo8(1)
 8076 2dfa 60E0      		ldi r22,lo8(0)
 8077 2dfc 0E94 0000 		call lcd_byte
 8078               	.LM1038:
 8079 2e00 4091 0000 		lds r20,path_array
 8080 2e04 5091 0000 		lds r21,(path_array)+1
 8081 2e08 80E0      		ldi r24,lo8(0)
 8082 2e0a 90E0      		ldi r25,hi8(0)
 8083 2e0c 60E0      		ldi r22,lo8(0)
 8084 2e0e 70E0      		ldi r23,hi8(0)
 8085 2e10 21E0      		ldi r18,lo8(1)
 8086 2e12 30E0      		ldi r19,hi8(1)
 8087 2e14 0E94 0000 		call lcd_write_int_xy
 8088               	.LM1039:
 8089 2e18 4091 0000 		lds r20,path_array+2
 8090 2e1c 5091 0000 		lds r21,(path_array+2)+1
 8091 2e20 81E0      		ldi r24,lo8(1)
 8092 2e22 90E0      		ldi r25,hi8(1)
 8093 2e24 60E0      		ldi r22,lo8(0)
 8094 2e26 70E0      		ldi r23,hi8(0)
 8095 2e28 21E0      		ldi r18,lo8(1)
 8096 2e2a 30E0      		ldi r19,hi8(1)
 8097 2e2c 0E94 0000 		call lcd_write_int_xy
 8098               	.LM1040:
 8099 2e30 4091 0000 		lds r20,path_array+4
 8100 2e34 5091 0000 		lds r21,(path_array+4)+1
 8101 2e38 83E0      		ldi r24,lo8(3)
 8102 2e3a 90E0      		ldi r25,hi8(3)
 8103 2e3c 60E0      		ldi r22,lo8(0)
 8104 2e3e 70E0      		ldi r23,hi8(0)
 8105 2e40 21E0      		ldi r18,lo8(1)
 8106 2e42 30E0      		ldi r19,hi8(1)
 8107 2e44 0E94 0000 		call lcd_write_int_xy
 8108               	.LM1041:
 8109 2e48 4091 0000 		lds r20,path_array+6
 8110 2e4c 5091 0000 		lds r21,(path_array+6)+1
 8111 2e50 84E0      		ldi r24,lo8(4)
 8112 2e52 90E0      		ldi r25,hi8(4)
 8113 2e54 60E0      		ldi r22,lo8(0)
 8114 2e56 70E0      		ldi r23,hi8(0)
 8115 2e58 21E0      		ldi r18,lo8(1)
 8116 2e5a 30E0      		ldi r19,hi8(1)
 8117 2e5c 0E94 0000 		call lcd_write_int_xy
 8118               	.LM1042:
 8119 2e60 4091 0000 		lds r20,path_array+8
 8120 2e64 5091 0000 		lds r21,(path_array+8)+1
 8121 2e68 86E0      		ldi r24,lo8(6)
 8122 2e6a 90E0      		ldi r25,hi8(6)
 8123 2e6c 60E0      		ldi r22,lo8(0)
 8124 2e6e 70E0      		ldi r23,hi8(0)
 8125 2e70 21E0      		ldi r18,lo8(1)
 8126 2e72 30E0      		ldi r19,hi8(1)
 8127 2e74 0E94 0000 		call lcd_write_int_xy
 8128               	.LM1043:
 8129 2e78 4091 0000 		lds r20,path_array+10
 8130 2e7c 5091 0000 		lds r21,(path_array+10)+1
 8131 2e80 87E0      		ldi r24,lo8(7)
 8132 2e82 90E0      		ldi r25,hi8(7)
 8133 2e84 60E0      		ldi r22,lo8(0)
 8134 2e86 70E0      		ldi r23,hi8(0)
 8135 2e88 21E0      		ldi r18,lo8(1)
 8136 2e8a 30E0      		ldi r19,hi8(1)
 8137 2e8c 0E94 0000 		call lcd_write_int_xy
 8138               	.LM1044:
 8139 2e90 4091 0000 		lds r20,path_array+12
 8140 2e94 5091 0000 		lds r21,(path_array+12)+1
 8141 2e98 89E0      		ldi r24,lo8(9)
 8142 2e9a 90E0      		ldi r25,hi8(9)
 8143 2e9c 60E0      		ldi r22,lo8(0)
 8144 2e9e 70E0      		ldi r23,hi8(0)
 8145 2ea0 21E0      		ldi r18,lo8(1)
 8146 2ea2 30E0      		ldi r19,hi8(1)
 8147 2ea4 0E94 0000 		call lcd_write_int_xy
 8148               	.LM1045:
 8149 2ea8 4091 0000 		lds r20,path_array+14
 8150 2eac 5091 0000 		lds r21,(path_array+14)+1
 8151 2eb0 8AE0      		ldi r24,lo8(10)
 8152 2eb2 90E0      		ldi r25,hi8(10)
 8153 2eb4 60E0      		ldi r22,lo8(0)
 8154 2eb6 70E0      		ldi r23,hi8(0)
 8155 2eb8 21E0      		ldi r18,lo8(1)
 8156 2eba 30E0      		ldi r19,hi8(1)
 8157 2ebc 0E94 0000 		call lcd_write_int_xy
 8158               	.LM1046:
 8159 2ec0 4091 0000 		lds r20,path_array+16
 8160 2ec4 5091 0000 		lds r21,(path_array+16)+1
 8161 2ec8 8CE0      		ldi r24,lo8(12)
 8162 2eca 90E0      		ldi r25,hi8(12)
 8163 2ecc 60E0      		ldi r22,lo8(0)
 8164 2ece 70E0      		ldi r23,hi8(0)
 8165 2ed0 21E0      		ldi r18,lo8(1)
 8166 2ed2 30E0      		ldi r19,hi8(1)
 8167 2ed4 0E94 0000 		call lcd_write_int_xy
 8168               	.LM1047:
 8169 2ed8 4091 0000 		lds r20,path_array+18
 8170 2edc 5091 0000 		lds r21,(path_array+18)+1
 8171 2ee0 8DE0      		ldi r24,lo8(13)
 8172 2ee2 90E0      		ldi r25,hi8(13)
 8173 2ee4 60E0      		ldi r22,lo8(0)
 8174 2ee6 70E0      		ldi r23,hi8(0)
 8175 2ee8 21E0      		ldi r18,lo8(1)
 8176 2eea 30E0      		ldi r19,hi8(1)
 8177 2eec 0E94 0000 		call lcd_write_int_xy
 8178               	.LM1048:
 8179 2ef0 4091 0000 		lds r20,path_array+20
 8180 2ef4 5091 0000 		lds r21,(path_array+20)+1
 8181 2ef8 80E0      		ldi r24,lo8(0)
 8182 2efa 90E0      		ldi r25,hi8(0)
 8183 2efc 61E0      		ldi r22,lo8(1)
 8184 2efe 70E0      		ldi r23,hi8(1)
 8185 2f00 21E0      		ldi r18,lo8(1)
 8186 2f02 30E0      		ldi r19,hi8(1)
 8187 2f04 0E94 0000 		call lcd_write_int_xy
 8188               	.LM1049:
 8189 2f08 4091 0000 		lds r20,path_array+22
 8190 2f0c 5091 0000 		lds r21,(path_array+22)+1
 8191 2f10 81E0      		ldi r24,lo8(1)
 8192 2f12 90E0      		ldi r25,hi8(1)
 8193 2f14 61E0      		ldi r22,lo8(1)
 8194 2f16 70E0      		ldi r23,hi8(1)
 8195 2f18 21E0      		ldi r18,lo8(1)
 8196 2f1a 30E0      		ldi r19,hi8(1)
 8197 2f1c 0E94 0000 		call lcd_write_int_xy
 8198               	.L536:
 8199               	.LBB707:
 8200               	.LBB708:
 8201               	.LM1050:
 8202 2f20 8299      		sbic 48-32,2
 8203 2f22 00C0      		rjmp .L532
 8204               	.L535:
 8205               	.LBE708:
 8206               	.LBE707:
 8207               	.LM1051:
 8208 2f24 81E0      		ldi r24,lo8(1)
 8209 2f26 60E0      		ldi r22,lo8(0)
 8210 2f28 0E94 0000 		call lcd_byte
 8211               	.LM1052:
 8212 2f2c 81E0      		ldi r24,lo8(1)
 8213 2f2e 90E0      		ldi r25,hi8(1)
 8214 2f30 0E94 0000 		call delay_sec
 8215               	.L534:
 8216               	.LBB709:
 8217               	.LM1053:
 8218 2f34 F701      		movw r30,r14
 8219 2f36 2081      		ld r18,Z
 8220 2f38 3181      		ldd r19,Z+1
 8221 2f3a 2115      		cp r18,__zero_reg__
 8222 2f3c 3105      		cpc r19,__zero_reg__
 8223 2f3e 01F4      		brne .L533
 8224 2f40 8281      		ldd r24,Z+2
 8225 2f42 9381      		ldd r25,Z+3
 8226 2f44 892B      		or r24,r25
 8227 2f46 01F4      		brne .+2
 8228 2f48 00C0      		rjmp .L544
 8229               	.L533:
 8230               	.LM1054:
 8231 2f4a F701      		movw r30,r14
 8232 2f4c 6281      		ldd r22,Z+2
 8233 2f4e 7381      		ldd r23,Z+3
 8234 2f50 C901      		movw r24,r18
 8235 2f52 0E94 0000 		call go_to_coordinate
 8236 2f56 84E0      		ldi r24,lo8(4)
 8237 2f58 90E0      		ldi r25,hi8(4)
 8238 2f5a E80E      		add r14,r24
 8239 2f5c F91E      		adc r15,r25
 8240               	.LM1055:
 8241 2f5e 90E0      		ldi r25,lo8(path_array+60)
 8242 2f60 E916      		cp r14,r25
 8243 2f62 90E0      		ldi r25,hi8(path_array+60)
 8244 2f64 F906      		cpc r15,r25
 8245 2f66 01F4      		brne .L534
 8246 2f68 00C0      		rjmp .L544
 8247               	.L532:
 8248               	.LBE709:
 8249               	.LBB710:
 8250               	.LBB711:
 8251               	.LM1056:
 8252 2f6a 809B      		sbis 48-32,0
 8253 2f6c 00C0      		rjmp .L535
 8254               	.LBE711:
 8255               	.LBE710:
 8256               	.LBB712:
 8257               	.LBB713:
 8258               	.LM1057:
 8259 2f6e 819B      		sbis 48-32,1
 8260 2f70 00C0      		rjmp .L535
 8261               	.LBE713:
 8262               	.LBE712:
 8263               	.LBB714:
 8264               	.LBB715:
 8265               	.LM1058:
 8266 2f72 839B      		sbis 48-32,3
 8267 2f74 00C0      		rjmp .L535
 8268 2f76 00C0      		rjmp .L536
 8269               	.LBE715:
 8270               	.LBE714:
 8271               	.LBE705:
 8272               	.LFE76:
 8274               	.global	map_all
 8276               	map_all:
 8277               	.LFB75:
 8278               	.LM1059:
 8279 2f78 EF92      		push r14
 8280 2f7a FF92      		push r15
 8281 2f7c 0F93      		push r16
 8282 2f7e 1F93      		push r17
 8283 2f80 CF93      		push r28
 8284 2f82 DF93      		push r29
 8285               	/* prologue: function */
 8286               	/* frame size = 0 */
 8287               	.LBB716:
 8288               	.LBB717:
 8289               	.LM1060:
 8290 2f84 7FE8      		ldi r23,lo8(399)
 8291 2f86 E72E      		mov r14,r23
 8292 2f88 71E0      		ldi r23,hi8(399)
 8293 2f8a F72E      		mov r15,r23
 8294               	.L562:
 8295               	.LBE717:
 8296               	.LBE716:
 8297               	.LBB719:
 8298               	.LBB720:
 8299               	.LM1061:
 8300 2f8c AC9A      		sbi 53-32,4
 8301               	.LM1062:
 8302 2f8e AD9A      		sbi 53-32,5
 8303               	.LM1063:
 8304 2f90 AE9A      		sbi 53-32,6
 8305               	.LM1064:
 8306 2f92 AF9A      		sbi 53-32,7
 8307               	.LBE720:
 8308               	.LBE719:
 8309               	.LM1065:
 8310 2f94 6091 0000 		lds r22,y_coordinate
 8311 2f98 7091 0000 		lds r23,(y_coordinate)+1
 8312 2f9c 4091 0000 		lds r20,mx
 8313 2fa0 5091 0000 		lds r21,(mx)+1
 8314 2fa4 2091 0000 		lds r18,my
 8315 2fa8 3091 0000 		lds r19,(my)+1
 8316 2fac 8091 0000 		lds r24,x_coordinate
 8317 2fb0 9091 0000 		lds r25,(x_coordinate)+1
 8318 2fb4 0E94 0000 		call build_map
 8319               	.LM1066:
 8320 2fb8 0E94 0000 		call get_path
 8321               	.LM1067:
 8322 2fbc 1092 0000 		sts (right)+1,__zero_reg__
 8323 2fc0 1092 0000 		sts right,__zero_reg__
 8324               	.LM1068:
 8325 2fc4 81E0      		ldi r24,lo8(1)
 8326 2fc6 60E0      		ldi r22,lo8(0)
 8327 2fc8 0E94 0000 		call lcd_byte
 8328               	.LM1069:
 8329 2fcc 4091 0000 		lds r20,path_array
 8330 2fd0 5091 0000 		lds r21,(path_array)+1
 8331 2fd4 80E0      		ldi r24,lo8(0)
 8332 2fd6 90E0      		ldi r25,hi8(0)
 8333 2fd8 60E0      		ldi r22,lo8(0)
 8334 2fda 70E0      		ldi r23,hi8(0)
 8335 2fdc 22E0      		ldi r18,lo8(2)
 8336 2fde 30E0      		ldi r19,hi8(2)
 8337 2fe0 0E94 0000 		call lcd_write_int_xy
 8338               	.LM1070:
 8339 2fe4 4091 0000 		lds r20,path_array+2
 8340 2fe8 5091 0000 		lds r21,(path_array+2)+1
 8341 2fec 83E0      		ldi r24,lo8(3)
 8342 2fee 90E0      		ldi r25,hi8(3)
 8343 2ff0 60E0      		ldi r22,lo8(0)
 8344 2ff2 70E0      		ldi r23,hi8(0)
 8345 2ff4 22E0      		ldi r18,lo8(2)
 8346 2ff6 30E0      		ldi r19,hi8(2)
 8347 2ff8 0E94 0000 		call lcd_write_int_xy
 8348               	.LM1071:
 8349 2ffc 4091 0000 		lds r20,path_array+4
 8350 3000 5091 0000 		lds r21,(path_array+4)+1
 8351 3004 86E0      		ldi r24,lo8(6)
 8352 3006 90E0      		ldi r25,hi8(6)
 8353 3008 60E0      		ldi r22,lo8(0)
 8354 300a 70E0      		ldi r23,hi8(0)
 8355 300c 22E0      		ldi r18,lo8(2)
 8356 300e 30E0      		ldi r19,hi8(2)
 8357 3010 0E94 0000 		call lcd_write_int_xy
 8358               	.LM1072:
 8359 3014 4091 0000 		lds r20,path_array+6
 8360 3018 5091 0000 		lds r21,(path_array+6)+1
 8361 301c 89E0      		ldi r24,lo8(9)
 8362 301e 90E0      		ldi r25,hi8(9)
 8363 3020 60E0      		ldi r22,lo8(0)
 8364 3022 70E0      		ldi r23,hi8(0)
 8365 3024 22E0      		ldi r18,lo8(2)
 8366 3026 30E0      		ldi r19,hi8(2)
 8367 3028 0E94 0000 		call lcd_write_int_xy
 8368 302c C0E0      		ldi r28,lo8(path_array)
 8369 302e D0E0      		ldi r29,hi8(path_array)
 8370               	.L549:
 8371               	.LBB721:
 8372               	.LM1073:
 8373 3030 2881      		ld r18,Y
 8374 3032 3981      		ldd r19,Y+1
 8375 3034 2115      		cp r18,__zero_reg__
 8376 3036 3105      		cpc r19,__zero_reg__
 8377 3038 01F4      		brne .L547
 8378 303a 8A81      		ldd r24,Y+2
 8379 303c 9B81      		ldd r25,Y+3
 8380 303e 892B      		or r24,r25
 8381 3040 01F0      		breq .L548
 8382               	.L547:
 8383               	.LM1074:
 8384 3042 6A81      		ldd r22,Y+2
 8385 3044 7B81      		ldd r23,Y+3
 8386 3046 C901      		movw r24,r18
 8387 3048 0E94 0000 		call go_to_coordinate
 8388 304c 2496      		adiw r28,4
 8389               	.LM1075:
 8390 304e 80E0      		ldi r24,hi8(path_array+60)
 8391 3050 C030      		cpi r28,lo8(path_array+60)
 8392 3052 D807      		cpc r29,r24
 8393 3054 01F4      		brne .L549
 8394               	.L548:
 8395               	.LBE721:
 8396               	.LM1076:
 8397 3056 C091 0000 		lds r28,x_coordinate
 8398 305a D091 0000 		lds r29,(x_coordinate)+1
 8399 305e 0091 0000 		lds r16,y_coordinate
 8400 3062 1091 0000 		lds r17,(y_coordinate)+1
 8401 3066 FE01      		movw r30,r28
 8402 3068 EE0F      		lsl r30
 8403 306a FF1F      		rol r31
 8404 306c CE01      		movw r24,r28
 8405 306e 53E0      		ldi r21,3
 8406 3070 880F      	1:	lsl r24
 8407 3072 991F      		rol r25
 8408 3074 5A95      		dec r21
 8409 3076 01F4      		brne 1b
 8410 3078 E80F      		add r30,r24
 8411 307a F91F      		adc r31,r25
 8412 307c E00F      		add r30,r16
 8413 307e F11F      		adc r31,r17
 8414 3080 43E0      		ldi r20,3
 8415 3082 EE0F      	1:	lsl r30
 8416 3084 FF1F      		rol r31
 8417 3086 4A95      		dec r20
 8418 3088 01F4      		brne 1b
 8419 308a E050      		subi r30,lo8(-(dir_array))
 8420 308c F040      		sbci r31,hi8(-(dir_array))
 8421 308e 8081      		ld r24,Z
 8422 3090 9181      		ldd r25,Z+1
 8423 3092 0197      		sbiw r24,1
 8424 3094 01F4      		brne .L550
 8425 3096 B801      		movw r22,r16
 8426 3098 6F5F      		subi r22,lo8(-(1))
 8427 309a 7F4F      		sbci r23,hi8(-(1))
 8428 309c CE01      		movw r24,r28
 8429 309e 0E94 0000 		call is_coordinate_null
 8430 30a2 892B      		or r24,r25
 8431 30a4 01F0      		breq .L550
 8432               	.LM1077:
 8433 30a6 82E0      		ldi r24,lo8(2)
 8434 30a8 90E0      		ldi r25,hi8(2)
 8435 30aa 00C0      		rjmp .L563
 8436               	.L550:
 8437               	.LM1078:
 8438 30ac FE01      		movw r30,r28
 8439 30ae EE0F      		lsl r30
 8440 30b0 FF1F      		rol r31
 8441 30b2 CE01      		movw r24,r28
 8442 30b4 23E0      		ldi r18,3
 8443 30b6 880F      	1:	lsl r24
 8444 30b8 991F      		rol r25
 8445 30ba 2A95      		dec r18
 8446 30bc 01F4      		brne 1b
 8447 30be E80F      		add r30,r24
 8448 30c0 F91F      		adc r31,r25
 8449 30c2 E00F      		add r30,r16
 8450 30c4 F11F      		adc r31,r17
 8451 30c6 83E0      		ldi r24,3
 8452 30c8 EE0F      	1:	lsl r30
 8453 30ca FF1F      		rol r31
 8454 30cc 8A95      		dec r24
 8455 30ce 01F4      		brne 1b
 8456 30d0 E050      		subi r30,lo8(-(dir_array+2))
 8457 30d2 F040      		sbci r31,hi8(-(dir_array+2))
 8458 30d4 8081      		ld r24,Z
 8459 30d6 9181      		ldd r25,Z+1
 8460 30d8 0197      		sbiw r24,1
 8461 30da 01F4      		brne .L552
 8462 30dc CE01      		movw r24,r28
 8463 30de 0196      		adiw r24,1
 8464 30e0 B801      		movw r22,r16
 8465 30e2 0E94 0000 		call is_coordinate_null
 8466 30e6 892B      		or r24,r25
 8467 30e8 01F0      		breq .L552
 8468               	.LM1079:
 8469 30ea 81E0      		ldi r24,lo8(1)
 8470 30ec 90E0      		ldi r25,hi8(1)
 8471 30ee 00C0      		rjmp .L563
 8472               	.L552:
 8473               	.LM1080:
 8474 30f0 FE01      		movw r30,r28
 8475 30f2 EE0F      		lsl r30
 8476 30f4 FF1F      		rol r31
 8477 30f6 CE01      		movw r24,r28
 8478 30f8 A3E0      		ldi r26,3
 8479 30fa 880F      	1:	lsl r24
 8480 30fc 991F      		rol r25
 8481 30fe AA95      		dec r26
 8482 3100 01F4      		brne 1b
 8483 3102 E80F      		add r30,r24
 8484 3104 F91F      		adc r31,r25
 8485 3106 E00F      		add r30,r16
 8486 3108 F11F      		adc r31,r17
 8487 310a 73E0      		ldi r23,3
 8488 310c EE0F      	1:	lsl r30
 8489 310e FF1F      		rol r31
 8490 3110 7A95      		dec r23
 8491 3112 01F4      		brne 1b
 8492 3114 E050      		subi r30,lo8(-(dir_array+4))
 8493 3116 F040      		sbci r31,hi8(-(dir_array+4))
 8494 3118 8081      		ld r24,Z
 8495 311a 9181      		ldd r25,Z+1
 8496 311c 0197      		sbiw r24,1
 8497 311e 01F4      		brne .L553
 8498 3120 B801      		movw r22,r16
 8499 3122 6150      		subi r22,lo8(-(-1))
 8500 3124 7040      		sbci r23,hi8(-(-1))
 8501 3126 CE01      		movw r24,r28
 8502 3128 0E94 0000 		call is_coordinate_null
 8503 312c 892B      		or r24,r25
 8504 312e 01F0      		breq .L553
 8505               	.LM1081:
 8506 3130 8EEF      		ldi r24,lo8(-2)
 8507 3132 9FEF      		ldi r25,hi8(-2)
 8508 3134 00C0      		rjmp .L563
 8509               	.L553:
 8510               	.LM1082:
 8511 3136 FE01      		movw r30,r28
 8512 3138 EE0F      		lsl r30
 8513 313a FF1F      		rol r31
 8514 313c CE01      		movw r24,r28
 8515 313e 53E0      		ldi r21,3
 8516 3140 880F      	1:	lsl r24
 8517 3142 991F      		rol r25
 8518 3144 5A95      		dec r21
 8519 3146 01F4      		brne 1b
 8520 3148 E80F      		add r30,r24
 8521 314a F91F      		adc r31,r25
 8522 314c E00F      		add r30,r16
 8523 314e F11F      		adc r31,r17
 8524 3150 43E0      		ldi r20,3
 8525 3152 EE0F      	1:	lsl r30
 8526 3154 FF1F      		rol r31
 8527 3156 4A95      		dec r20
 8528 3158 01F4      		brne 1b
 8529 315a E050      		subi r30,lo8(-(dir_array))
 8530 315c F040      		sbci r31,hi8(-(dir_array))
 8531 315e 8681      		ldd r24,Z+6
 8532 3160 9781      		ldd r25,Z+7
 8533 3162 0197      		sbiw r24,1
 8534 3164 01F4      		brne .L551
 8535 3166 CE01      		movw r24,r28
 8536 3168 0197      		sbiw r24,1
 8537 316a B801      		movw r22,r16
 8538 316c 0E94 0000 		call is_coordinate_null
 8539 3170 892B      		or r24,r25
 8540 3172 01F0      		breq .L551
 8541               	.LM1083:
 8542 3174 8FEF      		ldi r24,lo8(-1)
 8543 3176 9FEF      		ldi r25,hi8(-1)
 8544               	.L563:
 8545 3178 0E94 0000 		call checkAndCorrectDirection
 8546               	.L551:
 8547               	.LBB722:
 8548               	.LBB723:
 8549               	.LM1084:
 8550 317c AC9A      		sbi 53-32,4
 8551               	.LM1085:
 8552 317e AD9A      		sbi 53-32,5
 8553               	.LM1086:
 8554 3180 AE9A      		sbi 53-32,6
 8555               	.LM1087:
 8556 3182 AF9A      		sbi 53-32,7
 8557               	.LBE723:
 8558               	.LBE722:
 8559               	.LM1088:
 8560 3184 1092 0000 		sts (Coordinates_changed_by)+1,__zero_reg__
 8561 3188 1092 0000 		sts Coordinates_changed_by,__zero_reg__
 8562               	.LM1089:
 8563 318c 1092 0000 		sts (irc)+1,__zero_reg__
 8564 3190 1092 0000 		sts irc,__zero_reg__
 8565               	.LM1090:
 8566 3194 1092 0000 		sts (special_flag)+1,__zero_reg__
 8567 3198 1092 0000 		sts special_flag,__zero_reg__
 8568               	.LM1091:
 8569 319c 1092 0000 		sts (repeat)+1,__zero_reg__
 8570 31a0 1092 0000 		sts repeat,__zero_reg__
 8571 31a4 00C0      		rjmp .L554
 8572               	.L556:
 8573               	.LM1092:
 8574 31a6 0E94 0000 		call line_track_new
 8575               	.LM1093:
 8576 31aa 85B3      		in r24,53-32
 8577 31ac 807F      		andi r24,lo8(-16)
 8578 31ae 85BB      		out 53-32,r24
 8579               	.LM1094:
 8580 31b0 85B3      		in r24,53-32
 8581 31b2 9091 0000 		lds r25,sensorbyte
 8582 31b6 892B      		or r24,r25
 8583 31b8 85BB      		out 53-32,r24
 8584               	.LM1095:
 8585 31ba CF99      		sbic 57-32,7
 8586 31bc 00C0      		rjmp .L555
 8587               	.LM1096:
 8588 31be 0E94 0000 		call right_junc_check
 8589               	.L555:
 8590               	.LM1097:
 8591 31c2 0E94 0000 		call left_junc_check
 8592               	.LM1098:
 8593 31c6 0E94 0000 		call frSensorCheck
 8594               	.LM1099:
 8595 31ca 8091 0000 		lds r24,irc
 8596 31ce 9091 0000 		lds r25,(irc)+1
 8597 31d2 0196      		adiw r24,1
 8598 31d4 9093 0000 		sts (irc)+1,r25
 8599 31d8 8093 0000 		sts irc,r24
 8600               	.L554:
 8601               	.LM1100:
 8602 31dc 8091 0000 		lds r24,repeat
 8603 31e0 9091 0000 		lds r25,(repeat)+1
 8604 31e4 892B      		or r24,r25
 8605 31e6 01F0      		breq .L556
 8606               	.LBB724:
 8607               	.LBB718:
 8608               	.LM1101:
 8609 31e8 FBBC      		out (74)+1-32,r15
 8610 31ea EABC      		out 74-32,r14
 8611               	.LBE718:
 8612               	.LBE724:
 8613               	.LBB725:
 8614               	.LBB726:
 8615               	.LM1102:
 8616 31ec F9BC      		out (72)+1-32,r15
 8617 31ee E8BC      		out 72-32,r14
 8618               	.LBE726:
 8619               	.LBE725:
 8620               	.LBB727:
 8621               	.LBB728:
 8622               	.LM1103:
 8623 31f0 AC9A      		sbi 53-32,4
 8624               	.LM1104:
 8625 31f2 AD9A      		sbi 53-32,5
 8626               	.LM1105:
 8627 31f4 AE9A      		sbi 53-32,6
 8628               	.LM1106:
 8629 31f6 AF9A      		sbi 53-32,7
 8630               	.LBE728:
 8631               	.LBE727:
 8632               	.LM1107:
 8633 31f8 0E94 0000 		call fill_missed_array
 8634               	.LM1108:
 8635 31fc 1092 0000 		sts (mx)+1,__zero_reg__
 8636 3200 1092 0000 		sts mx,__zero_reg__
 8637               	.LM1109:
 8638 3204 1092 0000 		sts (my)+1,__zero_reg__
 8639 3208 1092 0000 		sts my,__zero_reg__
 8640               	.LM1110:
 8641 320c 0E94 0000 		call coordinates_tobe_reached
 8642               	.LM1111:
 8643 3210 8091 0000 		lds r24,mx
 8644 3214 9091 0000 		lds r25,(mx)+1
 8645 3218 892B      		or r24,r25
 8646 321a 01F0      		breq .+2
 8647 321c 00C0      		rjmp .L562
 8648 321e 8091 0000 		lds r24,my
 8649 3222 9091 0000 		lds r25,(my)+1
 8650 3226 892B      		or r24,r25
 8651 3228 01F0      		breq .+2
 8652 322a 00C0      		rjmp .L562
 8653               	/* epilogue start */
 8654               	.LM1112:
 8655 322c DF91      		pop r29
 8656 322e CF91      		pop r28
 8657 3230 1F91      		pop r17
 8658 3232 0F91      		pop r16
 8659 3234 FF90      		pop r15
 8660 3236 EF90      		pop r14
 8661 3238 0895      		ret
 8662               	.LFE75:
 8664               	.global	retrieve_threshold
 8666               	retrieve_threshold:
 8667               	.LFB52:
 8668               	.LM1113:
 8669               	/* prologue: function */
 8670               	/* frame size = 0 */
 8671               	.LBB729:
 8672               	.LM1114:
 8673 323a 80E0      		ldi r24,lo8(0)
 8674 323c 90E0      		ldi r25,hi8(0)
 8675 323e 0E94 0000 		call __eerd_byte_m32
 8676 3242 8093 0000 		sts threshold1,r24
 8677 3246 81E0      		ldi r24,lo8(1)
 8678 3248 90E0      		ldi r25,hi8(1)
 8679 324a 0E94 0000 		call __eerd_byte_m32
 8680 324e 8093 0000 		sts threshold1+1,r24
 8681 3252 82E0      		ldi r24,lo8(2)
 8682 3254 90E0      		ldi r25,hi8(2)
 8683 3256 0E94 0000 		call __eerd_byte_m32
 8684 325a 8093 0000 		sts threshold1+2,r24
 8685 325e 83E0      		ldi r24,lo8(3)
 8686 3260 90E0      		ldi r25,hi8(3)
 8687 3262 0E94 0000 		call __eerd_byte_m32
 8688 3266 8093 0000 		sts threshold1+3,r24
 8689               	/* epilogue start */
 8690               	.LBE729:
 8691               	.LM1115:
 8692 326a 0895      		ret
 8693               	.LFE52:
 8695               	.global	set_threshold
 8697               	set_threshold:
 8698               	.LFB17:
 8699               	.LM1116:
 8700 326c CF93      		push r28
 8701 326e DF93      		push r29
 8702               	/* prologue: function */
 8703               	/* frame size = 0 */
 8704               	.LM1117:
 8705 3270 2091 0000 		lds r18,min
 8706 3274 8091 0000 		lds r24,max
 8707 3278 90E0      		ldi r25,lo8(0)
 8708 327a 820F      		add r24,r18
 8709 327c 911D      		adc r25,__zero_reg__
 8710 327e 9595      		asr r25
 8711 3280 8795      		ror r24
 8712 3282 8093 0000 		sts threshold1,r24
 8713 3286 2091 0000 		lds r18,min+1
 8714 328a 8091 0000 		lds r24,max+1
 8715 328e 90E0      		ldi r25,lo8(0)
 8716 3290 820F      		add r24,r18
 8717 3292 911D      		adc r25,__zero_reg__
 8718 3294 9595      		asr r25
 8719 3296 8795      		ror r24
 8720 3298 8093 0000 		sts threshold1+1,r24
 8721 329c 2091 0000 		lds r18,min+2
 8722 32a0 8091 0000 		lds r24,max+2
 8723 32a4 90E0      		ldi r25,lo8(0)
 8724 32a6 820F      		add r24,r18
 8725 32a8 911D      		adc r25,__zero_reg__
 8726 32aa 9595      		asr r25
 8727 32ac 8795      		ror r24
 8728 32ae 8093 0000 		sts threshold1+2,r24
 8729 32b2 2091 0000 		lds r18,min+3
 8730 32b6 8091 0000 		lds r24,max+3
 8731 32ba 90E0      		ldi r25,lo8(0)
 8732 32bc 820F      		add r24,r18
 8733 32be 911D      		adc r25,__zero_reg__
 8734 32c0 9595      		asr r25
 8735 32c2 8795      		ror r24
 8736 32c4 8093 0000 		sts threshold1+3,r24
 8737 32c8 C0E0      		ldi r28,lo8(0)
 8738 32ca D0E0      		ldi r29,hi8(0)
 8739               	.LVL220:
 8740               	.L567:
 8741               	.LBB730:
 8742               	.LM1118:
 8743 32cc FE01      		movw r30,r28
 8744 32ce E050      		subi r30,lo8(-(threshold1))
 8745 32d0 F040      		sbci r31,hi8(-(threshold1))
 8746 32d2 CE01      		movw r24,r28
 8747 32d4 6081      		ld r22,Z
 8748 32d6 0E94 0000 		call __eewr_byte_m32
 8749               	.LM1119:
 8750 32da 2196      		adiw r28,1
 8751 32dc C430      		cpi r28,4
 8752 32de D105      		cpc r29,__zero_reg__
 8753 32e0 01F4      		brne .L567
 8754               	/* epilogue start */
 8755               	.LBE730:
 8756               	.LM1120:
 8757 32e2 DF91      		pop r29
 8758 32e4 CF91      		pop r28
 8759               	.LVL221:
 8760 32e6 0895      		ret
 8761               	.LFE17:
 8763               	.global	sensorbyte
 8764               	.global	sensorbyte
 8765               		.section .bss
 8768               	sensorbyte:
 8769 0000 00        		.skip 1,0
 8770               	.global	mpos
 8771               	.global	mpos
 8774               	mpos:
 8775 0001 0000      		.skip 2,0
 8776               	.global	opt
 8777               		.data
 8780               	opt:
 8781 008d FF00      		.word	255
 8782               	.global	kp
 8785               	kp:
 8786 008f 00        		.byte	0
 8787 0090 00        		.byte	0
 8788 0091 70        		.byte	112
 8789 0092 41        		.byte	65
 8790               	.global	kd
 8793               	kd:
 8794 0093 66        		.byte	102
 8795 0094 66        		.byte	102
 8796 0095 46        		.byte	70
 8797 0096 40        		.byte	64
 8798               	.global	flcount
 8799               	.global	flcount
 8800               		.section .bss
 8803               	flcount:
 8804 0003 0000      		.skip 2,0
 8805               	.global	l
 8806               	.global	l
 8809               	l:
 8810 0005 0000      		.skip 2,0
 8811               	.global	lcount
 8812               	.global	lcount
 8815               	lcount:
 8816 0007 0000      		.skip 2,0
 8817               	.global	straight
 8818               	.global	straight
 8821               	straight:
 8822 0009 0000      		.skip 2,0
 8823               	.global	lcountPrev
 8824               	.global	lcountPrev
 8827               	lcountPrev:
 8828 000b 0000      		.skip 2,0
 8829               	.global	flag1
 8830               	.global	flag1
 8833               	flag1:
 8834 000d 0000      		.skip 2,0
 8835               	.global	irc
 8836               	.global	irc
 8839               	irc:
 8840 000f 0000      		.skip 2,0
 8841               	.global	lcount_forStraight_prev
 8842               	.global	lcount_forStraight_prev
 8845               	lcount_forStraight_prev:
 8846 0011 0000      		.skip 2,0
 8847               	.global	temp
 8848               	.global	temp
 8851               	temp:
 8852 0013 0000      		.skip 2,0
 8853               	.global	temp_forStraight
 8854               	.global	temp_forStraight
 8857               	temp_forStraight:
 8858 0015 0000      		.skip 2,0
 8859               	.global	turn
 8860               		.data
 8863               	turn:
 8864 0097 73        		.byte	115
 8865               	.global	dir
 8868               	dir:
 8869 0098 0200      		.word	2
 8870               	.global	Coordinates_changed_by
 8871               	.global	Coordinates_changed_by
 8872               		.section .bss
 8875               	Coordinates_changed_by:
 8876 0017 0000      		.skip 2,0
 8877               	.global	x_coordinate
 8878               		.data
 8881               	x_coordinate:
 8882 009a 0400      		.word	4
 8883               	.global	y_coordinate
 8886               	y_coordinate:
 8887 009c 0400      		.word	4
 8888               	.global	mx
 8889               	.global	mx
 8890               		.section .bss
 8893               	mx:
 8894 0019 0000      		.skip 2,0
 8895               	.global	my
 8896               	.global	my
 8899               	my:
 8900 001b 0000      		.skip 2,0
 8901               	.global	special_flag
 8902               	.global	special_flag
 8905               	special_flag:
 8906 001d 0000      		.skip 2,0
 8907               	.global	repeat
 8908               	.global	repeat
 8911               	repeat:
 8912 001f 0000      		.skip 2,0
 8913               	.global	right_c
 8914               	.global	right_c
 8917               	right_c:
 8918 0021 0000      		.skip 2,0
 8919               	.global	left_c
 8920               	.global	left_c
 8923               	left_c:
 8924 0023 0000      		.skip 2,0
 8925               		.comm min,4,1
 8926               		.comm max,4,1
 8927               		.comm threshold1,4,1
 8928               		.comm control,4,1
 8929               		.comm prev_error,4,1
 8930               		.comm act_error,4,1
 8931               		.comm dir_array,800,1
 8932               		.comm map_array,200,1
 8933               		.comm path_array,60,1
 8934               		.comm right,2,1
 9511               	.Letext0:
DEFINED SYMBOLS
                            *ABS*:00000000 main.c
C:\Users\Chirag\AppData\Local\Temp/ccJfmEkk.s:2      *ABS*:0000003f __SREG__
C:\Users\Chirag\AppData\Local\Temp/ccJfmEkk.s:3      *ABS*:0000003e __SP_H__
C:\Users\Chirag\AppData\Local\Temp/ccJfmEkk.s:4      *ABS*:0000003d __SP_L__
C:\Users\Chirag\AppData\Local\Temp/ccJfmEkk.s:5      *ABS*:00000034 __CCP__
C:\Users\Chirag\AppData\Local\Temp/ccJfmEkk.s:6      *ABS*:00000000 __tmp_reg__
C:\Users\Chirag\AppData\Local\Temp/ccJfmEkk.s:7      *ABS*:00000001 __zero_reg__
C:\Users\Chirag\AppData\Local\Temp/ccJfmEkk.s:18     .text:00000000 port_init
C:\Users\Chirag\AppData\Local\Temp/ccJfmEkk.s:47     .text:00000014 pwm1_init
C:\Users\Chirag\AppData\Local\Temp/ccJfmEkk.s:89     .text:00000038 adc_init
C:\Users\Chirag\AppData\Local\Temp/ccJfmEkk.s:114    .text:0000004a adc_start
C:\Users\Chirag\AppData\Local\Temp/ccJfmEkk.s:144    .text:0000005c delay_sec
C:\Users\Chirag\AppData\Local\Temp/ccJfmEkk.s:208    .text:0000008e delay_millisec
C:\Users\Chirag\AppData\Local\Temp/ccJfmEkk.s:343    .text:00000138 delay_microsec
C:\Users\Chirag\AppData\Local\Temp/ccJfmEkk.s:544    .text:0000023e check_sensors
C:\Users\Chirag\AppData\Local\Temp/ccJfmEkk.s:8768   .bss:00000000 sensorbyte
C:\Users\Chirag\AppData\Local\Temp/ccJfmEkk.s:595    .text:00000286 calibrate_white
                            *COM*:00000004 max
C:\Users\Chirag\AppData\Local\Temp/ccJfmEkk.s:620    .text:000002b0 calibrate_black
                            *COM*:00000004 min
C:\Users\Chirag\AppData\Local\Temp/ccJfmEkk.s:645    .text:000002da flick
C:\Users\Chirag\AppData\Local\Temp/ccJfmEkk.s:687    .text:0000030a set_pwm1a
C:\Users\Chirag\AppData\Local\Temp/ccJfmEkk.s:704    .text:00000310 set_pwm1b
C:\Users\Chirag\AppData\Local\Temp/ccJfmEkk.s:721    .text:00000316 lcd_busy_loop
C:\Users\Chirag\AppData\Local\Temp/ccJfmEkk.s:906    .text:0000036c lcd_byte
C:\Users\Chirag\AppData\Local\Temp/ccJfmEkk.s:1045   .text:000003bc lcd_init
C:\Users\Chirag\AppData\Local\Temp/ccJfmEkk.s:1181   .text:0000041c lcd_write_string
C:\Users\Chirag\AppData\Local\Temp/ccJfmEkk.s:1214   .text:00000438 lcd_write_int
C:\Users\Chirag\AppData\Local\Temp/ccJfmEkk.s:1345   .text:000004f4 lcd_goto_xy
C:\Users\Chirag\AppData\Local\Temp/ccJfmEkk.s:1372   .text:00000506 lcd_write_string_xy
C:\Users\Chirag\AppData\Local\Temp/ccJfmEkk.s:1397   .text:0000051c lcd_write_int_xy
C:\Users\Chirag\AppData\Local\Temp/ccJfmEkk.s:1429   .text:0000053e usart_init
C:\Users\Chirag\AppData\Local\Temp/ccJfmEkk.s:1456   .text:00000552 usart_transmit_char
C:\Users\Chirag\AppData\Local\Temp/ccJfmEkk.s:1475   .text:0000055a usart_transmit_string
C:\Users\Chirag\AppData\Local\Temp/ccJfmEkk.s:1509   .text:0000056e usart_transmit_newline
C:\Users\Chirag\AppData\Local\Temp/ccJfmEkk.s:1543   .text:00000580 usart_receive_char
C:\Users\Chirag\AppData\Local\Temp/ccJfmEkk.s:1561   .text:00000588 bot_motion_init
C:\Users\Chirag\AppData\Local\Temp/ccJfmEkk.s:1576   .text:0000058e bot_left_forward
C:\Users\Chirag\AppData\Local\Temp/ccJfmEkk.s:1596   .text:00000598 bot_left_backward
C:\Users\Chirag\AppData\Local\Temp/ccJfmEkk.s:1616   .text:000005a2 bot_right_forward
C:\Users\Chirag\AppData\Local\Temp/ccJfmEkk.s:1636   .text:000005ac bot_left
C:\Users\Chirag\AppData\Local\Temp/ccJfmEkk.s:1660   .text:000005b6 bot_right
C:\Users\Chirag\AppData\Local\Temp/ccJfmEkk.s:1684   .text:000005c0 bot_right_backward
C:\Users\Chirag\AppData\Local\Temp/ccJfmEkk.s:1704   .text:000005ca bot_forward
C:\Users\Chirag\AppData\Local\Temp/ccJfmEkk.s:1724   .text:000005d4 bot_backward
C:\Users\Chirag\AppData\Local\Temp/ccJfmEkk.s:1744   .text:000005de bot_spot_left
C:\Users\Chirag\AppData\Local\Temp/ccJfmEkk.s:1764   .text:000005e8 bot_spot_right
C:\Users\Chirag\AppData\Local\Temp/ccJfmEkk.s:1784   .text:000005f2 bot_stop
C:\Users\Chirag\AppData\Local\Temp/ccJfmEkk.s:1804   .text:000005fc bot_brake
C:\Users\Chirag\AppData\Local\Temp/ccJfmEkk.s:1824   .text:00000606 switch_init
C:\Users\Chirag\AppData\Local\Temp/ccJfmEkk.s:1844   .text:00000614 pressed_switch0
C:\Users\Chirag\AppData\Local\Temp/ccJfmEkk.s:1864   .text:00000624 pressed_switch1
C:\Users\Chirag\AppData\Local\Temp/ccJfmEkk.s:1886   .text:00000638 pressed_switch2
C:\Users\Chirag\AppData\Local\Temp/ccJfmEkk.s:1910   .text:00000650 pressed_switch3
C:\Users\Chirag\AppData\Local\Temp/ccJfmEkk.s:1935   .text:0000066a line_track
C:\Users\Chirag\AppData\Local\Temp/ccJfmEkk.s:8774   .bss:00000001 mpos
C:\Users\Chirag\AppData\Local\Temp/ccJfmEkk.s:8833   .bss:0000000d flag1
                            *COM*:00000004 prev_error
                            *COM*:00000004 act_error
C:\Users\Chirag\AppData\Local\Temp/ccJfmEkk.s:8785   .data:0000008f kp
C:\Users\Chirag\AppData\Local\Temp/ccJfmEkk.s:8793   .data:00000093 kd
                            *COM*:00000004 control
C:\Users\Chirag\AppData\Local\Temp/ccJfmEkk.s:8780   .data:0000008d opt
C:\Users\Chirag\AppData\Local\Temp/ccJfmEkk.s:2155   .text:0000080c init_devices
C:\Users\Chirag\AppData\Local\Temp/ccJfmEkk.s:2210   .text:0000083c Uturn
C:\Users\Chirag\AppData\Local\Temp/ccJfmEkk.s:8863   .data:00000097 turn
C:\Users\Chirag\AppData\Local\Temp/ccJfmEkk.s:2350   .text:0000089a left_count
C:\Users\Chirag\AppData\Local\Temp/ccJfmEkk.s:8809   .bss:00000005 l
C:\Users\Chirag\AppData\Local\Temp/ccJfmEkk.s:8815   .bss:00000007 lcount
C:\Users\Chirag\AppData\Local\Temp/ccJfmEkk.s:2385   .text:000008d4 special_case_check
C:\Users\Chirag\AppData\Local\Temp/ccJfmEkk.s:2484   .text:00000944 line_track_new
C:\Users\Chirag\AppData\Local\Temp/ccJfmEkk.s:2587   .text:000009b4 end_zone_uturn
C:\Users\Chirag\AppData\Local\Temp/ccJfmEkk.s:2743   .text:00000a30 turn_left
C:\Users\Chirag\AppData\Local\Temp/ccJfmEkk.s:2877   .text:00000a9c turn_right
C:\Users\Chirag\AppData\Local\Temp/ccJfmEkk.s:3019   .text:00000b18 sense_of_directon
C:\Users\Chirag\AppData\Local\Temp/ccJfmEkk.s:8868   .data:00000098 dir
C:\Users\Chirag\AppData\Local\Temp/ccJfmEkk.s:3143   .text:00000be6 is_coordinate_null
                            *COM*:00000320 dir_array
C:\Users\Chirag\AppData\Local\Temp/ccJfmEkk.s:3283   .text:00000cc4 update_array
C:\Users\Chirag\AppData\Local\Temp/ccJfmEkk.s:8881   .data:0000009a x_coordinate
C:\Users\Chirag\AppData\Local\Temp/ccJfmEkk.s:8886   .data:0000009c y_coordinate
C:\Users\Chirag\AppData\Local\Temp/ccJfmEkk.s:3757   .text:00001030 update_coordinates
C:\Users\Chirag\AppData\Local\Temp/ccJfmEkk.s:8875   .bss:00000017 Coordinates_changed_by
C:\Users\Chirag\AppData\Local\Temp/ccJfmEkk.s:8911   .bss:0000001f repeat
C:\Users\Chirag\AppData\Local\Temp/ccJfmEkk.s:4043   .text:000012aa left_junc_check
C:\Users\Chirag\AppData\Local\Temp/ccJfmEkk.s:8839   .bss:0000000f irc
C:\Users\Chirag\AppData\Local\Temp/ccJfmEkk.s:8905   .bss:0000001d special_flag
C:\Users\Chirag\AppData\Local\Temp/ccJfmEkk.s:4205   .text:000013b6 frSensorCheck
C:\Users\Chirag\AppData\Local\Temp/ccJfmEkk.s:4333   .text:0000148a fill_missed_array
C:\Users\Chirag\AppData\Local\Temp/ccJfmEkk.s:4559   .text:000015f4 coordinates_tobe_reached
C:\Users\Chirag\AppData\Local\Temp/ccJfmEkk.s:8893   .bss:00000019 mx
C:\Users\Chirag\AppData\Local\Temp/ccJfmEkk.s:8899   .bss:0000001b my
C:\Users\Chirag\AppData\Local\Temp/ccJfmEkk.s:5143   .text:00001a5c get_path
                            *COM*:0000003c path_array
                            *COM*:000000c8 map_array
C:\Users\Chirag\AppData\Local\Temp/ccJfmEkk.s:5882   .text:00001f7e build_map
C:\Users\Chirag\AppData\Local\Temp/ccJfmEkk.s:6242   .text:000021a6 checkAndCorrectDirection
C:\Users\Chirag\AppData\Local\Temp/ccJfmEkk.s:6501   .text:0000237c go_to_coordinate
                            *COM*:00000002 right
C:\Users\Chirag\AppData\Local\Temp/ccJfmEkk.s:6769   .text:000024ec right_junc_check
C:\Users\Chirag\AppData\Local\Temp/ccJfmEkk.s:8827   .bss:0000000b lcountPrev
C:\Users\Chirag\AppData\Local\Temp/ccJfmEkk.s:8276   .text:00002f78 map_all
C:\Users\Chirag\AppData\Local\Temp/ccJfmEkk.s:8821   .bss:00000009 straight
C:\Users\Chirag\AppData\Local\Temp/ccJfmEkk.s:8851   .bss:00000013 temp
C:\Users\Chirag\AppData\Local\Temp/ccJfmEkk.s:7608   .text:00002a9e main
C:\Users\Chirag\AppData\Local\Temp/ccJfmEkk.s:8666   .text:0000323a retrieve_threshold
                            *COM*:00000004 threshold1
C:\Users\Chirag\AppData\Local\Temp/ccJfmEkk.s:8697   .text:0000326c set_threshold
C:\Users\Chirag\AppData\Local\Temp/ccJfmEkk.s:8803   .bss:00000003 flcount
C:\Users\Chirag\AppData\Local\Temp/ccJfmEkk.s:8845   .bss:00000011 lcount_forStraight_prev
C:\Users\Chirag\AppData\Local\Temp/ccJfmEkk.s:8857   .bss:00000015 temp_forStraight
C:\Users\Chirag\AppData\Local\Temp/ccJfmEkk.s:8917   .bss:00000021 right_c
C:\Users\Chirag\AppData\Local\Temp/ccJfmEkk.s:8923   .bss:00000023 left_c

UNDEFINED SYMBOLS
__floatsisf
__mulsf3
__ltsf2
__gtsf2
__fixunssfsi
__divsf3
__divmodhi4
__subsf3
__floatunsisf
__fixsfsi
__addsf3
__eewr_word_m32
__eerd_word_m32
__eerd_byte_m32
__eewr_byte_m32
__do_copy_data
__do_clear_bss
