   1               		.file	"main.c"
   2               	__SREG__ = 0x3f
   3               	__SP_H__ = 0x3e
   4               	__SP_L__ = 0x3d
   5               	__CCP__  = 0x34
   6               	__tmp_reg__ = 0
   7               	__zero_reg__ = 1
  15               	.Ltext0:
  16               	.global	port_init
  18               	port_init:
  19               	.LFB7:
  20               	.LM1:
  21               	/* prologue: function */
  22               	/* frame size = 0 */
  23               	.LM2:
  24 0000 8FEF      		ldi r24,lo8(-1)
  25 0002 8BBB      		out 59-32,r24
  26               	.LM3:
  27 0004 1ABA      		out 58-32,__zero_reg__
  28               	.LM4:
  29 0006 88BB      		out 56-32,r24
  30               	.LM5:
  31 0008 17BA      		out 55-32,__zero_reg__
  32               	.LM6:
  33 000a 15BA      		out 53-32,__zero_reg__
  34               	.LM7:
  35 000c 84BB      		out 52-32,r24
  36               	.LM8:
  37 000e 82BB      		out 50-32,r24
  38               	.LM9:
  39 0010 11BA      		out 49-32,__zero_reg__
  40               	/* epilogue start */
  41               	.LM10:
  42 0012 0895      		ret
  43               	.LFE7:
  45               	.global	pwm1_init
  47               	pwm1_init:
  48               	.LFB8:
  49               	.LM11:
  50               	/* prologue: function */
  51               	/* frame size = 0 */
  52               	.LM12:
  53 0014 8C9A      		sbi 49-32,4
  54               	.LM13:
  55 0016 8D9A      		sbi 49-32,5
  56               	.LM14:
  57 0018 1EBC      		out 78-32,__zero_reg__
  58               	.LM15:
  59 001a 1DBC      		out 77-32,__zero_reg__
  60               	.LM16:
  61 001c 1CBC      		out 76-32,__zero_reg__
  62               	.LM17:
  63 001e 1BBC      		out 75-32,__zero_reg__
  64               	.LM18:
  65 0020 1ABC      		out 74-32,__zero_reg__
  66               	.LM19:
  67 0022 19BC      		out 73-32,__zero_reg__
  68               	.LM20:
  69 0024 18BC      		out 72-32,__zero_reg__
  70               	.LM21:
  71 0026 81E0      		ldi r24,lo8(1)
  72 0028 87BD      		out 71-32,r24
  73               	.LM22:
  74 002a 8FE8      		ldi r24,lo8(-113)
  75 002c 86BD      		out 70-32,r24
  76               	.LM23:
  77 002e 82EA      		ldi r24,lo8(-94)
  78 0030 8FBD      		out 79-32,r24
  79               	.LM24:
  80 0032 89E1      		ldi r24,lo8(25)
  81 0034 8EBD      		out 78-32,r24
  82               	/* epilogue start */
  83               	.LM25:
  84 0036 0895      		ret
  85               	.LFE8:
  87               	.global	adc_init
  89               	adc_init:
  90               	.LFB9:
  91               	.LM26:
  92               	/* prologue: function */
  93               	/* frame size = 0 */
  94               	.LM27:
  95 0038 1ABA      		out 58-32,__zero_reg__
  96               	.LM28:
  97 003a 16B8      		out 38-32,__zero_reg__
  98               	.LM29:
  99 003c 80E6      		ldi r24,lo8(96)
 100 003e 87B9      		out 39-32,r24
 101               	.LM30:
 102 0040 87E8      		ldi r24,lo8(-121)
 103 0042 86B9      		out 38-32,r24
 104               	.LM31:
 105 0044 80E8      		ldi r24,lo8(-128)
 106 0046 88B9      		out 40-32,r24
 107               	/* epilogue start */
 108               	.LM32:
 109 0048 0895      		ret
 110               	.LFE9:
 112               	.global	adc_start
 114               	adc_start:
 115               	.LFB10:
 116               	.LM33:
 117               	.LVL0:
 118               	/* prologue: function */
 119               	/* frame size = 0 */
 120               	.LM34:
 121 004a 15B8      		out 37-32,__zero_reg__
 122               	.LM35:
 123 004c 8770      		andi r24,lo8(7)
 124               	.LVL1:
 125 004e 8066      		ori r24,lo8(96)
 126 0050 87B9      		out 39-32,r24
 127               	.LM36:
 128 0052 369A      		sbi 38-32,6
 129               	.L8:
 130               	.LM37:
 131 0054 3699      		sbic 38-32,6
 132 0056 00C0      		rjmp .L8
 133               	.LM38:
 134 0058 85B1      		in r24,37-32
 135               	.LVL2:
 136               	.LVL3:
 137               	/* epilogue start */
 138               	.LM39:
 139 005a 0895      		ret
 140               	.LFE10:
 142               	.global	delay_sec
 144               	delay_sec:
 145               	.LFB11:
 146               	.LM40:
 147               	.LVL4:
 148               	/* prologue: function */
 149               	/* frame size = 0 */
 150 005c AC01      		movw r20,r24
 151               	.LM41:
 152 005e 30E0      		ldi r19,lo8(0)
 153               	.LVL5:
 154               	.LBB407:
 155               	.LBB408:
 156               	.LBB409:
 157               	.LBB410:
 158               	.LM42:
 159 0060 60E9      		ldi r22,lo8(400)
 160 0062 71E0      		ldi r23,hi8(400)
 161 0064 00C0      		rjmp .L12
 162               	.LVL6:
 163               	.L13:
 164 0066 FB01      		movw r30,r22
 165               	/* #APP */
 166               	 ;  105 "c:/winavr-20100110/lib/gcc/../../avr/include/util/delay_basic.h" 1
 167 0068 3197      		1: sbiw r30,1
 168 006a 01F4      		brne 1b
 169               	 ;  0 "" 2
 170               	/* #NOAPP */
 171               	.LBE410:
 172               	.LBE409:
 173               	.LM43:
 174 006c 0197      		sbiw r24,1
 175               	.LM44:
 176 006e 01F4      		brne .L13
 177               	.LBE408:
 178               	.LBE407:
 179               	.LM45:
 180 0070 2F5F      		subi r18,lo8(-(1))
 181 0072 2430      		cpi r18,lo8(4)
 182 0074 01F0      		breq .L14
 183               	.LVL7:
 184               	.L16:
 185 0076 84EC      		ldi r24,lo8(2500)
 186 0078 99E0      		ldi r25,hi8(2500)
 187 007a 00C0      		rjmp .L13
 188               	.L14:
 189               	.LM46:
 190 007c 3F5F      		subi r19,lo8(-(1))
 191               	.LVL8:
 192               	.L12:
 193 007e 832F      		mov r24,r19
 194               	.LVL9:
 195 0080 90E0      		ldi r25,lo8(0)
 196 0082 8417      		cp r24,r20
 197 0084 9507      		cpc r25,r21
 198 0086 04F4      		brge .L17
 199               	.LVL10:
 200 0088 20E0      		ldi r18,lo8(0)
 201 008a 00C0      		rjmp .L16
 202               	.L17:
 203 008c 0895      		ret
 204               	.LFE11:
 206               	.global	delay_millisec
 208               	delay_millisec:
 209               	.LFB12:
 210               	.LM47:
 211               	.LVL11:
 212 008e AF92      		push r10
 213 0090 BF92      		push r11
 214 0092 CF92      		push r12
 215 0094 DF92      		push r13
 216 0096 EF92      		push r14
 217 0098 FF92      		push r15
 218 009a 0F93      		push r16
 219 009c 1F93      		push r17
 220               	/* prologue: function */
 221               	/* frame size = 0 */
 222               	.LM48:
 223 009e AA27      		clr r26
 224 00a0 97FD      		sbrc r25,7
 225 00a2 A095      		com r26
 226 00a4 BA2F      		mov r27,r26
 227               	.LVL12:
 228 00a6 BC01      		movw r22,r24
 229 00a8 CD01      		movw r24,r26
 230 00aa 0E94 0000 		call __floatsisf
 231               	.LVL13:
 232 00ae 5B01      		movw r10,r22
 233 00b0 6C01      		movw r12,r24
 234               	.LBB411:
 235               	.LBB412:
 236               	.LM49:
 237 00b2 20E0      		ldi r18,lo8(0x457a0000)
 238 00b4 30E0      		ldi r19,hi8(0x457a0000)
 239 00b6 4AE7      		ldi r20,hlo8(0x457a0000)
 240 00b8 55E4      		ldi r21,hhi8(0x457a0000)
 241 00ba 0E94 0000 		call __mulsf3
 242 00be 7B01      		movw r14,r22
 243 00c0 8C01      		movw r16,r24
 244               	.LM50:
 245 00c2 20E0      		ldi r18,lo8(0x3f800000)
 246 00c4 30E0      		ldi r19,hi8(0x3f800000)
 247 00c6 40E8      		ldi r20,hlo8(0x3f800000)
 248 00c8 5FE3      		ldi r21,hhi8(0x3f800000)
 249 00ca 0E94 0000 		call __ltsf2
 250 00ce 8823      		tst r24
 251 00d0 04F4      		brge .L31
 252 00d2 61E0      		ldi r22,lo8(1)
 253 00d4 70E0      		ldi r23,hi8(1)
 254               	.LVL14:
 255 00d6 00C0      		rjmp .L22
 256               	.LVL15:
 257               	.L31:
 258               	.LM51:
 259 00d8 C801      		movw r24,r16
 260 00da B701      		movw r22,r14
 261 00dc 20E0      		ldi r18,lo8(0x477fff00)
 262 00de 3FEF      		ldi r19,hi8(0x477fff00)
 263 00e0 4FE7      		ldi r20,hlo8(0x477fff00)
 264 00e2 57E4      		ldi r21,hhi8(0x477fff00)
 265 00e4 0E94 0000 		call __gtsf2
 266 00e8 1816      		cp __zero_reg__,r24
 267 00ea 04F4      		brge .L32
 268               	.LM52:
 269 00ec C601      		movw r24,r12
 270 00ee B501      		movw r22,r10
 271 00f0 20E0      		ldi r18,lo8(0x41200000)
 272 00f2 30E0      		ldi r19,hi8(0x41200000)
 273 00f4 40E2      		ldi r20,hlo8(0x41200000)
 274 00f6 51E4      		ldi r21,hhi8(0x41200000)
 275 00f8 0E94 0000 		call __mulsf3
 276 00fc 0E94 0000 		call __fixunssfsi
 277               	.LBB413:
 278               	.LBB414:
 279               	.LM53:
 280 0100 80E9      		ldi r24,lo8(400)
 281 0102 91E0      		ldi r25,hi8(400)
 282 0104 00C0      		rjmp .L25
 283               	.LVL16:
 284               	.L26:
 285 0106 FC01      		movw r30,r24
 286               	/* #APP */
 287               	 ;  105 "c:/winavr-20100110/lib/gcc/../../avr/include/util/delay_basic.h" 1
 288 0108 3197      		1: sbiw r30,1
 289 010a 01F4      		brne 1b
 290               	 ;  0 "" 2
 291               	/* #NOAPP */
 292               	.LBE414:
 293               	.LBE413:
 294               	.LM54:
 295 010c 6150      		subi r22,lo8(-(-1))
 296 010e 7040      		sbci r23,hi8(-(-1))
 297               	.L25:
 298               	.LM55:
 299 0110 6115      		cp r22,__zero_reg__
 300 0112 7105      		cpc r23,__zero_reg__
 301 0114 01F4      		brne .L26
 302 0116 00C0      		rjmp .L28
 303               	.LVL17:
 304               	.L32:
 305               	.LM56:
 306 0118 C801      		movw r24,r16
 307 011a B701      		movw r22,r14
 308 011c 0E94 0000 		call __fixunssfsi
 309               	.LVL18:
 310               	.L22:
 311               	.LBB415:
 312               	.LBB416:
 313               	.LM57:
 314 0120 CB01      		movw r24,r22
 315               	.LVL19:
 316               	/* #APP */
 317               	 ;  105 "c:/winavr-20100110/lib/gcc/../../avr/include/util/delay_basic.h" 1
 318 0122 0197      		1: sbiw r24,1
 319 0124 01F4      		brne 1b
 320               	 ;  0 "" 2
 321               	.LVL20:
 322               	/* #NOAPP */
 323               	.L28:
 324               	/* epilogue start */
 325               	.LBE416:
 326               	.LBE415:
 327               	.LBE412:
 328               	.LBE411:
 329               	.LM58:
 330 0126 1F91      		pop r17
 331 0128 0F91      		pop r16
 332 012a FF90      		pop r15
 333 012c EF90      		pop r14
 334 012e DF90      		pop r13
 335 0130 CF90      		pop r12
 336 0132 BF90      		pop r11
 337 0134 AF90      		pop r10
 338 0136 0895      		ret
 339               	.LFE12:
 341               	.global	delay_microsec
 343               	delay_microsec:
 344               	.LFB13:
 345               	.LM59:
 346               	.LVL21:
 347 0138 AF92      		push r10
 348 013a BF92      		push r11
 349 013c CF92      		push r12
 350 013e DF92      		push r13
 351 0140 EF92      		push r14
 352 0142 FF92      		push r15
 353 0144 0F93      		push r16
 354 0146 1F93      		push r17
 355               	/* prologue: function */
 356               	/* frame size = 0 */
 357               	.LM60:
 358 0148 AA27      		clr r26
 359 014a 97FD      		sbrc r25,7
 360 014c A095      		com r26
 361 014e BA2F      		mov r27,r26
 362               	.LVL22:
 363 0150 BC01      		movw r22,r24
 364 0152 CD01      		movw r24,r26
 365 0154 0E94 0000 		call __floatsisf
 366               	.LVL23:
 367 0158 5B01      		movw r10,r22
 368 015a 6C01      		movw r12,r24
 369               	.LBB417:
 370               	.LBB418:
 371               	.LM61:
 372 015c 2BEA      		ldi r18,lo8(0x40aaaaab)
 373 015e 3AEA      		ldi r19,hi8(0x40aaaaab)
 374 0160 4AEA      		ldi r20,hlo8(0x40aaaaab)
 375 0162 50E4      		ldi r21,hhi8(0x40aaaaab)
 376 0164 0E94 0000 		call __mulsf3
 377 0168 7B01      		movw r14,r22
 378 016a 8C01      		movw r16,r24
 379               	.LM62:
 380 016c 20E0      		ldi r18,lo8(0x3f800000)
 381 016e 30E0      		ldi r19,hi8(0x3f800000)
 382 0170 40E8      		ldi r20,hlo8(0x3f800000)
 383 0172 5FE3      		ldi r21,hhi8(0x3f800000)
 384 0174 0E94 0000 		call __ltsf2
 385 0178 8823      		tst r24
 386 017a 04F4      		brge .L52
 387 017c 61E0      		ldi r22,lo8(1)
 388               	.LVL24:
 389 017e 00C0      		rjmp .L36
 390               	.LVL25:
 391               	.L52:
 392               	.LM63:
 393 0180 C801      		movw r24,r16
 394 0182 B701      		movw r22,r14
 395 0184 20E0      		ldi r18,lo8(0x437f0000)
 396 0186 30E0      		ldi r19,hi8(0x437f0000)
 397 0188 4FE7      		ldi r20,hlo8(0x437f0000)
 398 018a 53E4      		ldi r21,hhi8(0x437f0000)
 399 018c 0E94 0000 		call __gtsf2
 400 0190 1816      		cp __zero_reg__,r24
 401 0192 04F0      		brlt .+2
 402 0194 00C0      		rjmp .L53
 403               	.LM64:
 404 0196 C601      		movw r24,r12
 405 0198 B501      		movw r22,r10
 406 019a 20E0      		ldi r18,lo8(0x447a0000)
 407 019c 30E0      		ldi r19,hi8(0x447a0000)
 408 019e 4AE7      		ldi r20,hlo8(0x447a0000)
 409 01a0 54E4      		ldi r21,hhi8(0x447a0000)
 410 01a2 0E94 0000 		call __divsf3
 411 01a6 5B01      		movw r10,r22
 412 01a8 6C01      		movw r12,r24
 413               	.LBB419:
 414               	.LBB420:
 415               	.LM65:
 416 01aa 20E0      		ldi r18,lo8(0x457a0000)
 417 01ac 30E0      		ldi r19,hi8(0x457a0000)
 418 01ae 4AE7      		ldi r20,hlo8(0x457a0000)
 419 01b0 55E4      		ldi r21,hhi8(0x457a0000)
 420 01b2 0E94 0000 		call __mulsf3
 421 01b6 7B01      		movw r14,r22
 422 01b8 8C01      		movw r16,r24
 423               	.LM66:
 424 01ba 20E0      		ldi r18,lo8(0x3f800000)
 425 01bc 30E0      		ldi r19,hi8(0x3f800000)
 426 01be 40E8      		ldi r20,hlo8(0x3f800000)
 427 01c0 5FE3      		ldi r21,hhi8(0x3f800000)
 428 01c2 0E94 0000 		call __ltsf2
 429 01c6 8823      		tst r24
 430 01c8 04F4      		brge .L54
 431 01ca 61E0      		ldi r22,lo8(1)
 432 01cc 70E0      		ldi r23,hi8(1)
 433               	.LVL26:
 434 01ce 00C0      		rjmp .L41
 435               	.LVL27:
 436               	.L54:
 437               	.LM67:
 438 01d0 C801      		movw r24,r16
 439 01d2 B701      		movw r22,r14
 440 01d4 20E0      		ldi r18,lo8(0x477fff00)
 441 01d6 3FEF      		ldi r19,hi8(0x477fff00)
 442 01d8 4FE7      		ldi r20,hlo8(0x477fff00)
 443 01da 57E4      		ldi r21,hhi8(0x477fff00)
 444 01dc 0E94 0000 		call __gtsf2
 445 01e0 1816      		cp __zero_reg__,r24
 446 01e2 04F4      		brge .L55
 447               	.LM68:
 448 01e4 C601      		movw r24,r12
 449 01e6 B501      		movw r22,r10
 450 01e8 20E0      		ldi r18,lo8(0x41200000)
 451 01ea 30E0      		ldi r19,hi8(0x41200000)
 452 01ec 40E2      		ldi r20,hlo8(0x41200000)
 453 01ee 51E4      		ldi r21,hhi8(0x41200000)
 454 01f0 0E94 0000 		call __mulsf3
 455 01f4 0E94 0000 		call __fixunssfsi
 456               	.LBB421:
 457               	.LBB422:
 458               	.LM69:
 459 01f8 80E9      		ldi r24,lo8(400)
 460 01fa 91E0      		ldi r25,hi8(400)
 461 01fc 00C0      		rjmp .L44
 462               	.LVL28:
 463               	.L45:
 464 01fe FC01      		movw r30,r24
 465               	/* #APP */
 466               	 ;  105 "c:/winavr-20100110/lib/gcc/../../avr/include/util/delay_basic.h" 1
 467 0200 3197      		1: sbiw r30,1
 468 0202 01F4      		brne 1b
 469               	 ;  0 "" 2
 470               	/* #NOAPP */
 471               	.LBE422:
 472               	.LBE421:
 473               	.LM70:
 474 0204 6150      		subi r22,lo8(-(-1))
 475 0206 7040      		sbci r23,hi8(-(-1))
 476               	.L44:
 477               	.LM71:
 478 0208 6115      		cp r22,__zero_reg__
 479 020a 7105      		cpc r23,__zero_reg__
 480 020c 01F4      		brne .L45
 481 020e 00C0      		rjmp .L47
 482               	.LVL29:
 483               	.L55:
 484               	.LM72:
 485 0210 C801      		movw r24,r16
 486 0212 B701      		movw r22,r14
 487 0214 0E94 0000 		call __fixunssfsi
 488               	.LVL30:
 489               	.L41:
 490               	.LBB423:
 491               	.LBB424:
 492               	.LM73:
 493 0218 CB01      		movw r24,r22
 494               	.LVL31:
 495               	/* #APP */
 496               	 ;  105 "c:/winavr-20100110/lib/gcc/../../avr/include/util/delay_basic.h" 1
 497 021a 0197      		1: sbiw r24,1
 498 021c 01F4      		brne 1b
 499               	 ;  0 "" 2
 500               	/* #NOAPP */
 501 021e 00C0      		rjmp .L47
 502               	.LVL32:
 503               	.L53:
 504               	.LBE424:
 505               	.LBE423:
 506               	.LBE420:
 507               	.LBE419:
 508               	.LM74:
 509 0220 C801      		movw r24,r16
 510 0222 B701      		movw r22,r14
 511 0224 0E94 0000 		call __fixunssfsi
 512               	.LVL33:
 513               	.L36:
 514               	.LBB425:
 515               	.LBB426:
 516               	.LM75:
 517               	/* #APP */
 518               	 ;  83 "c:/winavr-20100110/lib/gcc/../../avr/include/util/delay_basic.h" 1
 519 0228 6A95      		1: dec r22
 520 022a 01F4      		brne 1b
 521               	 ;  0 "" 2
 522               	.LVL34:
 523               	/* #NOAPP */
 524               	.L47:
 525               	/* epilogue start */
 526               	.LBE426:
 527               	.LBE425:
 528               	.LBE418:
 529               	.LBE417:
 530               	.LM76:
 531 022c 1F91      		pop r17
 532 022e 0F91      		pop r16
 533 0230 FF90      		pop r15
 534 0232 EF90      		pop r14
 535 0234 DF90      		pop r13
 536 0236 CF90      		pop r12
 537 0238 BF90      		pop r11
 538 023a AF90      		pop r10
 539 023c 0895      		ret
 540               	.LFE13:
 542               	.global	check_sensors
 544               	check_sensors:
 545               	.LFB14:
 546               	.LM77:
 547 023e 0F93      		push r16
 548 0240 1F93      		push r17
 549 0242 CF93      		push r28
 550 0244 DF93      		push r29
 551               	/* prologue: function */
 552               	/* frame size = 0 */
 553               	.LM78:
 554 0246 1092 0000 		sts sensorbyte,__zero_reg__
 555 024a C0E0      		ldi r28,lo8(0)
 556 024c D0E0      		ldi r29,hi8(0)
 557               	.LM79:
 558 024e 01E0      		ldi r16,lo8(1)
 559 0250 10E0      		ldi r17,hi8(1)
 560               	.L58:
 561               	.LM80:
 562 0252 8C2F      		mov r24,r28
 563 0254 0E94 0000 		call adc_start
 564               	.LM81:
 565 0258 8634      		cpi r24,lo8(70)
 566 025a 00F4      		brsh .L57
 567               	.LM82:
 568 025c 9801      		movw r18,r16
 569 025e 0C2E      		mov r0,r28
 570 0260 00C0      		rjmp 2f
 571 0262 220F      	1:	lsl r18
 572 0264 331F      		rol r19
 573 0266 0A94      	2:	dec r0
 574 0268 02F4      		brpl 1b
 575 026a 8091 0000 		lds r24,sensorbyte
 576 026e 822B      		or r24,r18
 577 0270 8093 0000 		sts sensorbyte,r24
 578               	.L57:
 579 0274 2196      		adiw r28,1
 580               	.LM83:
 581 0276 C430      		cpi r28,4
 582 0278 D105      		cpc r29,__zero_reg__
 583 027a 01F4      		brne .L58
 584               	/* epilogue start */
 585               	.LM84:
 586 027c DF91      		pop r29
 587 027e CF91      		pop r28
 588 0280 1F91      		pop r17
 589 0282 0F91      		pop r16
 590 0284 0895      		ret
 591               	.LFE14:
 593               	.global	calibrate_white
 595               	calibrate_white:
 596               	.LFB15:
 597               	.LM85:
 598               	/* prologue: function */
 599               	/* frame size = 0 */
 600               	.LM86:
 601 0286 80E0      		ldi r24,lo8(0)
 602 0288 0E94 0000 		call adc_start
 603 028c 8093 0000 		sts max,r24
 604 0290 81E0      		ldi r24,lo8(1)
 605 0292 0E94 0000 		call adc_start
 606 0296 8093 0000 		sts max+1,r24
 607 029a 82E0      		ldi r24,lo8(2)
 608 029c 0E94 0000 		call adc_start
 609 02a0 8093 0000 		sts max+2,r24
 610 02a4 83E0      		ldi r24,lo8(3)
 611 02a6 0E94 0000 		call adc_start
 612 02aa 8093 0000 		sts max+3,r24
 613               	/* epilogue start */
 614               	.LM87:
 615 02ae 0895      		ret
 616               	.LFE15:
 618               	.global	calibrate_black
 620               	calibrate_black:
 621               	.LFB16:
 622               	.LM88:
 623               	/* prologue: function */
 624               	/* frame size = 0 */
 625               	.LM89:
 626 02b0 80E0      		ldi r24,lo8(0)
 627 02b2 0E94 0000 		call adc_start
 628 02b6 8093 0000 		sts min,r24
 629 02ba 81E0      		ldi r24,lo8(1)
 630 02bc 0E94 0000 		call adc_start
 631 02c0 8093 0000 		sts min+1,r24
 632 02c4 82E0      		ldi r24,lo8(2)
 633 02c6 0E94 0000 		call adc_start
 634 02ca 8093 0000 		sts min+2,r24
 635 02ce 83E0      		ldi r24,lo8(3)
 636 02d0 0E94 0000 		call adc_start
 637 02d4 8093 0000 		sts min+3,r24
 638               	/* epilogue start */
 639               	.LM90:
 640 02d8 0895      		ret
 641               	.LFE16:
 643               	.global	flick
 645               	flick:
 646               	.LFB18:
 647               	.LM91:
 648 02da 1F93      		push r17
 649 02dc CF93      		push r28
 650 02de DF93      		push r29
 651               	/* prologue: function */
 652               	/* frame size = 0 */
 653               	.LM92:
 654 02e0 C0E0      		ldi r28,lo8(0)
 655 02e2 D0E0      		ldi r29,hi8(0)
 656               	.LVL35:
 657               	.LM93:
 658 02e4 1FEF      		ldi r17,lo8(-1)
 659               	.L66:
 660 02e6 15BB      		out 53-32,r17
 661               	.LM94:
 662 02e8 84E6      		ldi r24,lo8(100)
 663 02ea 90E0      		ldi r25,hi8(100)
 664 02ec 0E94 0000 		call delay_millisec
 665               	.LM95:
 666 02f0 15BA      		out 53-32,__zero_reg__
 667               	.LM96:
 668 02f2 84E6      		ldi r24,lo8(100)
 669 02f4 90E0      		ldi r25,hi8(100)
 670 02f6 0E94 0000 		call delay_millisec
 671               	.LM97:
 672 02fa 2196      		adiw r28,1
 673 02fc C530      		cpi r28,5
 674 02fe D105      		cpc r29,__zero_reg__
 675 0300 01F4      		brne .L66
 676               	/* epilogue start */
 677               	.LM98:
 678 0302 DF91      		pop r29
 679 0304 CF91      		pop r28
 680               	.LVL36:
 681 0306 1F91      		pop r17
 682 0308 0895      		ret
 683               	.LFE18:
 685               	.global	set_pwm1a
 687               	set_pwm1a:
 688               	.LFB19:
 689               	.LM99:
 690               	.LVL37:
 691               	/* prologue: function */
 692               	/* frame size = 0 */
 693               	.LM100:
 694 030a 9BBD      		out (74)+1-32,r25
 695 030c 8ABD      		out 74-32,r24
 696               	.LVL38:
 697               	/* epilogue start */
 698               	.LM101:
 699 030e 0895      		ret
 700               	.LFE19:
 702               	.global	set_pwm1b
 704               	set_pwm1b:
 705               	.LFB20:
 706               	.LM102:
 707               	.LVL39:
 708               	/* prologue: function */
 709               	/* frame size = 0 */
 710               	.LM103:
 711 0310 99BD      		out (72)+1-32,r25
 712 0312 88BD      		out 72-32,r24
 713               	.LVL40:
 714               	/* epilogue start */
 715               	.LM104:
 716 0314 0895      		ret
 717               	.LFE20:
 719               	.global	lcd_busy_loop
 721               	lcd_busy_loop:
 722               	.LFB22:
 723               	.LM105:
 724               	/* prologue: function */
 725               	/* frame size = 0 */
 726               	.LM106:
 727 0316 87B3      		in r24,55-32
 728 0318 807F      		andi r24,lo8(-16)
 729 031a 87BB      		out 55-32,r24
 730               	.LM107:
 731 031c C69A      		sbi 56-32,6
 732               	.LM108:
 733 031e C598      		cbi 56-32,5
 734               	.LBB427:
 735               	.LBB428:
 736               	.LBB429:
 737               	.LBB430:
 738               	.LM109:
 739 0320 82E0      		ldi r24,lo8(2)
 740               	.LVL41:
 741               	/* #APP */
 742               	 ;  83 "c:/winavr-20100110/lib/gcc/../../avr/include/util/delay_basic.h" 1
 743 0322 8A95      		1: dec r24
 744 0324 01F4      		brne 1b
 745               	 ;  0 "" 2
 746               	/* #NOAPP */
 747               	.LBE430:
 748               	.LBE429:
 749               	.LBE428:
 750               	.LBE427:
 751               	.LBB431:
 752               	.LBB432:
 753               	.LBB433:
 754               	.LBB434:
 755 0326 22E0      		ldi r18,lo8(2)
 756               	.LBE434:
 757               	.LBE433:
 758               	.LBE432:
 759               	.LBE431:
 760               	.LBB438:
 761               	.LBB439:
 762               	.LBB440:
 763               	.LBB441:
 764 0328 35E0      		ldi r19,lo8(5)
 765               	.L74:
 766               	.LBE441:
 767               	.LBE440:
 768               	.LBE439:
 769               	.LBE438:
 770               	.LM110:
 771 032a C79A      		sbi 56-32,7
 772               	.LBB445:
 773               	.LBB437:
 774               	.LBB436:
 775               	.LBB435:
 776               	.LM111:
 777 032c 822F      		mov r24,r18
 778               	.LVL42:
 779               	/* #APP */
 780               	 ;  83 "c:/winavr-20100110/lib/gcc/../../avr/include/util/delay_basic.h" 1
 781 032e 8A95      		1: dec r24
 782 0330 01F4      		brne 1b
 783               	 ;  0 "" 2
 784               	/* #NOAPP */
 785               	.LBE435:
 786               	.LBE436:
 787               	.LBE437:
 788               	.LBE445:
 789               	.LM112:
 790 0332 86B3      		in r24,54-32
 791               	.LVL43:
 792               	.LM113:
 793 0334 8295      		swap r24
 794 0336 807F      		andi r24,lo8(-16)
 795               	.LBB446:
 796               	.LBB447:
 797               	.LBB448:
 798               	.LBB449:
 799               	.LM114:
 800 0338 922F      		mov r25,r18
 801               	.LVL44:
 802               	/* #APP */
 803               	 ;  83 "c:/winavr-20100110/lib/gcc/../../avr/include/util/delay_basic.h" 1
 804 033a 9A95      		1: dec r25
 805 033c 01F4      		brne 1b
 806               	 ;  0 "" 2
 807               	/* #NOAPP */
 808               	.LBE449:
 809               	.LBE448:
 810               	.LBE447:
 811               	.LBE446:
 812               	.LM115:
 813 033e C798      		cbi 56-32,7
 814               	.LBB450:
 815               	.LBB444:
 816               	.LBB443:
 817               	.LBB442:
 818               	.LM116:
 819 0340 932F      		mov r25,r19
 820               	.LVL45:
 821               	/* #APP */
 822               	 ;  83 "c:/winavr-20100110/lib/gcc/../../avr/include/util/delay_basic.h" 1
 823 0342 9A95      		1: dec r25
 824 0344 01F4      		brne 1b
 825               	 ;  0 "" 2
 826               	/* #NOAPP */
 827               	.LBE442:
 828               	.LBE443:
 829               	.LBE444:
 830               	.LBE450:
 831               	.LM117:
 832 0346 C79A      		sbi 56-32,7
 833               	.LBB451:
 834               	.LBB452:
 835               	.LBB453:
 836               	.LBB454:
 837               	.LM118:
 838 0348 922F      		mov r25,r18
 839               	.LVL46:
 840               	/* #APP */
 841               	 ;  83 "c:/winavr-20100110/lib/gcc/../../avr/include/util/delay_basic.h" 1
 842 034a 9A95      		1: dec r25
 843 034c 01F4      		brne 1b
 844               	 ;  0 "" 2
 845               	/* #NOAPP */
 846               	.LBE454:
 847               	.LBE453:
 848               	.LBE452:
 849               	.LBE451:
 850               	.LM119:
 851 034e 96B3      		in r25,54-32
 852               	.LVL47:
 853               	.LBB455:
 854               	.LBB456:
 855               	.LBB457:
 856               	.LBB458:
 857               	.LM120:
 858 0350 922F      		mov r25,r18
 859               	.LVL48:
 860               	/* #APP */
 861               	 ;  83 "c:/winavr-20100110/lib/gcc/../../avr/include/util/delay_basic.h" 1
 862 0352 9A95      		1: dec r25
 863 0354 01F4      		brne 1b
 864               	 ;  0 "" 2
 865               	/* #NOAPP */
 866               	.LBE458:
 867               	.LBE457:
 868               	.LBE456:
 869               	.LBE455:
 870               	.LM121:
 871 0356 C798      		cbi 56-32,7
 872               	.LBB459:
 873               	.LBB460:
 874               	.LBB461:
 875               	.LBB462:
 876               	.LM122:
 877 0358 932F      		mov r25,r19
 878               	.LVL49:
 879               	/* #APP */
 880               	 ;  83 "c:/winavr-20100110/lib/gcc/../../avr/include/util/delay_basic.h" 1
 881 035a 9A95      		1: dec r25
 882 035c 01F4      		brne 1b
 883               	 ;  0 "" 2
 884               	/* #NOAPP */
 885               	.LBE462:
 886               	.LBE461:
 887               	.LBE460:
 888               	.LBE459:
 889               	.LM123:
 890 035e 87FD      		sbrc r24,7
 891 0360 00C0      		rjmp .L74
 892               	.LM124:
 893 0362 C698      		cbi 56-32,6
 894               	.LM125:
 895 0364 87B3      		in r24,55-32
 896               	.LVL50:
 897 0366 8F60      		ori r24,lo8(15)
 898 0368 87BB      		out 55-32,r24
 899               	/* epilogue start */
 900               	.LM126:
 901 036a 0895      		ret
 902               	.LFE22:
 904               	.global	lcd_byte
 906               	lcd_byte:
 907               	.LFB21:
 908               	.LM127:
 909               	.LVL51:
 910               	/* prologue: function */
 911               	/* frame size = 0 */
 912 036c 282F      		mov r18,r24
 913               	.LM128:
 914 036e 6623      		tst r22
 915 0370 01F4      		brne .L78
 916               	.LVL52:
 917               	.LM129:
 918 0372 C598      		cbi 56-32,5
 919 0374 00C0      		rjmp .L79
 920               	.L78:
 921               	.LM130:
 922 0376 C59A      		sbi 56-32,5
 923               	.L79:
 924               	.LBB463:
 925               	.LBB464:
 926               	.LBB465:
 927               	.LBB466:
 928               	.LM131:
 929 0378 82E0      		ldi r24,lo8(2)
 930               	.LVL53:
 931               	/* #APP */
 932               	 ;  83 "c:/winavr-20100110/lib/gcc/../../avr/include/util/delay_basic.h" 1
 933 037a 8A95      		1: dec r24
 934 037c 01F4      		brne 1b
 935               	 ;  0 "" 2
 936               	/* #NOAPP */
 937               	.LBE466:
 938               	.LBE465:
 939               	.LBE464:
 940               	.LBE463:
 941               	.LM132:
 942 037e C79A      		sbi 56-32,7
 943               	.LM133:
 944 0380 88B3      		in r24,56-32
 945               	.LVL54:
 946 0382 922F      		mov r25,r18
 947 0384 9295      		swap r25
 948 0386 9F70      		andi r25,lo8(15)
 949 0388 807F      		andi r24,lo8(-16)
 950 038a 982B      		or r25,r24
 951               	.LM134:
 952 038c 98BB      		out 56-32,r25
 953               	.LBB467:
 954               	.LBB468:
 955               	.LBB469:
 956               	.LBB470:
 957               	.LM135:
 958 038e 95E0      		ldi r25,lo8(5)
 959 0390 892F      		mov r24,r25
 960               	.LVL55:
 961               	/* #APP */
 962               	 ;  83 "c:/winavr-20100110/lib/gcc/../../avr/include/util/delay_basic.h" 1
 963 0392 8A95      		1: dec r24
 964 0394 01F4      		brne 1b
 965               	 ;  0 "" 2
 966               	/* #NOAPP */
 967               	.LBE470:
 968               	.LBE469:
 969               	.LBE468:
 970               	.LBE467:
 971               	.LM136:
 972 0396 C798      		cbi 56-32,7
 973               	.LBB471:
 974               	.LBB472:
 975               	.LBB473:
 976               	.LBB474:
 977               	.LM137:
 978 0398 892F      		mov r24,r25
 979               	.LVL56:
 980               	/* #APP */
 981               	 ;  83 "c:/winavr-20100110/lib/gcc/../../avr/include/util/delay_basic.h" 1
 982 039a 8A95      		1: dec r24
 983 039c 01F4      		brne 1b
 984               	 ;  0 "" 2
 985               	/* #NOAPP */
 986               	.LBE474:
 987               	.LBE473:
 988               	.LBE472:
 989               	.LBE471:
 990               	.LM138:
 991 039e C79A      		sbi 56-32,7
 992               	.LM139:
 993 03a0 88B3      		in r24,56-32
 994               	.LVL57:
 995 03a2 2F70      		andi r18,lo8(15)
 996 03a4 807F      		andi r24,lo8(-16)
 997 03a6 822B      		or r24,r18
 998               	.LM140:
 999 03a8 88BB      		out 56-32,r24
 1000               	.LBB475:
 1001               	.LBB476:
 1002               	.LBB477:
 1003               	.LBB478:
 1004               	.LM141:
 1005 03aa 892F      		mov r24,r25
 1006               	.LVL58:
 1007               	/* #APP */
 1008               	 ;  83 "c:/winavr-20100110/lib/gcc/../../avr/include/util/delay_basic.h" 1
 1009 03ac 8A95      		1: dec r24
 1010 03ae 01F4      		brne 1b
 1011               	 ;  0 "" 2
 1012               	/* #NOAPP */
 1013               	.LBE478:
 1014               	.LBE477:
 1015               	.LBE476:
 1016               	.LBE475:
 1017               	.LM142:
 1018 03b0 C798      		cbi 56-32,7
 1019               	.LBB479:
 1020               	.LBB480:
 1021               	.LBB481:
 1022               	.LBB482:
 1023               	.LM143:
 1024               	/* #APP */
 1025               	 ;  83 "c:/winavr-20100110/lib/gcc/../../avr/include/util/delay_basic.h" 1
 1026 03b2 9A95      		1: dec r25
 1027 03b4 01F4      		brne 1b
 1028               	 ;  0 "" 2
 1029               	.LVL59:
 1030               	/* #NOAPP */
 1031               	.LBE482:
 1032               	.LBE481:
 1033               	.LBE480:
 1034               	.LBE479:
 1035               	.LM144:
 1036 03b6 0E94 0000 		call lcd_busy_loop
 1037               	.LVL60:
 1038               	/* epilogue start */
 1039               	.LM145:
 1040 03ba 0895      		ret
 1041               	.LFE21:
 1043               	.global	lcd_init
 1045               	lcd_init:
 1046               	.LFB23:
 1047               	.LM146:
 1048               	.LVL61:
 1049 03bc 1F93      		push r17
 1050               	/* prologue: function */
 1051               	/* frame size = 0 */
 1052 03be 182F      		mov r17,r24
 1053               	.LM147:
 1054 03c0 8CE2      		ldi r24,lo8(300)
 1055 03c2 91E0      		ldi r25,hi8(300)
 1056               	.LVL62:
 1057               	.LBB483:
 1058               	.LBB484:
 1059               	.LBB485:
 1060               	.LBB486:
 1061               	.LM148:
 1062 03c4 20E9      		ldi r18,lo8(400)
 1063 03c6 31E0      		ldi r19,hi8(400)
 1064               	.L82:
 1065 03c8 F901      		movw r30,r18
 1066               	.LVL63:
 1067               	/* #APP */
 1068               	 ;  105 "c:/winavr-20100110/lib/gcc/../../avr/include/util/delay_basic.h" 1
 1069 03ca 3197      		1: sbiw r30,1
 1070 03cc 01F4      		brne 1b
 1071               	 ;  0 "" 2
 1072               	/* #NOAPP */
 1073               	.LBE486:
 1074               	.LBE485:
 1075               	.LM149:
 1076 03ce 0197      		sbiw r24,1
 1077               	.LM150:
 1078 03d0 01F4      		brne .L82
 1079               	.LBE484:
 1080               	.LBE483:
 1081               	.LM151:
 1082 03d2 87B3      		in r24,55-32
 1083               	.LVL64:
 1084 03d4 8F60      		ori r24,lo8(15)
 1085 03d6 87BB      		out 55-32,r24
 1086               	.LM152:
 1087 03d8 BF9A      		sbi 55-32,7
 1088               	.LM153:
 1089 03da BD9A      		sbi 55-32,5
 1090               	.LM154:
 1091 03dc BE9A      		sbi 55-32,6
 1092               	.LM155:
 1093 03de 88B3      		in r24,56-32
 1094 03e0 807F      		andi r24,lo8(-16)
 1095 03e2 88BB      		out 56-32,r24
 1096               	.LM156:
 1097 03e4 C798      		cbi 56-32,7
 1098               	.LM157:
 1099 03e6 C698      		cbi 56-32,6
 1100               	.LM158:
 1101 03e8 C598      		cbi 56-32,5
 1102               	.LBB487:
 1103               	.LBB488:
 1104               	.LBB489:
 1105               	.LBB490:
 1106               	.LM159:
 1107 03ea 81E0      		ldi r24,lo8(1)
 1108               	.LVL65:
 1109               	/* #APP */
 1110               	 ;  83 "c:/winavr-20100110/lib/gcc/../../avr/include/util/delay_basic.h" 1
 1111 03ec 8A95      		1: dec r24
 1112 03ee 01F4      		brne 1b
 1113               	 ;  0 "" 2
 1114               	/* #NOAPP */
 1115               	.LBE490:
 1116               	.LBE489:
 1117               	.LBE488:
 1118               	.LBE487:
 1119               	.LM160:
 1120 03f0 C79A      		sbi 56-32,7
 1121               	.LM161:
 1122 03f2 C19A      		sbi 56-32,1
 1123               	.LBB491:
 1124               	.LBB492:
 1125               	.LBB493:
 1126               	.LBB494:
 1127               	.LM162:
 1128 03f4 85E0      		ldi r24,lo8(5)
 1129               	.LVL66:
 1130 03f6 982F      		mov r25,r24
 1131               	.LVL67:
 1132               	/* #APP */
 1133               	 ;  83 "c:/winavr-20100110/lib/gcc/../../avr/include/util/delay_basic.h" 1
 1134 03f8 9A95      		1: dec r25
 1135 03fa 01F4      		brne 1b
 1136               	 ;  0 "" 2
 1137               	/* #NOAPP */
 1138               	.LBE494:
 1139               	.LBE493:
 1140               	.LBE492:
 1141               	.LBE491:
 1142               	.LM163:
 1143 03fc C798      		cbi 56-32,7
 1144               	.LBB495:
 1145               	.LBB496:
 1146               	.LBB497:
 1147               	.LBB498:
 1148               	.LM164:
 1149               	/* #APP */
 1150               	 ;  83 "c:/winavr-20100110/lib/gcc/../../avr/include/util/delay_basic.h" 1
 1151 03fe 8A95      		1: dec r24
 1152 0400 01F4      		brne 1b
 1153               	 ;  0 "" 2
 1154               	.LVL68:
 1155               	/* #NOAPP */
 1156               	.LBE498:
 1157               	.LBE497:
 1158               	.LBE496:
 1159               	.LBE495:
 1160               	.LM165:
 1161 0402 0E94 0000 		call lcd_busy_loop
 1162               	.LVL69:
 1163               	.LM166:
 1164 0406 812F      		mov r24,r17
 1165 0408 8C60      		ori r24,lo8(12)
 1166 040a 60E0      		ldi r22,lo8(0)
 1167 040c 0E94 0000 		call lcd_byte
 1168               	.LM167:
 1169 0410 88E2      		ldi r24,lo8(40)
 1170 0412 60E0      		ldi r22,lo8(0)
 1171 0414 0E94 0000 		call lcd_byte
 1172               	/* epilogue start */
 1173               	.LM168:
 1174 0418 1F91      		pop r17
 1175               	.LVL70:
 1176 041a 0895      		ret
 1177               	.LFE23:
 1179               	.global	lcd_write_string
 1181               	lcd_write_string:
 1182               	.LFB24:
 1183               	.LM169:
 1184               	.LVL71:
 1185 041c CF93      		push r28
 1186 041e DF93      		push r29
 1187               	/* prologue: function */
 1188               	/* frame size = 0 */
 1189 0420 EC01      		movw r28,r24
 1190 0422 00C0      		rjmp .L86
 1191               	.LVL72:
 1192               	.L87:
 1193               	.LM170:
 1194 0424 61E0      		ldi r22,lo8(1)
 1195 0426 0E94 0000 		call lcd_byte
 1196               	.LM171:
 1197 042a 2196      		adiw r28,1
 1198               	.LVL73:
 1199               	.L86:
 1200               	.LM172:
 1201 042c 8881      		ld r24,Y
 1202 042e 8823      		tst r24
 1203 0430 01F4      		brne .L87
 1204               	/* epilogue start */
 1205               	.LM173:
 1206 0432 DF91      		pop r29
 1207 0434 CF91      		pop r28
 1208               	.LVL74:
 1209 0436 0895      		ret
 1210               	.LFE24:
 1212               	.global	lcd_write_int
 1214               	lcd_write_int:
 1215               	.LFB25:
 1216               	.LM174:
 1217               	.LVL75:
 1218 0438 EF92      		push r14
 1219 043a FF92      		push r15
 1220 043c 0F93      		push r16
 1221 043e 1F93      		push r17
 1222 0440 DF93      		push r29
 1223 0442 CF93      		push r28
 1224 0444 00D0      		rcall .
 1225 0446 00D0      		rcall .
 1226 0448 0F92      		push __tmp_reg__
 1227 044a CDB7      		in r28,__SP_L__
 1228 044c DEB7      		in r29,__SP_H__
 1229               	/* prologue: function */
 1230               	/* frame size = 5 */
 1231 044e 9C01      		movw r18,r24
 1232 0450 8B01      		movw r16,r22
 1233               	.LM175:
 1234 0452 FE01      		movw r30,r28
 1235 0454 3196      		adiw r30,1
 1236 0456 85E0      		ldi r24,lo8(5)
 1237               	.LVL76:
 1238 0458 DF01      		movw r26,r30
 1239 045a 1D92      		st X+,__zero_reg__
 1240 045c 8A95      	        dec r24
 1241 045e 01F4      		brne .-6
 1242 0460 FE01      		movw r30,r28
 1243 0462 3596      		adiw r30,5
 1244 0464 00C0      		rjmp .L90
 1245               	.LVL77:
 1246               	.L91:
 1247               	.LM176:
 1248 0466 C901      		movw r24,r18
 1249 0468 6AE0      		ldi r22,lo8(10)
 1250 046a 70E0      		ldi r23,hi8(10)
 1251 046c 0E94 0000 		call __divmodhi4
 1252 0470 8083      		st Z,r24
 1253               	.LM177:
 1254 0472 C901      		movw r24,r18
 1255 0474 6AE0      		ldi r22,lo8(10)
 1256 0476 70E0      		ldi r23,hi8(10)
 1257 0478 0E94 0000 		call __divmodhi4
 1258 047c 9B01      		movw r18,r22
 1259 047e 3197      		sbiw r30,1
 1260               	.LVL78:
 1261               	.L90:
 1262               	.LM178:
 1263 0480 2115      		cp r18,__zero_reg__
 1264 0482 3105      		cpc r19,__zero_reg__
 1265 0484 01F4      		brne .L91
 1266               	.LM179:
 1267 0486 BFEF      		ldi r27,hi8(-1)
 1268 0488 0F3F      		cpi r16,lo8(-1)
 1269 048a 1B07      		cpc r17,r27
 1270 048c 01F4      		brne .L92
 1271 048e 20E0      		ldi r18,lo8(0)
 1272 0490 30E0      		ldi r19,hi8(0)
 1273               	.LVL79:
 1274               	.LM180:
 1275 0492 AE01      		movw r20,r28
 1276 0494 4F5F      		subi r20,lo8(-(1))
 1277 0496 5F4F      		sbci r21,hi8(-(1))
 1278 0498 00C0      		rjmp .L93
 1279               	.L94:
 1280 049a 2F5F      		subi r18,lo8(-(1))
 1281 049c 3F4F      		sbci r19,hi8(-(1))
 1282               	.L93:
 1283 049e FA01      		movw r30,r20
 1284 04a0 E20F      		add r30,r18
 1285 04a2 F31F      		adc r31,r19
 1286 04a4 8081      		ld r24,Z
 1287 04a6 8823      		tst r24
 1288 04a8 01F0      		breq .L94
 1289 04aa 00C0      		rjmp .L95
 1290               	.LVL80:
 1291               	.L92:
 1292               	.LM181:
 1293 04ac 25E0      		ldi r18,lo8(5)
 1294 04ae 30E0      		ldi r19,hi8(5)
 1295               	.LVL81:
 1296 04b0 201B      		sub r18,r16
 1297 04b2 310B      		sbc r19,r17
 1298               	.L95:
 1299 04b4 7E01      		movw r14,r28
 1300 04b6 0894      		sec
 1301 04b8 E11C      		adc r14,__zero_reg__
 1302 04ba F11C      		adc r15,__zero_reg__
 1303 04bc E20E      		add r14,r18
 1304 04be F31E      		adc r15,r19
 1305 04c0 8901      		movw r16,r18
 1306               	.LVL82:
 1307 04c2 00C0      		rjmp .L96
 1308               	.L97:
 1309               	.LM182:
 1310 04c4 F701      		movw r30,r14
 1311 04c6 8191      		ld r24,Z+
 1312 04c8 7F01      		movw r14,r30
 1313 04ca 805D      		subi r24,lo8(-(48))
 1314 04cc 61E0      		ldi r22,lo8(1)
 1315               	.LVL83:
 1316 04ce 0E94 0000 		call lcd_byte
 1317               	.LVL84:
 1318               	.LM183:
 1319 04d2 0F5F      		subi r16,lo8(-(1))
 1320 04d4 1F4F      		sbci r17,hi8(-(1))
 1321               	.LVL85:
 1322               	.L96:
 1323 04d6 0530      		cpi r16,5
 1324 04d8 1105      		cpc r17,__zero_reg__
 1325 04da 04F0      		brlt .L97
 1326               	/* epilogue start */
 1327               	.LM184:
 1328 04dc 0F90      		pop __tmp_reg__
 1329 04de 0F90      		pop __tmp_reg__
 1330 04e0 0F90      		pop __tmp_reg__
 1331 04e2 0F90      		pop __tmp_reg__
 1332 04e4 0F90      		pop __tmp_reg__
 1333 04e6 CF91      		pop r28
 1334 04e8 DF91      		pop r29
 1335 04ea 1F91      		pop r17
 1336 04ec 0F91      		pop r16
 1337               	.LVL86:
 1338 04ee FF90      		pop r15
 1339 04f0 EF90      		pop r14
 1340 04f2 0895      		ret
 1341               	.LFE25:
 1343               	.global	lcd_goto_xy
 1345               	lcd_goto_xy:
 1346               	.LFB26:
 1347               	.LM185:
 1348               	.LVL87:
 1349               	/* prologue: function */
 1350               	/* frame size = 0 */
 1351               	.LM186:
 1352 04f4 8832      		cpi r24,lo8(40)
 1353 04f6 00F4      		brsh .L102
 1354               	.LM187:
 1355 04f8 6111      		cpse r22,__zero_reg__
 1356 04fa 8064      		ori r24,lo8(64)
 1357               	.LVL88:
 1358               	.L101:
 1359               	.LM188:
 1360 04fc 8068      		ori r24,lo8(-128)
 1361               	.LVL89:
 1362 04fe 60E0      		ldi r22,lo8(0)
 1363               	.LVL90:
 1364 0500 0E94 0000 		call lcd_byte
 1365               	.LVL91:
 1366               	.L102:
 1367 0504 0895      		ret
 1368               	.LFE26:
 1370               	.global	lcd_write_string_xy
 1372               	lcd_write_string_xy:
 1373               	.LFB27:
 1374               	.LM189:
 1375               	.LVL92:
 1376 0506 0F93      		push r16
 1377 0508 1F93      		push r17
 1378               	/* prologue: function */
 1379               	/* frame size = 0 */
 1380 050a 8A01      		movw r16,r20
 1381               	.LM190:
 1382 050c 0E94 0000 		call lcd_goto_xy
 1383               	.LVL93:
 1384               	.LM191:
 1385 0510 C801      		movw r24,r16
 1386 0512 0E94 0000 		call lcd_write_string
 1387               	/* epilogue start */
 1388               	.LM192:
 1389 0516 1F91      		pop r17
 1390 0518 0F91      		pop r16
 1391               	.LVL94:
 1392 051a 0895      		ret
 1393               	.LFE27:
 1395               	.global	lcd_write_int_xy
 1397               	lcd_write_int_xy:
 1398               	.LFB28:
 1399               	.LM193:
 1400               	.LVL95:
 1401 051c EF92      		push r14
 1402 051e FF92      		push r15
 1403 0520 0F93      		push r16
 1404 0522 1F93      		push r17
 1405               	/* prologue: function */
 1406               	/* frame size = 0 */
 1407 0524 8A01      		movw r16,r20
 1408 0526 7901      		movw r14,r18
 1409               	.LM194:
 1410 0528 0E94 0000 		call lcd_goto_xy
 1411               	.LVL96:
 1412               	.LM195:
 1413 052c C801      		movw r24,r16
 1414 052e B701      		movw r22,r14
 1415 0530 0E94 0000 		call lcd_write_int
 1416               	/* epilogue start */
 1417               	.LM196:
 1418 0534 1F91      		pop r17
 1419 0536 0F91      		pop r16
 1420               	.LVL97:
 1421 0538 FF90      		pop r15
 1422 053a EF90      		pop r14
 1423               	.LVL98:
 1424 053c 0895      		ret
 1425               	.LFE28:
 1427               	.global	usart_init
 1429               	usart_init:
 1430               	.LFB29:
 1431               	.LM197:
 1432               	/* prologue: function */
 1433               	/* frame size = 0 */
 1434               	.LM198:
 1435 053e 1AB8      		out 42-32,__zero_reg__
 1436               	.LM199:
 1437 0540 1BB8      		out 43-32,__zero_reg__
 1438               	.LM200:
 1439 0542 87E0      		ldi r24,lo8(7)
 1440 0544 80BD      		out 64-32,r24
 1441               	.LM201:
 1442 0546 87E6      		ldi r24,lo8(103)
 1443 0548 89B9      		out 41-32,r24
 1444               	.LM202:
 1445 054a 10BC      		out 64-32,__zero_reg__
 1446               	.LM203:
 1447 054c 88E9      		ldi r24,lo8(-104)
 1448 054e 8AB9      		out 42-32,r24
 1449               	/* epilogue start */
 1450               	.LM204:
 1451 0550 0895      		ret
 1452               	.LFE29:
 1454               	.global	usart_transmit_char
 1456               	usart_transmit_char:
 1457               	.LFB30:
 1458               	.LM205:
 1459               	/* prologue: function */
 1460               	/* frame size = 0 */
 1461               	.LVL99:
 1462               	.L110:
 1463               	.LM206:
 1464 0552 5D9B      		sbis 43-32,5
 1465 0554 00C0      		rjmp .L110
 1466               	.LM207:
 1467 0556 8CB9      		out 44-32,r24
 1468               	/* epilogue start */
 1469               	.LM208:
 1470 0558 0895      		ret
 1471               	.LFE30:
 1473               	.global	usart_transmit_string
 1475               	usart_transmit_string:
 1476               	.LFB31:
 1477               	.LM209:
 1478               	.LVL100:
 1479               	/* prologue: function */
 1480               	/* frame size = 0 */
 1481 055a FC01      		movw r30,r24
 1482 055c 00C0      		rjmp .L114
 1483               	.LVL101:
 1484               	.L117:
 1485               	.LBB499:
 1486               	.LBB500:
 1487               	.LM210:
 1488 055e 5D9B      		sbis 43-32,5
 1489 0560 00C0      		rjmp .L117
 1490               	.LM211:
 1491 0562 8CB9      		out 44-32,r24
 1492               	.LBE500:
 1493               	.LBE499:
 1494               	.LM212:
 1495 0564 3196      		adiw r30,1
 1496               	.LVL102:
 1497               	.L114:
 1498               	.LM213:
 1499 0566 8081      		ld r24,Z
 1500 0568 8823      		tst r24
 1501 056a 01F4      		brne .L117
 1502               	/* epilogue start */
 1503               	.LM214:
 1504 056c 0895      		ret
 1505               	.LFE31:
 1507               	.global	usart_transmit_newline
 1509               	usart_transmit_newline:
 1510               	.LFB32:
 1511               	.LM215:
 1512               	/* prologue: function */
 1513               	/* frame size = 0 */
 1514               	.L120:
 1515               	.LBB501:
 1516               	.LBB502:
 1517               	.LM216:
 1518 056e 5D9B      		sbis 43-32,5
 1519 0570 00C0      		rjmp .L120
 1520               	.LM217:
 1521 0572 8AE0      		ldi r24,lo8(10)
 1522 0574 8CB9      		out 44-32,r24
 1523               	.L121:
 1524               	.LBE502:
 1525               	.LBE501:
 1526               	.LBB503:
 1527               	.LBB504:
 1528               	.LM218:
 1529 0576 5D9B      		sbis 43-32,5
 1530 0578 00C0      		rjmp .L121
 1531               	.LM219:
 1532 057a 8DE0      		ldi r24,lo8(13)
 1533 057c 8CB9      		out 44-32,r24
 1534               	/* epilogue start */
 1535               	.LBE504:
 1536               	.LBE503:
 1537               	.LM220:
 1538 057e 0895      		ret
 1539               	.LFE32:
 1541               	.global	usart_receive_char
 1543               	usart_receive_char:
 1544               	.LFB33:
 1545               	.LM221:
 1546               	/* prologue: function */
 1547               	/* frame size = 0 */
 1548               	.L126:
 1549               	.LM222:
 1550 0580 5F9B      		sbis 43-32,7
 1551 0582 00C0      		rjmp .L126
 1552               	.LM223:
 1553 0584 8CB1      		in r24,44-32
 1554               	/* epilogue start */
 1555               	.LM224:
 1556 0586 0895      		ret
 1557               	.LFE33:
 1559               	.global	bot_motion_init
 1561               	bot_motion_init:
 1562               	.LFB34:
 1563               	.LM225:
 1564               	/* prologue: function */
 1565               	/* frame size = 0 */
 1566               	.LM226:
 1567 0588 8FEF      		ldi r24,lo8(-1)
 1568 058a 84BB      		out 52-32,r24
 1569               	/* epilogue start */
 1570               	.LM227:
 1571 058c 0895      		ret
 1572               	.LFE34:
 1574               	.global	bot_left_forward
 1576               	bot_left_forward:
 1577               	.LFB35:
 1578               	.LM228:
 1579               	/* prologue: function */
 1580               	/* frame size = 0 */
 1581               	.LM229:
 1582 058e AC9A      		sbi 53-32,4
 1583               	.LM230:
 1584 0590 AD98      		cbi 53-32,5
 1585               	.LM231:
 1586 0592 AE98      		cbi 53-32,6
 1587               	.LM232:
 1588 0594 AF98      		cbi 53-32,7
 1589               	/* epilogue start */
 1590               	.LM233:
 1591 0596 0895      		ret
 1592               	.LFE35:
 1594               	.global	bot_left_backward
 1596               	bot_left_backward:
 1597               	.LFB36:
 1598               	.LM234:
 1599               	/* prologue: function */
 1600               	/* frame size = 0 */
 1601               	.LM235:
 1602 0598 AC98      		cbi 53-32,4
 1603               	.LM236:
 1604 059a AD9A      		sbi 53-32,5
 1605               	.LM237:
 1606 059c AE98      		cbi 53-32,6
 1607               	.LM238:
 1608 059e AF98      		cbi 53-32,7
 1609               	/* epilogue start */
 1610               	.LM239:
 1611 05a0 0895      		ret
 1612               	.LFE36:
 1614               	.global	bot_right_forward
 1616               	bot_right_forward:
 1617               	.LFB37:
 1618               	.LM240:
 1619               	/* prologue: function */
 1620               	/* frame size = 0 */
 1621               	.LM241:
 1622 05a2 AC98      		cbi 53-32,4
 1623               	.LM242:
 1624 05a4 AD98      		cbi 53-32,5
 1625               	.LM243:
 1626 05a6 AE9A      		sbi 53-32,6
 1627               	.LM244:
 1628 05a8 AF98      		cbi 53-32,7
 1629               	/* epilogue start */
 1630               	.LM245:
 1631 05aa 0895      		ret
 1632               	.LFE37:
 1634               	.global	bot_left
 1636               	bot_left:
 1637               	.LFB38:
 1638               	.LM246:
 1639               	/* prologue: function */
 1640               	/* frame size = 0 */
 1641               	.LBB505:
 1642               	.LBB506:
 1643               	.LM247:
 1644 05ac AC98      		cbi 53-32,4
 1645               	.LM248:
 1646 05ae AD98      		cbi 53-32,5
 1647               	.LM249:
 1648 05b0 AE9A      		sbi 53-32,6
 1649               	.LM250:
 1650 05b2 AF98      		cbi 53-32,7
 1651               	/* epilogue start */
 1652               	.LBE506:
 1653               	.LBE505:
 1654               	.LM251:
 1655 05b4 0895      		ret
 1656               	.LFE38:
 1658               	.global	bot_right
 1660               	bot_right:
 1661               	.LFB39:
 1662               	.LM252:
 1663               	/* prologue: function */
 1664               	/* frame size = 0 */
 1665               	.LBB507:
 1666               	.LBB508:
 1667               	.LM253:
 1668 05b6 AC9A      		sbi 53-32,4
 1669               	.LM254:
 1670 05b8 AD98      		cbi 53-32,5
 1671               	.LM255:
 1672 05ba AE98      		cbi 53-32,6
 1673               	.LM256:
 1674 05bc AF98      		cbi 53-32,7
 1675               	/* epilogue start */
 1676               	.LBE508:
 1677               	.LBE507:
 1678               	.LM257:
 1679 05be 0895      		ret
 1680               	.LFE39:
 1682               	.global	bot_right_backward
 1684               	bot_right_backward:
 1685               	.LFB40:
 1686               	.LM258:
 1687               	/* prologue: function */
 1688               	/* frame size = 0 */
 1689               	.LM259:
 1690 05c0 AC98      		cbi 53-32,4
 1691               	.LM260:
 1692 05c2 AD98      		cbi 53-32,5
 1693               	.LM261:
 1694 05c4 AE98      		cbi 53-32,6
 1695               	.LM262:
 1696 05c6 AF9A      		sbi 53-32,7
 1697               	/* epilogue start */
 1698               	.LM263:
 1699 05c8 0895      		ret
 1700               	.LFE40:
 1702               	.global	bot_forward
 1704               	bot_forward:
 1705               	.LFB41:
 1706               	.LM264:
 1707               	/* prologue: function */
 1708               	/* frame size = 0 */
 1709               	.LM265:
 1710 05ca AC9A      		sbi 53-32,4
 1711               	.LM266:
 1712 05cc AD98      		cbi 53-32,5
 1713               	.LM267:
 1714 05ce AE9A      		sbi 53-32,6
 1715               	.LM268:
 1716 05d0 AF98      		cbi 53-32,7
 1717               	/* epilogue start */
 1718               	.LM269:
 1719 05d2 0895      		ret
 1720               	.LFE41:
 1722               	.global	bot_backward
 1724               	bot_backward:
 1725               	.LFB42:
 1726               	.LM270:
 1727               	/* prologue: function */
 1728               	/* frame size = 0 */
 1729               	.LM271:
 1730 05d4 AC98      		cbi 53-32,4
 1731               	.LM272:
 1732 05d6 AD9A      		sbi 53-32,5
 1733               	.LM273:
 1734 05d8 AE98      		cbi 53-32,6
 1735               	.LM274:
 1736 05da AF9A      		sbi 53-32,7
 1737               	/* epilogue start */
 1738               	.LM275:
 1739 05dc 0895      		ret
 1740               	.LFE42:
 1742               	.global	bot_spot_left
 1744               	bot_spot_left:
 1745               	.LFB43:
 1746               	.LM276:
 1747               	/* prologue: function */
 1748               	/* frame size = 0 */
 1749               	.LM277:
 1750 05de AC98      		cbi 53-32,4
 1751               	.LM278:
 1752 05e0 AD9A      		sbi 53-32,5
 1753               	.LM279:
 1754 05e2 AE9A      		sbi 53-32,6
 1755               	.LM280:
 1756 05e4 AF98      		cbi 53-32,7
 1757               	/* epilogue start */
 1758               	.LM281:
 1759 05e6 0895      		ret
 1760               	.LFE43:
 1762               	.global	bot_spot_right
 1764               	bot_spot_right:
 1765               	.LFB44:
 1766               	.LM282:
 1767               	/* prologue: function */
 1768               	/* frame size = 0 */
 1769               	.LM283:
 1770 05e8 AC9A      		sbi 53-32,4
 1771               	.LM284:
 1772 05ea AD98      		cbi 53-32,5
 1773               	.LM285:
 1774 05ec AE98      		cbi 53-32,6
 1775               	.LM286:
 1776 05ee AF9A      		sbi 53-32,7
 1777               	/* epilogue start */
 1778               	.LM287:
 1779 05f0 0895      		ret
 1780               	.LFE44:
 1782               	.global	bot_stop
 1784               	bot_stop:
 1785               	.LFB45:
 1786               	.LM288:
 1787               	/* prologue: function */
 1788               	/* frame size = 0 */
 1789               	.LM289:
 1790 05f2 AC98      		cbi 53-32,4
 1791               	.LM290:
 1792 05f4 AD98      		cbi 53-32,5
 1793               	.LM291:
 1794 05f6 AE98      		cbi 53-32,6
 1795               	.LM292:
 1796 05f8 AF98      		cbi 53-32,7
 1797               	/* epilogue start */
 1798               	.LM293:
 1799 05fa 0895      		ret
 1800               	.LFE45:
 1802               	.global	bot_brake
 1804               	bot_brake:
 1805               	.LFB46:
 1806               	.LM294:
 1807               	/* prologue: function */
 1808               	/* frame size = 0 */
 1809               	.LM295:
 1810 05fc AC9A      		sbi 53-32,4
 1811               	.LM296:
 1812 05fe AD9A      		sbi 53-32,5
 1813               	.LM297:
 1814 0600 AE9A      		sbi 53-32,6
 1815               	.LM298:
 1816 0602 AF9A      		sbi 53-32,7
 1817               	/* epilogue start */
 1818               	.LM299:
 1819 0604 0895      		ret
 1820               	.LFE46:
 1822               	.global	switch_init
 1824               	switch_init:
 1825               	.LFB47:
 1826               	.LM300:
 1827               	/* prologue: function */
 1828               	/* frame size = 0 */
 1829               	.LM301:
 1830 0606 82B3      		in r24,50-32
 1831 0608 8F60      		ori r24,lo8(15)
 1832 060a 82BB      		out 50-32,r24
 1833               	.LM302:
 1834 060c 81B3      		in r24,49-32
 1835 060e 807F      		andi r24,lo8(-16)
 1836 0610 81BB      		out 49-32,r24
 1837               	/* epilogue start */
 1838               	.LM303:
 1839 0612 0895      		ret
 1840               	.LFE47:
 1842               	.global	pressed_switch0
 1844               	pressed_switch0:
 1845               	.LFB48:
 1846               	.LM304:
 1847               	/* prologue: function */
 1848               	/* frame size = 0 */
 1849               	.LM305:
 1850 0614 20B3      		in r18,48-32
 1851 0616 30E0      		ldi r19,lo8(0)
 1852 0618 2095      		com r18
 1853 061a 3095      		com r19
 1854 061c 2170      		andi r18,lo8(1)
 1855 061e 3070      		andi r19,hi8(1)
 1856               	.LM306:
 1857 0620 C901      		movw r24,r18
 1858               	/* epilogue start */
 1859 0622 0895      		ret
 1860               	.LFE48:
 1862               	.global	pressed_switch1
 1864               	pressed_switch1:
 1865               	.LFB49:
 1866               	.LM307:
 1867               	/* prologue: function */
 1868               	/* frame size = 0 */
 1869               	.LM308:
 1870 0624 20B3      		in r18,48-32
 1871 0626 30E0      		ldi r19,lo8(0)
 1872 0628 3695      		lsr r19
 1873 062a 2795      		ror r18
 1874 062c 2095      		com r18
 1875 062e 3095      		com r19
 1876 0630 2170      		andi r18,lo8(1)
 1877 0632 3070      		andi r19,hi8(1)
 1878               	.LM309:
 1879 0634 C901      		movw r24,r18
 1880               	/* epilogue start */
 1881 0636 0895      		ret
 1882               	.LFE49:
 1884               	.global	pressed_switch2
 1886               	pressed_switch2:
 1887               	.LFB50:
 1888               	.LM310:
 1889               	/* prologue: function */
 1890               	/* frame size = 0 */
 1891               	.LM311:
 1892 0638 20B3      		in r18,48-32
 1893 063a 30E0      		ldi r19,lo8(0)
 1894 063c 3695      		lsr r19
 1895 063e 2795      		ror r18
 1896 0640 3695      		lsr r19
 1897 0642 2795      		ror r18
 1898 0644 2095      		com r18
 1899 0646 3095      		com r19
 1900 0648 2170      		andi r18,lo8(1)
 1901 064a 3070      		andi r19,hi8(1)
 1902               	.LM312:
 1903 064c C901      		movw r24,r18
 1904               	/* epilogue start */
 1905 064e 0895      		ret
 1906               	.LFE50:
 1908               	.global	pressed_switch3
 1910               	pressed_switch3:
 1911               	.LFB51:
 1912               	.LM313:
 1913               	/* prologue: function */
 1914               	/* frame size = 0 */
 1915               	.LM314:
 1916 0650 20B3      		in r18,48-32
 1917 0652 30E0      		ldi r19,lo8(0)
 1918 0654 43E0      		ldi r20,3
 1919 0656 3695      	1:	lsr r19
 1920 0658 2795      		ror r18
 1921 065a 4A95      		dec r20
 1922 065c 01F4      		brne 1b
 1923 065e 2095      		com r18
 1924 0660 3095      		com r19
 1925 0662 2170      		andi r18,lo8(1)
 1926 0664 3070      		andi r19,hi8(1)
 1927               	.LM315:
 1928 0666 C901      		movw r24,r18
 1929               	/* epilogue start */
 1930 0668 0895      		ret
 1931               	.LFE51:
 1933               	.global	line_track
 1935               	line_track:
 1936               	.LFB53:
 1937               	.LM316:
 1938 066a 6F92      		push r6
 1939 066c 7F92      		push r7
 1940 066e 8F92      		push r8
 1941 0670 9F92      		push r9
 1942 0672 AF92      		push r10
 1943 0674 BF92      		push r11
 1944 0676 CF92      		push r12
 1945 0678 DF92      		push r13
 1946 067a EF92      		push r14
 1947 067c FF92      		push r15
 1948 067e 0F93      		push r16
 1949 0680 1F93      		push r17
 1950               	/* prologue: function */
 1951               	/* frame size = 0 */
 1952               	.LBB509:
 1953               	.LBB510:
 1954               	.LM317:
 1955 0682 AC9A      		sbi 53-32,4
 1956               	.LM318:
 1957 0684 AD98      		cbi 53-32,5
 1958               	.LM319:
 1959 0686 AE9A      		sbi 53-32,6
 1960               	.LM320:
 1961 0688 AF98      		cbi 53-32,7
 1962               	.LBE510:
 1963               	.LBE509:
 1964               	.LM321:
 1965 068a 8091 0000 		lds r24,sensorbyte
 1966 068e 8630      		cpi r24,lo8(6)
 1967 0690 01F0      		breq .L181
 1968 0692 8730      		cpi r24,lo8(7)
 1969 0694 00F4      		brsh .L176
 1970 0696 8230      		cpi r24,lo8(2)
 1971 0698 01F0      		breq .L168
 1972 069a 8330      		cpi r24,lo8(3)
 1973 069c 00F4      		brsh .L177
 1974 069e 8130      		cpi r24,lo8(1)
 1975 06a0 01F4      		brne .L166
 1976 06a2 00C0      		rjmp .L184
 1977               	.L177:
 1978 06a4 8330      		cpi r24,lo8(3)
 1979 06a6 01F0      		breq .L169
 1980 06a8 8430      		cpi r24,lo8(4)
 1981 06aa 01F4      		brne .L166
 1982 06ac 00C0      		rjmp .L185
 1983               	.L176:
 1984 06ae 8830      		cpi r24,lo8(8)
 1985 06b0 01F0      		breq .L173
 1986 06b2 8830      		cpi r24,lo8(8)
 1987 06b4 00F0      		brlo .L172
 1988 06b6 8C30      		cpi r24,lo8(12)
 1989 06b8 01F0      		breq .L174
 1990 06ba 8E30      		cpi r24,lo8(14)
 1991 06bc 01F4      		brne .L166
 1992 06be 00C0      		rjmp .L186
 1993               	.L185:
 1994               	.LM322:
 1995 06c0 81E0      		ldi r24,lo8(1)
 1996 06c2 90E0      		ldi r25,hi8(1)
 1997 06c4 00C0      		rjmp .L180
 1998               	.L168:
 1999               	.LM323:
 2000 06c6 8FEF      		ldi r24,lo8(-1)
 2001 06c8 9FEF      		ldi r25,hi8(-1)
 2002 06ca 00C0      		rjmp .L180
 2003               	.L174:
 2004               	.LM324:
 2005 06cc 83E0      		ldi r24,lo8(3)
 2006 06ce 90E0      		ldi r25,hi8(3)
 2007 06d0 00C0      		rjmp .L180
 2008               	.L169:
 2009               	.LM325:
 2010 06d2 8DEF      		ldi r24,lo8(-3)
 2011 06d4 9FEF      		ldi r25,hi8(-3)
 2012 06d6 00C0      		rjmp .L183
 2013               	.L186:
 2014               	.LM326:
 2015 06d8 84E0      		ldi r24,lo8(4)
 2016 06da 90E0      		ldi r25,hi8(4)
 2017 06dc 00C0      		rjmp .L180
 2018               	.L172:
 2019               	.LM327:
 2020 06de 8CEF      		ldi r24,lo8(-4)
 2021 06e0 9FEF      		ldi r25,hi8(-4)
 2022               	.L183:
 2023 06e2 9093 0000 		sts (mpos)+1,r25
 2024 06e6 8093 0000 		sts mpos,r24
 2025               	.LM328:
 2026 06ea 8091 0000 		lds r24,flag1
 2027 06ee 9091 0000 		lds r25,(flag1)+1
 2028 06f2 0197      		sbiw r24,1
 2029 06f4 01F4      		brne .L166
 2030               	.L181:
 2031               	.LM329:
 2032 06f6 1092 0000 		sts (mpos)+1,__zero_reg__
 2033 06fa 1092 0000 		sts mpos,__zero_reg__
 2034 06fe 00C0      		rjmp .L166
 2035               	.L173:
 2036               	.LM330:
 2037 0700 86E0      		ldi r24,lo8(6)
 2038 0702 90E0      		ldi r25,hi8(6)
 2039 0704 00C0      		rjmp .L180
 2040               	.L184:
 2041               	.LM331:
 2042 0706 8AEF      		ldi r24,lo8(-6)
 2043 0708 9FEF      		ldi r25,hi8(-6)
 2044               	.L180:
 2045 070a 9093 0000 		sts (mpos)+1,r25
 2046 070e 8093 0000 		sts mpos,r24
 2047               	.L166:
 2048               	.LM332:
 2049 0712 6091 0000 		lds r22,mpos
 2050 0716 7091 0000 		lds r23,(mpos)+1
 2051 071a 8827      		clr r24
 2052 071c 77FD      		sbrc r23,7
 2053 071e 8095      		com r24
 2054 0720 982F      		mov r25,r24
 2055 0722 0E94 0000 		call __floatsisf
 2056 0726 5B01      		movw r10,r22
 2057 0728 6C01      		movw r12,r24
 2058 072a 6091 0000 		lds r22,prev_error
 2059 072e 7091 0000 		lds r23,(prev_error)+1
 2060 0732 8091 0000 		lds r24,(prev_error)+2
 2061 0736 9091 0000 		lds r25,(prev_error)+3
 2062 073a A601      		movw r20,r12
 2063 073c 9501      		movw r18,r10
 2064 073e 0E94 0000 		call __subsf3
 2065 0742 7B01      		movw r14,r22
 2066 0744 8C01      		movw r16,r24
 2067 0746 6093 0000 		sts act_error,r22
 2068 074a 7093 0000 		sts (act_error)+1,r23
 2069 074e 8093 0000 		sts (act_error)+2,r24
 2070 0752 9093 0000 		sts (act_error)+3,r25
 2071               	.LM333:
 2072 0756 C601      		movw r24,r12
 2073 0758 B501      		movw r22,r10
 2074 075a 2091 0000 		lds r18,kp
 2075 075e 3091 0000 		lds r19,(kp)+1
 2076 0762 4091 0000 		lds r20,(kp)+2
 2077 0766 5091 0000 		lds r21,(kp)+3
 2078 076a 0E94 0000 		call __mulsf3
 2079 076e 3B01      		movw r6,r22
 2080 0770 4C01      		movw r8,r24
 2081 0772 C801      		movw r24,r16
 2082 0774 B701      		movw r22,r14
 2083 0776 2091 0000 		lds r18,kd
 2084 077a 3091 0000 		lds r19,(kd)+1
 2085 077e 4091 0000 		lds r20,(kd)+2
 2086 0782 5091 0000 		lds r21,(kd)+3
 2087 0786 0E94 0000 		call __mulsf3
 2088 078a 9B01      		movw r18,r22
 2089 078c AC01      		movw r20,r24
 2090 078e C401      		movw r24,r8
 2091 0790 B301      		movw r22,r6
 2092 0792 0E94 0000 		call __subsf3
 2093 0796 7B01      		movw r14,r22
 2094 0798 8C01      		movw r16,r24
 2095 079a 6093 0000 		sts control,r22
 2096 079e 7093 0000 		sts (control)+1,r23
 2097 07a2 8093 0000 		sts (control)+2,r24
 2098 07a6 9093 0000 		sts (control)+3,r25
 2099               	.LM334:
 2100 07aa A092 0000 		sts prev_error,r10
 2101 07ae B092 0000 		sts (prev_error)+1,r11
 2102 07b2 C092 0000 		sts (prev_error)+2,r12
 2103 07b6 D092 0000 		sts (prev_error)+3,r13
 2104               	.LM335:
 2105 07ba 6091 0000 		lds r22,opt
 2106 07be 7091 0000 		lds r23,(opt)+1
 2107 07c2 80E0      		ldi r24,lo8(0)
 2108 07c4 90E0      		ldi r25,hi8(0)
 2109 07c6 0E94 0000 		call __floatunsisf
 2110 07ca 5B01      		movw r10,r22
 2111 07cc 6C01      		movw r12,r24
 2112               	.LBB511:
 2113               	.LBB512:
 2114               	.LM336:
 2115 07ce A801      		movw r20,r16
 2116 07d0 9701      		movw r18,r14
 2117 07d2 0E94 0000 		call __subsf3
 2118 07d6 0E94 0000 		call __fixsfsi
 2119 07da 7BBD      		out (74)+1-32,r23
 2120 07dc 6ABD      		out 74-32,r22
 2121               	.LBE512:
 2122               	.LBE511:
 2123               	.LBB513:
 2124               	.LBB514:
 2125               	.LM337:
 2126 07de C601      		movw r24,r12
 2127 07e0 B501      		movw r22,r10
 2128 07e2 A801      		movw r20,r16
 2129 07e4 9701      		movw r18,r14
 2130 07e6 0E94 0000 		call __addsf3
 2131 07ea 0E94 0000 		call __fixsfsi
 2132 07ee 79BD      		out (72)+1-32,r23
 2133 07f0 68BD      		out 72-32,r22
 2134               	/* epilogue start */
 2135               	.LBE514:
 2136               	.LBE513:
 2137               	.LM338:
 2138 07f2 1F91      		pop r17
 2139 07f4 0F91      		pop r16
 2140 07f6 FF90      		pop r15
 2141 07f8 EF90      		pop r14
 2142 07fa DF90      		pop r13
 2143 07fc CF90      		pop r12
 2144 07fe BF90      		pop r11
 2145 0800 AF90      		pop r10
 2146 0802 9F90      		pop r9
 2147 0804 8F90      		pop r8
 2148 0806 7F90      		pop r7
 2149 0808 6F90      		pop r6
 2150 080a 0895      		ret
 2151               	.LFE53:
 2153               	.global	init_devices
 2155               	init_devices:
 2156               	.LFB54:
 2157               	.LM339:
 2158               	/* prologue: function */
 2159               	/* frame size = 0 */
 2160               	.LM340:
 2161 080c 0E94 0000 		call port_init
 2162               	.LBB515:
 2163               	.LBB516:
 2164               	.LM341:
 2165 0810 1ABA      		out 58-32,__zero_reg__
 2166               	.LM342:
 2167 0812 16B8      		out 38-32,__zero_reg__
 2168               	.LM343:
 2169 0814 80E6      		ldi r24,lo8(96)
 2170 0816 87B9      		out 39-32,r24
 2171               	.LM344:
 2172 0818 87E8      		ldi r24,lo8(-121)
 2173 081a 86B9      		out 38-32,r24
 2174               	.LM345:
 2175 081c 80E8      		ldi r24,lo8(-128)
 2176 081e 88B9      		out 40-32,r24
 2177               	.LBE516:
 2178               	.LBE515:
 2179               	.LBB517:
 2180               	.LBB518:
 2181               	.LM346:
 2182 0820 8FEF      		ldi r24,lo8(-1)
 2183 0822 84BB      		out 52-32,r24
 2184               	.LBE518:
 2185               	.LBE517:
 2186               	.LM347:
 2187 0824 82E0      		ldi r24,lo8(2)
 2188 0826 0E94 0000 		call lcd_init
 2189               	.LBB519:
 2190               	.LBB520:
 2191               	.LM348:
 2192 082a 82B3      		in r24,50-32
 2193 082c 8F60      		ori r24,lo8(15)
 2194 082e 82BB      		out 50-32,r24
 2195               	.LM349:
 2196 0830 81B3      		in r24,49-32
 2197 0832 807F      		andi r24,lo8(-16)
 2198 0834 81BB      		out 49-32,r24
 2199               	.LBE520:
 2200               	.LBE519:
 2201               	.LM350:
 2202 0836 0E94 0000 		call pwm1_init
 2203               	/* epilogue start */
 2204               	.LM351:
 2205 083a 0895      		ret
 2206               	.LFE54:
 2208               	.global	Uturn
 2210               	Uturn:
 2211               	.LFB55:
 2212               	.LM352:
 2213               	/* prologue: function */
 2214               	/* frame size = 0 */
 2215               	.LM353:
 2216 083c 85E7      		ldi r24,lo8(117)
 2217 083e 8093 0000 		sts turn,r24
 2218               	.LBB521:
 2219               	.LBB522:
 2220               	.LM354:
 2221 0842 20EF      		ldi r18,lo8(240)
 2222 0844 30E0      		ldi r19,hi8(240)
 2223               	.LBE522:
 2224               	.LBE521:
 2225               	.LBB524:
 2226               	.LBB525:
 2227               	.LM355:
 2228 0846 82E2      		ldi r24,lo8(290)
 2229 0848 91E0      		ldi r25,hi8(290)
 2230 084a 00C0      		rjmp .L190
 2231               	.L191:
 2232               	.LBE525:
 2233               	.LBE524:
 2234               	.LBB527:
 2235               	.LBB523:
 2236               	.LM356:
 2237 084c 3BBD      		out (74)+1-32,r19
 2238 084e 2ABD      		out 74-32,r18
 2239               	.LBE523:
 2240               	.LBE527:
 2241               	.LBB528:
 2242               	.LBB526:
 2243               	.LM357:
 2244 0850 99BD      		out (72)+1-32,r25
 2245 0852 88BD      		out 72-32,r24
 2246               	.LBE526:
 2247               	.LBE528:
 2248               	.LBB529:
 2249               	.LBB530:
 2250               	.LM358:
 2251 0854 AC98      		cbi 53-32,4
 2252               	.LM359:
 2253 0856 AD9A      		sbi 53-32,5
 2254               	.LM360:
 2255 0858 AE9A      		sbi 53-32,6
 2256               	.LM361:
 2257 085a AF98      		cbi 53-32,7
 2258               	.L190:
 2259               	.LBE530:
 2260               	.LBE529:
 2261               	.LM362:
 2262 085c CD99      		sbic 57-32,5
 2263 085e 00C0      		rjmp .L191
 2264 0860 00C0      		rjmp .L198
 2265               	.L194:
 2266               	.LBB531:
 2267               	.LBB532:
 2268               	.LM363:
 2269 0862 3BBD      		out (74)+1-32,r19
 2270 0864 2ABD      		out 74-32,r18
 2271               	.LBE532:
 2272               	.LBE531:
 2273               	.LBB534:
 2274               	.LBB535:
 2275               	.LM364:
 2276 0866 99BD      		out (72)+1-32,r25
 2277 0868 88BD      		out 72-32,r24
 2278               	.LBE535:
 2279               	.LBE534:
 2280               	.LBB537:
 2281               	.LBB538:
 2282               	.LM365:
 2283 086a AC98      		cbi 53-32,4
 2284               	.LM366:
 2285 086c AD9A      		sbi 53-32,5
 2286               	.LM367:
 2287 086e AE9A      		sbi 53-32,6
 2288               	.LM368:
 2289 0870 AF98      		cbi 53-32,7
 2290 0872 00C0      		rjmp .L197
 2291               	.L198:
 2292               	.LBE538:
 2293               	.LBE537:
 2294               	.LBB539:
 2295               	.LBB533:
 2296               	.LM369:
 2297 0874 29EB      		ldi r18,lo8(185)
 2298 0876 30E0      		ldi r19,hi8(185)
 2299               	.LBE533:
 2300               	.LBE539:
 2301               	.LBB540:
 2302               	.LBB536:
 2303               	.LM370:
 2304 0878 87ED      		ldi r24,lo8(215)
 2305 087a 90E0      		ldi r25,hi8(215)
 2306               	.L197:
 2307               	.LBE536:
 2308               	.LBE540:
 2309               	.LM371:
 2310 087c CE9B      		sbis 57-32,6
 2311 087e 00C0      		rjmp .L193
 2312 0880 8699      		sbic 48-32,6
 2313 0882 00C0      		rjmp .L194
 2314               	.L193:
 2315               	.LBB541:
 2316               	.LBB542:
 2317               	.LM372:
 2318 0884 8FE8      		ldi r24,lo8(399)
 2319 0886 91E0      		ldi r25,hi8(399)
 2320 0888 9BBD      		out (74)+1-32,r25
 2321 088a 8ABD      		out 74-32,r24
 2322               	.LBE542:
 2323               	.LBE541:
 2324               	.LBB543:
 2325               	.LBB544:
 2326               	.LM373:
 2327 088c 99BD      		out (72)+1-32,r25
 2328 088e 88BD      		out 72-32,r24
 2329               	.LBE544:
 2330               	.LBE543:
 2331               	.LBB545:
 2332               	.LBB546:
 2333               	.LM374:
 2334 0890 AC9A      		sbi 53-32,4
 2335               	.LM375:
 2336 0892 AD9A      		sbi 53-32,5
 2337               	.LM376:
 2338 0894 AE9A      		sbi 53-32,6
 2339               	.LM377:
 2340 0896 AF9A      		sbi 53-32,7
 2341               	.LBE546:
 2342               	.LBE545:
 2343               	.LM378:
 2344 0898 82E3      		ldi r24,lo8(50)
 2345 089a 90E0      		ldi r25,hi8(50)
 2346 089c 0E94 0000 		call delay_millisec
 2347               	/* epilogue start */
 2348               	.LM379:
 2349 08a0 0895      		ret
 2350               	.LFE55:
 2352               	.global	left_count
 2354               	left_count:
 2355               	.LFB58:
 2356               	.LM380:
 2357               	/* prologue: function */
 2358               	/* frame size = 0 */
 2359               	.LM381:
 2360 08a2 CC99      		sbic 57-32,4
 2361 08a4 00C0      		rjmp .L200
 2362               	.LM382:
 2363 08a6 8091 0000 		lds r24,l
 2364 08aa 9091 0000 		lds r25,(l)+1
 2365 08ae 892B      		or r24,r25
 2366 08b0 01F4      		brne .L202
 2367               	.LM383:
 2368 08b2 8091 0000 		lds r24,lcount
 2369 08b6 9091 0000 		lds r25,(lcount)+1
 2370 08ba 0196      		adiw r24,1
 2371 08bc 9093 0000 		sts (lcount)+1,r25
 2372 08c0 8093 0000 		sts lcount,r24
 2373               	.LM384:
 2374 08c4 81E0      		ldi r24,lo8(1)
 2375 08c6 90E0      		ldi r25,hi8(1)
 2376 08c8 9093 0000 		sts (l)+1,r25
 2377 08cc 8093 0000 		sts l,r24
 2378 08d0 0895      		ret
 2379               	.L200:
 2380               	.LM385:
 2381 08d2 1092 0000 		sts (l)+1,__zero_reg__
 2382 08d6 1092 0000 		sts l,__zero_reg__
 2383               	.L202:
 2384 08da 0895      		ret
 2385               	.LFE58:
 2387               	.global	special_case_check
 2389               	special_case_check:
 2390               	.LFB60:
 2391               	.LM386:
 2392               	/* prologue: function */
 2393               	/* frame size = 0 */
 2394               	.LM387:
 2395 08dc CD9B      		sbis 57-32,5
 2396 08de 00C0      		rjmp .L204
 2397 08e0 8091 0000 		lds r24,flag1
 2398 08e4 9091 0000 		lds r25,(flag1)+1
 2399 08e8 0197      		sbiw r24,1
 2400 08ea 01F4      		brne .L210
 2401               	.L204:
 2402               	.LM388:
 2403 08ec 81E0      		ldi r24,lo8(1)
 2404 08ee 90E0      		ldi r25,hi8(1)
 2405 08f0 9093 0000 		sts (flag1)+1,r25
 2406 08f4 8093 0000 		sts flag1,r24
 2407               	.LM389:
 2408 08f8 CC99      		sbic 57-32,4
 2409 08fa 00C0      		rjmp .L210
 2410 08fc 869B      		sbis 48-32,6
 2411 08fe 00C0      		rjmp .L206
 2412 0900 CE9B      		sbis 57-32,6
 2413 0902 00C0      		rjmp .L206
 2414 0904 0895      		ret
 2415               	.L209:
 2416               	.LBB547:
 2417               	.LBB548:
 2418               	.LM390:
 2419 0906 3BBD      		out (74)+1-32,r19
 2420 0908 2ABD      		out 74-32,r18
 2421               	.LBE548:
 2422               	.LBE547:
 2423               	.LBB550:
 2424               	.LBB551:
 2425               	.LM391:
 2426 090a 39BD      		out (72)+1-32,r19
 2427 090c 28BD      		out 72-32,r18
 2428               	.LBE551:
 2429               	.LBE550:
 2430               	.LBB552:
 2431               	.LBB553:
 2432               	.LM392:
 2433 090e AC9A      		sbi 53-32,4
 2434               	.LM393:
 2435 0910 AD98      		cbi 53-32,5
 2436               	.LM394:
 2437 0912 AE9A      		sbi 53-32,6
 2438               	.LM395:
 2439 0914 AF98      		cbi 53-32,7
 2440               	.LBE553:
 2441               	.LBE552:
 2442               	.LM396:
 2443 0916 80E0      		ldi r24,lo8(0)
 2444 0918 90E0      		ldi r25,hi8(0)
 2445 091a 8799      		sbic 48-32,7
 2446 091c 00C0      		rjmp .L213
 2447               	.LBB554:
 2448               	.LBB555:
 2449               	.LM397:
 2450 091e AC9A      		sbi 53-32,4
 2451               	.LM398:
 2452 0920 AD9A      		sbi 53-32,5
 2453               	.LM399:
 2454 0922 AE9A      		sbi 53-32,6
 2455               	.LM400:
 2456 0924 AF9A      		sbi 53-32,7
 2457 0926 00C0      		rjmp .L213
 2458               	.L206:
 2459 0928 81E0      		ldi r24,lo8(1)
 2460 092a 90E0      		ldi r25,hi8(1)
 2461               	.LBE555:
 2462               	.LBE554:
 2463               	.LBB556:
 2464               	.LBB549:
 2465               	.LM401:
 2466 092c 20EF      		ldi r18,lo8(240)
 2467 092e 30E0      		ldi r19,hi8(240)
 2468               	.L213:
 2469               	.LBE549:
 2470               	.LBE556:
 2471               	.LM402:
 2472 0930 CC9B      		sbis 57-32,4
 2473 0932 00C0      		rjmp .L208
 2474 0934 9093 0000 		sts (flag1)+1,r25
 2475 0938 8093 0000 		sts flag1,r24
 2476 093c 0895      		ret
 2477               	.L208:
 2478 093e 8799      		sbic 48-32,7
 2479 0940 00C0      		rjmp .L209
 2480 0942 9093 0000 		sts (flag1)+1,r25
 2481 0946 8093 0000 		sts flag1,r24
 2482               	.L210:
 2483 094a 0895      		ret
 2484               	.LFE60:
 2486               	.global	line_track_new
 2488               	line_track_new:
 2489               	.LFB63:
 2490               	.LM403:
 2491               	/* prologue: function */
 2492               	/* frame size = 0 */
 2493               	.LM404:
 2494 094c 0E94 0000 		call check_sensors
 2495               	.LBB557:
 2496               	.LBB558:
 2497               	.LM405:
 2498 0950 AC9A      		sbi 53-32,4
 2499               	.LM406:
 2500 0952 AD98      		cbi 53-32,5
 2501               	.LM407:
 2502 0954 AE9A      		sbi 53-32,6
 2503               	.LM408:
 2504 0956 AF98      		cbi 53-32,7
 2505               	.LBE558:
 2506               	.LBE557:
 2507               	.LM409:
 2508 0958 CE9B      		sbis 57-32,6
 2509 095a 00C0      		rjmp .L215
 2510 095c 8699      		sbic 48-32,6
 2511 095e 00C0      		rjmp .L215
 2512               	.LM410:
 2513 0960 8091 0000 		lds r24,opt
 2514 0964 9091 0000 		lds r25,(opt)+1
 2515 0968 4E97      		sbiw r24,30
 2516               	.LBB559:
 2517               	.LBB560:
 2518               	.LM411:
 2519 096a 9BBD      		out (74)+1-32,r25
 2520 096c 8ABD      		out 74-32,r24
 2521               	.LBE560:
 2522               	.LBE559:
 2523               	.LM412:
 2524 096e CC96      		adiw r24,60
 2525 0970 00C0      		rjmp .L220
 2526               	.L215:
 2527               	.LM413:
 2528 0972 869B      		sbis 48-32,6
 2529 0974 00C0      		rjmp .L217
 2530 0976 CE99      		sbic 57-32,6
 2531 0978 00C0      		rjmp .L217
 2532               	.LM414:
 2533 097a 8091 0000 		lds r24,opt
 2534 097e 9091 0000 		lds r25,(opt)+1
 2535 0982 4E96      		adiw r24,30
 2536               	.LBB561:
 2537               	.LBB562:
 2538               	.LM415:
 2539 0984 9BBD      		out (74)+1-32,r25
 2540 0986 8ABD      		out 74-32,r24
 2541               	.LBE562:
 2542               	.LBE561:
 2543               	.LM416:
 2544 0988 CC97      		sbiw r24,60
 2545 098a 00C0      		rjmp .L220
 2546               	.L217:
 2547               	.LM417:
 2548 098c 869B      		sbis 48-32,6
 2549 098e 00C0      		rjmp .L218
 2550 0990 CE9B      		sbis 57-32,6
 2551 0992 00C0      		rjmp .L218
 2552               	.LM418:
 2553 0994 0E94 0000 		call line_track
 2554 0998 00C0      		rjmp .L216
 2555               	.L218:
 2556               	.LM419:
 2557 099a 8699      		sbic 48-32,6
 2558 099c 00C0      		rjmp .L216
 2559 099e CE99      		sbic 57-32,6
 2560 09a0 00C0      		rjmp .L216
 2561               	.LM420:
 2562 09a2 8091 0000 		lds r24,opt
 2563 09a6 9091 0000 		lds r25,(opt)+1
 2564               	.LBB563:
 2565               	.LBB564:
 2566               	.LM421:
 2567 09aa 9BBD      		out (74)+1-32,r25
 2568 09ac 8ABD      		out 74-32,r24
 2569               	.L220:
 2570               	.LBE564:
 2571               	.LBE563:
 2572               	.LBB565:
 2573               	.LBB566:
 2574               	.LM422:
 2575 09ae 99BD      		out (72)+1-32,r25
 2576 09b0 88BD      		out 72-32,r24
 2577               	.L216:
 2578               	.LBE566:
 2579               	.LBE565:
 2580               	.LM423:
 2581 09b2 8AE0      		ldi r24,lo8(10)
 2582 09b4 90E0      		ldi r25,hi8(10)
 2583 09b6 0E94 0000 		call delay_microsec
 2584               	/* epilogue start */
 2585               	.LM424:
 2586 09ba 0895      		ret
 2587               	.LFE63:
 2589               	.global	end_zone_uturn
 2591               	end_zone_uturn:
 2592               	.LFB59:
 2593               	.LM425:
 2594               	/* prologue: function */
 2595               	/* frame size = 0 */
 2596               	.LM426:
 2597 09bc 85E7      		ldi r24,lo8(117)
 2598 09be 8093 0000 		sts turn,r24
 2599               	.LBB567:
 2600               	.LBB568:
 2601               	.LM427:
 2602 09c2 24E0      		ldi r18,lo8(260)
 2603 09c4 31E0      		ldi r19,hi8(260)
 2604               	.LBE568:
 2605               	.LBE567:
 2606               	.LBB570:
 2607               	.LBB571:
 2608               	.LM428:
 2609 09c6 88E1      		ldi r24,lo8(280)
 2610 09c8 91E0      		ldi r25,hi8(280)
 2611 09ca 00C0      		rjmp .L222
 2612               	.L223:
 2613               	.LBE571:
 2614               	.LBE570:
 2615               	.LBB573:
 2616               	.LBB569:
 2617               	.LM429:
 2618 09cc 3BBD      		out (74)+1-32,r19
 2619 09ce 2ABD      		out 74-32,r18
 2620               	.LBE569:
 2621               	.LBE573:
 2622               	.LBB574:
 2623               	.LBB572:
 2624               	.LM430:
 2625 09d0 99BD      		out (72)+1-32,r25
 2626 09d2 88BD      		out 72-32,r24
 2627               	.LBE572:
 2628               	.LBE574:
 2629               	.LBB575:
 2630               	.LBB576:
 2631               	.LM431:
 2632 09d4 AC98      		cbi 53-32,4
 2633               	.LM432:
 2634 09d6 AD9A      		sbi 53-32,5
 2635               	.LM433:
 2636 09d8 AE9A      		sbi 53-32,6
 2637               	.LM434:
 2638 09da AF98      		cbi 53-32,7
 2639               	.L222:
 2640               	.LBE576:
 2641               	.LBE575:
 2642               	.LM435:
 2643 09dc CD9B      		sbis 57-32,5
 2644 09de 00C0      		rjmp .L223
 2645               	.L236:
 2646               	.LM436:
 2647 09e0 CE9B      		sbis 57-32,6
 2648 09e2 00C0      		rjmp .L236
 2649 09e4 869B      		sbis 48-32,6
 2650 09e6 00C0      		rjmp .L236
 2651               	.L232:
 2652               	.LM437:
 2653 09e8 CD99      		sbic 57-32,5
 2654 09ea 00C0      		rjmp .L232
 2655 09ec 00C0      		rjmp .L239
 2656               	.L228:
 2657               	.LBB577:
 2658               	.LBB578:
 2659               	.LM438:
 2660 09ee 9BBD      		out (74)+1-32,r25
 2661 09f0 8ABD      		out 74-32,r24
 2662               	.LBE578:
 2663               	.LBE577:
 2664               	.LBB580:
 2665               	.LBB581:
 2666               	.LM439:
 2667 09f2 99BD      		out (72)+1-32,r25
 2668 09f4 88BD      		out 72-32,r24
 2669               	.LBE581:
 2670               	.LBE580:
 2671               	.LBB582:
 2672               	.LBB583:
 2673               	.LM440:
 2674 09f6 AC98      		cbi 53-32,4
 2675               	.LM441:
 2676 09f8 AD9A      		sbi 53-32,5
 2677               	.LM442:
 2678 09fa AE9A      		sbi 53-32,6
 2679               	.LM443:
 2680 09fc AF98      		cbi 53-32,7
 2681 09fe 00C0      		rjmp .L238
 2682               	.L239:
 2683               	.LBE583:
 2684               	.LBE582:
 2685               	.LBB584:
 2686               	.LBB579:
 2687               	.LM444:
 2688 0a00 82ED      		ldi r24,lo8(210)
 2689 0a02 90E0      		ldi r25,hi8(210)
 2690               	.L238:
 2691               	.LBE579:
 2692               	.LBE584:
 2693               	.LM445:
 2694 0a04 CE9B      		sbis 57-32,6
 2695 0a06 00C0      		rjmp .L235
 2696 0a08 8699      		sbic 48-32,6
 2697 0a0a 00C0      		rjmp .L228
 2698 0a0c 00C0      		rjmp .L235
 2699               	.L229:
 2700               	.LM446:
 2701 0a0e 0E94 0000 		call line_track_new
 2702               	.L235:
 2703               	.LM447:
 2704 0a12 CC9B      		sbis 57-32,4
 2705 0a14 00C0      		rjmp .L229
 2706 0a16 879B      		sbis 48-32,7
 2707 0a18 00C0      		rjmp .L229
 2708               	.LBB585:
 2709               	.LBB586:
 2710               	.LM448:
 2711 0a1a 8FE8      		ldi r24,lo8(399)
 2712 0a1c 91E0      		ldi r25,hi8(399)
 2713 0a1e 9BBD      		out (74)+1-32,r25
 2714 0a20 8ABD      		out 74-32,r24
 2715               	.LBE586:
 2716               	.LBE585:
 2717               	.LBB587:
 2718               	.LBB588:
 2719               	.LM449:
 2720 0a22 99BD      		out (72)+1-32,r25
 2721 0a24 88BD      		out 72-32,r24
 2722               	.LBE588:
 2723               	.LBE587:
 2724               	.LBB589:
 2725               	.LBB590:
 2726               	.LM450:
 2727 0a26 AC9A      		sbi 53-32,4
 2728               	.LM451:
 2729 0a28 AD9A      		sbi 53-32,5
 2730               	.LM452:
 2731 0a2a AE9A      		sbi 53-32,6
 2732               	.LM453:
 2733 0a2c AF9A      		sbi 53-32,7
 2734               	.LBE590:
 2735               	.LBE589:
 2736               	.LM454:
 2737 0a2e 82E3      		ldi r24,lo8(50)
 2738 0a30 90E0      		ldi r25,hi8(50)
 2739 0a32 0E94 0000 		call delay_millisec
 2740               	/* epilogue start */
 2741               	.LM455:
 2742 0a36 0895      		ret
 2743               	.LFE59:
 2745               	.global	turn_left
 2747               	turn_left:
 2748               	.LFB57:
 2749               	.LM456:
 2750               	/* prologue: function */
 2751               	/* frame size = 0 */
 2752               	.LM457:
 2753 0a38 8CE6      		ldi r24,lo8(108)
 2754 0a3a 8093 0000 		sts turn,r24
 2755               	.LBB591:
 2756               	.LBB592:
 2757               	.LM458:
 2758 0a3e 85EF      		ldi r24,lo8(245)
 2759 0a40 90E0      		ldi r25,hi8(245)
 2760 0a42 00C0      		rjmp .L241
 2761               	.L242:
 2762 0a44 9BBD      		out (74)+1-32,r25
 2763 0a46 8ABD      		out 74-32,r24
 2764               	.LBE592:
 2765               	.LBE591:
 2766               	.LBB593:
 2767               	.LBB594:
 2768               	.LM459:
 2769 0a48 99BD      		out (72)+1-32,r25
 2770 0a4a 88BD      		out 72-32,r24
 2771               	.LBE594:
 2772               	.LBE593:
 2773               	.LBB595:
 2774               	.LBB596:
 2775               	.LM460:
 2776 0a4c AC98      		cbi 53-32,4
 2777               	.LM461:
 2778 0a4e AD9A      		sbi 53-32,5
 2779               	.LM462:
 2780 0a50 AE9A      		sbi 53-32,6
 2781               	.LM463:
 2782 0a52 AF98      		cbi 53-32,7
 2783               	.L241:
 2784               	.LBE596:
 2785               	.LBE595:
 2786               	.LM464:
 2787 0a54 CD99      		sbic 57-32,5
 2788 0a56 00C0      		rjmp .L242
 2789 0a58 00C0      		rjmp .L251
 2790               	.L245:
 2791               	.LBB597:
 2792               	.LBB598:
 2793               	.LM465:
 2794 0a5a 9BBD      		out (74)+1-32,r25
 2795 0a5c 8ABD      		out 74-32,r24
 2796               	.LBE598:
 2797               	.LBE597:
 2798               	.LBB600:
 2799               	.LBB601:
 2800               	.LM466:
 2801 0a5e 99BD      		out (72)+1-32,r25
 2802 0a60 88BD      		out 72-32,r24
 2803               	.LBE601:
 2804               	.LBE600:
 2805               	.LBB602:
 2806               	.LBB603:
 2807               	.LM467:
 2808 0a62 AC98      		cbi 53-32,4
 2809               	.LM468:
 2810 0a64 AD9A      		sbi 53-32,5
 2811               	.LM469:
 2812 0a66 AE9A      		sbi 53-32,6
 2813               	.LM470:
 2814 0a68 AF98      		cbi 53-32,7
 2815 0a6a 00C0      		rjmp .L250
 2816               	.L251:
 2817               	.LBE603:
 2818               	.LBE602:
 2819               	.LBB604:
 2820               	.LBB599:
 2821               	.LM471:
 2822 0a6c 80EF      		ldi r24,lo8(240)
 2823 0a6e 90E0      		ldi r25,hi8(240)
 2824               	.L250:
 2825               	.LBE599:
 2826               	.LBE604:
 2827               	.LM472:
 2828 0a70 CE9B      		sbis 57-32,6
 2829 0a72 00C0      		rjmp .L248
 2830 0a74 8699      		sbic 48-32,6
 2831 0a76 00C0      		rjmp .L245
 2832 0a78 00C0      		rjmp .L248
 2833               	.L246:
 2834               	.LM473:
 2835 0a7a 0E94 0000 		call line_track_new
 2836               	.L248:
 2837               	.LM474:
 2838 0a7e CC9B      		sbis 57-32,4
 2839 0a80 00C0      		rjmp .L246
 2840 0a82 879B      		sbis 48-32,7
 2841 0a84 00C0      		rjmp .L246
 2842               	.LBB605:
 2843               	.LBB606:
 2844               	.LM475:
 2845 0a86 8FE8      		ldi r24,lo8(399)
 2846 0a88 91E0      		ldi r25,hi8(399)
 2847 0a8a 9BBD      		out (74)+1-32,r25
 2848 0a8c 8ABD      		out 74-32,r24
 2849               	.LBE606:
 2850               	.LBE605:
 2851               	.LBB607:
 2852               	.LBB608:
 2853               	.LM476:
 2854 0a8e 99BD      		out (72)+1-32,r25
 2855 0a90 88BD      		out 72-32,r24
 2856               	.LBE608:
 2857               	.LBE607:
 2858               	.LBB609:
 2859               	.LBB610:
 2860               	.LM477:
 2861 0a92 AC9A      		sbi 53-32,4
 2862               	.LM478:
 2863 0a94 AD9A      		sbi 53-32,5
 2864               	.LM479:
 2865 0a96 AE9A      		sbi 53-32,6
 2866               	.LM480:
 2867 0a98 AF9A      		sbi 53-32,7
 2868               	.LBE610:
 2869               	.LBE609:
 2870               	.LM481:
 2871 0a9a 82E3      		ldi r24,lo8(50)
 2872 0a9c 90E0      		ldi r25,hi8(50)
 2873 0a9e 0E94 0000 		call delay_millisec
 2874               	/* epilogue start */
 2875               	.LM482:
 2876 0aa2 0895      		ret
 2877               	.LFE57:
 2879               	.global	turn_right
 2881               	turn_right:
 2882               	.LFB56:
 2883               	.LM483:
 2884 0aa4 CF93      		push r28
 2885 0aa6 DF93      		push r29
 2886               	/* prologue: function */
 2887               	/* frame size = 0 */
 2888               	.LM484:
 2889 0aa8 82E7      		ldi r24,lo8(114)
 2890 0aaa 8093 0000 		sts turn,r24
 2891               	.LBB611:
 2892               	.LBB612:
 2893               	.LM485:
 2894 0aae C5EF      		ldi r28,lo8(245)
 2895 0ab0 D0E0      		ldi r29,hi8(245)
 2896 0ab2 00C0      		rjmp .L253
 2897               	.L254:
 2898 0ab4 DBBD      		out (74)+1-32,r29
 2899 0ab6 CABD      		out 74-32,r28
 2900               	.LBE612:
 2901               	.LBE611:
 2902               	.LBB613:
 2903               	.LBB614:
 2904               	.LM486:
 2905 0ab8 D9BD      		out (72)+1-32,r29
 2906 0aba C8BD      		out 72-32,r28
 2907               	.LBE614:
 2908               	.LBE613:
 2909               	.LBB615:
 2910               	.LBB616:
 2911               	.LM487:
 2912 0abc AC9A      		sbi 53-32,4
 2913               	.LM488:
 2914 0abe AD98      		cbi 53-32,5
 2915               	.LM489:
 2916 0ac0 AE98      		cbi 53-32,6
 2917               	.LM490:
 2918 0ac2 AF9A      		sbi 53-32,7
 2919               	.LBE616:
 2920               	.LBE615:
 2921               	.LM491:
 2922 0ac4 0E94 0000 		call left_count
 2923               	.L253:
 2924               	.LM492:
 2925 0ac8 CF99      		sbic 57-32,7
 2926 0aca 00C0      		rjmp .L254
 2927 0acc 00C0      		rjmp .L263
 2928               	.L257:
 2929               	.LBB617:
 2930               	.LBB618:
 2931               	.LM493:
 2932 0ace DBBD      		out (74)+1-32,r29
 2933 0ad0 CABD      		out 74-32,r28
 2934               	.LBE618:
 2935               	.LBE617:
 2936               	.LBB620:
 2937               	.LBB621:
 2938               	.LM494:
 2939 0ad2 D9BD      		out (72)+1-32,r29
 2940 0ad4 C8BD      		out 72-32,r28
 2941               	.LBE621:
 2942               	.LBE620:
 2943               	.LBB622:
 2944               	.LBB623:
 2945               	.LM495:
 2946 0ad6 AC9A      		sbi 53-32,4
 2947               	.LM496:
 2948 0ad8 AD98      		cbi 53-32,5
 2949               	.LM497:
 2950 0ada AE98      		cbi 53-32,6
 2951               	.LM498:
 2952 0adc AF9A      		sbi 53-32,7
 2953               	.LBE623:
 2954               	.LBE622:
 2955               	.LM499:
 2956 0ade 0E94 0000 		call left_count
 2957 0ae2 00C0      		rjmp .L262
 2958               	.L263:
 2959               	.LBB624:
 2960               	.LBB619:
 2961               	.LM500:
 2962 0ae4 C0EF      		ldi r28,lo8(240)
 2963 0ae6 D0E0      		ldi r29,hi8(240)
 2964               	.L262:
 2965               	.LBE619:
 2966               	.LBE624:
 2967               	.LM501:
 2968 0ae8 CE9B      		sbis 57-32,6
 2969 0aea 00C0      		rjmp .L260
 2970 0aec 8699      		sbic 48-32,6
 2971 0aee 00C0      		rjmp .L257
 2972 0af0 00C0      		rjmp .L260
 2973               	.L258:
 2974               	.LM502:
 2975 0af2 0E94 0000 		call line_track_new
 2976               	.L260:
 2977               	.LM503:
 2978 0af6 CC9B      		sbis 57-32,4
 2979 0af8 00C0      		rjmp .L258
 2980 0afa 879B      		sbis 48-32,7
 2981 0afc 00C0      		rjmp .L258
 2982               	.LBB625:
 2983               	.LBB626:
 2984               	.LM504:
 2985 0afe 8FE8      		ldi r24,lo8(399)
 2986 0b00 91E0      		ldi r25,hi8(399)
 2987 0b02 9BBD      		out (74)+1-32,r25
 2988 0b04 8ABD      		out 74-32,r24
 2989               	.LBE626:
 2990               	.LBE625:
 2991               	.LBB627:
 2992               	.LBB628:
 2993               	.LM505:
 2994 0b06 99BD      		out (72)+1-32,r25
 2995 0b08 88BD      		out 72-32,r24
 2996               	.LBE628:
 2997               	.LBE627:
 2998               	.LBB629:
 2999               	.LBB630:
 3000               	.LM506:
 3001 0b0a AC9A      		sbi 53-32,4
 3002               	.LM507:
 3003 0b0c AD9A      		sbi 53-32,5
 3004               	.LM508:
 3005 0b0e AE9A      		sbi 53-32,6
 3006               	.LM509:
 3007 0b10 AF9A      		sbi 53-32,7
 3008               	.LBE630:
 3009               	.LBE629:
 3010               	.LM510:
 3011 0b12 82E3      		ldi r24,lo8(50)
 3012 0b14 90E0      		ldi r25,hi8(50)
 3013 0b16 0E94 0000 		call delay_millisec
 3014               	/* epilogue start */
 3015               	.LM511:
 3016 0b1a DF91      		pop r29
 3017 0b1c CF91      		pop r28
 3018 0b1e 0895      		ret
 3019               	.LFE56:
 3021               	.global	sense_of_directon
 3023               	sense_of_directon:
 3024               	.LFB66:
 3025               	.LM512:
 3026               	/* prologue: function */
 3027               	/* frame size = 0 */
 3028               	.LM513:
 3029 0b20 8091 0000 		lds r24,turn
 3030 0b24 8237      		cpi r24,lo8(114)
 3031 0b26 01F4      		brne .L265
 3032               	.LM514:
 3033 0b28 8091 0000 		lds r24,dir
 3034 0b2c 9091 0000 		lds r25,(dir)+1
 3035 0b30 2FEF      		ldi r18,hi8(-1)
 3036 0b32 8F3F      		cpi r24,lo8(-1)
 3037 0b34 9207      		cpc r25,r18
 3038 0b36 01F0      		breq .L275
 3039 0b38 2FEF      		ldi r18,hi8(-1)
 3040 0b3a 8F3F      		cpi r24,lo8(-1)
 3041 0b3c 9207      		cpc r25,r18
 3042 0b3e 01F0      		breq .+2
 3043 0b40 04F4      		brge .L271
 3044 0b42 8E5F      		subi r24,lo8(-2)
 3045 0b44 9F4F      		sbci r25,hi8(-2)
 3046 0b46 01F0      		breq .+2
 3047 0b48 00C0      		rjmp .L283
 3048 0b4a 00C0      		rjmp .L280
 3049               	.L271:
 3050 0b4c 8130      		cpi r24,1
 3051 0b4e 9105      		cpc r25,__zero_reg__
 3052 0b50 01F4      		brne .+2
 3053 0b52 00C0      		rjmp .L281
 3054 0b54 0297      		sbiw r24,2
 3055 0b56 01F0      		breq .+2
 3056 0b58 00C0      		rjmp .L283
 3057 0b5a 00C0      		rjmp .L279
 3058               	.L265:
 3059               	.LM515:
 3060 0b5c 8C36      		cpi r24,lo8(108)
 3061 0b5e 01F4      		brne .L272
 3062               	.LM516:
 3063 0b60 8091 0000 		lds r24,dir
 3064 0b64 9091 0000 		lds r25,(dir)+1
 3065 0b68 2FEF      		ldi r18,hi8(-1)
 3066 0b6a 8F3F      		cpi r24,lo8(-1)
 3067 0b6c 9207      		cpc r25,r18
 3068 0b6e 01F0      		breq .L281
 3069 0b70 2FEF      		ldi r18,hi8(-1)
 3070 0b72 8F3F      		cpi r24,lo8(-1)
 3071 0b74 9207      		cpc r25,r18
 3072 0b76 01F0      		breq .+2
 3073 0b78 04F4      		brge .L277
 3074 0b7a 8E5F      		subi r24,lo8(-2)
 3075 0b7c 9F4F      		sbci r25,hi8(-2)
 3076 0b7e 01F4      		brne .L283
 3077 0b80 00C0      		rjmp .L279
 3078               	.L277:
 3079 0b82 8130      		cpi r24,1
 3080 0b84 9105      		cpc r25,__zero_reg__
 3081 0b86 01F0      		breq .L275
 3082 0b88 0297      		sbiw r24,2
 3083 0b8a 01F4      		brne .L283
 3084 0b8c 00C0      		rjmp .L280
 3085               	.L275:
 3086               	.LM517:
 3087 0b8e 82E0      		ldi r24,lo8(2)
 3088 0b90 90E0      		ldi r25,hi8(2)
 3089 0b92 00C0      		rjmp .L284
 3090               	.L272:
 3091               	.LM518:
 3092 0b94 8537      		cpi r24,lo8(117)
 3093 0b96 01F4      		brne .L283
 3094               	.LM519:
 3095 0b98 8091 0000 		lds r24,dir
 3096 0b9c 9091 0000 		lds r25,(dir)+1
 3097 0ba0 2FEF      		ldi r18,hi8(-1)
 3098 0ba2 8F3F      		cpi r24,lo8(-1)
 3099 0ba4 9207      		cpc r25,r18
 3100 0ba6 01F0      		breq .L279
 3101 0ba8 2FEF      		ldi r18,hi8(-1)
 3102 0baa 8F3F      		cpi r24,lo8(-1)
 3103 0bac 9207      		cpc r25,r18
 3104 0bae 01F0      		breq .+2
 3105 0bb0 04F4      		brge .L282
 3106 0bb2 8E5F      		subi r24,lo8(-2)
 3107 0bb4 9F4F      		sbci r25,hi8(-2)
 3108 0bb6 01F4      		brne .L283
 3109 0bb8 00C0      		rjmp .L285
 3110               	.L282:
 3111 0bba 8130      		cpi r24,1
 3112 0bbc 9105      		cpc r25,__zero_reg__
 3113 0bbe 01F0      		breq .L280
 3114 0bc0 0297      		sbiw r24,2
 3115 0bc2 01F4      		brne .L283
 3116 0bc4 00C0      		rjmp .L281
 3117               	.L280:
 3118               	.LM520:
 3119 0bc6 8FEF      		ldi r24,lo8(-1)
 3120 0bc8 9FEF      		ldi r25,hi8(-1)
 3121 0bca 00C0      		rjmp .L284
 3122               	.L279:
 3123               	.LM521:
 3124 0bcc 81E0      		ldi r24,lo8(1)
 3125 0bce 90E0      		ldi r25,hi8(1)
 3126 0bd0 00C0      		rjmp .L284
 3127               	.L281:
 3128               	.LM522:
 3129 0bd2 8EEF      		ldi r24,lo8(-2)
 3130 0bd4 9FEF      		ldi r25,hi8(-2)
 3131               	.L284:
 3132 0bd6 9093 0000 		sts (dir)+1,r25
 3133 0bda 8093 0000 		sts dir,r24
 3134 0bde 0895      		ret
 3135               	.L285:
 3136               	.LM523:
 3137 0be0 82E0      		ldi r24,lo8(2)
 3138 0be2 90E0      		ldi r25,hi8(2)
 3139 0be4 9093 0000 		sts (dir)+1,r25
 3140 0be8 8093 0000 		sts dir,r24
 3141               	.L283:
 3142 0bec 0895      		ret
 3143               	.LFE66:
 3145               	.global	is_coordinate_null
 3147               	is_coordinate_null:
 3148               	.LFB68:
 3149               	.LM524:
 3150               	.LVL103:
 3151               	/* prologue: function */
 3152               	/* frame size = 0 */
 3153               	.LM525:
 3154 0bee FC01      		movw r30,r24
 3155 0bf0 A4E0      		ldi r26,4
 3156 0bf2 EE0F      	1:	lsl r30
 3157 0bf4 FF1F      		rol r31
 3158 0bf6 AA95      		dec r26
 3159 0bf8 01F4      		brne 1b
 3160 0bfa E60F      		add r30,r22
 3161 0bfc F71F      		adc r31,r23
 3162 0bfe DF01      		movw r26,r30
 3163 0c00 AA0F      		lsl r26
 3164 0c02 BB1F      		rol r27
 3165 0c04 AA0F      		lsl r26
 3166 0c06 BB1F      		rol r27
 3167               	.LVL104:
 3168 0c08 A050      		subi r26,lo8(-(dir_array))
 3169 0c0a B040      		sbci r27,hi8(-(dir_array))
 3170 0c0c 8C91      		ld r24,X
 3171               	.LVL105:
 3172 0c0e 8634      		cpi r24,lo8(70)
 3173 0c10 01F4      		brne .L287
 3174 0c12 1196      		adiw r26,1
 3175 0c14 8C91      		ld r24,X
 3176 0c16 1197      		sbiw r26,1
 3177 0c18 8634      		cpi r24,lo8(70)
 3178 0c1a 01F4      		brne .L287
 3179 0c1c EE0F      		lsl r30
 3180 0c1e FF1F      		rol r31
 3181 0c20 EE0F      		lsl r30
 3182 0c22 FF1F      		rol r31
 3183 0c24 E050      		subi r30,lo8(-(dir_array+2))
 3184 0c26 F040      		sbci r31,hi8(-(dir_array+2))
 3185 0c28 8081      		ld r24,Z
 3186 0c2a 8634      		cpi r24,lo8(70)
 3187 0c2c 01F4      		brne .L287
 3188 0c2e 90E0      		ldi r25,lo8(0)
 3189 0c30 1396      		adiw r26,3
 3190 0c32 8C91      		ld r24,X
 3191 0c34 8634      		cpi r24,lo8(70)
 3192 0c36 01F0      		breq .L288
 3193 0c38 91E0      		ldi r25,lo8(1)
 3194               	.L288:
 3195 0c3a 81E0      		ldi r24,lo8(1)
 3196 0c3c 9827      		eor r25,r24
 3197 0c3e 292F      		mov r18,r25
 3198 0c40 30E0      		ldi r19,lo8(0)
 3199 0c42 00C0      		rjmp .L289
 3200               	.L287:
 3201 0c44 20E0      		ldi r18,lo8(0)
 3202 0c46 30E0      		ldi r19,hi8(0)
 3203               	.L289:
 3204               	.LM526:
 3205 0c48 C901      		movw r24,r18
 3206               	/* epilogue start */
 3207 0c4a 0895      		ret
 3208               	.LFE68:
 3210               	.global	update_array
 3212               	update_array:
 3213               	.LFB67:
 3214               	.LM527:
 3215               	.LVL106:
 3216 0c4c CF92      		push r12
 3217 0c4e DF92      		push r13
 3218 0c50 EF92      		push r14
 3219 0c52 FF92      		push r15
 3220 0c54 0F93      		push r16
 3221 0c56 1F93      		push r17
 3222 0c58 CF93      		push r28
 3223 0c5a DF93      		push r29
 3224               	/* prologue: function */
 3225               	/* frame size = 0 */
 3226 0c5c F82E      		mov r15,r24
 3227 0c5e E62E      		mov r14,r22
 3228 0c60 D42E      		mov r13,r20
 3229 0c62 C22E      		mov r12,r18
 3230               	.LM528:
 3231 0c64 C091 0000 		lds r28,x_coordinate
 3232 0c68 D091 0000 		lds r29,(x_coordinate)+1
 3233 0c6c 0091 0000 		lds r16,y_coordinate
 3234 0c70 1091 0000 		lds r17,(y_coordinate)+1
 3235 0c74 CE01      		movw r24,r28
 3236               	.LVL107:
 3237 0c76 B801      		movw r22,r16
 3238               	.LVL108:
 3239 0c78 0E94 0000 		call is_coordinate_null
 3240               	.LVL109:
 3241 0c7c 892B      		or r24,r25
 3242 0c7e 01F4      		brne .+2
 3243 0c80 00C0      		rjmp .L298
 3244               	.LM529:
 3245 0c82 8091 0000 		lds r24,dir
 3246 0c86 9091 0000 		lds r25,(dir)+1
 3247 0c8a 2FEF      		ldi r18,hi8(-1)
 3248 0c8c 8F3F      		cpi r24,lo8(-1)
 3249 0c8e 9207      		cpc r25,r18
 3250 0c90 01F4      		brne .+2
 3251 0c92 00C0      		rjmp .L294
 3252 0c94 2FEF      		ldi r18,hi8(-1)
 3253 0c96 8F3F      		cpi r24,lo8(-1)
 3254 0c98 9207      		cpc r25,r18
 3255 0c9a 01F0      		breq .+2
 3256 0c9c 04F4      		brge .L297
 3257 0c9e 8E5F      		subi r24,lo8(-2)
 3258 0ca0 9F4F      		sbci r25,hi8(-2)
 3259 0ca2 01F0      		breq .+2
 3260 0ca4 00C0      		rjmp .L298
 3261 0ca6 00C0      		rjmp .L299
 3262               	.L297:
 3263 0ca8 8130      		cpi r24,1
 3264 0caa 9105      		cpc r25,__zero_reg__
 3265 0cac 01F0      		breq .L295
 3266 0cae 0297      		sbiw r24,2
 3267 0cb0 01F0      		breq .+2
 3268 0cb2 00C0      		rjmp .L298
 3269               	.LM530:
 3270 0cb4 FE01      		movw r30,r28
 3271 0cb6 B4E0      		ldi r27,4
 3272 0cb8 EE0F      	1:	lsl r30
 3273 0cba FF1F      		rol r31
 3274 0cbc BA95      		dec r27
 3275 0cbe 01F4      		brne 1b
 3276 0cc0 E00F      		add r30,r16
 3277 0cc2 F11F      		adc r31,r17
 3278 0cc4 EE0F      		lsl r30
 3279 0cc6 FF1F      		rol r31
 3280 0cc8 EE0F      		lsl r30
 3281 0cca FF1F      		rol r31
 3282 0ccc DF01      		movw r26,r30
 3283 0cce A050      		subi r26,lo8(-(dir_array))
 3284 0cd0 B040      		sbci r27,hi8(-(dir_array))
 3285 0cd2 FC92      		st X,r15
 3286               	.LM531:
 3287 0cd4 1196      		adiw r26,1
 3288 0cd6 EC92      		st X,r14
 3289 0cd8 1197      		sbiw r26,1
 3290               	.LM532:
 3291 0cda E050      		subi r30,lo8(-(dir_array+2))
 3292 0cdc F040      		sbci r31,hi8(-(dir_array+2))
 3293 0cde D082      		st Z,r13
 3294               	.LM533:
 3295 0ce0 1396      		adiw r26,3
 3296 0ce2 CC92      		st X,r12
 3297 0ce4 00C0      		rjmp .L298
 3298               	.L295:
 3299               	.LM534:
 3300 0ce6 FE01      		movw r30,r28
 3301 0ce8 64E0      		ldi r22,4
 3302 0cea EE0F      	1:	lsl r30
 3303 0cec FF1F      		rol r31
 3304 0cee 6A95      		dec r22
 3305 0cf0 01F4      		brne 1b
 3306 0cf2 E00F      		add r30,r16
 3307 0cf4 F11F      		adc r31,r17
 3308 0cf6 EE0F      		lsl r30
 3309 0cf8 FF1F      		rol r31
 3310 0cfa EE0F      		lsl r30
 3311 0cfc FF1F      		rol r31
 3312 0cfe DF01      		movw r26,r30
 3313 0d00 A050      		subi r26,lo8(-(dir_array))
 3314 0d02 B040      		sbci r27,hi8(-(dir_array))
 3315 0d04 1196      		adiw r26,1
 3316 0d06 FC92      		st X,r15
 3317 0d08 1197      		sbiw r26,1
 3318               	.LM535:
 3319 0d0a E050      		subi r30,lo8(-(dir_array+2))
 3320 0d0c F040      		sbci r31,hi8(-(dir_array+2))
 3321 0d0e E082      		st Z,r14
 3322               	.LM536:
 3323 0d10 1396      		adiw r26,3
 3324 0d12 DC92      		st X,r13
 3325 0d14 1397      		sbiw r26,3
 3326               	.LM537:
 3327 0d16 CC92      		st X,r12
 3328 0d18 00C0      		rjmp .L298
 3329               	.L299:
 3330               	.LM538:
 3331 0d1a FE01      		movw r30,r28
 3332 0d1c 34E0      		ldi r19,4
 3333 0d1e EE0F      	1:	lsl r30
 3334 0d20 FF1F      		rol r31
 3335 0d22 3A95      		dec r19
 3336 0d24 01F4      		brne 1b
 3337 0d26 E00F      		add r30,r16
 3338 0d28 F11F      		adc r31,r17
 3339 0d2a EE0F      		lsl r30
 3340 0d2c FF1F      		rol r31
 3341 0d2e EE0F      		lsl r30
 3342 0d30 FF1F      		rol r31
 3343 0d32 DF01      		movw r26,r30
 3344 0d34 A050      		subi r26,lo8(-(dir_array+2))
 3345 0d36 B040      		sbci r27,hi8(-(dir_array+2))
 3346 0d38 FC92      		st X,r15
 3347               	.LM539:
 3348 0d3a E050      		subi r30,lo8(-(dir_array))
 3349 0d3c F040      		sbci r31,hi8(-(dir_array))
 3350 0d3e E382      		std Z+3,r14
 3351               	.LM540:
 3352 0d40 D082      		st Z,r13
 3353               	.LM541:
 3354 0d42 C182      		std Z+1,r12
 3355 0d44 00C0      		rjmp .L298
 3356               	.L294:
 3357               	.LM542:
 3358 0d46 FE01      		movw r30,r28
 3359 0d48 84E0      		ldi r24,4
 3360 0d4a EE0F      	1:	lsl r30
 3361 0d4c FF1F      		rol r31
 3362 0d4e 8A95      		dec r24
 3363 0d50 01F4      		brne 1b
 3364 0d52 E00F      		add r30,r16
 3365 0d54 F11F      		adc r31,r17
 3366 0d56 EE0F      		lsl r30
 3367 0d58 FF1F      		rol r31
 3368 0d5a EE0F      		lsl r30
 3369 0d5c FF1F      		rol r31
 3370 0d5e DF01      		movw r26,r30
 3371 0d60 A050      		subi r26,lo8(-(dir_array))
 3372 0d62 B040      		sbci r27,hi8(-(dir_array))
 3373 0d64 1396      		adiw r26,3
 3374 0d66 FC92      		st X,r15
 3375 0d68 1397      		sbiw r26,3
 3376               	.LM543:
 3377 0d6a EC92      		st X,r14
 3378               	.LM544:
 3379 0d6c 1196      		adiw r26,1
 3380 0d6e DC92      		st X,r13
 3381               	.LM545:
 3382 0d70 E050      		subi r30,lo8(-(dir_array+2))
 3383 0d72 F040      		sbci r31,hi8(-(dir_array+2))
 3384 0d74 C082      		st Z,r12
 3385               	.L298:
 3386               	/* epilogue start */
 3387               	.LM546:
 3388 0d76 DF91      		pop r29
 3389 0d78 CF91      		pop r28
 3390 0d7a 1F91      		pop r17
 3391 0d7c 0F91      		pop r16
 3392 0d7e FF90      		pop r15
 3393               	.LVL110:
 3394 0d80 EF90      		pop r14
 3395               	.LVL111:
 3396 0d82 DF90      		pop r13
 3397               	.LVL112:
 3398 0d84 CF90      		pop r12
 3399               	.LVL113:
 3400 0d86 0895      		ret
 3401               	.LFE67:
 3403               	.global	update_coordinates
 3405               	update_coordinates:
 3406               	.LFB65:
 3407               	.LM547:
 3408               	/* prologue: function */
 3409               	/* frame size = 0 */
 3410               	.LM548:
 3411 0d88 8091 0000 		lds r24,Coordinates_changed_by
 3412 0d8c 9091 0000 		lds r25,(Coordinates_changed_by)+1
 3413               	.LVL114:
 3414               	.LM549:
 3415 0d90 8230      		cpi r24,2
 3416 0d92 9105      		cpc r25,__zero_reg__
 3417 0d94 01F0      		breq .+2
 3418 0d96 00C0      		rjmp .L301
 3419               	.LM550:
 3420 0d98 8091 0000 		lds r24,dir
 3421 0d9c 9091 0000 		lds r25,(dir)+1
 3422               	.LVL115:
 3423 0da0 2FEF      		ldi r18,hi8(-1)
 3424 0da2 8F3F      		cpi r24,lo8(-1)
 3425 0da4 9207      		cpc r25,r18
 3426 0da6 01F0      		breq .L304
 3427 0da8 2FEF      		ldi r18,hi8(-1)
 3428 0daa 8F3F      		cpi r24,lo8(-1)
 3429 0dac 9207      		cpc r25,r18
 3430 0dae 01F0      		breq .+2
 3431 0db0 04F4      		brge .L307
 3432 0db2 8E5F      		subi r24,lo8(-2)
 3433 0db4 9F4F      		sbci r25,hi8(-2)
 3434 0db6 01F0      		breq .+2
 3435 0db8 00C0      		rjmp .L302
 3436 0dba 00C0      		rjmp .L332
 3437               	.L307:
 3438 0dbc 8130      		cpi r24,1
 3439 0dbe 9105      		cpc r25,__zero_reg__
 3440 0dc0 01F0      		breq .L305
 3441 0dc2 0297      		sbiw r24,2
 3442 0dc4 01F0      		breq .+2
 3443 0dc6 00C0      		rjmp .L302
 3444 0dc8 00C0      		rjmp .L333
 3445               	.L305:
 3446               	.LM551:
 3447 0dca 8091 0000 		lds r24,x_coordinate
 3448 0dce 9091 0000 		lds r25,(x_coordinate)+1
 3449 0dd2 0196      		adiw r24,1
 3450 0dd4 9093 0000 		sts (x_coordinate)+1,r25
 3451 0dd8 8093 0000 		sts x_coordinate,r24
 3452               	.LM552:
 3453 0ddc 84E5      		ldi r24,lo8(84)
 3454 0dde 90E0      		ldi r25,hi8(84)
 3455 0de0 66E4      		ldi r22,lo8(70)
 3456 0de2 70E0      		ldi r23,hi8(70)
 3457 0de4 44E5      		ldi r20,lo8(84)
 3458 0de6 50E0      		ldi r21,hi8(84)
 3459 0de8 26E4      		ldi r18,lo8(70)
 3460 0dea 30E0      		ldi r19,hi8(70)
 3461 0dec 0E94 0000 		call update_array
 3462               	.LM553:
 3463 0df0 8091 0000 		lds r24,x_coordinate
 3464 0df4 9091 0000 		lds r25,(x_coordinate)+1
 3465 0df8 0196      		adiw r24,1
 3466 0dfa 9093 0000 		sts (x_coordinate)+1,r25
 3467 0dfe 8093 0000 		sts x_coordinate,r24
 3468               	.LM554:
 3469 0e02 6091 0000 		lds r22,y_coordinate
 3470 0e06 7091 0000 		lds r23,(y_coordinate)+1
 3471 0e0a 0E94 0000 		call is_coordinate_null
 3472 0e0e 00C0      		rjmp .L325
 3473               	.L304:
 3474               	.LM555:
 3475 0e10 8091 0000 		lds r24,x_coordinate
 3476 0e14 9091 0000 		lds r25,(x_coordinate)+1
 3477 0e18 0197      		sbiw r24,1
 3478 0e1a 9093 0000 		sts (x_coordinate)+1,r25
 3479 0e1e 8093 0000 		sts x_coordinate,r24
 3480               	.LM556:
 3481 0e22 84E5      		ldi r24,lo8(84)
 3482 0e24 90E0      		ldi r25,hi8(84)
 3483 0e26 66E4      		ldi r22,lo8(70)
 3484 0e28 70E0      		ldi r23,hi8(70)
 3485 0e2a 44E5      		ldi r20,lo8(84)
 3486 0e2c 50E0      		ldi r21,hi8(84)
 3487 0e2e 26E4      		ldi r18,lo8(70)
 3488 0e30 30E0      		ldi r19,hi8(70)
 3489 0e32 0E94 0000 		call update_array
 3490               	.LM557:
 3491 0e36 8091 0000 		lds r24,x_coordinate
 3492 0e3a 9091 0000 		lds r25,(x_coordinate)+1
 3493 0e3e 0197      		sbiw r24,1
 3494 0e40 9093 0000 		sts (x_coordinate)+1,r25
 3495 0e44 8093 0000 		sts x_coordinate,r24
 3496               	.LM558:
 3497 0e48 6091 0000 		lds r22,y_coordinate
 3498 0e4c 7091 0000 		lds r23,(y_coordinate)+1
 3499 0e50 0E94 0000 		call is_coordinate_null
 3500 0e54 00C0      		rjmp .L325
 3501               	.L333:
 3502               	.LM559:
 3503 0e56 8091 0000 		lds r24,y_coordinate
 3504 0e5a 9091 0000 		lds r25,(y_coordinate)+1
 3505 0e5e 0196      		adiw r24,1
 3506 0e60 9093 0000 		sts (y_coordinate)+1,r25
 3507 0e64 8093 0000 		sts y_coordinate,r24
 3508               	.LM560:
 3509 0e68 84E5      		ldi r24,lo8(84)
 3510 0e6a 90E0      		ldi r25,hi8(84)
 3511 0e6c 66E4      		ldi r22,lo8(70)
 3512 0e6e 70E0      		ldi r23,hi8(70)
 3513 0e70 44E5      		ldi r20,lo8(84)
 3514 0e72 50E0      		ldi r21,hi8(84)
 3515 0e74 26E4      		ldi r18,lo8(70)
 3516 0e76 30E0      		ldi r19,hi8(70)
 3517 0e78 0E94 0000 		call update_array
 3518               	.LM561:
 3519 0e7c 6091 0000 		lds r22,y_coordinate
 3520 0e80 7091 0000 		lds r23,(y_coordinate)+1
 3521 0e84 6F5F      		subi r22,lo8(-(1))
 3522 0e86 7F4F      		sbci r23,hi8(-(1))
 3523 0e88 7093 0000 		sts (y_coordinate)+1,r23
 3524 0e8c 6093 0000 		sts y_coordinate,r22
 3525               	.LM562:
 3526 0e90 8091 0000 		lds r24,x_coordinate
 3527 0e94 9091 0000 		lds r25,(x_coordinate)+1
 3528 0e98 0E94 0000 		call is_coordinate_null
 3529 0e9c 00C0      		rjmp .L325
 3530               	.L332:
 3531               	.LM563:
 3532 0e9e 8091 0000 		lds r24,y_coordinate
 3533 0ea2 9091 0000 		lds r25,(y_coordinate)+1
 3534 0ea6 0197      		sbiw r24,1
 3535 0ea8 9093 0000 		sts (y_coordinate)+1,r25
 3536 0eac 8093 0000 		sts y_coordinate,r24
 3537               	.LM564:
 3538 0eb0 84E5      		ldi r24,lo8(84)
 3539 0eb2 90E0      		ldi r25,hi8(84)
 3540 0eb4 66E4      		ldi r22,lo8(70)
 3541 0eb6 70E0      		ldi r23,hi8(70)
 3542 0eb8 44E5      		ldi r20,lo8(84)
 3543 0eba 50E0      		ldi r21,hi8(84)
 3544 0ebc 26E4      		ldi r18,lo8(70)
 3545 0ebe 30E0      		ldi r19,hi8(70)
 3546 0ec0 0E94 0000 		call update_array
 3547               	.LM565:
 3548 0ec4 6091 0000 		lds r22,y_coordinate
 3549 0ec8 7091 0000 		lds r23,(y_coordinate)+1
 3550 0ecc 6150      		subi r22,lo8(-(-1))
 3551 0ece 7040      		sbci r23,hi8(-(-1))
 3552 0ed0 7093 0000 		sts (y_coordinate)+1,r23
 3553 0ed4 6093 0000 		sts y_coordinate,r22
 3554               	.LM566:
 3555 0ed8 8091 0000 		lds r24,x_coordinate
 3556 0edc 9091 0000 		lds r25,(x_coordinate)+1
 3557 0ee0 0E94 0000 		call is_coordinate_null
 3558 0ee4 00C0      		rjmp .L325
 3559               	.LVL116:
 3560               	.L301:
 3561               	.LM567:
 3562 0ee6 0197      		sbiw r24,1
 3563 0ee8 01F0      		breq .+2
 3564 0eea 00C0      		rjmp .L302
 3565               	.LM568:
 3566 0eec 8091 0000 		lds r24,dir
 3567 0ef0 9091 0000 		lds r25,(dir)+1
 3568               	.LVL117:
 3569 0ef4 2FEF      		ldi r18,hi8(-1)
 3570 0ef6 8F3F      		cpi r24,lo8(-1)
 3571 0ef8 9207      		cpc r25,r18
 3572 0efa 01F0      		breq .L313
 3573 0efc 2FEF      		ldi r18,hi8(-1)
 3574 0efe 8F3F      		cpi r24,lo8(-1)
 3575 0f00 9207      		cpc r25,r18
 3576 0f02 01F0      		breq .+2
 3577 0f04 04F4      		brge .L316
 3578 0f06 8E5F      		subi r24,lo8(-2)
 3579 0f08 9F4F      		sbci r25,hi8(-2)
 3580 0f0a 01F0      		breq .+2
 3581 0f0c 00C0      		rjmp .L302
 3582 0f0e 00C0      		rjmp .L334
 3583               	.L316:
 3584 0f10 8130      		cpi r24,1
 3585 0f12 9105      		cpc r25,__zero_reg__
 3586 0f14 01F0      		breq .L314
 3587 0f16 0297      		sbiw r24,2
 3588 0f18 01F0      		breq .+2
 3589 0f1a 00C0      		rjmp .L302
 3590 0f1c 00C0      		rjmp .L335
 3591               	.L314:
 3592               	.LM569:
 3593 0f1e 8091 0000 		lds r24,x_coordinate
 3594 0f22 9091 0000 		lds r25,(x_coordinate)+1
 3595 0f26 0196      		adiw r24,1
 3596 0f28 9093 0000 		sts (x_coordinate)+1,r25
 3597 0f2c 8093 0000 		sts x_coordinate,r24
 3598               	.LM570:
 3599 0f30 6091 0000 		lds r22,y_coordinate
 3600 0f34 7091 0000 		lds r23,(y_coordinate)+1
 3601 0f38 0E94 0000 		call is_coordinate_null
 3602 0f3c 00C0      		rjmp .L325
 3603               	.L313:
 3604               	.LM571:
 3605 0f3e 8091 0000 		lds r24,x_coordinate
 3606 0f42 9091 0000 		lds r25,(x_coordinate)+1
 3607 0f46 0197      		sbiw r24,1
 3608 0f48 9093 0000 		sts (x_coordinate)+1,r25
 3609 0f4c 8093 0000 		sts x_coordinate,r24
 3610               	.LM572:
 3611 0f50 6091 0000 		lds r22,y_coordinate
 3612 0f54 7091 0000 		lds r23,(y_coordinate)+1
 3613 0f58 0E94 0000 		call is_coordinate_null
 3614 0f5c 00C0      		rjmp .L325
 3615               	.L335:
 3616               	.LM573:
 3617 0f5e 6091 0000 		lds r22,y_coordinate
 3618 0f62 7091 0000 		lds r23,(y_coordinate)+1
 3619 0f66 6F5F      		subi r22,lo8(-(1))
 3620 0f68 7F4F      		sbci r23,hi8(-(1))
 3621 0f6a 7093 0000 		sts (y_coordinate)+1,r23
 3622 0f6e 6093 0000 		sts y_coordinate,r22
 3623               	.LM574:
 3624 0f72 8091 0000 		lds r24,x_coordinate
 3625 0f76 9091 0000 		lds r25,(x_coordinate)+1
 3626 0f7a 0E94 0000 		call is_coordinate_null
 3627 0f7e 00C0      		rjmp .L325
 3628               	.L334:
 3629               	.LM575:
 3630 0f80 6091 0000 		lds r22,y_coordinate
 3631 0f84 7091 0000 		lds r23,(y_coordinate)+1
 3632 0f88 6150      		subi r22,lo8(-(-1))
 3633 0f8a 7040      		sbci r23,hi8(-(-1))
 3634 0f8c 7093 0000 		sts (y_coordinate)+1,r23
 3635 0f90 6093 0000 		sts y_coordinate,r22
 3636               	.LM576:
 3637 0f94 8091 0000 		lds r24,x_coordinate
 3638 0f98 9091 0000 		lds r25,(x_coordinate)+1
 3639 0f9c 0E94 0000 		call is_coordinate_null
 3640               	.L325:
 3641 0fa0 892B      		or r24,r25
 3642 0fa2 01F4      		brne .L320
 3643               	.LM577:
 3644 0fa4 8091 0000 		lds r24,repeat
 3645 0fa8 9091 0000 		lds r25,(repeat)+1
 3646 0fac 0196      		adiw r24,1
 3647 0fae 9093 0000 		sts (repeat)+1,r25
 3648 0fb2 8093 0000 		sts repeat,r24
 3649 0fb6 00C0      		rjmp .L302
 3650               	.L320:
 3651               	.LM578:
 3652 0fb8 1092 0000 		sts (repeat)+1,__zero_reg__
 3653 0fbc 1092 0000 		sts repeat,__zero_reg__
 3654               	.LVL118:
 3655               	.L302:
 3656               	.LM579:
 3657 0fc0 81E0      		ldi r24,lo8(1)
 3658               	.LVL119:
 3659 0fc2 60E0      		ldi r22,lo8(0)
 3660 0fc4 0E94 0000 		call lcd_byte
 3661               	.LM580:
 3662 0fc8 4091 0000 		lds r20,x_coordinate
 3663 0fcc 5091 0000 		lds r21,(x_coordinate)+1
 3664 0fd0 84E0      		ldi r24,lo8(4)
 3665 0fd2 90E0      		ldi r25,hi8(4)
 3666 0fd4 60E0      		ldi r22,lo8(0)
 3667 0fd6 70E0      		ldi r23,hi8(0)
 3668 0fd8 22E0      		ldi r18,lo8(2)
 3669 0fda 30E0      		ldi r19,hi8(2)
 3670 0fdc 0E94 0000 		call lcd_write_int_xy
 3671               	.LM581:
 3672 0fe0 4091 0000 		lds r20,y_coordinate
 3673 0fe4 5091 0000 		lds r21,(y_coordinate)+1
 3674 0fe8 88E0      		ldi r24,lo8(8)
 3675 0fea 90E0      		ldi r25,hi8(8)
 3676 0fec 60E0      		ldi r22,lo8(0)
 3677 0fee 70E0      		ldi r23,hi8(0)
 3678 0ff0 22E0      		ldi r18,lo8(2)
 3679 0ff2 30E0      		ldi r19,hi8(2)
 3680 0ff4 0E94 0000 		call lcd_write_int_xy
 3681               	.LM582:
 3682 0ff8 1092 0000 		sts (Coordinates_changed_by)+1,__zero_reg__
 3683 0ffc 1092 0000 		sts Coordinates_changed_by,__zero_reg__
 3684               	/* epilogue start */
 3685               	.LM583:
 3686 1000 0895      		ret
 3687               	.LFE65:
 3689               	.global	left_junc_check
 3691               	left_junc_check:
 3692               	.LFB64:
 3693               	.LM584:
 3694 1002 CF93      		push r28
 3695 1004 DF93      		push r29
 3696               	/* prologue: function */
 3697               	/* frame size = 0 */
 3698               	.LM585:
 3699 1006 CD99      		sbic 57-32,5
 3700 1008 00C0      		rjmp .L337
 3701               	.LM586:
 3702 100a C1E0      		ldi r28,lo8(1)
 3703 100c D0E0      		ldi r29,hi8(1)
 3704 100e D093 0000 		sts (flag1)+1,r29
 3705 1012 C093 0000 		sts flag1,r28
 3706               	.LM587:
 3707 1016 8091 0000 		lds r24,irc
 3708 101a 9091 0000 		lds r25,(irc)+1
 3709 101e 815D      		subi r24,lo8(2001)
 3710 1020 9740      		sbci r25,hi8(2001)
 3711 1022 04F0      		brlt .L338
 3712               	.LM588:
 3713 1024 81E0      		ldi r24,lo8(1)
 3714 1026 60E0      		ldi r22,lo8(0)
 3715 1028 0E94 0000 		call lcd_byte
 3716               	.LM589:
 3717 102c 82E0      		ldi r24,lo8(2)
 3718 102e 90E0      		ldi r25,hi8(2)
 3719 1030 9093 0000 		sts (Coordinates_changed_by)+1,r25
 3720 1034 8093 0000 		sts Coordinates_changed_by,r24
 3721 1038 00C0      		rjmp .L339
 3722               	.L338:
 3723               	.LM590:
 3724 103a 81E0      		ldi r24,lo8(1)
 3725 103c 60E0      		ldi r22,lo8(0)
 3726 103e 0E94 0000 		call lcd_byte
 3727               	.LM591:
 3728 1042 D093 0000 		sts (Coordinates_changed_by)+1,r29
 3729 1046 C093 0000 		sts Coordinates_changed_by,r28
 3730               	.L339:
 3731               	.LM592:
 3732 104a 8091 0000 		lds r24,irc
 3733 104e 9091 0000 		lds r25,(irc)+1
 3734 1052 892B      		or r24,r25
 3735 1054 01F4      		brne .L337
 3736               	.LM593:
 3737 1056 1092 0000 		sts (Coordinates_changed_by)+1,__zero_reg__
 3738 105a 1092 0000 		sts Coordinates_changed_by,__zero_reg__
 3739               	.L337:
 3740               	.LM594:
 3741 105e CE9B      		sbis 57-32,6
 3742 1060 00C0      		rjmp .L340
 3743 1062 8699      		sbic 48-32,6
 3744 1064 00C0      		rjmp .L341
 3745               	.L340:
 3746 1066 CC9B      		sbis 57-32,4
 3747 1068 00C0      		rjmp .L342
 3748 106a 8091 0000 		lds r24,special_flag
 3749 106e 9091 0000 		lds r25,(special_flag)+1
 3750 1072 0197      		sbiw r24,1
 3751 1074 01F4      		brne .L341
 3752               	.L342:
 3753               	.LBB631:
 3754               	.LBB632:
 3755               	.LM595:
 3756 1076 AC9A      		sbi 53-32,4
 3757               	.LM596:
 3758 1078 AD9A      		sbi 53-32,5
 3759               	.LM597:
 3760 107a AE9A      		sbi 53-32,6
 3761               	.LM598:
 3762 107c AF9A      		sbi 53-32,7
 3763               	.LBE632:
 3764               	.LBE631:
 3765               	.LM599:
 3766 107e 0E94 0000 		call update_coordinates
 3767               	.LM600:
 3768 1082 84E5      		ldi r24,lo8(84)
 3769 1084 90E0      		ldi r25,hi8(84)
 3770 1086 66E4      		ldi r22,lo8(70)
 3771 1088 70E0      		ldi r23,hi8(70)
 3772 108a 44E5      		ldi r20,lo8(84)
 3773 108c 50E0      		ldi r21,hi8(84)
 3774 108e 24E5      		ldi r18,lo8(84)
 3775 1090 30E0      		ldi r19,hi8(84)
 3776 1092 0E94 0000 		call update_array
 3777               	.LM601:
 3778 1096 1092 0000 		sts (irc)+1,__zero_reg__
 3779 109a 1092 0000 		sts irc,__zero_reg__
 3780 109e 00C0      		rjmp .L346
 3781               	.L341:
 3782               	.LM602:
 3783 10a0 CC9B      		sbis 57-32,4
 3784 10a2 00C0      		rjmp .L344
 3785 10a4 8091 0000 		lds r24,special_flag
 3786 10a8 9091 0000 		lds r25,(special_flag)+1
 3787 10ac 0197      		sbiw r24,1
 3788 10ae 01F4      		brne .L343
 3789               	.L344:
 3790 10b0 CE9B      		sbis 57-32,6
 3791 10b2 00C0      		rjmp .L343
 3792 10b4 869B      		sbis 48-32,6
 3793 10b6 00C0      		rjmp .L343
 3794               	.LM603:
 3795 10b8 0E94 0000 		call update_coordinates
 3796               	.LM604:
 3797 10bc 1092 0000 		sts (irc)+1,__zero_reg__
 3798 10c0 1092 0000 		sts irc,__zero_reg__
 3799               	.LM605:
 3800 10c4 8091 0000 		lds r24,repeat
 3801 10c8 9091 0000 		lds r25,(repeat)+1
 3802 10cc 0497      		sbiw r24,4
 3803 10ce 04F4      		brge .L343
 3804               	.LM606:
 3805 10d0 0E94 0000 		call turn_left
 3806               	.LM607:
 3807 10d4 86E4      		ldi r24,lo8(70)
 3808 10d6 90E0      		ldi r25,hi8(70)
 3809 10d8 66E4      		ldi r22,lo8(70)
 3810 10da 70E0      		ldi r23,hi8(70)
 3811 10dc 44E5      		ldi r20,lo8(84)
 3812 10de 50E0      		ldi r21,hi8(84)
 3813 10e0 24E5      		ldi r18,lo8(84)
 3814 10e2 30E0      		ldi r19,hi8(84)
 3815 10e4 0E94 0000 		call update_array
 3816               	.LBB633:
 3817               	.LBB634:
 3818               	.LM608:
 3819 10e8 AC9A      		sbi 53-32,4
 3820               	.LM609:
 3821 10ea AD9A      		sbi 53-32,5
 3822               	.LM610:
 3823 10ec AE9A      		sbi 53-32,6
 3824               	.LM611:
 3825 10ee AF9A      		sbi 53-32,7
 3826               	.LBE634:
 3827               	.LBE633:
 3828               	.LM612:
 3829 10f0 0E94 0000 		call sense_of_directon
 3830               	.LM613:
 3831 10f4 1092 0000 		sts (flag1)+1,__zero_reg__
 3832 10f8 1092 0000 		sts flag1,__zero_reg__
 3833               	.L346:
 3834               	.LM614:
 3835 10fc 1092 0000 		sts (special_flag)+1,__zero_reg__
 3836 1100 1092 0000 		sts special_flag,__zero_reg__
 3837               	.L343:
 3838               	.LM615:
 3839 1104 0E94 0000 		call special_case_check
 3840               	/* epilogue start */
 3841               	.LM616:
 3842 1108 DF91      		pop r29
 3843 110a CF91      		pop r28
 3844 110c 0895      		ret
 3845               	.LFE64:
 3847               		.data
 3848               	.LC0:
 3849 0000 4552 524F 		.string	"ERROR Fr Snsr"
 3849      5220 4672 
 3849      2053 6E73 
 3849      7200 
 3850               		.text
 3851               	.global	frSensorCheck
 3853               	frSensorCheck:
 3854               	.LFB62:
 3855               	.LM617:
 3856               	/* prologue: function */
 3857               	/* frame size = 0 */
 3858               	.LM618:
 3859 110e CE9B      		sbis 57-32,6
 3860 1110 00C0      		rjmp .L348
 3861 1112 869B      		sbis 48-32,6
 3862 1114 00C0      		rjmp .L348
 3863               	.LM619:
 3864 1116 8091 0000 		lds r24,sensorbyte
 3865 111a 8330      		cpi r24,lo8(3)
 3866 111c 01F0      		breq .L349
 3867 111e 8C30      		cpi r24,lo8(12)
 3868 1120 01F0      		breq .L349
 3869 1122 8430      		cpi r24,lo8(4)
 3870 1124 01F0      		breq .L349
 3871 1126 8230      		cpi r24,lo8(2)
 3872 1128 01F0      		breq .L349
 3873 112a 8630      		cpi r24,lo8(6)
 3874 112c 01F4      		brne .L350
 3875               	.L349:
 3876               	.LM620:
 3877 112e 8091 0000 		lds r24,flag1
 3878 1132 9091 0000 		lds r25,(flag1)+1
 3879 1136 892B      		or r24,r25
 3880 1138 01F4      		brne .L348
 3881               	.LM621:
 3882 113a 8091 0000 		lds r24,irc
 3883 113e 9091 0000 		lds r25,(irc)+1
 3884 1142 2091 0000 		lds r18,Coordinates_changed_by
 3885 1146 3091 0000 		lds r19,(Coordinates_changed_by)+1
 3886 114a 815D      		subi r24,lo8(2001)
 3887 114c 9740      		sbci r25,hi8(2001)
 3888 114e 04F0      		brlt .L351
 3889               	.LM622:
 3890 1150 232B      		or r18,r19
 3891 1152 01F4      		brne .L348
 3892               	.LM623:
 3893 1154 82E0      		ldi r24,lo8(2)
 3894 1156 90E0      		ldi r25,hi8(2)
 3895 1158 00C0      		rjmp .L354
 3896               	.L351:
 3897               	.LM624:
 3898 115a 232B      		or r18,r19
 3899 115c 01F4      		brne .L348
 3900               	.LM625:
 3901 115e 81E0      		ldi r24,lo8(1)
 3902 1160 90E0      		ldi r25,hi8(1)
 3903               	.L354:
 3904 1162 9093 0000 		sts (Coordinates_changed_by)+1,r25
 3905 1166 8093 0000 		sts Coordinates_changed_by,r24
 3906 116a 00C0      		rjmp .L348
 3907               	.L350:
 3908               	.LM626:
 3909 116c 81E0      		ldi r24,lo8(1)
 3910 116e 60E0      		ldi r22,lo8(0)
 3911 1170 0E94 0000 		call lcd_byte
 3912               	.LM627:
 3913 1174 80E0      		ldi r24,lo8(.LC0)
 3914 1176 90E0      		ldi r25,hi8(.LC0)
 3915 1178 0E94 0000 		call lcd_write_string
 3916               	.L348:
 3917               	.LM628:
 3918 117c 8091 0000 		lds r24,sensorbyte
 3919 1180 8823      		tst r24
 3920 1182 01F4      		brne .L353
 3921 1184 CC9B      		sbis 57-32,4
 3922 1186 00C0      		rjmp .L353
 3923 1188 CD9B      		sbis 57-32,5
 3924 118a 00C0      		rjmp .L353
 3925 118c CE9B      		sbis 57-32,6
 3926 118e 00C0      		rjmp .L353
 3927 1190 CF9B      		sbis 57-32,7
 3928 1192 00C0      		rjmp .L353
 3929 1194 869B      		sbis 48-32,6
 3930 1196 00C0      		rjmp .L353
 3931 1198 879B      		sbis 48-32,7
 3932 119a 00C0      		rjmp .L353
 3933 119c 8091 0000 		lds r24,flag1
 3934 11a0 9091 0000 		lds r25,(flag1)+1
 3935 11a4 892B      		or r24,r25
 3936 11a6 01F4      		brne .L353
 3937               	.LBB635:
 3938               	.LBB636:
 3939               	.LM629:
 3940 11a8 AC9A      		sbi 53-32,4
 3941               	.LM630:
 3942 11aa AD9A      		sbi 53-32,5
 3943               	.LM631:
 3944 11ac AE9A      		sbi 53-32,6
 3945               	.LM632:
 3946 11ae AF9A      		sbi 53-32,7
 3947               	.LBE636:
 3948               	.LBE635:
 3949               	.LM633:
 3950 11b0 0E94 0000 		call update_coordinates
 3951               	.LM634:
 3952 11b4 86E4      		ldi r24,lo8(70)
 3953 11b6 90E0      		ldi r25,hi8(70)
 3954 11b8 66E4      		ldi r22,lo8(70)
 3955 11ba 70E0      		ldi r23,hi8(70)
 3956 11bc 44E5      		ldi r20,lo8(84)
 3957 11be 50E0      		ldi r21,hi8(84)
 3958 11c0 26E4      		ldi r18,lo8(70)
 3959 11c2 30E0      		ldi r19,hi8(70)
 3960 11c4 0E94 0000 		call update_array
 3961               	.LM635:
 3962 11c8 0E94 0000 		call Uturn
 3963               	.LM636:
 3964 11cc 0E94 0000 		call sense_of_directon
 3965               	.LM637:
 3966 11d0 1092 0000 		sts (flag1)+1,__zero_reg__
 3967 11d4 1092 0000 		sts flag1,__zero_reg__
 3968               	.LM638:
 3969 11d8 1092 0000 		sts (irc)+1,__zero_reg__
 3970 11dc 1092 0000 		sts irc,__zero_reg__
 3971               	.L353:
 3972 11e0 0895      		ret
 3973               	.LFE62:
 3975               		.data
 3976               	.LC1:
 3977 000e 4669 6C6C 		.string	"Filliable"
 3977      6961 626C 
 3977      6500 
 3978               		.text
 3979               	.global	fill_missed_array
 3981               	fill_missed_array:
 3982               	.LFB69:
 3983               	.LM639:
 3984 11e2 6F92      		push r6
 3985 11e4 7F92      		push r7
 3986 11e6 8F92      		push r8
 3987 11e8 9F92      		push r9
 3988 11ea BF92      		push r11
 3989 11ec CF92      		push r12
 3990 11ee DF92      		push r13
 3991 11f0 EF92      		push r14
 3992 11f2 FF92      		push r15
 3993 11f4 0F93      		push r16
 3994 11f6 1F93      		push r17
 3995 11f8 CF93      		push r28
 3996 11fa DF93      		push r29
 3997               	/* prologue: function */
 3998               	/* frame size = 0 */
 3999               	.LM640:
 4000 11fc 81E0      		ldi r24,lo8(1)
 4001 11fe E82E      		mov r14,r24
 4002 1200 F12C      		mov r15,__zero_reg__
 4003               	.LVL120:
 4004               	.LBB637:
 4005               	.LBB638:
 4006               	.LM641:
 4007 1202 06E4      		ldi r16,lo8(70)
 4008 1204 B02E      		mov r11,r16
 4009 1206 00C0      		rjmp .L356
 4010               	.LVL121:
 4011               	.L365:
 4012               	.LM642:
 4013 1208 C701      		movw r24,r14
 4014 120a B801      		movw r22,r16
 4015 120c 0E94 0000 		call is_coordinate_null
 4016 1210 892B      		or r24,r25
 4017 1212 01F4      		brne .+2
 4018 1214 00C0      		rjmp .L357
 4019               	.LM643:
 4020 1216 81E0      		ldi r24,lo8(1)
 4021 1218 60E0      		ldi r22,lo8(0)
 4022 121a 0E94 0000 		call lcd_byte
 4023               	.LM644:
 4024 121e C301      		movw r24,r6
 4025 1220 B801      		movw r22,r16
 4026 1222 0E94 0000 		call is_coordinate_null
 4027 1226 892B      		or r24,r25
 4028 1228 01F0      		breq .+2
 4029 122a 00C0      		rjmp .L357
 4030 122c C401      		movw r24,r8
 4031 122e B801      		movw r22,r16
 4032 1230 0E94 0000 		call is_coordinate_null
 4033 1234 892B      		or r24,r25
 4034 1236 01F4      		brne .L357
 4035 1238 B801      		movw r22,r16
 4036 123a 6150      		subi r22,lo8(-(-1))
 4037 123c 7040      		sbci r23,hi8(-(-1))
 4038 123e C701      		movw r24,r14
 4039 1240 0E94 0000 		call is_coordinate_null
 4040 1244 892B      		or r24,r25
 4041 1246 01F4      		brne .L357
 4042 1248 B801      		movw r22,r16
 4043 124a 6F5F      		subi r22,lo8(-(1))
 4044 124c 7F4F      		sbci r23,hi8(-(1))
 4045 124e C701      		movw r24,r14
 4046 1250 0E94 0000 		call is_coordinate_null
 4047 1254 892B      		or r24,r25
 4048 1256 01F4      		brne .L357
 4049               	.LM645:
 4050 1258 81E0      		ldi r24,lo8(1)
 4051 125a 60E0      		ldi r22,lo8(0)
 4052 125c 0E94 0000 		call lcd_byte
 4053               	.LM646:
 4054 1260 80E0      		ldi r24,lo8(.LC1)
 4055 1262 90E0      		ldi r25,hi8(.LC1)
 4056 1264 0E94 0000 		call lcd_write_string
 4057               	.LM647:
 4058 1268 80ED      		ldi r24,lo8(2000)
 4059 126a 97E0      		ldi r25,hi8(2000)
 4060 126c 0E94 0000 		call delay_millisec
 4061               	.LM648:
 4062 1270 CD5B      		subi r28,lo8(-(67))
 4063 1272 DF4F      		sbci r29,hi8(-(67))
 4064 1274 8881      		ld r24,Y
 4065 1276 C354      		subi r28,lo8(-(-67))
 4066 1278 D040      		sbci r29,hi8(-(-67))
 4067 127a 8435      		cpi r24,lo8(84)
 4068 127c 01F4      		brne .L358
 4069               	.LM649:
 4070 127e 8983      		std Y+1,r24
 4071 1280 00C0      		rjmp .L359
 4072               	.L358:
 4073               	.LM650:
 4074 1282 B982      		std Y+1,r11
 4075               	.L359:
 4076               	.LM651:
 4077 1284 EF97      		sbiw r28,63
 4078 1286 8881      		ld r24,Y
 4079 1288 EF96      		adiw r28,63
 4080 128a 8435      		cpi r24,lo8(84)
 4081 128c 01F4      		brne .L360
 4082               	.LM652:
 4083 128e 8B83      		std Y+3,r24
 4084 1290 00C0      		rjmp .L361
 4085               	.L360:
 4086               	.LM653:
 4087 1292 BB82      		std Y+3,r11
 4088               	.L361:
 4089               	.LM654:
 4090 1294 8E81      		ldd r24,Y+6
 4091 1296 8435      		cpi r24,lo8(84)
 4092 1298 01F4      		brne .L362
 4093               	.LM655:
 4094 129a 8883      		st Y,r24
 4095 129c 00C0      		rjmp .L363
 4096               	.L362:
 4097               	.LM656:
 4098 129e B882      		st Y,r11
 4099               	.L363:
 4100               	.LM657:
 4101 12a0 F601      		movw r30,r12
 4102 12a2 8081      		ld r24,Z
 4103 12a4 8435      		cpi r24,lo8(84)
 4104 12a6 01F4      		brne .L364
 4105               	.LM658:
 4106 12a8 8A83      		std Y+2,r24
 4107 12aa 00C0      		rjmp .L357
 4108               	.L364:
 4109               	.LM659:
 4110 12ac BA82      		std Y+2,r11
 4111               	.L357:
 4112               	.LM660:
 4113 12ae 0F5F      		subi r16,lo8(-(1))
 4114 12b0 1F4F      		sbci r17,hi8(-(1))
 4115 12b2 85E0      		ldi r24,lo8(5)
 4116 12b4 90E0      		ldi r25,hi8(5)
 4117 12b6 C80E      		add r12,r24
 4118 12b8 D91E      		adc r13,r25
 4119 12ba 2496      		adiw r28,4
 4120 12bc 0F30      		cpi r16,15
 4121 12be 1105      		cpc r17,__zero_reg__
 4122 12c0 01F0      		breq .+2
 4123 12c2 00C0      		rjmp .L365
 4124               	.LBE638:
 4125               	.LM661:
 4126 12c4 0894      		sec
 4127 12c6 E11C      		adc r14,__zero_reg__
 4128 12c8 F11C      		adc r15,__zero_reg__
 4129 12ca 95E0      		ldi r25,lo8(5)
 4130 12cc E916      		cp r14,r25
 4131 12ce F104      		cpc r15,__zero_reg__
 4132 12d0 01F0      		breq .L367
 4133               	.L356:
 4134 12d2 6701      		movw r12,r14
 4135 12d4 16E0      		ldi r17,6
 4136 12d6 CC0C      	1:	lsl r12
 4137 12d8 DD1C      		rol r13
 4138 12da 1A95      		dec r17
 4139 12dc 01F4      		brne 1b
 4140 12de E0E0      		ldi r30,lo8(dir_array+4)
 4141 12e0 F0E0      		ldi r31,hi8(dir_array+4)
 4142 12e2 CE0E      		add r12,r30
 4143 12e4 DF1E      		adc r13,r31
 4144 12e6 E601      		movw r28,r12
 4145 12e8 01E0      		ldi r16,lo8(1)
 4146 12ea 10E0      		ldi r17,hi8(1)
 4147               	.LBB639:
 4148               	.LM662:
 4149 12ec 3701      		movw r6,r14
 4150 12ee 0894      		sec
 4151 12f0 611C      		adc r6,__zero_reg__
 4152 12f2 711C      		adc r7,__zero_reg__
 4153 12f4 4701      		movw r8,r14
 4154 12f6 0894      		sec
 4155 12f8 8108      		sbc r8,__zero_reg__
 4156 12fa 9108      		sbc r9,__zero_reg__
 4157 12fc 00C0      		rjmp .L365
 4158               	.L367:
 4159               	/* epilogue start */
 4160               	.LBE639:
 4161               	.LBE637:
 4162               	.LM663:
 4163 12fe DF91      		pop r29
 4164 1300 CF91      		pop r28
 4165 1302 1F91      		pop r17
 4166 1304 0F91      		pop r16
 4167               	.LVL122:
 4168 1306 FF90      		pop r15
 4169 1308 EF90      		pop r14
 4170               	.LVL123:
 4171 130a DF90      		pop r13
 4172 130c CF90      		pop r12
 4173 130e BF90      		pop r11
 4174 1310 9F90      		pop r9
 4175 1312 8F90      		pop r8
 4176 1314 7F90      		pop r7
 4177 1316 6F90      		pop r6
 4178 1318 0895      		ret
 4179               	.LFE69:
 4181               	.global	coordinates_tobe_reached
 4183               	coordinates_tobe_reached:
 4184               	.LFB70:
 4185               	.LM664:
 4186 131a 2F92      		push r2
 4187 131c 3F92      		push r3
 4188 131e 4F92      		push r4
 4189 1320 5F92      		push r5
 4190 1322 6F92      		push r6
 4191 1324 7F92      		push r7
 4192 1326 8F92      		push r8
 4193 1328 9F92      		push r9
 4194 132a AF92      		push r10
 4195 132c BF92      		push r11
 4196 132e CF92      		push r12
 4197 1330 DF92      		push r13
 4198 1332 EF92      		push r14
 4199 1334 FF92      		push r15
 4200 1336 0F93      		push r16
 4201 1338 1F93      		push r17
 4202 133a DF93      		push r29
 4203 133c CF93      		push r28
 4204 133e CDB7      		in r28,__SP_L__
 4205 1340 DEB7      		in r29,__SP_H__
 4206 1342 6897      		sbiw r28,24
 4207 1344 0FB6      		in __tmp_reg__,__SREG__
 4208 1346 F894      		cli
 4209 1348 DEBF      		out __SP_H__,r29
 4210 134a 0FBE      		out __SREG__,__tmp_reg__
 4211 134c CDBF      		out __SP_L__,r28
 4212               	/* prologue: function */
 4213               	/* frame size = 24 */
 4214               	.LM665:
 4215 134e 1092 0000 		sts (mx)+1,__zero_reg__
 4216 1352 1092 0000 		sts mx,__zero_reg__
 4217               	.LM666:
 4218 1356 1092 0000 		sts (my)+1,__zero_reg__
 4219 135a 1092 0000 		sts my,__zero_reg__
 4220               	.LBB640:
 4221               	.LBB641:
 4222               	.LM667:
 4223 135e 8090 0000 		lds r8,x_coordinate
 4224 1362 9090 0000 		lds r9,(x_coordinate)+1
 4225 1366 A090 0000 		lds r10,y_coordinate
 4226 136a B090 0000 		lds r11,(y_coordinate)+1
 4227 136e CC24      		clr r12
 4228 1370 DD24      		clr r13
 4229 1372 C818      		sub r12,r8
 4230 1374 D908      		sbc r13,r9
 4231 1376 DE82      		std Y+6,r13
 4232 1378 CD82      		std Y+5,r12
 4233 137a DC82      		std Y+4,r13
 4234 137c CB82      		std Y+3,r12
 4235 137e DA82      		std Y+2,r13
 4236 1380 C982      		std Y+1,r12
 4237 1382 00E0      		ldi r16,lo8(0)
 4238 1384 10E0      		ldi r17,hi8(0)
 4239               	.LVL124:
 4240               	.LM668:
 4241 1386 2227      		clr r18
 4242 1388 3327      		clr r19
 4243 138a 2A19      		sub r18,r10
 4244 138c 3B09      		sbc r19,r11
 4245 138e 3E8B      		std Y+22,r19
 4246 1390 2D8B      		std Y+21,r18
 4247 1392 00C0      		rjmp .L370
 4248               	.LVL125:
 4249               	.L379:
 4250               	.LM669:
 4251 1394 C801      		movw r24,r16
 4252 1396 6F89      		ldd r22,Y+23
 4253 1398 788D      		ldd r23,Y+24
 4254 139a 0E94 0000 		call is_coordinate_null
 4255 139e 892B      		or r24,r25
 4256 13a0 01F0      		breq .+2
 4257 13a2 00C0      		rjmp .L371
 4258               	.LM670:
 4259 13a4 F701      		movw r30,r14
 4260 13a6 8081      		ld r24,Z
 4261 13a8 8435      		cpi r24,lo8(84)
 4262 13aa 01F0      		breq .+2
 4263 13ac 00C0      		rjmp .L372
 4264               	.LM671:
 4265 13ae 6F89      		ldd r22,Y+23
 4266 13b0 788D      		ldd r23,Y+24
 4267 13b2 6F5F      		subi r22,lo8(-(1))
 4268 13b4 7F4F      		sbci r23,hi8(-(1))
 4269 13b6 C801      		movw r24,r16
 4270 13b8 0E94 0000 		call is_coordinate_null
 4271 13bc 892B      		or r24,r25
 4272 13be 01F4      		brne .+2
 4273 13c0 00C0      		rjmp .L372
 4274               	.LM672:
 4275 13c2 6091 0000 		lds r22,mx
 4276 13c6 7091 0000 		lds r23,(mx)+1
 4277 13ca 6115      		cp r22,__zero_reg__
 4278 13cc 7105      		cpc r23,__zero_reg__
 4279 13ce 01F4      		brne .L373
 4280 13d0 8091 0000 		lds r24,my
 4281 13d4 9091 0000 		lds r25,(my)+1
 4282 13d8 892B      		or r24,r25
 4283 13da 01F0      		breq .L383
 4284               	.L373:
 4285               	.LM673:
 4286 13dc 6819      		sub r22,r8
 4287 13de 7909      		sbc r23,r9
 4288 13e0 8091 0000 		lds r24,my
 4289 13e4 9091 0000 		lds r25,(my)+1
 4290 13e8 8A19      		sub r24,r10
 4291 13ea 9B09      		sbc r25,r11
 4292               	.LM674:
 4293 13ec ED85      		ldd r30,Y+13
 4294 13ee FE85      		ldd r31,Y+14
 4295 13f0 EE9F      		mul r30,r30
 4296 13f2 A001      		movw r20,r0
 4297 13f4 EF9F      		mul r30,r31
 4298 13f6 500D      		add r21,r0
 4299 13f8 FE9F      		mul r31,r30
 4300 13fa 500D      		add r21,r0
 4301 13fc 1124      		clr r1
 4302 13fe 2F85      		ldd r18,Y+15
 4303 1400 3889      		ldd r19,Y+16
 4304 1402 420F      		add r20,r18
 4305 1404 531F      		adc r21,r19
 4306 1406 FC01      		movw r30,r24
 4307 1408 EE9F      		mul r30,r30
 4308 140a C001      		movw r24,r0
 4309 140c EF9F      		mul r30,r31
 4310 140e 900D      		add r25,r0
 4311 1410 FE9F      		mul r31,r30
 4312 1412 900D      		add r25,r0
 4313 1414 1124      		clr r1
 4314 1416 669F      		mul r22,r22
 4315 1418 9001      		movw r18,r0
 4316 141a 679F      		mul r22,r23
 4317 141c 300D      		add r19,r0
 4318 141e 769F      		mul r23,r22
 4319 1420 300D      		add r19,r0
 4320 1422 1124      		clr r1
 4321 1424 820F      		add r24,r18
 4322 1426 931F      		adc r25,r19
 4323 1428 4817      		cp r20,r24
 4324 142a 5907      		cpc r21,r25
 4325 142c 04F4      		brge .L372
 4326               	.L383:
 4327               	.LM675:
 4328 142e 1093 0000 		sts (mx)+1,r17
 4329 1432 0093 0000 		sts mx,r16
 4330               	.LM676:
 4331 1436 2F89      		ldd r18,Y+23
 4332 1438 388D      		ldd r19,Y+24
 4333 143a 3093 0000 		sts (my)+1,r19
 4334 143e 2093 0000 		sts my,r18
 4335               	.L372:
 4336               	.LM677:
 4337 1442 F701      		movw r30,r14
 4338 1444 8181      		ldd r24,Z+1
 4339 1446 8435      		cpi r24,lo8(84)
 4340 1448 01F0      		breq .+2
 4341 144a 00C0      		rjmp .L374
 4342               	.LM678:
 4343 144c 8B89      		ldd r24,Y+19
 4344 144e 9C89      		ldd r25,Y+20
 4345 1450 6F89      		ldd r22,Y+23
 4346 1452 788D      		ldd r23,Y+24
 4347 1454 0E94 0000 		call is_coordinate_null
 4348 1458 892B      		or r24,r25
 4349 145a 01F4      		brne .+2
 4350 145c 00C0      		rjmp .L374
 4351               	.LM679:
 4352 145e 6091 0000 		lds r22,mx
 4353 1462 7091 0000 		lds r23,(mx)+1
 4354 1466 6115      		cp r22,__zero_reg__
 4355 1468 7105      		cpc r23,__zero_reg__
 4356 146a 01F4      		brne .L375
 4357 146c 8091 0000 		lds r24,my
 4358 1470 9091 0000 		lds r25,(my)+1
 4359 1474 892B      		or r24,r25
 4360 1476 01F4      		brne .L375
 4361               	.LM680:
 4362 1478 1093 0000 		sts (mx)+1,r17
 4363 147c 0093 0000 		sts mx,r16
 4364               	.LM681:
 4365 1480 2F89      		ldd r18,Y+23
 4366 1482 388D      		ldd r19,Y+24
 4367 1484 3093 0000 		sts (my)+1,r19
 4368 1488 2093 0000 		sts my,r18
 4369 148c 00C0      		rjmp .L374
 4370               	.L375:
 4371               	.LM682:
 4372 148e 6819      		sub r22,r8
 4373 1490 7909      		sbc r23,r9
 4374 1492 8091 0000 		lds r24,my
 4375 1496 9091 0000 		lds r25,(my)+1
 4376 149a 8A19      		sub r24,r10
 4377 149c 9B09      		sbc r25,r11
 4378               	.LM683:
 4379 149e 669C      		mul r6,r6
 4380 14a0 A001      		movw r20,r0
 4381 14a2 679C      		mul r6,r7
 4382 14a4 500D      		add r21,r0
 4383 14a6 769C      		mul r7,r6
 4384 14a8 500D      		add r21,r0
 4385 14aa 1124      		clr r1
 4386 14ac EB85      		ldd r30,Y+11
 4387 14ae FC85      		ldd r31,Y+12
 4388 14b0 4E0F      		add r20,r30
 4389 14b2 5F1F      		adc r21,r31
 4390 14b4 9C01      		movw r18,r24
 4391 14b6 229F      		mul r18,r18
 4392 14b8 C001      		movw r24,r0
 4393 14ba 239F      		mul r18,r19
 4394 14bc 900D      		add r25,r0
 4395 14be 329F      		mul r19,r18
 4396 14c0 900D      		add r25,r0
 4397 14c2 1124      		clr r1
 4398 14c4 669F      		mul r22,r22
 4399 14c6 9001      		movw r18,r0
 4400 14c8 679F      		mul r22,r23
 4401 14ca 300D      		add r19,r0
 4402 14cc 769F      		mul r23,r22
 4403 14ce 300D      		add r19,r0
 4404 14d0 1124      		clr r1
 4405 14d2 820F      		add r24,r18
 4406 14d4 931F      		adc r25,r19
 4407 14d6 4817      		cp r20,r24
 4408 14d8 5907      		cpc r21,r25
 4409 14da 04F4      		brge .L374
 4410               	.LM684:
 4411 14dc 1093 0000 		sts (mx)+1,r17
 4412 14e0 0093 0000 		sts mx,r16
 4413               	.LM685:
 4414 14e4 8F89      		ldd r24,Y+23
 4415 14e6 988D      		ldd r25,Y+24
 4416 14e8 9093 0000 		sts (my)+1,r25
 4417 14ec 8093 0000 		sts my,r24
 4418               	.L374:
 4419               	.LM686:
 4420 14f0 F701      		movw r30,r14
 4421 14f2 8281      		ldd r24,Z+2
 4422 14f4 8435      		cpi r24,lo8(84)
 4423 14f6 01F0      		breq .+2
 4424 14f8 00C0      		rjmp .L376
 4425               	.LM687:
 4426 14fa 6F89      		ldd r22,Y+23
 4427 14fc 788D      		ldd r23,Y+24
 4428 14fe 6150      		subi r22,lo8(-(-1))
 4429 1500 7040      		sbci r23,hi8(-(-1))
 4430 1502 C801      		movw r24,r16
 4431 1504 0E94 0000 		call is_coordinate_null
 4432 1508 892B      		or r24,r25
 4433 150a 01F4      		brne .+2
 4434 150c 00C0      		rjmp .L376
 4435               	.LM688:
 4436 150e 6091 0000 		lds r22,mx
 4437 1512 7091 0000 		lds r23,(mx)+1
 4438 1516 6115      		cp r22,__zero_reg__
 4439 1518 7105      		cpc r23,__zero_reg__
 4440 151a 01F4      		brne .L377
 4441 151c 8091 0000 		lds r24,my
 4442 1520 9091 0000 		lds r25,(my)+1
 4443 1524 892B      		or r24,r25
 4444 1526 01F4      		brne .L377
 4445               	.LM689:
 4446 1528 1093 0000 		sts (mx)+1,r17
 4447 152c 0093 0000 		sts mx,r16
 4448               	.LM690:
 4449 1530 2F89      		ldd r18,Y+23
 4450 1532 388D      		ldd r19,Y+24
 4451 1534 3093 0000 		sts (my)+1,r19
 4452 1538 2093 0000 		sts my,r18
 4453 153c 00C0      		rjmp .L376
 4454               	.L377:
 4455               	.LM691:
 4456 153e 6819      		sub r22,r8
 4457 1540 7909      		sbc r23,r9
 4458 1542 8091 0000 		lds r24,my
 4459 1546 9091 0000 		lds r25,(my)+1
 4460 154a 8A19      		sub r24,r10
 4461 154c 9B09      		sbc r25,r11
 4462               	.LM692:
 4463 154e 449C      		mul r4,r4
 4464 1550 A001      		movw r20,r0
 4465 1552 459C      		mul r4,r5
 4466 1554 500D      		add r21,r0
 4467 1556 549C      		mul r5,r4
 4468 1558 500D      		add r21,r0
 4469 155a 1124      		clr r1
 4470 155c E985      		ldd r30,Y+9
 4471 155e FA85      		ldd r31,Y+10
 4472 1560 4E0F      		add r20,r30
 4473 1562 5F1F      		adc r21,r31
 4474 1564 9C01      		movw r18,r24
 4475 1566 229F      		mul r18,r18
 4476 1568 C001      		movw r24,r0
 4477 156a 239F      		mul r18,r19
 4478 156c 900D      		add r25,r0
 4479 156e 329F      		mul r19,r18
 4480 1570 900D      		add r25,r0
 4481 1572 1124      		clr r1
 4482 1574 669F      		mul r22,r22
 4483 1576 9001      		movw r18,r0
 4484 1578 679F      		mul r22,r23
 4485 157a 300D      		add r19,r0
 4486 157c 769F      		mul r23,r22
 4487 157e 300D      		add r19,r0
 4488 1580 1124      		clr r1
 4489 1582 820F      		add r24,r18
 4490 1584 931F      		adc r25,r19
 4491 1586 4817      		cp r20,r24
 4492 1588 5907      		cpc r21,r25
 4493 158a 04F4      		brge .L376
 4494               	.LM693:
 4495 158c 1093 0000 		sts (mx)+1,r17
 4496 1590 0093 0000 		sts mx,r16
 4497               	.LM694:
 4498 1594 8F89      		ldd r24,Y+23
 4499 1596 988D      		ldd r25,Y+24
 4500 1598 9093 0000 		sts (my)+1,r25
 4501 159c 8093 0000 		sts my,r24
 4502               	.L376:
 4503               	.LM695:
 4504 15a0 F701      		movw r30,r14
 4505 15a2 8381      		ldd r24,Z+3
 4506 15a4 8435      		cpi r24,lo8(84)
 4507 15a6 01F0      		breq .+2
 4508 15a8 00C0      		rjmp .L371
 4509               	.LM696:
 4510 15aa 8989      		ldd r24,Y+17
 4511 15ac 9A89      		ldd r25,Y+18
 4512 15ae 6F89      		ldd r22,Y+23
 4513 15b0 788D      		ldd r23,Y+24
 4514 15b2 0E94 0000 		call is_coordinate_null
 4515 15b6 892B      		or r24,r25
 4516 15b8 01F4      		brne .+2
 4517 15ba 00C0      		rjmp .L371
 4518               	.LM697:
 4519 15bc 6091 0000 		lds r22,mx
 4520 15c0 7091 0000 		lds r23,(mx)+1
 4521 15c4 6115      		cp r22,__zero_reg__
 4522 15c6 7105      		cpc r23,__zero_reg__
 4523 15c8 01F4      		brne .L378
 4524 15ca 8091 0000 		lds r24,my
 4525 15ce 9091 0000 		lds r25,(my)+1
 4526 15d2 892B      		or r24,r25
 4527 15d4 01F4      		brne .L378
 4528               	.LM698:
 4529 15d6 1093 0000 		sts (mx)+1,r17
 4530 15da 0093 0000 		sts mx,r16
 4531               	.LM699:
 4532 15de 2F89      		ldd r18,Y+23
 4533 15e0 388D      		ldd r19,Y+24
 4534 15e2 3093 0000 		sts (my)+1,r19
 4535 15e6 2093 0000 		sts my,r18
 4536 15ea 00C0      		rjmp .L371
 4537               	.L378:
 4538               	.LM700:
 4539 15ec 6819      		sub r22,r8
 4540 15ee 7909      		sbc r23,r9
 4541 15f0 8091 0000 		lds r24,my
 4542 15f4 9091 0000 		lds r25,(my)+1
 4543 15f8 8A19      		sub r24,r10
 4544 15fa 9B09      		sbc r25,r11
 4545               	.LM701:
 4546 15fc 229C      		mul r2,r2
 4547 15fe A001      		movw r20,r0
 4548 1600 239C      		mul r2,r3
 4549 1602 500D      		add r21,r0
 4550 1604 329C      		mul r3,r2
 4551 1606 500D      		add r21,r0
 4552 1608 1124      		clr r1
 4553 160a EF81      		ldd r30,Y+7
 4554 160c F885      		ldd r31,Y+8
 4555 160e 4E0F      		add r20,r30
 4556 1610 5F1F      		adc r21,r31
 4557 1612 9C01      		movw r18,r24
 4558 1614 229F      		mul r18,r18
 4559 1616 C001      		movw r24,r0
 4560 1618 239F      		mul r18,r19
 4561 161a 900D      		add r25,r0
 4562 161c 329F      		mul r19,r18
 4563 161e 900D      		add r25,r0
 4564 1620 1124      		clr r1
 4565 1622 669F      		mul r22,r22
 4566 1624 9001      		movw r18,r0
 4567 1626 679F      		mul r22,r23
 4568 1628 300D      		add r19,r0
 4569 162a 769F      		mul r23,r22
 4570 162c 300D      		add r19,r0
 4571 162e 1124      		clr r1
 4572 1630 820F      		add r24,r18
 4573 1632 931F      		adc r25,r19
 4574 1634 4817      		cp r20,r24
 4575 1636 5907      		cpc r21,r25
 4576 1638 04F4      		brge .L371
 4577               	.LM702:
 4578 163a 1093 0000 		sts (mx)+1,r17
 4579 163e 0093 0000 		sts mx,r16
 4580               	.LM703:
 4581 1642 8F89      		ldd r24,Y+23
 4582 1644 988D      		ldd r25,Y+24
 4583 1646 9093 0000 		sts (my)+1,r25
 4584 164a 8093 0000 		sts my,r24
 4585               	.L371:
 4586               	.LM704:
 4587 164e EF89      		ldd r30,Y+23
 4588 1650 F88D      		ldd r31,Y+24
 4589 1652 3196      		adiw r30,1
 4590 1654 F88F      		std Y+24,r31
 4591 1656 EF8B      		std Y+23,r30
 4592               	.LVL126:
 4593 1658 24E0      		ldi r18,lo8(4)
 4594 165a 30E0      		ldi r19,hi8(4)
 4595 165c E20E      		add r14,r18
 4596 165e F31E      		adc r15,r19
 4597 1660 0894      		sec
 4598 1662 211C      		adc r2,__zero_reg__
 4599 1664 311C      		adc r3,__zero_reg__
 4600 1666 0894      		sec
 4601 1668 411C      		adc r4,__zero_reg__
 4602 166a 511C      		adc r5,__zero_reg__
 4603 166c 0894      		sec
 4604 166e 611C      		adc r6,__zero_reg__
 4605 1670 711C      		adc r7,__zero_reg__
 4606 1672 8D85      		ldd r24,Y+13
 4607 1674 9E85      		ldd r25,Y+14
 4608 1676 0196      		adiw r24,1
 4609 1678 9E87      		std Y+14,r25
 4610 167a 8D87      		std Y+13,r24
 4611 167c 7097      		sbiw r30,16
 4612 167e 01F0      		breq .+2
 4613 1680 00C0      		rjmp .L379
 4614               	.LBE641:
 4615               	.LM705:
 4616 1682 0F5F      		subi r16,lo8(-(1))
 4617 1684 1F4F      		sbci r17,hi8(-(1))
 4618 1686 0894      		sec
 4619 1688 C11C      		adc r12,__zero_reg__
 4620 168a D11C      		adc r13,__zero_reg__
 4621 168c ED81      		ldd r30,Y+5
 4622 168e FE81      		ldd r31,Y+6
 4623 1690 3196      		adiw r30,1
 4624 1692 FE83      		std Y+6,r31
 4625 1694 ED83      		std Y+5,r30
 4626 1696 2B81      		ldd r18,Y+3
 4627 1698 3C81      		ldd r19,Y+4
 4628 169a 2F5F      		subi r18,lo8(-(1))
 4629 169c 3F4F      		sbci r19,hi8(-(1))
 4630 169e 3C83      		std Y+4,r19
 4631 16a0 2B83      		std Y+3,r18
 4632 16a2 8981      		ldd r24,Y+1
 4633 16a4 9A81      		ldd r25,Y+2
 4634 16a6 0196      		adiw r24,1
 4635 16a8 9A83      		std Y+2,r25
 4636 16aa 8983      		std Y+1,r24
 4637 16ac 0031      		cpi r16,16
 4638 16ae 1105      		cpc r17,__zero_reg__
 4639 16b0 01F4      		brne .+2
 4640 16b2 00C0      		rjmp .L381
 4641               	.L370:
 4642               	.LBB642:
 4643               	.LM706:
 4644 16b4 CC9C      		mul r12,r12
 4645 16b6 F001      		movw r30,r0
 4646 16b8 CD9C      		mul r12,r13
 4647 16ba F00D      		add r31,r0
 4648 16bc DC9C      		mul r13,r12
 4649 16be F00D      		add r31,r0
 4650 16c0 1124      		clr r1
 4651 16c2 F88B      		std Y+16,r31
 4652 16c4 EF87      		std Y+15,r30
 4653               	.LM707:
 4654 16c6 8D81      		ldd r24,Y+5
 4655 16c8 9E81      		ldd r25,Y+6
 4656 16ca 889F      		mul r24,r24
 4657 16cc 9001      		movw r18,r0
 4658 16ce 899F      		mul r24,r25
 4659 16d0 300D      		add r19,r0
 4660 16d2 989F      		mul r25,r24
 4661 16d4 300D      		add r19,r0
 4662 16d6 1124      		clr r1
 4663 16d8 3C87      		std Y+12,r19
 4664 16da 2B87      		std Y+11,r18
 4665               	.LM708:
 4666 16dc 2B81      		ldd r18,Y+3
 4667 16de 3C81      		ldd r19,Y+4
 4668 16e0 229F      		mul r18,r18
 4669 16e2 F001      		movw r30,r0
 4670 16e4 239F      		mul r18,r19
 4671 16e6 F00D      		add r31,r0
 4672 16e8 329F      		mul r19,r18
 4673 16ea F00D      		add r31,r0
 4674 16ec 1124      		clr r1
 4675 16ee FA87      		std Y+10,r31
 4676 16f0 E987      		std Y+9,r30
 4677               	.LM709:
 4678 16f2 E981      		ldd r30,Y+1
 4679 16f4 FA81      		ldd r31,Y+2
 4680 16f6 EE9F      		mul r30,r30
 4681 16f8 C001      		movw r24,r0
 4682 16fa EF9F      		mul r30,r31
 4683 16fc 900D      		add r25,r0
 4684 16fe FE9F      		mul r31,r30
 4685 1700 900D      		add r25,r0
 4686 1702 1124      		clr r1
 4687 1704 9887      		std Y+8,r25
 4688 1706 8F83      		std Y+7,r24
 4689 1708 7801      		movw r14,r16
 4690 170a 96E0      		ldi r25,6
 4691 170c EE0C      	1:	lsl r14
 4692 170e FF1C      		rol r15
 4693 1710 9A95      		dec r25
 4694 1712 01F4      		brne 1b
 4695 1714 20E0      		ldi r18,lo8(dir_array)
 4696 1716 30E0      		ldi r19,hi8(dir_array)
 4697 1718 E20E      		add r14,r18
 4698 171a F31E      		adc r15,r19
 4699 171c 8D89      		ldd r24,Y+21
 4700 171e 9E89      		ldd r25,Y+22
 4701 1720 9E87      		std Y+14,r25
 4702 1722 8D87      		std Y+13,r24
 4703 1724 1C01      		movw r2,r24
 4704 1726 2C01      		movw r4,r24
 4705 1728 3C01      		movw r6,r24
 4706 172a 188E      		std Y+24,__zero_reg__
 4707 172c 1F8A      		std Y+23,__zero_reg__
 4708               	.LVL127:
 4709               	.LM710:
 4710 172e F801      		movw r30,r16
 4711 1730 3197      		sbiw r30,1
 4712 1732 FA8B      		std Y+18,r31
 4713 1734 E98B      		std Y+17,r30
 4714               	.LM711:
 4715 1736 9801      		movw r18,r16
 4716 1738 2F5F      		subi r18,lo8(-(1))
 4717 173a 3F4F      		sbci r19,hi8(-(1))
 4718 173c 3C8B      		std Y+20,r19
 4719 173e 2B8B      		std Y+19,r18
 4720 1740 00C0      		rjmp .L379
 4721               	.L381:
 4722               	/* epilogue start */
 4723               	.LBE642:
 4724               	.LBE640:
 4725               	.LM712:
 4726 1742 6896      		adiw r28,24
 4727 1744 0FB6      		in __tmp_reg__,__SREG__
 4728 1746 F894      		cli
 4729 1748 DEBF      		out __SP_H__,r29
 4730 174a 0FBE      		out __SREG__,__tmp_reg__
 4731 174c CDBF      		out __SP_L__,r28
 4732 174e CF91      		pop r28
 4733 1750 DF91      		pop r29
 4734 1752 1F91      		pop r17
 4735 1754 0F91      		pop r16
 4736               	.LVL128:
 4737 1756 FF90      		pop r15
 4738 1758 EF90      		pop r14
 4739 175a DF90      		pop r13
 4740 175c CF90      		pop r12
 4741 175e BF90      		pop r11
 4742 1760 AF90      		pop r10
 4743 1762 9F90      		pop r9
 4744 1764 8F90      		pop r8
 4745 1766 7F90      		pop r7
 4746 1768 6F90      		pop r6
 4747 176a 5F90      		pop r5
 4748 176c 4F90      		pop r4
 4749 176e 3F90      		pop r3
 4750 1770 2F90      		pop r2
 4751 1772 0895      		ret
 4752               	.LFE70:
 4754               		.data
 4755               	.LC2:
 4756 0018 4272 6F6B 		.string	"Broke path "
 4756      6520 7061 
 4756      7468 2000 
 4757               		.text
 4758               	.global	get_path
 4760               	get_path:
 4761               	.LFB71:
 4762               	.LM713:
 4763 1774 8F92      		push r8
 4764 1776 9F92      		push r9
 4765 1778 AF92      		push r10
 4766 177a BF92      		push r11
 4767 177c CF92      		push r12
 4768 177e DF92      		push r13
 4769 1780 EF92      		push r14
 4770 1782 FF92      		push r15
 4771 1784 0F93      		push r16
 4772 1786 1F93      		push r17
 4773 1788 CF93      		push r28
 4774 178a DF93      		push r29
 4775               	/* prologue: function */
 4776               	/* frame size = 0 */
 4777               	.LM714:
 4778 178c 4091 0000 		lds r20,y_coordinate
 4779 1790 5091 0000 		lds r21,(y_coordinate)+1
 4780               	.LVL129:
 4781               	.LM715:
 4782 1794 6091 0000 		lds r22,x_coordinate
 4783 1798 7091 0000 		lds r23,(x_coordinate)+1
 4784               	.LVL130:
 4785 179c 00E0      		ldi r16,lo8(path_array)
 4786 179e 10E0      		ldi r17,hi8(path_array)
 4787 17a0 F801      		movw r30,r16
 4788               	.L385:
 4789               	.LBB643:
 4790               	.LM716:
 4791 17a2 1182      		std Z+1,__zero_reg__
 4792 17a4 1082      		st Z,__zero_reg__
 4793               	.LM717:
 4794 17a6 1382      		std Z+3,__zero_reg__
 4795 17a8 1282      		std Z+2,__zero_reg__
 4796 17aa 3496      		adiw r30,4
 4797               	.LM718:
 4798 17ac 80E0      		ldi r24,hi8(path_array+60)
 4799 17ae E030      		cpi r30,lo8(path_array+60)
 4800 17b0 F807      		cpc r31,r24
 4801 17b2 01F4      		brne .L385
 4802 17b4 00C0      		rjmp .L398
 4803               	.LVL131:
 4804               	.L396:
 4805               	.LBE643:
 4806               	.LM719:
 4807 17b6 6B01      		movw r12,r22
 4808 17b8 0894      		sec
 4809 17ba C11C      		adc r12,__zero_reg__
 4810 17bc D11C      		adc r13,__zero_reg__
 4811               	.LVL132:
 4812 17be 9601      		movw r18,r12
 4813 17c0 84E0      		ldi r24,4
 4814 17c2 220F      	1:	lsl r18
 4815 17c4 331F      		rol r19
 4816 17c6 8A95      		dec r24
 4817 17c8 01F4      		brne 1b
 4818 17ca 240F      		add r18,r20
 4819 17cc 351F      		adc r19,r21
 4820 17ce 7901      		movw r14,r18
 4821 17d0 EE0C      		lsl r14
 4822 17d2 FF1C      		rol r15
 4823 17d4 F701      		movw r30,r14
 4824 17d6 E050      		subi r30,lo8(-(map_array))
 4825 17d8 F040      		sbci r31,hi8(-(map_array))
 4826 17da 8080      		ld r8,Z
 4827 17dc 9180      		ldd r9,Z+1
 4828 17de 8A14      		cp r8,r10
 4829 17e0 9B04      		cpc r9,r11
 4830 17e2 04F0      		brlt .+2
 4831 17e4 00C0      		rjmp .L387
 4832 17e6 AA0F      		lsl r26
 4833 17e8 BB1F      		rol r27
 4834 17ea AA0F      		lsl r26
 4835 17ec BB1F      		rol r27
 4836 17ee A050      		subi r26,lo8(-(dir_array))
 4837 17f0 B040      		sbci r27,hi8(-(dir_array))
 4838 17f2 1196      		adiw r26,1
 4839 17f4 8C91      		ld r24,X
 4840 17f6 8435      		cpi r24,lo8(84)
 4841 17f8 01F0      		breq .+2
 4842 17fa 00C0      		rjmp .L387
 4843 17fc E901      		movw r28,r18
 4844 17fe CC0F      		lsl r28
 4845 1800 DD1F      		rol r29
 4846 1802 CC0F      		lsl r28
 4847 1804 DD1F      		rol r29
 4848 1806 C050      		subi r28,lo8(-(dir_array))
 4849 1808 D040      		sbci r29,hi8(-(dir_array))
 4850 180a 8B81      		ldd r24,Y+3
 4851 180c 8435      		cpi r24,lo8(84)
 4852 180e 01F0      		breq .+2
 4853 1810 00C0      		rjmp .L387
 4854 1812 6031      		cpi r22,16
 4855 1814 7105      		cpc r23,__zero_reg__
 4856 1816 04F0      		brlt .+2
 4857 1818 00C0      		rjmp .L387
 4858               	.LVL133:
 4859               	.LM720:
 4860 181a F801      		movw r30,r16
 4861 181c D182      		std Z+1,r13
 4862 181e C082      		st Z,r12
 4863               	.LM721:
 4864 1820 5383      		std Z+3,r21
 4865 1822 4283      		std Z+2,r20
 4866               	.LM722:
 4867 1824 B601      		movw r22,r12
 4868 1826 6F5F      		subi r22,lo8(-(1))
 4869 1828 7F4F      		sbci r23,hi8(-(1))
 4870 182a DB01      		movw r26,r22
 4871 182c 94E0      		ldi r25,4
 4872 182e AA0F      	1:	lsl r26
 4873 1830 BB1F      		rol r27
 4874 1832 9A95      		dec r25
 4875 1834 01F4      		brne 1b
 4876 1836 A40F      		add r26,r20
 4877 1838 B51F      		adc r27,r21
 4878 183a FD01      		movw r30,r26
 4879 183c EE0F      		lsl r30
 4880 183e FF1F      		rol r31
 4881 1840 E050      		subi r30,lo8(-(map_array))
 4882 1842 F040      		sbci r31,hi8(-(map_array))
 4883 1844 8081      		ld r24,Z
 4884 1846 9181      		ldd r25,Z+1
 4885 1848 8815      		cp r24,r8
 4886 184a 9905      		cpc r25,r9
 4887 184c 04F0      		brlt .+2
 4888 184e 00C0      		rjmp .L391
 4889 1850 AA0F      		lsl r26
 4890 1852 BB1F      		rol r27
 4891 1854 AA0F      		lsl r26
 4892 1856 BB1F      		rol r27
 4893 1858 A050      		subi r26,lo8(-(dir_array))
 4894 185a B040      		sbci r27,hi8(-(dir_array))
 4895 185c 1396      		adiw r26,3
 4896 185e 8C91      		ld r24,X
 4897 1860 8435      		cpi r24,lo8(84)
 4898 1862 01F0      		breq .+2
 4899 1864 00C0      		rjmp .L391
 4900 1866 8881      		ld r24,Y
 4901 1868 8634      		cpi r24,lo8(70)
 4902 186a 01F0      		breq .+2
 4903 186c 00C0      		rjmp .L391
 4904 186e 8981      		ldd r24,Y+1
 4905 1870 8435      		cpi r24,lo8(84)
 4906 1872 01F0      		breq .+2
 4907 1874 00C0      		rjmp .L391
 4908 1876 EE0C      		lsl r14
 4909 1878 FF1C      		rol r15
 4910 187a 80E0      		ldi r24,lo8(dir_array+2)
 4911 187c 90E0      		ldi r25,hi8(dir_array+2)
 4912 187e E80E      		add r14,r24
 4913 1880 F91E      		adc r15,r25
 4914 1882 F701      		movw r30,r14
 4915 1884 8081      		ld r24,Z
 4916 1886 8634      		cpi r24,lo8(70)
 4917 1888 01F0      		breq .+2
 4918 188a 00C0      		rjmp .L391
 4919 188c F0E1      		ldi r31,lo8(16)
 4920 188e CF16      		cp r12,r31
 4921 1890 D104      		cpc r13,__zero_reg__
 4922 1892 04F0      		brlt .+2
 4923 1894 00C0      		rjmp .L391
 4924               	.LVL134:
 4925 1896 00C0      		rjmp .L402
 4926               	.LVL135:
 4927               	.L387:
 4928               	.LM723:
 4929 1898 6B01      		movw r12,r22
 4930 189a 0894      		sec
 4931 189c C108      		sbc r12,__zero_reg__
 4932 189e D108      		sbc r13,__zero_reg__
 4933 18a0 9601      		movw r18,r12
 4934 18a2 94E0      		ldi r25,4
 4935 18a4 220F      	1:	lsl r18
 4936 18a6 331F      		rol r19
 4937 18a8 9A95      		dec r25
 4938 18aa 01F4      		brne 1b
 4939 18ac 240F      		add r18,r20
 4940 18ae 351F      		adc r19,r21
 4941 18b0 7901      		movw r14,r18
 4942 18b2 EE0C      		lsl r14
 4943 18b4 FF1C      		rol r15
 4944 18b6 F701      		movw r30,r14
 4945 18b8 E050      		subi r30,lo8(-(map_array))
 4946 18ba F040      		sbci r31,hi8(-(map_array))
 4947 18bc 8080      		ld r8,Z
 4948 18be 9180      		ldd r9,Z+1
 4949 18c0 8A14      		cp r8,r10
 4950 18c2 9B04      		cpc r9,r11
 4951 18c4 04F0      		brlt .+2
 4952 18c6 00C0      		rjmp .L390
 4953 18c8 FB01      		movw r30,r22
 4954 18ca B4E0      		ldi r27,4
 4955 18cc EE0F      	1:	lsl r30
 4956 18ce FF1F      		rol r31
 4957 18d0 BA95      		dec r27
 4958 18d2 01F4      		brne 1b
 4959 18d4 E40F      		add r30,r20
 4960 18d6 F51F      		adc r31,r21
 4961 18d8 EE0F      		lsl r30
 4962 18da FF1F      		rol r31
 4963 18dc EE0F      		lsl r30
 4964 18de FF1F      		rol r31
 4965 18e0 E050      		subi r30,lo8(-(dir_array))
 4966 18e2 F040      		sbci r31,hi8(-(dir_array))
 4967 18e4 8381      		ldd r24,Z+3
 4968 18e6 8435      		cpi r24,lo8(84)
 4969 18e8 01F0      		breq .+2
 4970 18ea 00C0      		rjmp .L390
 4971               	.LVL136:
 4972 18ec E901      		movw r28,r18
 4973 18ee CC0F      		lsl r28
 4974 18f0 DD1F      		rol r29
 4975 18f2 CC0F      		lsl r28
 4976 18f4 DD1F      		rol r29
 4977 18f6 C050      		subi r28,lo8(-(dir_array))
 4978 18f8 D040      		sbci r29,hi8(-(dir_array))
 4979 18fa 8981      		ldd r24,Y+1
 4980 18fc 8435      		cpi r24,lo8(84)
 4981 18fe 01F0      		breq .+2
 4982 1900 00C0      		rjmp .L390
 4983 1902 1616      		cp __zero_reg__,r22
 4984 1904 1706      		cpc __zero_reg__,r23
 4985 1906 04F0      		brlt .+2
 4986 1908 00C0      		rjmp .L390
 4987               	.LM724:
 4988 190a F801      		movw r30,r16
 4989 190c D182      		std Z+1,r13
 4990 190e C082      		st Z,r12
 4991               	.LM725:
 4992 1910 5383      		std Z+3,r21
 4993 1912 4283      		std Z+2,r20
 4994               	.LM726:
 4995 1914 B601      		movw r22,r12
 4996 1916 6150      		subi r22,lo8(-(-1))
 4997 1918 7040      		sbci r23,hi8(-(-1))
 4998 191a DB01      		movw r26,r22
 4999 191c 24E0      		ldi r18,4
 5000 191e AA0F      	1:	lsl r26
 5001 1920 BB1F      		rol r27
 5002 1922 2A95      		dec r18
 5003 1924 01F4      		brne 1b
 5004 1926 A40F      		add r26,r20
 5005 1928 B51F      		adc r27,r21
 5006 192a FD01      		movw r30,r26
 5007 192c EE0F      		lsl r30
 5008 192e FF1F      		rol r31
 5009 1930 E050      		subi r30,lo8(-(map_array))
 5010 1932 F040      		sbci r31,hi8(-(map_array))
 5011 1934 8081      		ld r24,Z
 5012 1936 9181      		ldd r25,Z+1
 5013 1938 8815      		cp r24,r8
 5014 193a 9905      		cpc r25,r9
 5015 193c 04F0      		brlt .+2
 5016 193e 00C0      		rjmp .L391
 5017 1940 AA0F      		lsl r26
 5018 1942 BB1F      		rol r27
 5019 1944 AA0F      		lsl r26
 5020 1946 BB1F      		rol r27
 5021 1948 A050      		subi r26,lo8(-(dir_array))
 5022 194a B040      		sbci r27,hi8(-(dir_array))
 5023 194c 1196      		adiw r26,1
 5024 194e 8C91      		ld r24,X
 5025 1950 8435      		cpi r24,lo8(84)
 5026 1952 01F0      		breq .+2
 5027 1954 00C0      		rjmp .L391
 5028 1956 8881      		ld r24,Y
 5029 1958 8634      		cpi r24,lo8(70)
 5030 195a 01F0      		breq .+2
 5031 195c 00C0      		rjmp .L391
 5032 195e EE0C      		lsl r14
 5033 1960 FF1C      		rol r15
 5034 1962 80E0      		ldi r24,lo8(dir_array+2)
 5035 1964 90E0      		ldi r25,hi8(dir_array+2)
 5036 1966 E80E      		add r14,r24
 5037 1968 F91E      		adc r15,r25
 5038 196a F701      		movw r30,r14
 5039 196c 8081      		ld r24,Z
 5040 196e 8634      		cpi r24,lo8(70)
 5041 1970 01F0      		breq .+2
 5042 1972 00C0      		rjmp .L391
 5043 1974 8B81      		ldd r24,Y+3
 5044 1976 8435      		cpi r24,lo8(84)
 5045 1978 01F0      		breq .+2
 5046 197a 00C0      		rjmp .L391
 5047 197c 1C14      		cp __zero_reg__,r12
 5048 197e 1D04      		cpc __zero_reg__,r13
 5049 1980 04F0      		brlt .+2
 5050 1982 00C0      		rjmp .L391
 5051               	.LVL137:
 5052               	.L402:
 5053               	.LM727:
 5054 1984 F801      		movw r30,r16
 5055 1986 7183      		std Z+1,r23
 5056 1988 6083      		st Z,r22
 5057 198a 00C0      		rjmp .L389
 5058               	.LVL138:
 5059               	.L390:
 5060               	.LM728:
 5061 198c EA01      		movw r28,r20
 5062 198e 2196      		adiw r28,1
 5063               	.LVL139:
 5064 1990 9B01      		movw r18,r22
 5065 1992 F4E0      		ldi r31,4
 5066 1994 220F      	1:	lsl r18
 5067 1996 331F      		rol r19
 5068 1998 FA95      		dec r31
 5069 199a 01F4      		brne 1b
 5070 199c 6901      		movw r12,r18
 5071               	.LVL140:
 5072 199e CC0E      		add r12,r28
 5073 19a0 DD1E      		adc r13,r29
 5074 19a2 D601      		movw r26,r12
 5075 19a4 AA0F      		lsl r26
 5076 19a6 BB1F      		rol r27
 5077 19a8 FD01      		movw r30,r26
 5078 19aa E050      		subi r30,lo8(-(map_array))
 5079 19ac F040      		sbci r31,hi8(-(map_array))
 5080 19ae E080      		ld r14,Z
 5081 19b0 F180      		ldd r15,Z+1
 5082 19b2 EA14      		cp r14,r10
 5083 19b4 FB04      		cpc r15,r11
 5084 19b6 04F0      		brlt .+2
 5085 19b8 00C0      		rjmp .L392
 5086 19ba F901      		movw r30,r18
 5087 19bc E40F      		add r30,r20
 5088 19be F51F      		adc r31,r21
 5089 19c0 EE0F      		lsl r30
 5090 19c2 FF1F      		rol r31
 5091 19c4 EE0F      		lsl r30
 5092 19c6 FF1F      		rol r31
 5093 19c8 E050      		subi r30,lo8(-(dir_array))
 5094 19ca F040      		sbci r31,hi8(-(dir_array))
 5095 19cc 8081      		ld r24,Z
 5096 19ce 8435      		cpi r24,lo8(84)
 5097 19d0 01F0      		breq .+2
 5098 19d2 00C0      		rjmp .L392
 5099               	.LVL141:
 5100 19d4 AA0F      		lsl r26
 5101 19d6 BB1F      		rol r27
 5102 19d8 A050      		subi r26,lo8(-(dir_array+2))
 5103 19da B040      		sbci r27,hi8(-(dir_array+2))
 5104 19dc 8C91      		ld r24,X
 5105 19de 8435      		cpi r24,lo8(84)
 5106 19e0 01F4      		brne .L392
 5107 19e2 4031      		cpi r20,16
 5108 19e4 5105      		cpc r21,__zero_reg__
 5109 19e6 04F4      		brge .L392
 5110               	.LM729:
 5111 19e8 F801      		movw r30,r16
 5112 19ea 7183      		std Z+1,r23
 5113 19ec 6083      		st Z,r22
 5114               	.LM730:
 5115 19ee D383      		std Z+3,r29
 5116 19f0 C283      		std Z+2,r28
 5117               	.LM731:
 5118 19f2 AE01      		movw r20,r28
 5119 19f4 4F5F      		subi r20,lo8(-(1))
 5120 19f6 5F4F      		sbci r21,hi8(-(1))
 5121 19f8 D901      		movw r26,r18
 5122 19fa A40F      		add r26,r20
 5123 19fc B51F      		adc r27,r21
 5124 19fe AA0F      		lsl r26
 5125 1a00 BB1F      		rol r27
 5126 1a02 FD01      		movw r30,r26
 5127 1a04 E050      		subi r30,lo8(-(map_array))
 5128 1a06 F040      		sbci r31,hi8(-(map_array))
 5129 1a08 8081      		ld r24,Z
 5130 1a0a 9181      		ldd r25,Z+1
 5131 1a0c 8E15      		cp r24,r14
 5132 1a0e 9F05      		cpc r25,r15
 5133 1a10 04F0      		brlt .+2
 5134 1a12 00C0      		rjmp .L393
 5135 1a14 AA0F      		lsl r26
 5136 1a16 BB1F      		rol r27
 5137 1a18 A050      		subi r26,lo8(-(dir_array+2))
 5138 1a1a B040      		sbci r27,hi8(-(dir_array+2))
 5139 1a1c 8C91      		ld r24,X
 5140 1a1e 8435      		cpi r24,lo8(84)
 5141 1a20 01F0      		breq .+2
 5142 1a22 00C0      		rjmp .L393
 5143 1a24 F601      		movw r30,r12
 5144 1a26 EE0F      		lsl r30
 5145 1a28 FF1F      		rol r31
 5146 1a2a EE0F      		lsl r30
 5147 1a2c FF1F      		rol r31
 5148 1a2e E050      		subi r30,lo8(-(dir_array))
 5149 1a30 F040      		sbci r31,hi8(-(dir_array))
 5150 1a32 8081      		ld r24,Z
 5151 1a34 8435      		cpi r24,lo8(84)
 5152 1a36 01F0      		breq .+2
 5153 1a38 00C0      		rjmp .L393
 5154 1a3a 8181      		ldd r24,Z+1
 5155 1a3c 8634      		cpi r24,lo8(70)
 5156 1a3e 01F0      		breq .+2
 5157 1a40 00C0      		rjmp .L393
 5158 1a42 8381      		ldd r24,Z+3
 5159 1a44 8634      		cpi r24,lo8(70)
 5160 1a46 01F0      		breq .+2
 5161 1a48 00C0      		rjmp .L393
 5162 1a4a C031      		cpi r28,16
 5163 1a4c D105      		cpc r29,__zero_reg__
 5164 1a4e 04F0      		brlt .+2
 5165 1a50 00C0      		rjmp .L393
 5166               	.LVL142:
 5167 1a52 00C0      		rjmp .L401
 5168               	.L392:
 5169               	.LM732:
 5170 1a54 7A01      		movw r14,r20
 5171 1a56 0894      		sec
 5172 1a58 E108      		sbc r14,__zero_reg__
 5173 1a5a F108      		sbc r15,__zero_reg__
 5174               	.LVL143:
 5175 1a5c DB01      		movw r26,r22
 5176 1a5e 24E0      		ldi r18,4
 5177 1a60 AA0F      	1:	lsl r26
 5178 1a62 BB1F      		rol r27
 5179 1a64 2A95      		dec r18
 5180 1a66 01F4      		brne 1b
 5181 1a68 ED01      		movw r28,r26
 5182 1a6a CE0D      		add r28,r14
 5183 1a6c DF1D      		adc r29,r15
 5184 1a6e 9E01      		movw r18,r28
 5185 1a70 220F      		lsl r18
 5186 1a72 331F      		rol r19
 5187 1a74 F901      		movw r30,r18
 5188 1a76 E050      		subi r30,lo8(-(map_array))
 5189 1a78 F040      		sbci r31,hi8(-(map_array))
 5190 1a7a C080      		ld r12,Z
 5191 1a7c D180      		ldd r13,Z+1
 5192 1a7e CA14      		cp r12,r10
 5193 1a80 DB04      		cpc r13,r11
 5194 1a82 04F0      		brlt .+2
 5195 1a84 00C0      		rjmp .L389
 5196 1a86 FD01      		movw r30,r26
 5197 1a88 E40F      		add r30,r20
 5198 1a8a F51F      		adc r31,r21
 5199 1a8c EE0F      		lsl r30
 5200 1a8e FF1F      		rol r31
 5201 1a90 EE0F      		lsl r30
 5202 1a92 FF1F      		rol r31
 5203 1a94 E050      		subi r30,lo8(-(dir_array+2))
 5204 1a96 F040      		sbci r31,hi8(-(dir_array+2))
 5205 1a98 8081      		ld r24,Z
 5206 1a9a 8435      		cpi r24,lo8(84)
 5207 1a9c 01F0      		breq .+2
 5208 1a9e 00C0      		rjmp .L389
 5209               	.LVL144:
 5210 1aa0 CC0F      		lsl r28
 5211 1aa2 DD1F      		rol r29
 5212 1aa4 CC0F      		lsl r28
 5213 1aa6 DD1F      		rol r29
 5214 1aa8 C050      		subi r28,lo8(-(dir_array))
 5215 1aaa D040      		sbci r29,hi8(-(dir_array))
 5216 1aac 8881      		ld r24,Y
 5217 1aae 8435      		cpi r24,lo8(84)
 5218 1ab0 01F4      		brne .L389
 5219 1ab2 1416      		cp __zero_reg__,r20
 5220 1ab4 1506      		cpc __zero_reg__,r21
 5221 1ab6 04F4      		brge .L389
 5222               	.LM733:
 5223 1ab8 F801      		movw r30,r16
 5224 1aba 7183      		std Z+1,r23
 5225 1abc 6083      		st Z,r22
 5226               	.LM734:
 5227 1abe F382      		std Z+3,r15
 5228 1ac0 E282      		std Z+2,r14
 5229               	.LM735:
 5230 1ac2 A701      		movw r20,r14
 5231 1ac4 4150      		subi r20,lo8(-(-1))
 5232 1ac6 5040      		sbci r21,hi8(-(-1))
 5233 1ac8 A40F      		add r26,r20
 5234 1aca B51F      		adc r27,r21
 5235 1acc FD01      		movw r30,r26
 5236 1ace EE0F      		lsl r30
 5237 1ad0 FF1F      		rol r31
 5238 1ad2 E050      		subi r30,lo8(-(map_array))
 5239 1ad4 F040      		sbci r31,hi8(-(map_array))
 5240 1ad6 8081      		ld r24,Z
 5241 1ad8 9181      		ldd r25,Z+1
 5242 1ada 8C15      		cp r24,r12
 5243 1adc 9D05      		cpc r25,r13
 5244 1ade 04F4      		brge .L394
 5245 1ae0 AA0F      		lsl r26
 5246 1ae2 BB1F      		rol r27
 5247 1ae4 AA0F      		lsl r26
 5248 1ae6 BB1F      		rol r27
 5249 1ae8 A050      		subi r26,lo8(-(dir_array))
 5250 1aea B040      		sbci r27,hi8(-(dir_array))
 5251 1aec 8C91      		ld r24,X
 5252 1aee 8435      		cpi r24,lo8(84)
 5253 1af0 01F4      		brne .L394
 5254 1af2 8981      		ldd r24,Y+1
 5255 1af4 8634      		cpi r24,lo8(70)
 5256 1af6 01F4      		brne .L394
 5257 1af8 220F      		lsl r18
 5258 1afa 331F      		rol r19
 5259 1afc 2050      		subi r18,lo8(-(dir_array+2))
 5260 1afe 3040      		sbci r19,hi8(-(dir_array+2))
 5261 1b00 F901      		movw r30,r18
 5262 1b02 8081      		ld r24,Z
 5263 1b04 8435      		cpi r24,lo8(84)
 5264 1b06 01F4      		brne .L394
 5265 1b08 8B81      		ldd r24,Y+3
 5266 1b0a 8634      		cpi r24,lo8(70)
 5267 1b0c 01F4      		brne .L394
 5268 1b0e 1E14      		cp __zero_reg__,r14
 5269 1b10 1F04      		cpc __zero_reg__,r15
 5270 1b12 04F4      		brge .L394
 5271               	.LVL145:
 5272               	.L401:
 5273               	.LM736:
 5274 1b14 F801      		movw r30,r16
 5275               	.LM737:
 5276 1b16 5383      		std Z+3,r21
 5277 1b18 4283      		std Z+2,r20
 5278 1b1a 00C0      		rjmp .L389
 5279               	.LVL146:
 5280               	.L391:
 5281 1b1c B601      		movw r22,r12
 5282 1b1e 00C0      		rjmp .L389
 5283               	.LVL147:
 5284               	.L393:
 5285 1b20 AE01      		movw r20,r28
 5286 1b22 00C0      		rjmp .L389
 5287               	.LVL148:
 5288               	.L394:
 5289 1b24 A701      		movw r20,r14
 5290               	.LVL149:
 5291               	.L389:
 5292 1b26 0C5F      		subi r16,lo8(-(4))
 5293 1b28 1F4F      		sbci r17,hi8(-(4))
 5294               	.LM738:
 5295 1b2a F0E0      		ldi r31,hi8(path_array+64)
 5296 1b2c 0030      		cpi r16,lo8(path_array+64)
 5297 1b2e 1F07      		cpc r17,r31
 5298 1b30 01F4      		brne .L398
 5299               	.LM739:
 5300 1b32 81E0      		ldi r24,lo8(1)
 5301 1b34 60E0      		ldi r22,lo8(0)
 5302               	.LVL150:
 5303 1b36 0E94 0000 		call lcd_byte
 5304               	.LVL151:
 5305               	.LM740:
 5306 1b3a 80E0      		ldi r24,lo8(.LC2)
 5307 1b3c 90E0      		ldi r25,hi8(.LC2)
 5308 1b3e 0E94 0000 		call lcd_write_string
 5309               	.LM741:
 5310 1b42 82E0      		ldi r24,lo8(2)
 5311 1b44 90E0      		ldi r25,hi8(2)
 5312 1b46 0E94 0000 		call delay_sec
 5313 1b4a 00C0      		rjmp .L397
 5314               	.LVL152:
 5315               	.L398:
 5316               	.LM742:
 5317 1b4c DB01      		movw r26,r22
 5318 1b4e 34E0      		ldi r19,4
 5319 1b50 AA0F      	1:	lsl r26
 5320 1b52 BB1F      		rol r27
 5321 1b54 3A95      		dec r19
 5322 1b56 01F4      		brne 1b
 5323 1b58 A40F      		add r26,r20
 5324 1b5a B51F      		adc r27,r21
 5325 1b5c FD01      		movw r30,r26
 5326 1b5e EE0F      		lsl r30
 5327 1b60 FF1F      		rol r31
 5328 1b62 E050      		subi r30,lo8(-(map_array))
 5329 1b64 F040      		sbci r31,hi8(-(map_array))
 5330 1b66 A080      		ld r10,Z
 5331 1b68 B180      		ldd r11,Z+1
 5332 1b6a A114      		cp r10,__zero_reg__
 5333 1b6c B104      		cpc r11,__zero_reg__
 5334 1b6e 01F0      		breq .+2
 5335 1b70 00C0      		rjmp .L396
 5336               	.LVL153:
 5337               	.L397:
 5338               	/* epilogue start */
 5339               	.LM743:
 5340 1b72 DF91      		pop r29
 5341 1b74 CF91      		pop r28
 5342               	.LVL154:
 5343 1b76 1F91      		pop r17
 5344 1b78 0F91      		pop r16
 5345 1b7a FF90      		pop r15
 5346 1b7c EF90      		pop r14
 5347               	.LVL155:
 5348 1b7e DF90      		pop r13
 5349 1b80 CF90      		pop r12
 5350               	.LVL156:
 5351 1b82 BF90      		pop r11
 5352 1b84 AF90      		pop r10
 5353 1b86 9F90      		pop r9
 5354 1b88 8F90      		pop r8
 5355 1b8a 0895      		ret
 5356               	.LFE71:
 5358               		.data
 5359               	.LC3:
 5360 0024 4272 6F6B 		.string	"Broke build"
 5360      6520 6275 
 5360      696C 6400 
 5361               		.text
 5362               	.global	build_map
 5364               	build_map:
 5365               	.LFB72:
 5366               	.LM744:
 5367               	.LVL157:
 5368 1b8c CF92      		push r12
 5369 1b8e DF92      		push r13
 5370 1b90 EF92      		push r14
 5371 1b92 FF92      		push r15
 5372 1b94 0F93      		push r16
 5373 1b96 1F93      		push r17
 5374 1b98 CF93      		push r28
 5375 1b9a DF93      		push r29
 5376               	/* prologue: function */
 5377               	/* frame size = 0 */
 5378 1b9c EC01      		movw r28,r24
 5379 1b9e FA01      		movw r30,r20
 5380               	.LM745:
 5381 1ba0 80E0      		ldi r24,lo8(0)
 5382 1ba2 90E0      		ldi r25,hi8(0)
 5383               	.LVL158:
 5384               	.LBB644:
 5385               	.LBB645:
 5386               	.LM746:
 5387 1ba4 04E6      		ldi r16,lo8(100)
 5388 1ba6 10E0      		ldi r17,hi8(100)
 5389 1ba8 00C0      		rjmp .L404
 5390               	.LVL159:
 5391               	.L405:
 5392 1baa 0D93      		st X+,r16
 5393 1bac 1D93      		st X+,r17
 5394               	.LM747:
 5395 1bae 4F5F      		subi r20,lo8(-(1))
 5396 1bb0 5F4F      		sbci r21,hi8(-(1))
 5397 1bb2 4031      		cpi r20,16
 5398 1bb4 5105      		cpc r21,__zero_reg__
 5399 1bb6 01F4      		brne .L405
 5400               	.LBE645:
 5401               	.LM748:
 5402 1bb8 0196      		adiw r24,1
 5403 1bba 8031      		cpi r24,16
 5404 1bbc 9105      		cpc r25,__zero_reg__
 5405 1bbe 01F0      		breq .L406
 5406               	.LVL160:
 5407               	.L404:
 5408 1bc0 DC01      		movw r26,r24
 5409 1bc2 45E0      		ldi r20,5
 5410 1bc4 AA0F      	1:	lsl r26
 5411 1bc6 BB1F      		rol r27
 5412 1bc8 4A95      		dec r20
 5413 1bca 01F4      		brne 1b
 5414               	.LVL161:
 5415 1bcc A050      		subi r26,lo8(-(map_array))
 5416 1bce B040      		sbci r27,hi8(-(map_array))
 5417 1bd0 40E0      		ldi r20,lo8(0)
 5418 1bd2 50E0      		ldi r21,hi8(0)
 5419               	.LVL162:
 5420 1bd4 00C0      		rjmp .L405
 5421               	.L406:
 5422               	.LBE644:
 5423               	.LM749:
 5424 1bd6 54E0      		ldi r21,4
 5425 1bd8 EE0F      	1:	lsl r30
 5426 1bda FF1F      		rol r31
 5427 1bdc 5A95      		dec r21
 5428 1bde 01F4      		brne 1b
 5429 1be0 E20F      		add r30,r18
 5430 1be2 F31F      		adc r31,r19
 5431 1be4 EE0F      		lsl r30
 5432 1be6 FF1F      		rol r31
 5433               	.LVL163:
 5434 1be8 E050      		subi r30,lo8(-(map_array))
 5435 1bea F040      		sbci r31,hi8(-(map_array))
 5436 1bec 1182      		std Z+1,__zero_reg__
 5437 1bee 1082      		st Z,__zero_reg__
 5438 1bf0 EE24      		clr r14
 5439 1bf2 FF24      		clr r15
 5440               	.LVL164:
 5441               	.LM750:
 5442 1bf4 AE01      		movw r20,r28
 5443 1bf6 34E0      		ldi r19,4
 5444 1bf8 440F      	1:	lsl r20
 5445 1bfa 551F      		rol r21
 5446 1bfc 3A95      		dec r19
 5447 1bfe 01F4      		brne 1b
 5448 1c00 460F      		add r20,r22
 5449 1c02 571F      		adc r21,r23
 5450 1c04 440F      		lsl r20
 5451 1c06 551F      		rol r21
 5452               	.LVL165:
 5453 1c08 4050      		subi r20,lo8(-(map_array))
 5454 1c0a 5040      		sbci r21,hi8(-(map_array))
 5455 1c0c 00C0      		rjmp .L407
 5456               	.LVL166:
 5457               	.L412:
 5458               	.LBB646:
 5459               	.LBB647:
 5460               	.LM751:
 5461 1c0e 9096      		adiw r26,32
 5462 1c10 8D91      		ld r24,X+
 5463 1c12 9C91      		ld r25,X
 5464 1c14 9197      		sbiw r26,32+1
 5465 1c16 8E15      		cp r24,r14
 5466 1c18 9F05      		cpc r25,r15
 5467 1c1a 01F0      		breq .+2
 5468 1c1c 00C0      		rjmp .L408
 5469               	.LM752:
 5470 1c1e 8481      		ldd r24,Z+4
 5471 1c20 8435      		cpi r24,lo8(84)
 5472 1c22 01F4      		brne .L409
 5473 1c24 8285      		ldd r24,Z+10
 5474 1c26 8435      		cpi r24,lo8(84)
 5475 1c28 01F4      		brne .L409
 5476               	.LM753:
 5477 1c2a 8881      		ld r24,Y
 5478 1c2c 9981      		ldd r25,Y+1
 5479 1c2e 8436      		cpi r24,100
 5480 1c30 9105      		cpc r25,__zero_reg__
 5481 1c32 01F4      		brne .L409
 5482               	.LM754:
 5483 1c34 1983      		std Y+1,r17
 5484 1c36 0883      		st Y,r16
 5485               	.L409:
 5486               	.LM755:
 5487 1c38 8581      		ldd r24,Z+5
 5488 1c3a 8435      		cpi r24,lo8(84)
 5489 1c3c 01F4      		brne .L410
 5490 1c3e E95B      		subi r30,lo8(-(71))
 5491 1c40 FF4F      		sbci r31,hi8(-(71))
 5492 1c42 8081      		ld r24,Z
 5493 1c44 E754      		subi r30,lo8(-(-71))
 5494 1c46 F040      		sbci r31,hi8(-(-71))
 5495 1c48 8435      		cpi r24,lo8(84)
 5496 1c4a 01F4      		brne .L410
 5497               	.LM756:
 5498 1c4c 8E8D      		ldd r24,Y+30
 5499 1c4e 9F8D      		ldd r25,Y+31
 5500 1c50 8436      		cpi r24,100
 5501 1c52 9105      		cpc r25,__zero_reg__
 5502 1c54 01F4      		brne .L410
 5503               	.LM757:
 5504 1c56 1F8F      		std Y+31,r17
 5505 1c58 0E8F      		std Y+30,r16
 5506               	.L410:
 5507               	.LM758:
 5508 1c5a 8681      		ldd r24,Z+6
 5509 1c5c 8435      		cpi r24,lo8(84)
 5510 1c5e 01F4      		brne .L411
 5511 1c60 8081      		ld r24,Z
 5512 1c62 8435      		cpi r24,lo8(84)
 5513 1c64 01F4      		brne .L411
 5514               	.LM759:
 5515 1c66 5E96      		adiw r26,30
 5516 1c68 8D91      		ld r24,X+
 5517 1c6a 9C91      		ld r25,X
 5518 1c6c 5F97      		sbiw r26,30+1
 5519 1c6e 8436      		cpi r24,100
 5520 1c70 9105      		cpc r25,__zero_reg__
 5521 1c72 01F4      		brne .L411
 5522               	.LM760:
 5523 1c74 5F96      		adiw r26,30+1
 5524 1c76 1C93      		st X,r17
 5525 1c78 0E93      		st -X,r16
 5526 1c7a 5E97      		sbiw r26,30
 5527               	.L411:
 5528               	.LM761:
 5529 1c7c 8781      		ldd r24,Z+7
 5530 1c7e 8435      		cpi r24,lo8(84)
 5531 1c80 01F4      		brne .L408
 5532 1c82 FB97      		sbiw r30,59
 5533 1c84 8081      		ld r24,Z
 5534 1c86 FB96      		adiw r30,59
 5535 1c88 8435      		cpi r24,lo8(84)
 5536 1c8a 01F4      		brne .L408
 5537               	.LM762:
 5538 1c8c 8D91      		ld r24,X+
 5539 1c8e 9C91      		ld r25,X
 5540 1c90 1197      		sbiw r26,1
 5541 1c92 8436      		cpi r24,100
 5542 1c94 9105      		cpc r25,__zero_reg__
 5543 1c96 01F4      		brne .L408
 5544               	.LM763:
 5545 1c98 1196      		adiw r26,1
 5546 1c9a 1C93      		st X,r17
 5547 1c9c 0E93      		st -X,r16
 5548               	.L408:
 5549 1c9e 1296      		adiw r26,2
 5550 1ca0 3496      		adiw r30,4
 5551 1ca2 2296      		adiw r28,2
 5552               	.LM764:
 5553 1ca4 AC15      		cp r26,r12
 5554 1ca6 BD05      		cpc r27,r13
 5555 1ca8 01F0      		breq .+2
 5556 1caa 00C0      		rjmp .L412
 5557               	.LBE647:
 5558               	.LM765:
 5559 1cac 6F5F      		subi r22,lo8(-(1))
 5560 1cae 7F4F      		sbci r23,hi8(-(1))
 5561 1cb0 90E2      		ldi r25,lo8(32)
 5562 1cb2 C92E      		mov r12,r25
 5563 1cb4 D12C      		mov r13,__zero_reg__
 5564 1cb6 CA0E      		add r12,r26
 5565 1cb8 DB1E      		adc r13,r27
 5566 1cba 6031      		cpi r22,16
 5567 1cbc 7105      		cpc r23,__zero_reg__
 5568 1cbe 01F0      		breq .L413
 5569               	.LVL167:
 5570               	.L415:
 5571 1cc0 DB01      		movw r26,r22
 5572 1cc2 85E0      		ldi r24,5
 5573 1cc4 AA0F      	1:	lsl r26
 5574 1cc6 BB1F      		rol r27
 5575 1cc8 8A95      		dec r24
 5576 1cca 01F4      		brne 1b
 5577 1ccc A050      		subi r26,lo8(-(map_array-32))
 5578 1cce B040      		sbci r27,hi8(-(map_array-32))
 5579 1cd0 9B01      		movw r18,r22
 5580 1cd2 F4E0      		ldi r31,4
 5581 1cd4 220F      	1:	lsl r18
 5582 1cd6 331F      		rol r19
 5583 1cd8 FA95      		dec r31
 5584 1cda 01F4      		brne 1b
 5585 1cdc 8827      		clr r24
 5586 1cde 9927      		clr r25
 5587 1ce0 821B      		sub r24,r18
 5588 1ce2 930B      		sbc r25,r19
 5589 1ce4 0196      		adiw r24,1
 5590 1ce6 880F      		lsl r24
 5591 1ce8 991F      		rol r25
 5592 1cea 880F      		lsl r24
 5593 1cec 991F      		rol r25
 5594 1cee EE27      		clr r30
 5595 1cf0 FF27      		clr r31
 5596 1cf2 E81B      		sub r30,r24
 5597 1cf4 F90B      		sbc r31,r25
 5598 1cf6 E050      		subi r30,lo8(-(dir_array))
 5599 1cf8 F040      		sbci r31,hi8(-(dir_array))
 5600 1cfa E901      		movw r28,r18
 5601               	.LVL168:
 5602 1cfc CC0F      		lsl r28
 5603 1cfe DD1F      		rol r29
 5604 1d00 C050      		subi r28,lo8(-(map_array+2))
 5605 1d02 D040      		sbci r29,hi8(-(map_array+2))
 5606 1d04 00C0      		rjmp .L412
 5607               	.L413:
 5608               	.LBE646:
 5609               	.LM766:
 5610 1d06 0894      		sec
 5611 1d08 E11C      		adc r14,__zero_reg__
 5612 1d0a F11C      		adc r15,__zero_reg__
 5613               	.LM767:
 5614 1d0c 83E3      		ldi r24,lo8(51)
 5615 1d0e E816      		cp r14,r24
 5616 1d10 F104      		cpc r15,__zero_reg__
 5617 1d12 01F4      		brne .L407
 5618               	.LM768:
 5619 1d14 81E0      		ldi r24,lo8(1)
 5620 1d16 60E0      		ldi r22,lo8(0)
 5621               	.LVL169:
 5622 1d18 0E94 0000 		call lcd_byte
 5623               	.LM769:
 5624 1d1c 80E0      		ldi r24,lo8(.LC3)
 5625 1d1e 90E0      		ldi r25,hi8(.LC3)
 5626 1d20 0E94 0000 		call lcd_write_string
 5627               	.LM770:
 5628 1d24 82E0      		ldi r24,lo8(2)
 5629 1d26 90E0      		ldi r25,hi8(2)
 5630 1d28 0E94 0000 		call delay_sec
 5631 1d2c 00C0      		rjmp .L416
 5632               	.LVL170:
 5633               	.L407:
 5634               	.LM771:
 5635 1d2e FA01      		movw r30,r20
 5636               	.LVL171:
 5637 1d30 8081      		ld r24,Z
 5638 1d32 9181      		ldd r25,Z+1
 5639               	.LVL172:
 5640 1d34 8436      		cpi r24,100
 5641 1d36 9105      		cpc r25,__zero_reg__
 5642 1d38 01F4      		brne .L416
 5643 1d3a 90E0      		ldi r25,lo8(map_array)
 5644 1d3c C92E      		mov r12,r25
 5645 1d3e 90E0      		ldi r25,hi8(map_array)
 5646 1d40 D92E      		mov r13,r25
 5647 1d42 60E0      		ldi r22,lo8(0)
 5648 1d44 70E0      		ldi r23,hi8(0)
 5649               	.LVL173:
 5650               	.LBB649:
 5651               	.LBB648:
 5652               	.LM772:
 5653 1d46 8701      		movw r16,r14
 5654 1d48 0F5F      		subi r16,lo8(-(1))
 5655 1d4a 1F4F      		sbci r17,hi8(-(1))
 5656 1d4c 00C0      		rjmp .L415
 5657               	.LVL174:
 5658               	.L416:
 5659               	/* epilogue start */
 5660               	.LBE648:
 5661               	.LBE649:
 5662               	.LM773:
 5663 1d4e DF91      		pop r29
 5664 1d50 CF91      		pop r28
 5665               	.LVL175:
 5666 1d52 1F91      		pop r17
 5667 1d54 0F91      		pop r16
 5668 1d56 FF90      		pop r15
 5669 1d58 EF90      		pop r14
 5670               	.LVL176:
 5671 1d5a DF90      		pop r13
 5672 1d5c CF90      		pop r12
 5673 1d5e 0895      		ret
 5674               	.LFE72:
 5676               	.global	checkAndCorrectDirection
 5678               	checkAndCorrectDirection:
 5679               	.LFB74:
 5680               	.LM774:
 5681               	.LVL177:
 5682 1d60 CF93      		push r28
 5683 1d62 DF93      		push r29
 5684               	/* prologue: function */
 5685               	/* frame size = 0 */
 5686 1d64 EC01      		movw r28,r24
 5687               	.LM775:
 5688 1d66 8130      		cpi r24,1
 5689 1d68 9105      		cpc r25,__zero_reg__
 5690 1d6a 01F4      		brne .L421
 5691               	.LM776:
 5692 1d6c 8091 0000 		lds r24,dir
 5693 1d70 9091 0000 		lds r25,(dir)+1
 5694               	.LVL178:
 5695 1d74 2FEF      		ldi r18,hi8(-1)
 5696 1d76 8F3F      		cpi r24,lo8(-1)
 5697 1d78 9207      		cpc r25,r18
 5698 1d7a 01F0      		breq .L424
 5699 1d7c 8230      		cpi r24,2
 5700 1d7e 9105      		cpc r25,__zero_reg__
 5701 1d80 01F4      		brne .+2
 5702 1d82 00C0      		rjmp .L433
 5703 1d84 8E5F      		subi r24,lo8(-2)
 5704 1d86 9F4F      		sbci r25,hi8(-2)
 5705 1d88 01F0      		breq .+2
 5706 1d8a 00C0      		rjmp .L422
 5707 1d8c 00C0      		rjmp .L437
 5708               	.L424:
 5709               	.LM777:
 5710 1d8e E091 0000 		lds r30,x_coordinate
 5711 1d92 F091 0000 		lds r31,(x_coordinate)+1
 5712 1d96 24E0      		ldi r18,4
 5713 1d98 EE0F      	1:	lsl r30
 5714 1d9a FF1F      		rol r31
 5715 1d9c 2A95      		dec r18
 5716 1d9e 01F4      		brne 1b
 5717 1da0 8091 0000 		lds r24,y_coordinate
 5718 1da4 9091 0000 		lds r25,(y_coordinate)+1
 5719 1da8 E80F      		add r30,r24
 5720 1daa F91F      		adc r31,r25
 5721 1dac EE0F      		lsl r30
 5722 1dae FF1F      		rol r31
 5723 1db0 EE0F      		lsl r30
 5724 1db2 FF1F      		rol r31
 5725 1db4 E050      		subi r30,lo8(-(dir_array))
 5726 1db6 F040      		sbci r31,hi8(-(dir_array))
 5727 1db8 00C0      		rjmp .L448
 5728               	.LVL179:
 5729               	.L421:
 5730               	.LM778:
 5731 1dba 8230      		cpi r24,2
 5732 1dbc 9105      		cpc r25,__zero_reg__
 5733 1dbe 01F4      		brne .L427
 5734               	.LM779:
 5735 1dc0 8091 0000 		lds r24,dir
 5736 1dc4 9091 0000 		lds r25,(dir)+1
 5737               	.LVL180:
 5738 1dc8 2FEF      		ldi r18,hi8(-1)
 5739 1dca 8F3F      		cpi r24,lo8(-1)
 5740 1dcc 9207      		cpc r25,r18
 5741 1dce 01F0      		breq .L433
 5742 1dd0 8130      		cpi r24,1
 5743 1dd2 9105      		cpc r25,__zero_reg__
 5744 1dd4 01F4      		brne .+2
 5745 1dd6 00C0      		rjmp .L437
 5746 1dd8 8E5F      		subi r24,lo8(-2)
 5747 1dda 9F4F      		sbci r25,hi8(-2)
 5748 1ddc 01F0      		breq .+2
 5749 1dde 00C0      		rjmp .L422
 5750               	.LM780:
 5751 1de0 E091 0000 		lds r30,x_coordinate
 5752 1de4 F091 0000 		lds r31,(x_coordinate)+1
 5753 1de8 84E0      		ldi r24,4
 5754 1dea EE0F      	1:	lsl r30
 5755 1dec FF1F      		rol r31
 5756 1dee 8A95      		dec r24
 5757 1df0 01F4      		brne 1b
 5758 1df2 8091 0000 		lds r24,y_coordinate
 5759 1df6 9091 0000 		lds r25,(y_coordinate)+1
 5760 1dfa E80F      		add r30,r24
 5761 1dfc F91F      		adc r31,r25
 5762 1dfe EE0F      		lsl r30
 5763 1e00 FF1F      		rol r31
 5764 1e02 EE0F      		lsl r30
 5765 1e04 FF1F      		rol r31
 5766 1e06 E050      		subi r30,lo8(-(dir_array))
 5767 1e08 F040      		sbci r31,hi8(-(dir_array))
 5768 1e0a 8381      		ldd r24,Z+3
 5769 1e0c 00C0      		rjmp .L445
 5770               	.LVL181:
 5771               	.L427:
 5772               	.LM781:
 5773 1e0e 8FEF      		ldi r24,hi8(-1)
 5774 1e10 CF3F      		cpi r28,lo8(-1)
 5775 1e12 D807      		cpc r29,r24
 5776               	.LVL182:
 5777 1e14 01F4      		brne .L432
 5778               	.LM782:
 5779 1e16 8091 0000 		lds r24,dir
 5780 1e1a 9091 0000 		lds r25,(dir)+1
 5781 1e1e 8130      		cpi r24,1
 5782 1e20 9105      		cpc r25,__zero_reg__
 5783 1e22 01F0      		breq .L434
 5784 1e24 8230      		cpi r24,2
 5785 1e26 9105      		cpc r25,__zero_reg__
 5786 1e28 01F0      		breq .L437
 5787 1e2a 8E5F      		subi r24,lo8(-2)
 5788 1e2c 9F4F      		sbci r25,hi8(-2)
 5789 1e2e 01F0      		breq .+2
 5790 1e30 00C0      		rjmp .L422
 5791               	.L433:
 5792               	.LM783:
 5793 1e32 0E94 0000 		call turn_right
 5794               	.L442:
 5795 1e36 0E94 0000 		call sense_of_directon
 5796 1e3a 00C0      		rjmp .L422
 5797               	.L434:
 5798               	.LM784:
 5799 1e3c E091 0000 		lds r30,x_coordinate
 5800 1e40 F091 0000 		lds r31,(x_coordinate)+1
 5801 1e44 A4E0      		ldi r26,4
 5802 1e46 EE0F      	1:	lsl r30
 5803 1e48 FF1F      		rol r31
 5804 1e4a AA95      		dec r26
 5805 1e4c 01F4      		brne 1b
 5806 1e4e 8091 0000 		lds r24,y_coordinate
 5807 1e52 9091 0000 		lds r25,(y_coordinate)+1
 5808 1e56 E80F      		add r30,r24
 5809 1e58 F91F      		adc r31,r25
 5810 1e5a EE0F      		lsl r30
 5811 1e5c FF1F      		rol r31
 5812 1e5e EE0F      		lsl r30
 5813 1e60 FF1F      		rol r31
 5814 1e62 E050      		subi r30,lo8(-(dir_array+2))
 5815 1e64 F040      		sbci r31,hi8(-(dir_array+2))
 5816               	.L448:
 5817 1e66 8081      		ld r24,Z
 5818 1e68 00C0      		rjmp .L445
 5819               	.L432:
 5820               	.LM785:
 5821 1e6a 8FEF      		ldi r24,hi8(-2)
 5822 1e6c CE3F      		cpi r28,lo8(-2)
 5823 1e6e D807      		cpc r29,r24
 5824 1e70 01F4      		brne .L422
 5825               	.LM786:
 5826 1e72 8091 0000 		lds r24,dir
 5827 1e76 9091 0000 		lds r25,(dir)+1
 5828 1e7a 8130      		cpi r24,1
 5829 1e7c 9105      		cpc r25,__zero_reg__
 5830 1e7e 01F0      		breq .L433
 5831 1e80 8230      		cpi r24,2
 5832 1e82 9105      		cpc r25,__zero_reg__
 5833 1e84 01F0      		breq .L439
 5834 1e86 8F5F      		subi r24,lo8(-1)
 5835 1e88 9F4F      		sbci r25,hi8(-1)
 5836 1e8a 01F4      		brne .L422
 5837               	.L437:
 5838               	.LM787:
 5839 1e8c 0E94 0000 		call turn_left
 5840 1e90 00C0      		rjmp .L442
 5841               	.L439:
 5842               	.LM788:
 5843 1e92 E091 0000 		lds r30,x_coordinate
 5844 1e96 F091 0000 		lds r31,(x_coordinate)+1
 5845 1e9a 64E0      		ldi r22,4
 5846 1e9c EE0F      	1:	lsl r30
 5847 1e9e FF1F      		rol r31
 5848 1ea0 6A95      		dec r22
 5849 1ea2 01F4      		brne 1b
 5850 1ea4 8091 0000 		lds r24,y_coordinate
 5851 1ea8 9091 0000 		lds r25,(y_coordinate)+1
 5852 1eac E80F      		add r30,r24
 5853 1eae F91F      		adc r31,r25
 5854 1eb0 EE0F      		lsl r30
 5855 1eb2 FF1F      		rol r31
 5856 1eb4 EE0F      		lsl r30
 5857 1eb6 FF1F      		rol r31
 5858 1eb8 E050      		subi r30,lo8(-(dir_array))
 5859 1eba F040      		sbci r31,hi8(-(dir_array))
 5860 1ebc 8181      		ldd r24,Z+1
 5861               	.L445:
 5862 1ebe 8435      		cpi r24,lo8(84)
 5863 1ec0 01F4      		brne .L440
 5864               	.LM789:
 5865 1ec2 0E94 0000 		call turn_right
 5866               	.L440:
 5867               	.LM790:
 5868 1ec6 0E94 0000 		call turn_right
 5869               	.LM791:
 5870 1eca D093 0000 		sts (dir)+1,r29
 5871 1ece C093 0000 		sts dir,r28
 5872               	.L422:
 5873               	.LBB650:
 5874               	.LBB651:
 5875               	.LM792:
 5876 1ed2 AC9A      		sbi 53-32,4
 5877               	.LM793:
 5878 1ed4 AD9A      		sbi 53-32,5
 5879               	.LM794:
 5880 1ed6 AE9A      		sbi 53-32,6
 5881               	.LM795:
 5882 1ed8 AF9A      		sbi 53-32,7
 5883               	/* epilogue start */
 5884               	.LBE651:
 5885               	.LBE650:
 5886               	.LM796:
 5887 1eda DF91      		pop r29
 5888 1edc CF91      		pop r28
 5889               	.LVL183:
 5890 1ede 0895      		ret
 5891               	.LFE74:
 5893               	.global	go_to_coordinate
 5895               	go_to_coordinate:
 5896               	.LFB73:
 5897               	.LM797:
 5898               	.LVL184:
 5899 1ee0 0F93      		push r16
 5900 1ee2 1F93      		push r17
 5901 1ee4 CF93      		push r28
 5902 1ee6 DF93      		push r29
 5903               	/* prologue: function */
 5904               	/* frame size = 0 */
 5905 1ee8 EC01      		movw r28,r24
 5906 1eea 8B01      		movw r16,r22
 5907               	.LM798:
 5908 1eec 8091 0000 		lds r24,x_coordinate
 5909 1ef0 9091 0000 		lds r25,(x_coordinate)+1
 5910               	.LVL185:
 5911 1ef4 8C17      		cp r24,r28
 5912 1ef6 9D07      		cpc r25,r29
 5913 1ef8 04F4      		brge .L450
 5914               	.LVL186:
 5915               	.LM799:
 5916 1efa 81E0      		ldi r24,lo8(1)
 5917 1efc 90E0      		ldi r25,hi8(1)
 5918 1efe 0E94 0000 		call checkAndCorrectDirection
 5919 1f02 00C0      		rjmp .L451
 5920               	.L453:
 5921               	.LM800:
 5922 1f04 0E94 0000 		call line_track_new
 5923               	.L451:
 5924               	.LM801:
 5925 1f08 CD9B      		sbis 57-32,5
 5926 1f0a 00C0      		rjmp .L475
 5927 1f0c CF99      		sbic 57-32,7
 5928 1f0e 00C0      		rjmp .L453
 5929 1f10 00C0      		rjmp .L475
 5930               	.L455:
 5931               	.LM802:
 5932 1f12 0E94 0000 		call line_track_new
 5933               	.L475:
 5934               	.LM803:
 5935 1f16 CC9B      		sbis 57-32,4
 5936 1f18 00C0      		rjmp .L472
 5937 1f1a 8799      		sbic 48-32,7
 5938 1f1c 00C0      		rjmp .L455
 5939 1f1e 00C0      		rjmp .L472
 5940               	.LVL187:
 5941               	.L450:
 5942               	.LM804:
 5943 1f20 C817      		cp r28,r24
 5944 1f22 D907      		cpc r29,r25
 5945 1f24 04F4      		brge .L457
 5946               	.LM805:
 5947 1f26 8FEF      		ldi r24,lo8(-1)
 5948 1f28 9FEF      		ldi r25,hi8(-1)
 5949 1f2a 0E94 0000 		call checkAndCorrectDirection
 5950 1f2e 00C0      		rjmp .L458
 5951               	.L460:
 5952               	.LM806:
 5953 1f30 0E94 0000 		call line_track_new
 5954               	.L458:
 5955               	.LM807:
 5956 1f34 CD9B      		sbis 57-32,5
 5957 1f36 00C0      		rjmp .L476
 5958 1f38 CF99      		sbic 57-32,7
 5959 1f3a 00C0      		rjmp .L460
 5960 1f3c 00C0      		rjmp .L476
 5961               	.L462:
 5962               	.LM808:
 5963 1f3e 0E94 0000 		call line_track_new
 5964               	.L476:
 5965               	.LM809:
 5966 1f42 CC9B      		sbis 57-32,4
 5967 1f44 00C0      		rjmp .L472
 5968 1f46 8799      		sbic 48-32,7
 5969 1f48 00C0      		rjmp .L462
 5970 1f4a 00C0      		rjmp .L472
 5971               	.LVL188:
 5972               	.L457:
 5973               	.LM810:
 5974 1f4c 8091 0000 		lds r24,y_coordinate
 5975 1f50 9091 0000 		lds r25,(y_coordinate)+1
 5976 1f54 8617      		cp r24,r22
 5977 1f56 9707      		cpc r25,r23
 5978 1f58 04F4      		brge .L463
 5979               	.LVL189:
 5980               	.LM811:
 5981 1f5a 82E0      		ldi r24,lo8(2)
 5982 1f5c 90E0      		ldi r25,hi8(2)
 5983 1f5e 0E94 0000 		call checkAndCorrectDirection
 5984               	.LVL190:
 5985 1f62 00C0      		rjmp .L464
 5986               	.L466:
 5987               	.LM812:
 5988 1f64 0E94 0000 		call line_track_new
 5989               	.L464:
 5990               	.LM813:
 5991 1f68 CD9B      		sbis 57-32,5
 5992 1f6a 00C0      		rjmp .L477
 5993 1f6c CF99      		sbic 57-32,7
 5994 1f6e 00C0      		rjmp .L466
 5995 1f70 00C0      		rjmp .L477
 5996               	.L468:
 5997               	.LM814:
 5998 1f72 0E94 0000 		call line_track_new
 5999               	.L477:
 6000               	.LM815:
 6001 1f76 CC9B      		sbis 57-32,4
 6002 1f78 00C0      		rjmp .L472
 6003 1f7a 8799      		sbic 48-32,7
 6004 1f7c 00C0      		rjmp .L468
 6005 1f7e 00C0      		rjmp .L472
 6006               	.LVL191:
 6007               	.L463:
 6008               	.LM816:
 6009 1f80 6817      		cp r22,r24
 6010 1f82 7907      		cpc r23,r25
 6011 1f84 04F4      		brge .L456
 6012               	.LM817:
 6013 1f86 8EEF      		ldi r24,lo8(-2)
 6014 1f88 9FEF      		ldi r25,hi8(-2)
 6015 1f8a 0E94 0000 		call checkAndCorrectDirection
 6016               	.LVL192:
 6017 1f8e 00C0      		rjmp .L469
 6018               	.L471:
 6019               	.LM818:
 6020 1f90 0E94 0000 		call line_track_new
 6021               	.L469:
 6022               	.LM819:
 6023 1f94 CD9B      		sbis 57-32,5
 6024 1f96 00C0      		rjmp .L478
 6025 1f98 CF99      		sbic 57-32,7
 6026 1f9a 00C0      		rjmp .L471
 6027 1f9c 00C0      		rjmp .L478
 6028               	.L473:
 6029               	.LM820:
 6030 1f9e 0E94 0000 		call line_track_new
 6031               	.L478:
 6032               	.LM821:
 6033 1fa2 CC9B      		sbis 57-32,4
 6034 1fa4 00C0      		rjmp .L472
 6035 1fa6 8799      		sbic 48-32,7
 6036 1fa8 00C0      		rjmp .L473
 6037               	.L472:
 6038               	.LBB652:
 6039               	.LBB653:
 6040               	.LM822:
 6041 1faa 8FE8      		ldi r24,lo8(399)
 6042 1fac 91E0      		ldi r25,hi8(399)
 6043 1fae 99BD      		out (72)+1-32,r25
 6044 1fb0 88BD      		out 72-32,r24
 6045               	.LBE653:
 6046               	.LBE652:
 6047               	.LBB654:
 6048               	.LBB655:
 6049               	.LM823:
 6050 1fb2 9BBD      		out (74)+1-32,r25
 6051 1fb4 8ABD      		out 74-32,r24
 6052               	.LBE655:
 6053               	.LBE654:
 6054               	.LBB656:
 6055               	.LBB657:
 6056               	.LM824:
 6057 1fb6 AC9A      		sbi 53-32,4
 6058               	.LM825:
 6059 1fb8 AD9A      		sbi 53-32,5
 6060               	.LM826:
 6061 1fba AE9A      		sbi 53-32,6
 6062               	.LM827:
 6063 1fbc AF9A      		sbi 53-32,7
 6064               	.LVL193:
 6065               	.L456:
 6066               	.LBE657:
 6067               	.LBE656:
 6068               	.LM828:
 6069 1fbe D093 0000 		sts (x_coordinate)+1,r29
 6070 1fc2 C093 0000 		sts x_coordinate,r28
 6071               	.LM829:
 6072 1fc6 1093 0000 		sts (y_coordinate)+1,r17
 6073 1fca 0093 0000 		sts y_coordinate,r16
 6074               	.LM830:
 6075 1fce 81E0      		ldi r24,lo8(1)
 6076 1fd0 60E0      		ldi r22,lo8(0)
 6077 1fd2 0E94 0000 		call lcd_byte
 6078               	.LM831:
 6079 1fd6 4091 0000 		lds r20,x_coordinate
 6080 1fda 5091 0000 		lds r21,(x_coordinate)+1
 6081 1fde 80E0      		ldi r24,lo8(0)
 6082 1fe0 90E0      		ldi r25,hi8(0)
 6083 1fe2 61E0      		ldi r22,lo8(1)
 6084 1fe4 70E0      		ldi r23,hi8(1)
 6085 1fe6 22E0      		ldi r18,lo8(2)
 6086 1fe8 30E0      		ldi r19,hi8(2)
 6087 1fea 0E94 0000 		call lcd_write_int_xy
 6088               	.LM832:
 6089 1fee 4091 0000 		lds r20,y_coordinate
 6090 1ff2 5091 0000 		lds r21,(y_coordinate)+1
 6091 1ff6 85E0      		ldi r24,lo8(5)
 6092 1ff8 90E0      		ldi r25,hi8(5)
 6093 1ffa 61E0      		ldi r22,lo8(1)
 6094 1ffc 70E0      		ldi r23,hi8(1)
 6095 1ffe 22E0      		ldi r18,lo8(2)
 6096 2000 30E0      		ldi r19,hi8(2)
 6097 2002 0E94 0000 		call lcd_write_int_xy
 6098               	.LM833:
 6099 2006 4091 0000 		lds r20,irc
 6100 200a 5091 0000 		lds r21,(irc)+1
 6101 200e 83E0      		ldi r24,lo8(3)
 6102 2010 90E0      		ldi r25,hi8(3)
 6103 2012 60E0      		ldi r22,lo8(0)
 6104 2014 70E0      		ldi r23,hi8(0)
 6105 2016 25E0      		ldi r18,lo8(5)
 6106 2018 30E0      		ldi r19,hi8(5)
 6107 201a 0E94 0000 		call lcd_write_int_xy
 6108               	.LBB658:
 6109               	.LBB659:
 6110               	.LM834:
 6111 201e AC9A      		sbi 53-32,4
 6112               	.LM835:
 6113 2020 AD9A      		sbi 53-32,5
 6114               	.LM836:
 6115 2022 AE9A      		sbi 53-32,6
 6116               	.LM837:
 6117 2024 AF9A      		sbi 53-32,7
 6118               	/* epilogue start */
 6119               	.LBE659:
 6120               	.LBE658:
 6121               	.LM838:
 6122 2026 DF91      		pop r29
 6123 2028 CF91      		pop r28
 6124               	.LVL194:
 6125 202a 1F91      		pop r17
 6126 202c 0F91      		pop r16
 6127               	.LVL195:
 6128 202e 0895      		ret
 6129               	.LFE73:
 6131               		.data
 6132               	.LC4:
 6133 0030 6D78 3A20 		.string	"mx: "
 6133      00
 6134               	.LC5:
 6135 0035 6D79 3A20 		.string	"my: "
 6135      00
 6136               	.LC6:
 6137 003a 783A 2000 		.string	"x: "
 6138               	.LC7:
 6139 003e 793A 2000 		.string	"y: "
 6140               	.LC8:
 6141 0042 5072 6573 		.string	"Press Any Key"
 6141      7320 416E 
 6141      7920 4B65 
 6141      7900 
 6142               	.LC9:
 6143 0050 5374 6F72 		.string	"Stored In EP"
 6143      6564 2049 
 6143      6E20 4550 
 6143      00
 6144               	.LC10:
 6145 005d 3100      		.string	"1"
 6146               	.LC11:
 6147 005f 3000      		.string	"0"
 6148               		.text
 6149               	.global	right_junc_check
 6151               	right_junc_check:
 6152               	.LFB61:
 6153               	.LM839:
 6154 2030 AF92      		push r10
 6155 2032 BF92      		push r11
 6156 2034 CF92      		push r12
 6157 2036 DF92      		push r13
 6158 2038 EF92      		push r14
 6159 203a FF92      		push r15
 6160 203c 0F93      		push r16
 6161 203e 1F93      		push r17
 6162 2040 CF93      		push r28
 6163 2042 DF93      		push r29
 6164               	/* prologue: function */
 6165               	/* frame size = 0 */
 6166               	.LBB660:
 6167               	.LBB661:
 6168               	.LM840:
 6169 2044 8FE8      		ldi r24,lo8(399)
 6170 2046 91E0      		ldi r25,hi8(399)
 6171 2048 9BBD      		out (74)+1-32,r25
 6172 204a 8ABD      		out 74-32,r24
 6173               	.LBE661:
 6174               	.LBE660:
 6175               	.LBB662:
 6176               	.LBB663:
 6177               	.LM841:
 6178 204c 99BD      		out (72)+1-32,r25
 6179 204e 88BD      		out 72-32,r24
 6180               	.LBE663:
 6181               	.LBE662:
 6182               	.LBB664:
 6183               	.LBB665:
 6184               	.LM842:
 6185 2050 AC9A      		sbi 53-32,4
 6186               	.LM843:
 6187 2052 AD9A      		sbi 53-32,5
 6188               	.LM844:
 6189 2054 AE9A      		sbi 53-32,6
 6190               	.LM845:
 6191 2056 AF9A      		sbi 53-32,7
 6192               	.LBE665:
 6193               	.LBE664:
 6194               	.LM846:
 6195 2058 81E0      		ldi r24,lo8(1)
 6196 205a 60E0      		ldi r22,lo8(0)
 6197 205c 0E94 0000 		call lcd_byte
 6198               	.LM847:
 6199 2060 2091 0000 		lds r18,irc
 6200 2064 3091 0000 		lds r19,(irc)+1
 6201 2068 87E0      		ldi r24,hi8(2001)
 6202 206a 213D      		cpi r18,lo8(2001)
 6203 206c 3807      		cpc r19,r24
 6204 206e 04F0      		brlt .L480
 6205               	.LM848:
 6206 2070 82E0      		ldi r24,lo8(2)
 6207 2072 90E0      		ldi r25,hi8(2)
 6208 2074 00C0      		rjmp .L511
 6209               	.L480:
 6210               	.LM849:
 6211 2076 81E0      		ldi r24,lo8(1)
 6212 2078 90E0      		ldi r25,hi8(1)
 6213               	.L511:
 6214 207a 9093 0000 		sts (Coordinates_changed_by)+1,r25
 6215 207e 8093 0000 		sts Coordinates_changed_by,r24
 6216               	.LM850:
 6217 2082 232B      		or r18,r19
 6218 2084 01F4      		brne .L482
 6219               	.LM851:
 6220 2086 1092 0000 		sts (Coordinates_changed_by)+1,__zero_reg__
 6221 208a 1092 0000 		sts Coordinates_changed_by,__zero_reg__
 6222               	.L482:
 6223               	.LM852:
 6224 208e 0E94 0000 		call update_coordinates
 6225 2092 00C0      		rjmp .L483
 6226               	.L484:
 6227               	.LM853:
 6228 2094 0E94 0000 		call line_track_new
 6229               	.L483:
 6230               	.LM854:
 6231 2098 8799      		sbic 48-32,7
 6232 209a 00C0      		rjmp .L484
 6233               	.LM855:
 6234 209c 8091 0000 		lds r24,repeat
 6235 20a0 9091 0000 		lds r25,(repeat)+1
 6236 20a4 0497      		sbiw r24,4
 6237 20a6 04F0      		brlt .+2
 6238 20a8 00C0      		rjmp .L507
 6239               	.LM856:
 6240 20aa 8091 0000 		lds r24,lcount
 6241 20ae 9091 0000 		lds r25,(lcount)+1
 6242 20b2 9093 0000 		sts (lcountPrev)+1,r25
 6243 20b6 8093 0000 		sts lcountPrev,r24
 6244 20ba 00C0      		rjmp .L486
 6245               	.L487:
 6246               	.LM857:
 6247 20bc 0E94 0000 		call line_track_new
 6248               	.LM858:
 6249 20c0 0E94 0000 		call left_count
 6250               	.L486:
 6251               	.LM859:
 6252 20c4 8799      		sbic 48-32,7
 6253 20c6 00C0      		rjmp .L487
 6254               	.LM860:
 6255 20c8 CE99      		sbic 57-32,6
 6256 20ca 00C0      		rjmp .L488
 6257 20cc 8699      		sbic 48-32,6
 6258 20ce 00C0      		rjmp .L488
 6259 20d0 CD99      		sbic 57-32,5
 6260 20d2 00C0      		rjmp .L488
 6261 20d4 CF99      		sbic 57-32,7
 6262 20d6 00C0      		rjmp .L488
 6263               	.LBB666:
 6264               	.LM861:
 6265 20d8 C090 0000 		lds r12,x_coordinate
 6266 20dc D090 0000 		lds r13,(x_coordinate)+1
 6267               	.LVL196:
 6268 20e0 A090 0000 		lds r10,y_coordinate
 6269 20e4 B090 0000 		lds r11,(y_coordinate)+1
 6270               	.LVL197:
 6271               	.LM862:
 6272 20e8 86E4      		ldi r24,lo8(70)
 6273 20ea 90E0      		ldi r25,hi8(70)
 6274 20ec 66E4      		ldi r22,lo8(70)
 6275 20ee 70E0      		ldi r23,hi8(70)
 6276 20f0 44E5      		ldi r20,lo8(84)
 6277 20f2 50E0      		ldi r21,hi8(84)
 6278 20f4 26E4      		ldi r18,lo8(70)
 6279 20f6 30E0      		ldi r19,hi8(70)
 6280 20f8 0E94 0000 		call update_array
 6281               	.LM863:
 6282 20fc 81E0      		ldi r24,lo8(1)
 6283 20fe 60E0      		ldi r22,lo8(0)
 6284 2100 0E94 0000 		call lcd_byte
 6285               	.LBB684:
 6286               	.LBB685:
 6287               	.LM864:
 6288 2104 AC9A      		sbi 53-32,4
 6289               	.LM865:
 6290 2106 AD9A      		sbi 53-32,5
 6291               	.LM866:
 6292 2108 AE9A      		sbi 53-32,6
 6293               	.LM867:
 6294 210a AF9A      		sbi 53-32,7
 6295               	.LBE685:
 6296               	.LBE684:
 6297               	.LM868:
 6298 210c 0E94 0000 		call flick
 6299               	.LM869:
 6300 2110 1092 0000 		sts (mx)+1,__zero_reg__
 6301 2114 1092 0000 		sts mx,__zero_reg__
 6302               	.LM870:
 6303 2118 1092 0000 		sts (my)+1,__zero_reg__
 6304 211c 1092 0000 		sts my,__zero_reg__
 6305               	.LM871:
 6306 2120 0E94 0000 		call end_zone_uturn
 6307               	.LM872:
 6308 2124 0E94 0000 		call sense_of_directon
 6309               	.LM873:
 6310 2128 0E94 0000 		call fill_missed_array
 6311               	.LM874:
 6312 212c 0E94 0000 		call coordinates_tobe_reached
 6313               	.LM875:
 6314 2130 81E0      		ldi r24,lo8(1)
 6315 2132 60E0      		ldi r22,lo8(0)
 6316 2134 0E94 0000 		call lcd_byte
 6317               	.LM876:
 6318 2138 80E0      		ldi r24,lo8(0)
 6319 213a 90E0      		ldi r25,hi8(0)
 6320 213c 60E0      		ldi r22,lo8(0)
 6321 213e 70E0      		ldi r23,hi8(0)
 6322 2140 40E0      		ldi r20,lo8(.LC4)
 6323 2142 50E0      		ldi r21,hi8(.LC4)
 6324 2144 0E94 0000 		call lcd_write_string_xy
 6325               	.LM877:
 6326 2148 4091 0000 		lds r20,mx
 6327 214c 5091 0000 		lds r21,(mx)+1
 6328 2150 84E0      		ldi r24,lo8(4)
 6329 2152 90E0      		ldi r25,hi8(4)
 6330 2154 60E0      		ldi r22,lo8(0)
 6331 2156 70E0      		ldi r23,hi8(0)
 6332 2158 22E0      		ldi r18,lo8(2)
 6333 215a 30E0      		ldi r19,hi8(2)
 6334 215c 0E94 0000 		call lcd_write_int_xy
 6335               	.LM878:
 6336 2160 87E0      		ldi r24,lo8(7)
 6337 2162 90E0      		ldi r25,hi8(7)
 6338 2164 60E0      		ldi r22,lo8(0)
 6339 2166 70E0      		ldi r23,hi8(0)
 6340 2168 40E0      		ldi r20,lo8(.LC5)
 6341 216a 50E0      		ldi r21,hi8(.LC5)
 6342 216c 0E94 0000 		call lcd_write_string_xy
 6343               	.LM879:
 6344 2170 4091 0000 		lds r20,my
 6345 2174 5091 0000 		lds r21,(my)+1
 6346 2178 8BE0      		ldi r24,lo8(11)
 6347 217a 90E0      		ldi r25,hi8(11)
 6348 217c 60E0      		ldi r22,lo8(0)
 6349 217e 70E0      		ldi r23,hi8(0)
 6350 2180 22E0      		ldi r18,lo8(2)
 6351 2182 30E0      		ldi r19,hi8(2)
 6352 2184 0E94 0000 		call lcd_write_int_xy
 6353               	.LM880:
 6354 2188 80E0      		ldi r24,lo8(0)
 6355 218a 90E0      		ldi r25,hi8(0)
 6356 218c 61E0      		ldi r22,lo8(1)
 6357 218e 70E0      		ldi r23,hi8(1)
 6358 2190 40E0      		ldi r20,lo8(.LC6)
 6359 2192 50E0      		ldi r21,hi8(.LC6)
 6360 2194 0E94 0000 		call lcd_write_string_xy
 6361               	.LM881:
 6362 2198 4091 0000 		lds r20,x_coordinate
 6363 219c 5091 0000 		lds r21,(x_coordinate)+1
 6364 21a0 84E0      		ldi r24,lo8(4)
 6365 21a2 90E0      		ldi r25,hi8(4)
 6366 21a4 61E0      		ldi r22,lo8(1)
 6367 21a6 70E0      		ldi r23,hi8(1)
 6368 21a8 22E0      		ldi r18,lo8(2)
 6369 21aa 30E0      		ldi r19,hi8(2)
 6370 21ac 0E94 0000 		call lcd_write_int_xy
 6371               	.LM882:
 6372 21b0 87E0      		ldi r24,lo8(7)
 6373 21b2 90E0      		ldi r25,hi8(7)
 6374 21b4 61E0      		ldi r22,lo8(1)
 6375 21b6 70E0      		ldi r23,hi8(1)
 6376 21b8 40E0      		ldi r20,lo8(.LC7)
 6377 21ba 50E0      		ldi r21,hi8(.LC7)
 6378 21bc 0E94 0000 		call lcd_write_string_xy
 6379               	.LM883:
 6380 21c0 4091 0000 		lds r20,y_coordinate
 6381 21c4 5091 0000 		lds r21,(y_coordinate)+1
 6382 21c8 8BE0      		ldi r24,lo8(11)
 6383 21ca 90E0      		ldi r25,hi8(11)
 6384 21cc 61E0      		ldi r22,lo8(1)
 6385 21ce 70E0      		ldi r23,hi8(1)
 6386 21d0 22E0      		ldi r18,lo8(2)
 6387 21d2 30E0      		ldi r19,hi8(2)
 6388 21d4 0E94 0000 		call lcd_write_int_xy
 6389               	.LM884:
 6390 21d8 8091 0000 		lds r24,mx
 6391 21dc 9091 0000 		lds r25,(mx)+1
 6392 21e0 892B      		or r24,r25
 6393 21e2 01F0      		breq .L489
 6394 21e4 8091 0000 		lds r24,my
 6395 21e8 9091 0000 		lds r25,(my)+1
 6396 21ec 892B      		or r24,r25
 6397 21ee 01F0      		breq .L489
 6398               	.LM885:
 6399 21f0 0E94 0000 		call map_all
 6400               	.L489:
 6401               	.LM886:
 6402 21f4 87E0      		ldi r24,lo8(7)
 6403 21f6 90E0      		ldi r25,hi8(7)
 6404 21f8 9093 0000 		sts (x_coordinate)+1,r25
 6405 21fc 8093 0000 		sts x_coordinate,r24
 6406               	.LM887:
 6407 2200 9093 0000 		sts (y_coordinate)+1,r25
 6408 2204 8093 0000 		sts y_coordinate,r24
 6409               	.LM888:
 6410 2208 82E0      		ldi r24,lo8(2)
 6411 220a 90E0      		ldi r25,hi8(2)
 6412 220c 9093 0000 		sts (dir)+1,r25
 6413 2210 8093 0000 		sts dir,r24
 6414               	.LM889:
 6415 2214 80E0      		ldi r24,lo8(.LC8)
 6416 2216 90E0      		ldi r25,hi8(.LC8)
 6417 2218 0E94 0000 		call lcd_write_string
 6418               	.L504:
 6419               	.LBB682:
 6420               	.LBB683:
 6421               	.LM890:
 6422 221c 8299      		sbic 48-32,2
 6423 221e 00C0      		rjmp .L490
 6424               	.L503:
 6425               	.LBE683:
 6426               	.LBE682:
 6427               	.LBB667:
 6428               	.LM891:
 6429 2220 87E0      		ldi r24,lo8(7)
 6430 2222 90E0      		ldi r25,hi8(7)
 6431 2224 67E0      		ldi r22,lo8(7)
 6432 2226 70E0      		ldi r23,hi8(7)
 6433 2228 A601      		movw r20,r12
 6434 222a 9501      		movw r18,r10
 6435 222c 0E94 0000 		call build_map
 6436               	.LM892:
 6437 2230 0E94 0000 		call get_path
 6438 2234 30E0      		ldi r19,lo8(path_array)
 6439 2236 E32E      		mov r14,r19
 6440 2238 30E0      		ldi r19,hi8(path_array)
 6441 223a F32E      		mov r15,r19
 6442 223c 8701      		movw r16,r14
 6443 223e C0E0      		ldi r28,lo8(0)
 6444 2240 D0E0      		ldi r29,hi8(0)
 6445               	.L491:
 6446               	.LBB675:
 6447               	.LM893:
 6448 2242 F801      		movw r30,r16
 6449 2244 6081      		ld r22,Z
 6450 2246 7181      		ldd r23,Z+1
 6451 2248 CE01      		movw r24,r28
 6452 224a 0E94 0000 		call __eewr_word_m32
 6453               	.LM894:
 6454 224e F801      		movw r30,r16
 6455 2250 6281      		ldd r22,Z+2
 6456 2252 7381      		ldd r23,Z+3
 6457 2254 CE01      		movw r24,r28
 6458 2256 0296      		adiw r24,2
 6459 2258 0E94 0000 		call __eewr_word_m32
 6460 225c 0C5F      		subi r16,lo8(-(4))
 6461 225e 1F4F      		sbci r17,hi8(-(4))
 6462 2260 2496      		adiw r28,4
 6463               	.LM895:
 6464 2262 CC33      		cpi r28,60
 6465 2264 D105      		cpc r29,__zero_reg__
 6466 2266 01F4      		brne .L491
 6467               	.LBE675:
 6468               	.LM896:
 6469 2268 81E0      		ldi r24,lo8(1)
 6470 226a 60E0      		ldi r22,lo8(0)
 6471 226c 0E94 0000 		call lcd_byte
 6472               	.LM897:
 6473 2270 80E0      		ldi r24,lo8(.LC9)
 6474 2272 90E0      		ldi r25,hi8(.LC9)
 6475 2274 0E94 0000 		call lcd_write_string
 6476               	.LM898:
 6477 2278 81E0      		ldi r24,lo8(1)
 6478 227a 90E0      		ldi r25,hi8(1)
 6479 227c 0E94 0000 		call delay_sec
 6480               	.LM899:
 6481 2280 81E0      		ldi r24,lo8(1)
 6482 2282 60E0      		ldi r22,lo8(0)
 6483 2284 0E94 0000 		call lcd_byte
 6484               	.LM900:
 6485 2288 80E0      		ldi r24,lo8(0)
 6486 228a 90E0      		ldi r25,hi8(0)
 6487 228c 60E0      		ldi r22,lo8(0)
 6488 228e 70E0      		ldi r23,hi8(0)
 6489 2290 A601      		movw r20,r12
 6490 2292 22E0      		ldi r18,lo8(2)
 6491 2294 30E0      		ldi r19,hi8(2)
 6492 2296 0E94 0000 		call lcd_write_int_xy
 6493               	.LM901:
 6494 229a 85E0      		ldi r24,lo8(5)
 6495 229c 90E0      		ldi r25,hi8(5)
 6496 229e 60E0      		ldi r22,lo8(0)
 6497 22a0 70E0      		ldi r23,hi8(0)
 6498 22a2 A501      		movw r20,r10
 6499 22a4 22E0      		ldi r18,lo8(2)
 6500 22a6 30E0      		ldi r19,hi8(2)
 6501 22a8 0E94 0000 		call lcd_write_int_xy
 6502               	.LM902:
 6503 22ac 82E0      		ldi r24,lo8(2)
 6504 22ae 90E0      		ldi r25,hi8(2)
 6505 22b0 0E94 0000 		call delay_sec
 6506               	.LM903:
 6507 22b4 81E0      		ldi r24,lo8(1)
 6508 22b6 60E0      		ldi r22,lo8(0)
 6509 22b8 0E94 0000 		call lcd_byte
 6510               	.LM904:
 6511 22bc 4091 0000 		lds r20,path_array
 6512 22c0 5091 0000 		lds r21,(path_array)+1
 6513 22c4 80E0      		ldi r24,lo8(0)
 6514 22c6 90E0      		ldi r25,hi8(0)
 6515 22c8 60E0      		ldi r22,lo8(0)
 6516 22ca 70E0      		ldi r23,hi8(0)
 6517 22cc 21E0      		ldi r18,lo8(1)
 6518 22ce 30E0      		ldi r19,hi8(1)
 6519 22d0 0E94 0000 		call lcd_write_int_xy
 6520               	.LM905:
 6521 22d4 4091 0000 		lds r20,path_array+2
 6522 22d8 5091 0000 		lds r21,(path_array+2)+1
 6523 22dc 81E0      		ldi r24,lo8(1)
 6524 22de 90E0      		ldi r25,hi8(1)
 6525 22e0 60E0      		ldi r22,lo8(0)
 6526 22e2 70E0      		ldi r23,hi8(0)
 6527 22e4 21E0      		ldi r18,lo8(1)
 6528 22e6 30E0      		ldi r19,hi8(1)
 6529 22e8 0E94 0000 		call lcd_write_int_xy
 6530               	.LM906:
 6531 22ec 4091 0000 		lds r20,path_array+4
 6532 22f0 5091 0000 		lds r21,(path_array+4)+1
 6533 22f4 83E0      		ldi r24,lo8(3)
 6534 22f6 90E0      		ldi r25,hi8(3)
 6535 22f8 60E0      		ldi r22,lo8(0)
 6536 22fa 70E0      		ldi r23,hi8(0)
 6537 22fc 21E0      		ldi r18,lo8(1)
 6538 22fe 30E0      		ldi r19,hi8(1)
 6539 2300 0E94 0000 		call lcd_write_int_xy
 6540               	.LM907:
 6541 2304 4091 0000 		lds r20,path_array+6
 6542 2308 5091 0000 		lds r21,(path_array+6)+1
 6543 230c 84E0      		ldi r24,lo8(4)
 6544 230e 90E0      		ldi r25,hi8(4)
 6545 2310 60E0      		ldi r22,lo8(0)
 6546 2312 70E0      		ldi r23,hi8(0)
 6547 2314 21E0      		ldi r18,lo8(1)
 6548 2316 30E0      		ldi r19,hi8(1)
 6549 2318 0E94 0000 		call lcd_write_int_xy
 6550               	.LM908:
 6551 231c 4091 0000 		lds r20,path_array+8
 6552 2320 5091 0000 		lds r21,(path_array+8)+1
 6553 2324 86E0      		ldi r24,lo8(6)
 6554 2326 90E0      		ldi r25,hi8(6)
 6555 2328 60E0      		ldi r22,lo8(0)
 6556 232a 70E0      		ldi r23,hi8(0)
 6557 232c 21E0      		ldi r18,lo8(1)
 6558 232e 30E0      		ldi r19,hi8(1)
 6559 2330 0E94 0000 		call lcd_write_int_xy
 6560               	.LM909:
 6561 2334 4091 0000 		lds r20,path_array+10
 6562 2338 5091 0000 		lds r21,(path_array+10)+1
 6563 233c 87E0      		ldi r24,lo8(7)
 6564 233e 90E0      		ldi r25,hi8(7)
 6565 2340 60E0      		ldi r22,lo8(0)
 6566 2342 70E0      		ldi r23,hi8(0)
 6567 2344 21E0      		ldi r18,lo8(1)
 6568 2346 30E0      		ldi r19,hi8(1)
 6569 2348 0E94 0000 		call lcd_write_int_xy
 6570               	.LM910:
 6571 234c 4091 0000 		lds r20,path_array+12
 6572 2350 5091 0000 		lds r21,(path_array+12)+1
 6573 2354 89E0      		ldi r24,lo8(9)
 6574 2356 90E0      		ldi r25,hi8(9)
 6575 2358 60E0      		ldi r22,lo8(0)
 6576 235a 70E0      		ldi r23,hi8(0)
 6577 235c 21E0      		ldi r18,lo8(1)
 6578 235e 30E0      		ldi r19,hi8(1)
 6579 2360 0E94 0000 		call lcd_write_int_xy
 6580               	.LM911:
 6581 2364 4091 0000 		lds r20,path_array+14
 6582 2368 5091 0000 		lds r21,(path_array+14)+1
 6583 236c 8AE0      		ldi r24,lo8(10)
 6584 236e 90E0      		ldi r25,hi8(10)
 6585 2370 60E0      		ldi r22,lo8(0)
 6586 2372 70E0      		ldi r23,hi8(0)
 6587 2374 21E0      		ldi r18,lo8(1)
 6588 2376 30E0      		ldi r19,hi8(1)
 6589 2378 0E94 0000 		call lcd_write_int_xy
 6590               	.LM912:
 6591 237c 4091 0000 		lds r20,path_array+16
 6592 2380 5091 0000 		lds r21,(path_array+16)+1
 6593 2384 8CE0      		ldi r24,lo8(12)
 6594 2386 90E0      		ldi r25,hi8(12)
 6595 2388 60E0      		ldi r22,lo8(0)
 6596 238a 70E0      		ldi r23,hi8(0)
 6597 238c 21E0      		ldi r18,lo8(1)
 6598 238e 30E0      		ldi r19,hi8(1)
 6599 2390 0E94 0000 		call lcd_write_int_xy
 6600               	.LM913:
 6601 2394 4091 0000 		lds r20,path_array+18
 6602 2398 5091 0000 		lds r21,(path_array+18)+1
 6603 239c 8DE0      		ldi r24,lo8(13)
 6604 239e 90E0      		ldi r25,hi8(13)
 6605 23a0 60E0      		ldi r22,lo8(0)
 6606 23a2 70E0      		ldi r23,hi8(0)
 6607 23a4 21E0      		ldi r18,lo8(1)
 6608 23a6 30E0      		ldi r19,hi8(1)
 6609 23a8 0E94 0000 		call lcd_write_int_xy
 6610               	.LM914:
 6611 23ac 4091 0000 		lds r20,path_array+20
 6612 23b0 5091 0000 		lds r21,(path_array+20)+1
 6613 23b4 80E0      		ldi r24,lo8(0)
 6614 23b6 90E0      		ldi r25,hi8(0)
 6615 23b8 61E0      		ldi r22,lo8(1)
 6616 23ba 70E0      		ldi r23,hi8(1)
 6617 23bc 21E0      		ldi r18,lo8(1)
 6618 23be 30E0      		ldi r19,hi8(1)
 6619 23c0 0E94 0000 		call lcd_write_int_xy
 6620               	.LM915:
 6621 23c4 4091 0000 		lds r20,path_array+22
 6622 23c8 5091 0000 		lds r21,(path_array+22)+1
 6623 23cc 81E0      		ldi r24,lo8(1)
 6624 23ce 90E0      		ldi r25,hi8(1)
 6625 23d0 61E0      		ldi r22,lo8(1)
 6626 23d2 70E0      		ldi r23,hi8(1)
 6627 23d4 21E0      		ldi r18,lo8(1)
 6628 23d6 30E0      		ldi r19,hi8(1)
 6629 23d8 0E94 0000 		call lcd_write_int_xy
 6630               	.LBB673:
 6631               	.LBB674:
 6632               	.LM916:
 6633 23dc AC9A      		sbi 53-32,4
 6634               	.LM917:
 6635 23de AD9A      		sbi 53-32,5
 6636               	.LM918:
 6637 23e0 AE9A      		sbi 53-32,6
 6638               	.LM919:
 6639 23e2 AF9A      		sbi 53-32,7
 6640               	.L506:
 6641               	.LBE674:
 6642               	.LBE673:
 6643               	.LBB671:
 6644               	.LBB672:
 6645               	.LM920:
 6646 23e4 8299      		sbic 48-32,2
 6647 23e6 00C0      		rjmp .L492
 6648               	.L505:
 6649               	.LBE672:
 6650               	.LBE671:
 6651               	.LM921:
 6652 23e8 81E0      		ldi r24,lo8(1)
 6653 23ea 60E0      		ldi r22,lo8(0)
 6654 23ec 0E94 0000 		call lcd_byte
 6655               	.LM922:
 6656 23f0 81E0      		ldi r24,lo8(1)
 6657 23f2 90E0      		ldi r25,hi8(1)
 6658 23f4 0E94 0000 		call delay_sec
 6659               	.L495:
 6660               	.LBB670:
 6661               	.LM923:
 6662 23f8 F701      		movw r30,r14
 6663 23fa 2081      		ld r18,Z
 6664 23fc 3181      		ldd r19,Z+1
 6665 23fe 2115      		cp r18,__zero_reg__
 6666 2400 3105      		cpc r19,__zero_reg__
 6667 2402 01F4      		brne .L493
 6668 2404 8281      		ldd r24,Z+2
 6669 2406 9381      		ldd r25,Z+3
 6670 2408 892B      		or r24,r25
 6671 240a 01F0      		breq .L510
 6672               	.L493:
 6673               	.LM924:
 6674 240c F701      		movw r30,r14
 6675 240e 6281      		ldd r22,Z+2
 6676 2410 7381      		ldd r23,Z+3
 6677 2412 C901      		movw r24,r18
 6678 2414 0E94 0000 		call go_to_coordinate
 6679 2418 84E0      		ldi r24,lo8(4)
 6680 241a 90E0      		ldi r25,hi8(4)
 6681 241c E80E      		add r14,r24
 6682 241e F91E      		adc r15,r25
 6683               	.LM925:
 6684 2420 90E0      		ldi r25,lo8(path_array+60)
 6685 2422 E916      		cp r14,r25
 6686 2424 90E0      		ldi r25,hi8(path_array+60)
 6687 2426 F906      		cpc r15,r25
 6688 2428 01F4      		brne .L495
 6689               	.L510:
 6690               	.LBE670:
 6691               	.LBB668:
 6692               	.LBB669:
 6693               	.LM926:
 6694 242a AC98      		cbi 53-32,4
 6695               	.LM927:
 6696 242c AD98      		cbi 53-32,5
 6697               	.LM928:
 6698 242e AE98      		cbi 53-32,6
 6699               	.LM929:
 6700 2430 AF98      		cbi 53-32,7
 6701 2432 00C0      		rjmp .L510
 6702               	.LVL198:
 6703               	.L488:
 6704               	.LBE669:
 6705               	.LBE668:
 6706               	.LBE667:
 6707               	.LBE666:
 6708               	.LM930:
 6709 2434 CE9B      		sbis 57-32,6
 6710 2436 00C0      		rjmp .L496
 6711 2438 8699      		sbic 48-32,6
 6712 243a 00C0      		rjmp .L497
 6713               	.L496:
 6714               	.LM931:
 6715 243c 81E0      		ldi r24,lo8(1)
 6716 243e 90E0      		ldi r25,hi8(1)
 6717 2440 9093 0000 		sts (straight)+1,r25
 6718 2444 8093 0000 		sts straight,r24
 6719 2448 00C0      		rjmp .L498
 6720               	.L497:
 6721               	.LM932:
 6722 244a 1092 0000 		sts (straight)+1,__zero_reg__
 6723 244e 1092 0000 		sts straight,__zero_reg__
 6724               	.L498:
 6725               	.LM933:
 6726 2452 0E94 0000 		call turn_right
 6727               	.LM934:
 6728 2456 1092 0000 		sts (l)+1,__zero_reg__
 6729 245a 1092 0000 		sts l,__zero_reg__
 6730               	.LBB693:
 6731               	.LBB694:
 6732               	.LM935:
 6733 245e AC9A      		sbi 53-32,4
 6734               	.LM936:
 6735 2460 AD9A      		sbi 53-32,5
 6736               	.LM937:
 6737 2462 AE9A      		sbi 53-32,6
 6738               	.LM938:
 6739 2464 AF9A      		sbi 53-32,7
 6740               	.LBE694:
 6741               	.LBE693:
 6742               	.LM939:
 6743 2466 1092 0000 		sts (flag1)+1,__zero_reg__
 6744 246a 1092 0000 		sts flag1,__zero_reg__
 6745               	.LM940:
 6746 246e 1092 0000 		sts (irc)+1,__zero_reg__
 6747 2472 1092 0000 		sts irc,__zero_reg__
 6748               	.LM941:
 6749 2476 2091 0000 		lds r18,lcount
 6750 247a 3091 0000 		lds r19,(lcount)+1
 6751 247e 8091 0000 		lds r24,lcountPrev
 6752 2482 9091 0000 		lds r25,(lcountPrev)+1
 6753 2486 281B      		sub r18,r24
 6754 2488 390B      		sbc r19,r25
 6755 248a 3093 0000 		sts (temp)+1,r19
 6756 248e 2093 0000 		sts temp,r18
 6757               	.LM942:
 6758 2492 8091 0000 		lds r24,straight
 6759 2496 9091 0000 		lds r25,(straight)+1
 6760 249a 8130      		cpi r24,1
 6761 249c 9105      		cpc r25,__zero_reg__
 6762 249e 01F4      		brne .L499
 6763 24a0 2130      		cpi r18,1
 6764 24a2 3105      		cpc r19,__zero_reg__
 6765 24a4 01F0      		breq .+2
 6766 24a6 00C0      		rjmp .L500
 6767               	.LM943:
 6768 24a8 84E5      		ldi r24,lo8(84)
 6769 24aa 90E0      		ldi r25,hi8(84)
 6770 24ac 64E5      		ldi r22,lo8(84)
 6771 24ae 70E0      		ldi r23,hi8(84)
 6772 24b0 44E5      		ldi r20,lo8(84)
 6773 24b2 50E0      		ldi r21,hi8(84)
 6774 24b4 26E4      		ldi r18,lo8(70)
 6775 24b6 30E0      		ldi r19,hi8(70)
 6776 24b8 0E94 0000 		call update_array
 6777               	.LM944:
 6778 24bc 80E0      		ldi r24,lo8(0)
 6779 24be 90E0      		ldi r25,hi8(0)
 6780 24c0 61E0      		ldi r22,lo8(1)
 6781 24c2 70E0      		ldi r23,hi8(1)
 6782 24c4 40E0      		ldi r20,lo8(.LC10)
 6783 24c6 50E0      		ldi r21,hi8(.LC10)
 6784 24c8 00C0      		rjmp .L513
 6785               	.L499:
 6786               	.LM945:
 6787 24ca 892B      		or r24,r25
 6788 24cc 01F0      		breq .+2
 6789 24ce 00C0      		rjmp .L501
 6790 24d0 2130      		cpi r18,1
 6791 24d2 3105      		cpc r19,__zero_reg__
 6792 24d4 01F4      		brne .L502
 6793               	.LM946:
 6794 24d6 86E4      		ldi r24,lo8(70)
 6795 24d8 90E0      		ldi r25,hi8(70)
 6796 24da 64E5      		ldi r22,lo8(84)
 6797 24dc 70E0      		ldi r23,hi8(84)
 6798 24de 44E5      		ldi r20,lo8(84)
 6799 24e0 50E0      		ldi r21,hi8(84)
 6800 24e2 24E5      		ldi r18,lo8(84)
 6801 24e4 30E0      		ldi r19,hi8(84)
 6802 24e6 0E94 0000 		call update_array
 6803               	.LM947:
 6804 24ea 80E0      		ldi r24,lo8(0)
 6805 24ec 90E0      		ldi r25,hi8(0)
 6806 24ee 61E0      		ldi r22,lo8(1)
 6807 24f0 70E0      		ldi r23,hi8(1)
 6808 24f2 40E0      		ldi r20,lo8(.LC11)
 6809 24f4 50E0      		ldi r21,hi8(.LC11)
 6810 24f6 00C0      		rjmp .L514
 6811               	.L502:
 6812               	.LM948:
 6813 24f8 232B      		or r18,r19
 6814 24fa 01F0      		breq .+2
 6815 24fc 00C0      		rjmp .L501
 6816               	.LM949:
 6817 24fe 86E4      		ldi r24,lo8(70)
 6818 2500 90E0      		ldi r25,hi8(70)
 6819 2502 64E5      		ldi r22,lo8(84)
 6820 2504 70E0      		ldi r23,hi8(84)
 6821 2506 44E5      		ldi r20,lo8(84)
 6822 2508 50E0      		ldi r21,hi8(84)
 6823 250a 26E4      		ldi r18,lo8(70)
 6824 250c 30E0      		ldi r19,hi8(70)
 6825 250e 0E94 0000 		call update_array
 6826               	.LM950:
 6827 2512 80E0      		ldi r24,lo8(0)
 6828 2514 90E0      		ldi r25,hi8(0)
 6829 2516 61E0      		ldi r22,lo8(1)
 6830 2518 70E0      		ldi r23,hi8(1)
 6831 251a 40E0      		ldi r20,lo8(.LC11)
 6832 251c 50E0      		ldi r21,hi8(.LC11)
 6833               	.L513:
 6834 251e 0E94 0000 		call lcd_write_string_xy
 6835               	.LM951:
 6836 2522 82E0      		ldi r24,lo8(2)
 6837 2524 90E0      		ldi r25,hi8(2)
 6838 2526 61E0      		ldi r22,lo8(1)
 6839 2528 70E0      		ldi r23,hi8(1)
 6840 252a 40E0      		ldi r20,lo8(.LC10)
 6841 252c 50E0      		ldi r21,hi8(.LC10)
 6842 252e 0E94 0000 		call lcd_write_string_xy
 6843               	.LM952:
 6844 2532 84E0      		ldi r24,lo8(4)
 6845 2534 90E0      		ldi r25,hi8(4)
 6846 2536 61E0      		ldi r22,lo8(1)
 6847 2538 70E0      		ldi r23,hi8(1)
 6848 253a 40E0      		ldi r20,lo8(.LC10)
 6849 253c 50E0      		ldi r21,hi8(.LC10)
 6850 253e 0E94 0000 		call lcd_write_string_xy
 6851               	.LM953:
 6852 2542 86E0      		ldi r24,lo8(6)
 6853 2544 90E0      		ldi r25,hi8(6)
 6854 2546 61E0      		ldi r22,lo8(1)
 6855 2548 70E0      		ldi r23,hi8(1)
 6856 254a 40E0      		ldi r20,lo8(.LC11)
 6857 254c 50E0      		ldi r21,hi8(.LC11)
 6858 254e 00C0      		rjmp .L512
 6859               	.L500:
 6860               	.LM954:
 6861 2550 2230      		cpi r18,2
 6862 2552 3105      		cpc r19,__zero_reg__
 6863 2554 01F4      		brne .L501
 6864               	.LM955:
 6865 2556 84E5      		ldi r24,lo8(84)
 6866 2558 90E0      		ldi r25,hi8(84)
 6867 255a 64E5      		ldi r22,lo8(84)
 6868 255c 70E0      		ldi r23,hi8(84)
 6869 255e 44E5      		ldi r20,lo8(84)
 6870 2560 50E0      		ldi r21,hi8(84)
 6871 2562 24E5      		ldi r18,lo8(84)
 6872 2564 30E0      		ldi r19,hi8(84)
 6873 2566 0E94 0000 		call update_array
 6874               	.LM956:
 6875 256a 80E0      		ldi r24,lo8(0)
 6876 256c 90E0      		ldi r25,hi8(0)
 6877 256e 61E0      		ldi r22,lo8(1)
 6878 2570 70E0      		ldi r23,hi8(1)
 6879 2572 40E0      		ldi r20,lo8(.LC10)
 6880 2574 50E0      		ldi r21,hi8(.LC10)
 6881               	.L514:
 6882 2576 0E94 0000 		call lcd_write_string_xy
 6883               	.LM957:
 6884 257a 82E0      		ldi r24,lo8(2)
 6885 257c 90E0      		ldi r25,hi8(2)
 6886 257e 61E0      		ldi r22,lo8(1)
 6887 2580 70E0      		ldi r23,hi8(1)
 6888 2582 40E0      		ldi r20,lo8(.LC10)
 6889 2584 50E0      		ldi r21,hi8(.LC10)
 6890 2586 0E94 0000 		call lcd_write_string_xy
 6891               	.LM958:
 6892 258a 84E0      		ldi r24,lo8(4)
 6893 258c 90E0      		ldi r25,hi8(4)
 6894 258e 61E0      		ldi r22,lo8(1)
 6895 2590 70E0      		ldi r23,hi8(1)
 6896 2592 40E0      		ldi r20,lo8(.LC10)
 6897 2594 50E0      		ldi r21,hi8(.LC10)
 6898 2596 0E94 0000 		call lcd_write_string_xy
 6899               	.LM959:
 6900 259a 86E0      		ldi r24,lo8(6)
 6901 259c 90E0      		ldi r25,hi8(6)
 6902 259e 61E0      		ldi r22,lo8(1)
 6903 25a0 70E0      		ldi r23,hi8(1)
 6904 25a2 40E0      		ldi r20,lo8(.LC10)
 6905 25a4 50E0      		ldi r21,hi8(.LC10)
 6906               	.L512:
 6907 25a6 0E94 0000 		call lcd_write_string_xy
 6908               	.L501:
 6909               	.LM960:
 6910 25aa 1092 0000 		sts (temp)+1,__zero_reg__
 6911 25ae 1092 0000 		sts temp,__zero_reg__
 6912               	.LM961:
 6913 25b2 0E94 0000 		call sense_of_directon
 6914 25b6 00C0      		rjmp .L507
 6915               	.LVL199:
 6916               	.L490:
 6917               	.LBB695:
 6918               	.LBB686:
 6919               	.LBB687:
 6920               	.LM962:
 6921 25b8 809B      		sbis 48-32,0
 6922 25ba 00C0      		rjmp .L503
 6923               	.LBE687:
 6924               	.LBE686:
 6925               	.LBB688:
 6926               	.LBB689:
 6927               	.LM963:
 6928 25bc 819B      		sbis 48-32,1
 6929 25be 00C0      		rjmp .L503
 6930               	.LBE689:
 6931               	.LBE688:
 6932               	.LBB690:
 6933               	.LBB691:
 6934               	.LM964:
 6935 25c0 839B      		sbis 48-32,3
 6936 25c2 00C0      		rjmp .L503
 6937 25c4 00C0      		rjmp .L504
 6938               	.L492:
 6939               	.LBE691:
 6940               	.LBE690:
 6941               	.LBB692:
 6942               	.LBB676:
 6943               	.LBB677:
 6944               	.LM965:
 6945 25c6 809B      		sbis 48-32,0
 6946 25c8 00C0      		rjmp .L505
 6947               	.LBE677:
 6948               	.LBE676:
 6949               	.LBB678:
 6950               	.LBB679:
 6951               	.LM966:
 6952 25ca 819B      		sbis 48-32,1
 6953 25cc 00C0      		rjmp .L505
 6954               	.LBE679:
 6955               	.LBE678:
 6956               	.LBB680:
 6957               	.LBB681:
 6958               	.LM967:
 6959 25ce 839B      		sbis 48-32,3
 6960 25d0 00C0      		rjmp .L505
 6961 25d2 00C0      		rjmp .L506
 6962               	.LVL200:
 6963               	.L507:
 6964               	/* epilogue start */
 6965               	.LBE681:
 6966               	.LBE680:
 6967               	.LBE692:
 6968               	.LBE695:
 6969               	.LM968:
 6970 25d4 DF91      		pop r29
 6971 25d6 CF91      		pop r28
 6972 25d8 1F91      		pop r17
 6973 25da 0F91      		pop r16
 6974 25dc FF90      		pop r15
 6975 25de EF90      		pop r14
 6976 25e0 DF90      		pop r13
 6977 25e2 CF90      		pop r12
 6978 25e4 BF90      		pop r11
 6979 25e6 AF90      		pop r10
 6980 25e8 0895      		ret
 6981               	.LFE61:
 6983               		.data
 6984               	.LC12:
 6985 0061 4C43 4420 		.string	"LCD Working"
 6985      576F 726B 
 6985      696E 6700 
 6986               	.LC13:
 6987 006d 5072 6573 		.string	"PressD3 dry run"
 6987      7344 3320 
 6987      6472 7920 
 6987      7275 6E00 
 6988               	.LC14:
 6989 007d 5072 6573 		.string	"Press0 Stst run"
 6989      7330 2053 
 6989      7473 7420 
 6989      7275 6E00 
 6990               		.text
 6991               	.global	main
 6993               	main:
 6994               	.LFB76:
 6995               	.LM969:
 6996 25ea EF92      		push r14
 6997 25ec FF92      		push r15
 6998 25ee 0F93      		push r16
 6999 25f0 1F93      		push r17
 7000 25f2 CF93      		push r28
 7001 25f4 DF93      		push r29
 7002               	/* prologue: function */
 7003               	/* frame size = 0 */
 7004               	.LM970:
 7005 25f6 0E94 0000 		call init_devices
 7006               	.LM971:
 7007 25fa 81E0      		ldi r24,lo8(1)
 7008 25fc 60E0      		ldi r22,lo8(0)
 7009 25fe 0E94 0000 		call lcd_byte
 7010               	.LM972:
 7011 2602 80E0      		ldi r24,lo8(.LC12)
 7012 2604 90E0      		ldi r25,hi8(.LC12)
 7013 2606 0E94 0000 		call lcd_write_string
 7014 260a 20E0      		ldi r18,lo8(0)
 7015 260c 30E0      		ldi r19,hi8(0)
 7016               	.LVL201:
 7017               	.LM973:
 7018 260e 46E4      		ldi r20,lo8(70)
 7019 2610 00C0      		rjmp .L516
 7020               	.LVL202:
 7021               	.L517:
 7022 2612 4083      		st Z,r20
 7023 2614 4183      		std Z+1,r20
 7024 2616 4283      		std Z+2,r20
 7025 2618 4383      		std Z+3,r20
 7026               	.LM974:
 7027 261a 0196      		adiw r24,1
 7028 261c 3496      		adiw r30,4
 7029 261e 8031      		cpi r24,16
 7030 2620 9105      		cpc r25,__zero_reg__
 7031 2622 01F4      		brne .L517
 7032               	.LM975:
 7033 2624 2F5F      		subi r18,lo8(-(1))
 7034 2626 3F4F      		sbci r19,hi8(-(1))
 7035 2628 2031      		cpi r18,16
 7036 262a 3105      		cpc r19,__zero_reg__
 7037 262c 01F0      		breq .L518
 7038               	.L516:
 7039 262e F901      		movw r30,r18
 7040 2630 56E0      		ldi r21,6
 7041 2632 EE0F      	1:	lsl r30
 7042 2634 FF1F      		rol r31
 7043 2636 5A95      		dec r21
 7044 2638 01F4      		brne 1b
 7045 263a E050      		subi r30,lo8(-(dir_array))
 7046 263c F040      		sbci r31,hi8(-(dir_array))
 7047 263e 80E0      		ldi r24,lo8(0)
 7048 2640 90E0      		ldi r25,hi8(0)
 7049 2642 00C0      		rjmp .L517
 7050               	.L518:
 7051               	.LM976:
 7052 2644 81E0      		ldi r24,lo8(1)
 7053               	.LVL203:
 7054 2646 60E0      		ldi r22,lo8(0)
 7055 2648 0E94 0000 		call lcd_byte
 7056               	.LVL204:
 7057               	.LM977:
 7058 264c 80E0      		ldi r24,lo8(.LC13)
 7059 264e 90E0      		ldi r25,hi8(.LC13)
 7060 2650 0E94 0000 		call lcd_write_string
 7061               	.LM978:
 7062 2654 80E0      		ldi r24,lo8(0)
 7063 2656 90E0      		ldi r25,hi8(0)
 7064 2658 61E0      		ldi r22,lo8(1)
 7065 265a 70E0      		ldi r23,hi8(1)
 7066 265c 40E0      		ldi r20,lo8(.LC14)
 7067 265e 50E0      		ldi r21,hi8(.LC14)
 7068 2660 0E94 0000 		call lcd_write_string_xy
 7069               	.LM979:
 7070 2664 84E5      		ldi r24,lo8(84)
 7071 2666 66E4      		ldi r22,lo8(70)
 7072 2668 46E4      		ldi r20,lo8(70)
 7073 266a 26E4      		ldi r18,lo8(70)
 7074 266c 0E94 0000 		call update_array
 7075               	.L546:
 7076               	.LBB696:
 7077               	.LBB697:
 7078               	.LM980:
 7079 2670 8399      		sbic 48-32,3
 7080 2672 00C0      		rjmp .L519
 7081               	.L547:
 7082               	.LBE697:
 7083               	.LBE696:
 7084               	.LM981:
 7085 2674 1092 0000 		sts (repeat)+1,__zero_reg__
 7086 2678 1092 0000 		sts repeat,__zero_reg__
 7087 267c 00C0      		rjmp .L520
 7088               	.L522:
 7089               	.LM982:
 7090 267e 0E94 0000 		call line_track_new
 7091               	.LM983:
 7092 2682 85B3      		in r24,53-32
 7093 2684 807F      		andi r24,lo8(-16)
 7094 2686 85BB      		out 53-32,r24
 7095               	.LM984:
 7096 2688 85B3      		in r24,53-32
 7097 268a 9091 0000 		lds r25,sensorbyte
 7098 268e 892B      		or r24,r25
 7099 2690 85BB      		out 53-32,r24
 7100               	.LM985:
 7101 2692 CF99      		sbic 57-32,7
 7102 2694 00C0      		rjmp .L521
 7103               	.LM986:
 7104 2696 0E94 0000 		call right_junc_check
 7105               	.L521:
 7106               	.LM987:
 7107 269a 0E94 0000 		call left_junc_check
 7108               	.LM988:
 7109 269e 0E94 0000 		call frSensorCheck
 7110               	.LM989:
 7111 26a2 8091 0000 		lds r24,irc
 7112 26a6 9091 0000 		lds r25,(irc)+1
 7113 26aa 0196      		adiw r24,1
 7114 26ac 9093 0000 		sts (irc)+1,r25
 7115 26b0 8093 0000 		sts irc,r24
 7116               	.L520:
 7117               	.LM990:
 7118 26b4 8091 0000 		lds r24,repeat
 7119 26b8 9091 0000 		lds r25,(repeat)+1
 7120 26bc 0397      		sbiw r24,3
 7121 26be 04F0      		brlt .L522
 7122               	.LBB698:
 7123               	.LBB699:
 7124               	.LM991:
 7125 26c0 AC9A      		sbi 53-32,4
 7126               	.LM992:
 7127 26c2 AD9A      		sbi 53-32,5
 7128               	.LM993:
 7129 26c4 AE9A      		sbi 53-32,6
 7130               	.LM994:
 7131 26c6 AF9A      		sbi 53-32,7
 7132               	.LBE699:
 7133               	.LBE698:
 7134               	.LM995:
 7135 26c8 0E94 0000 		call fill_missed_array
 7136               	.LM996:
 7137 26cc 1092 0000 		sts (mx)+1,__zero_reg__
 7138 26d0 1092 0000 		sts mx,__zero_reg__
 7139               	.LM997:
 7140 26d4 1092 0000 		sts (my)+1,__zero_reg__
 7141 26d8 1092 0000 		sts my,__zero_reg__
 7142               	.LM998:
 7143 26dc 0E94 0000 		call coordinates_tobe_reached
 7144               	.LM999:
 7145 26e0 6091 0000 		lds r22,y_coordinate
 7146 26e4 7091 0000 		lds r23,(y_coordinate)+1
 7147 26e8 4091 0000 		lds r20,mx
 7148 26ec 5091 0000 		lds r21,(mx)+1
 7149 26f0 2091 0000 		lds r18,my
 7150 26f4 3091 0000 		lds r19,(my)+1
 7151 26f8 8091 0000 		lds r24,x_coordinate
 7152 26fc 9091 0000 		lds r25,(x_coordinate)+1
 7153 2700 0E94 0000 		call build_map
 7154               	.LM1000:
 7155 2704 0E94 0000 		call get_path
 7156               	.LM1001:
 7157 2708 81E0      		ldi r24,lo8(1)
 7158 270a 60E0      		ldi r22,lo8(0)
 7159 270c 0E94 0000 		call lcd_byte
 7160               	.LM1002:
 7161 2710 4091 0000 		lds r20,path_array
 7162 2714 5091 0000 		lds r21,(path_array)+1
 7163 2718 80E0      		ldi r24,lo8(0)
 7164 271a 90E0      		ldi r25,hi8(0)
 7165 271c 60E0      		ldi r22,lo8(0)
 7166 271e 70E0      		ldi r23,hi8(0)
 7167 2720 22E0      		ldi r18,lo8(2)
 7168 2722 30E0      		ldi r19,hi8(2)
 7169 2724 0E94 0000 		call lcd_write_int_xy
 7170               	.LM1003:
 7171 2728 4091 0000 		lds r20,path_array+2
 7172 272c 5091 0000 		lds r21,(path_array+2)+1
 7173 2730 83E0      		ldi r24,lo8(3)
 7174 2732 90E0      		ldi r25,hi8(3)
 7175 2734 60E0      		ldi r22,lo8(0)
 7176 2736 70E0      		ldi r23,hi8(0)
 7177 2738 22E0      		ldi r18,lo8(2)
 7178 273a 30E0      		ldi r19,hi8(2)
 7179 273c 0E94 0000 		call lcd_write_int_xy
 7180               	.LM1004:
 7181 2740 4091 0000 		lds r20,path_array+4
 7182 2744 5091 0000 		lds r21,(path_array+4)+1
 7183 2748 86E0      		ldi r24,lo8(6)
 7184 274a 90E0      		ldi r25,hi8(6)
 7185 274c 60E0      		ldi r22,lo8(0)
 7186 274e 70E0      		ldi r23,hi8(0)
 7187 2750 22E0      		ldi r18,lo8(2)
 7188 2752 30E0      		ldi r19,hi8(2)
 7189 2754 0E94 0000 		call lcd_write_int_xy
 7190               	.LM1005:
 7191 2758 4091 0000 		lds r20,path_array+6
 7192 275c 5091 0000 		lds r21,(path_array+6)+1
 7193 2760 89E0      		ldi r24,lo8(9)
 7194 2762 90E0      		ldi r25,hi8(9)
 7195 2764 60E0      		ldi r22,lo8(0)
 7196 2766 70E0      		ldi r23,hi8(0)
 7197 2768 22E0      		ldi r18,lo8(2)
 7198 276a 30E0      		ldi r19,hi8(2)
 7199 276c 0E94 0000 		call lcd_write_int_xy
 7200               	.LM1006:
 7201 2770 84E0      		ldi r24,lo8(4)
 7202 2772 90E0      		ldi r25,hi8(4)
 7203 2774 0E94 0000 		call delay_sec
 7204 2778 C0E0      		ldi r28,lo8(path_array)
 7205 277a D0E0      		ldi r29,hi8(path_array)
 7206               	.L525:
 7207               	.LBB700:
 7208               	.LM1007:
 7209 277c 2881      		ld r18,Y
 7210 277e 3981      		ldd r19,Y+1
 7211 2780 2115      		cp r18,__zero_reg__
 7212 2782 3105      		cpc r19,__zero_reg__
 7213 2784 01F4      		brne .L523
 7214 2786 8A81      		ldd r24,Y+2
 7215 2788 9B81      		ldd r25,Y+3
 7216 278a 892B      		or r24,r25
 7217 278c 01F0      		breq .L524
 7218               	.L523:
 7219               	.LM1008:
 7220 278e 6A81      		ldd r22,Y+2
 7221 2790 7B81      		ldd r23,Y+3
 7222 2792 C901      		movw r24,r18
 7223 2794 0E94 0000 		call go_to_coordinate
 7224 2798 2496      		adiw r28,4
 7225               	.LM1009:
 7226 279a 80E0      		ldi r24,hi8(path_array+60)
 7227 279c C030      		cpi r28,lo8(path_array+60)
 7228 279e D807      		cpc r29,r24
 7229 27a0 01F4      		brne .L525
 7230               	.L524:
 7231               	.LBE700:
 7232               	.LM1010:
 7233 27a2 0091 0000 		lds r16,x_coordinate
 7234 27a6 1091 0000 		lds r17,(x_coordinate)+1
 7235 27aa C091 0000 		lds r28,y_coordinate
 7236 27ae D091 0000 		lds r29,(y_coordinate)+1
 7237 27b2 F801      		movw r30,r16
 7238 27b4 24E0      		ldi r18,4
 7239 27b6 EE0F      	1:	lsl r30
 7240 27b8 FF1F      		rol r31
 7241 27ba 2A95      		dec r18
 7242 27bc 01F4      		brne 1b
 7243 27be EC0F      		add r30,r28
 7244 27c0 FD1F      		adc r31,r29
 7245 27c2 EE0F      		lsl r30
 7246 27c4 FF1F      		rol r31
 7247 27c6 EE0F      		lsl r30
 7248 27c8 FF1F      		rol r31
 7249 27ca E050      		subi r30,lo8(-(dir_array))
 7250 27cc F040      		sbci r31,hi8(-(dir_array))
 7251 27ce 8081      		ld r24,Z
 7252 27d0 8435      		cpi r24,lo8(84)
 7253 27d2 01F4      		brne .L526
 7254 27d4 BE01      		movw r22,r28
 7255 27d6 6F5F      		subi r22,lo8(-(1))
 7256 27d8 7F4F      		sbci r23,hi8(-(1))
 7257 27da C801      		movw r24,r16
 7258 27dc 0E94 0000 		call is_coordinate_null
 7259 27e0 892B      		or r24,r25
 7260 27e2 01F0      		breq .L526
 7261               	.LM1011:
 7262 27e4 82E0      		ldi r24,lo8(2)
 7263 27e6 90E0      		ldi r25,hi8(2)
 7264 27e8 00C0      		rjmp .L548
 7265               	.L526:
 7266               	.LM1012:
 7267 27ea F801      		movw r30,r16
 7268 27ec 84E0      		ldi r24,4
 7269 27ee EE0F      	1:	lsl r30
 7270 27f0 FF1F      		rol r31
 7271 27f2 8A95      		dec r24
 7272 27f4 01F4      		brne 1b
 7273 27f6 EC0F      		add r30,r28
 7274 27f8 FD1F      		adc r31,r29
 7275 27fa EE0F      		lsl r30
 7276 27fc FF1F      		rol r31
 7277 27fe EE0F      		lsl r30
 7278 2800 FF1F      		rol r31
 7279 2802 E050      		subi r30,lo8(-(dir_array))
 7280 2804 F040      		sbci r31,hi8(-(dir_array))
 7281 2806 8181      		ldd r24,Z+1
 7282 2808 8435      		cpi r24,lo8(84)
 7283 280a 01F4      		brne .L528
 7284 280c C801      		movw r24,r16
 7285 280e 0196      		adiw r24,1
 7286 2810 BE01      		movw r22,r28
 7287 2812 0E94 0000 		call is_coordinate_null
 7288 2816 892B      		or r24,r25
 7289 2818 01F0      		breq .L528
 7290               	.LM1013:
 7291 281a 81E0      		ldi r24,lo8(1)
 7292 281c 90E0      		ldi r25,hi8(1)
 7293 281e 00C0      		rjmp .L548
 7294               	.L528:
 7295               	.LM1014:
 7296 2820 F801      		movw r30,r16
 7297 2822 A4E0      		ldi r26,4
 7298 2824 EE0F      	1:	lsl r30
 7299 2826 FF1F      		rol r31
 7300 2828 AA95      		dec r26
 7301 282a 01F4      		brne 1b
 7302 282c EC0F      		add r30,r28
 7303 282e FD1F      		adc r31,r29
 7304 2830 EE0F      		lsl r30
 7305 2832 FF1F      		rol r31
 7306 2834 EE0F      		lsl r30
 7307 2836 FF1F      		rol r31
 7308 2838 E050      		subi r30,lo8(-(dir_array+2))
 7309 283a F040      		sbci r31,hi8(-(dir_array+2))
 7310 283c 8081      		ld r24,Z
 7311 283e 8435      		cpi r24,lo8(84)
 7312 2840 01F4      		brne .L529
 7313 2842 BE01      		movw r22,r28
 7314 2844 6150      		subi r22,lo8(-(-1))
 7315 2846 7040      		sbci r23,hi8(-(-1))
 7316 2848 C801      		movw r24,r16
 7317 284a 0E94 0000 		call is_coordinate_null
 7318 284e 892B      		or r24,r25
 7319 2850 01F0      		breq .L529
 7320               	.LM1015:
 7321 2852 8EEF      		ldi r24,lo8(-2)
 7322 2854 9FEF      		ldi r25,hi8(-2)
 7323 2856 00C0      		rjmp .L548
 7324               	.L529:
 7325               	.LM1016:
 7326 2858 F801      		movw r30,r16
 7327 285a 64E0      		ldi r22,4
 7328 285c EE0F      	1:	lsl r30
 7329 285e FF1F      		rol r31
 7330 2860 6A95      		dec r22
 7331 2862 01F4      		brne 1b
 7332 2864 EC0F      		add r30,r28
 7333 2866 FD1F      		adc r31,r29
 7334 2868 EE0F      		lsl r30
 7335 286a FF1F      		rol r31
 7336 286c EE0F      		lsl r30
 7337 286e FF1F      		rol r31
 7338 2870 E050      		subi r30,lo8(-(dir_array))
 7339 2872 F040      		sbci r31,hi8(-(dir_array))
 7340 2874 8381      		ldd r24,Z+3
 7341 2876 8435      		cpi r24,lo8(84)
 7342 2878 01F4      		brne .L527
 7343 287a C801      		movw r24,r16
 7344 287c 0197      		sbiw r24,1
 7345 287e BE01      		movw r22,r28
 7346 2880 0E94 0000 		call is_coordinate_null
 7347 2884 892B      		or r24,r25
 7348 2886 01F0      		breq .L527
 7349               	.LM1017:
 7350 2888 8FEF      		ldi r24,lo8(-1)
 7351 288a 9FEF      		ldi r25,hi8(-1)
 7352               	.L548:
 7353 288c 0E94 0000 		call checkAndCorrectDirection
 7354               	.L527:
 7355               	.LBB701:
 7356               	.LBB702:
 7357               	.LM1018:
 7358 2890 AC9A      		sbi 53-32,4
 7359               	.LM1019:
 7360 2892 AD9A      		sbi 53-32,5
 7361               	.LM1020:
 7362 2894 AE9A      		sbi 53-32,6
 7363               	.LM1021:
 7364 2896 AF9A      		sbi 53-32,7
 7365               	.LBE702:
 7366               	.LBE701:
 7367               	.LM1022:
 7368 2898 1092 0000 		sts (Coordinates_changed_by)+1,__zero_reg__
 7369 289c 1092 0000 		sts Coordinates_changed_by,__zero_reg__
 7370               	.LM1023:
 7371 28a0 1092 0000 		sts (irc)+1,__zero_reg__
 7372 28a4 1092 0000 		sts irc,__zero_reg__
 7373               	.LM1024:
 7374 28a8 1092 0000 		sts (special_flag)+1,__zero_reg__
 7375 28ac 1092 0000 		sts special_flag,__zero_reg__
 7376 28b0 00C0      		rjmp .L547
 7377               	.L536:
 7378               	.LBB703:
 7379               	.LM1025:
 7380 28b2 81E0      		ldi r24,lo8(1)
 7381 28b4 60E0      		ldi r22,lo8(0)
 7382 28b6 0E94 0000 		call lcd_byte
 7383               	.LM1026:
 7384 28ba 81E0      		ldi r24,lo8(1)
 7385 28bc 90E0      		ldi r25,hi8(1)
 7386 28be 0E94 0000 		call delay_sec
 7387 28c2 40E0      		ldi r20,lo8(path_array)
 7388 28c4 E42E      		mov r14,r20
 7389 28c6 40E0      		ldi r20,hi8(path_array)
 7390 28c8 F42E      		mov r15,r20
 7391 28ca 8701      		movw r16,r14
 7392 28cc C0E0      		ldi r28,lo8(0)
 7393 28ce D0E0      		ldi r29,hi8(0)
 7394               	.L531:
 7395               	.LBB707:
 7396               	.LM1027:
 7397 28d0 CE01      		movw r24,r28
 7398 28d2 0E94 0000 		call __eerd_word_m32
 7399 28d6 F801      		movw r30,r16
 7400 28d8 9183      		std Z+1,r25
 7401 28da 8083      		st Z,r24
 7402               	.LM1028:
 7403 28dc CE01      		movw r24,r28
 7404 28de 0296      		adiw r24,2
 7405 28e0 0E94 0000 		call __eerd_word_m32
 7406 28e4 F801      		movw r30,r16
 7407 28e6 9383      		std Z+3,r25
 7408 28e8 8283      		std Z+2,r24
 7409 28ea 2496      		adiw r28,4
 7410 28ec 0C5F      		subi r16,lo8(-(4))
 7411 28ee 1F4F      		sbci r17,hi8(-(4))
 7412               	.LM1029:
 7413 28f0 CC33      		cpi r28,60
 7414 28f2 D105      		cpc r29,__zero_reg__
 7415 28f4 01F4      		brne .L531
 7416               	.LBE707:
 7417               	.LM1030:
 7418 28f6 81E0      		ldi r24,lo8(1)
 7419 28f8 60E0      		ldi r22,lo8(0)
 7420 28fa 0E94 0000 		call lcd_byte
 7421               	.LM1031:
 7422 28fe 4091 0000 		lds r20,path_array
 7423 2902 5091 0000 		lds r21,(path_array)+1
 7424 2906 80E0      		ldi r24,lo8(0)
 7425 2908 90E0      		ldi r25,hi8(0)
 7426 290a 60E0      		ldi r22,lo8(0)
 7427 290c 70E0      		ldi r23,hi8(0)
 7428 290e 21E0      		ldi r18,lo8(1)
 7429 2910 30E0      		ldi r19,hi8(1)
 7430 2912 0E94 0000 		call lcd_write_int_xy
 7431               	.LM1032:
 7432 2916 4091 0000 		lds r20,path_array+2
 7433 291a 5091 0000 		lds r21,(path_array+2)+1
 7434 291e 81E0      		ldi r24,lo8(1)
 7435 2920 90E0      		ldi r25,hi8(1)
 7436 2922 60E0      		ldi r22,lo8(0)
 7437 2924 70E0      		ldi r23,hi8(0)
 7438 2926 21E0      		ldi r18,lo8(1)
 7439 2928 30E0      		ldi r19,hi8(1)
 7440 292a 0E94 0000 		call lcd_write_int_xy
 7441               	.LM1033:
 7442 292e 4091 0000 		lds r20,path_array+4
 7443 2932 5091 0000 		lds r21,(path_array+4)+1
 7444 2936 83E0      		ldi r24,lo8(3)
 7445 2938 90E0      		ldi r25,hi8(3)
 7446 293a 60E0      		ldi r22,lo8(0)
 7447 293c 70E0      		ldi r23,hi8(0)
 7448 293e 21E0      		ldi r18,lo8(1)
 7449 2940 30E0      		ldi r19,hi8(1)
 7450 2942 0E94 0000 		call lcd_write_int_xy
 7451               	.LM1034:
 7452 2946 4091 0000 		lds r20,path_array+6
 7453 294a 5091 0000 		lds r21,(path_array+6)+1
 7454 294e 84E0      		ldi r24,lo8(4)
 7455 2950 90E0      		ldi r25,hi8(4)
 7456 2952 60E0      		ldi r22,lo8(0)
 7457 2954 70E0      		ldi r23,hi8(0)
 7458 2956 21E0      		ldi r18,lo8(1)
 7459 2958 30E0      		ldi r19,hi8(1)
 7460 295a 0E94 0000 		call lcd_write_int_xy
 7461               	.LM1035:
 7462 295e 4091 0000 		lds r20,path_array+8
 7463 2962 5091 0000 		lds r21,(path_array+8)+1
 7464 2966 86E0      		ldi r24,lo8(6)
 7465 2968 90E0      		ldi r25,hi8(6)
 7466 296a 60E0      		ldi r22,lo8(0)
 7467 296c 70E0      		ldi r23,hi8(0)
 7468 296e 21E0      		ldi r18,lo8(1)
 7469 2970 30E0      		ldi r19,hi8(1)
 7470 2972 0E94 0000 		call lcd_write_int_xy
 7471               	.LM1036:
 7472 2976 4091 0000 		lds r20,path_array+10
 7473 297a 5091 0000 		lds r21,(path_array+10)+1
 7474 297e 87E0      		ldi r24,lo8(7)
 7475 2980 90E0      		ldi r25,hi8(7)
 7476 2982 60E0      		ldi r22,lo8(0)
 7477 2984 70E0      		ldi r23,hi8(0)
 7478 2986 21E0      		ldi r18,lo8(1)
 7479 2988 30E0      		ldi r19,hi8(1)
 7480 298a 0E94 0000 		call lcd_write_int_xy
 7481               	.LM1037:
 7482 298e 4091 0000 		lds r20,path_array+12
 7483 2992 5091 0000 		lds r21,(path_array+12)+1
 7484 2996 89E0      		ldi r24,lo8(9)
 7485 2998 90E0      		ldi r25,hi8(9)
 7486 299a 60E0      		ldi r22,lo8(0)
 7487 299c 70E0      		ldi r23,hi8(0)
 7488 299e 21E0      		ldi r18,lo8(1)
 7489 29a0 30E0      		ldi r19,hi8(1)
 7490 29a2 0E94 0000 		call lcd_write_int_xy
 7491               	.LM1038:
 7492 29a6 4091 0000 		lds r20,path_array+14
 7493 29aa 5091 0000 		lds r21,(path_array+14)+1
 7494 29ae 8AE0      		ldi r24,lo8(10)
 7495 29b0 90E0      		ldi r25,hi8(10)
 7496 29b2 60E0      		ldi r22,lo8(0)
 7497 29b4 70E0      		ldi r23,hi8(0)
 7498 29b6 21E0      		ldi r18,lo8(1)
 7499 29b8 30E0      		ldi r19,hi8(1)
 7500 29ba 0E94 0000 		call lcd_write_int_xy
 7501               	.LM1039:
 7502 29be 4091 0000 		lds r20,path_array+16
 7503 29c2 5091 0000 		lds r21,(path_array+16)+1
 7504 29c6 8CE0      		ldi r24,lo8(12)
 7505 29c8 90E0      		ldi r25,hi8(12)
 7506 29ca 60E0      		ldi r22,lo8(0)
 7507 29cc 70E0      		ldi r23,hi8(0)
 7508 29ce 21E0      		ldi r18,lo8(1)
 7509 29d0 30E0      		ldi r19,hi8(1)
 7510 29d2 0E94 0000 		call lcd_write_int_xy
 7511               	.LM1040:
 7512 29d6 4091 0000 		lds r20,path_array+18
 7513 29da 5091 0000 		lds r21,(path_array+18)+1
 7514 29de 8DE0      		ldi r24,lo8(13)
 7515 29e0 90E0      		ldi r25,hi8(13)
 7516 29e2 60E0      		ldi r22,lo8(0)
 7517 29e4 70E0      		ldi r23,hi8(0)
 7518 29e6 21E0      		ldi r18,lo8(1)
 7519 29e8 30E0      		ldi r19,hi8(1)
 7520 29ea 0E94 0000 		call lcd_write_int_xy
 7521               	.LM1041:
 7522 29ee 4091 0000 		lds r20,path_array+20
 7523 29f2 5091 0000 		lds r21,(path_array+20)+1
 7524 29f6 80E0      		ldi r24,lo8(0)
 7525 29f8 90E0      		ldi r25,hi8(0)
 7526 29fa 61E0      		ldi r22,lo8(1)
 7527 29fc 70E0      		ldi r23,hi8(1)
 7528 29fe 21E0      		ldi r18,lo8(1)
 7529 2a00 30E0      		ldi r19,hi8(1)
 7530 2a02 0E94 0000 		call lcd_write_int_xy
 7531               	.LM1042:
 7532 2a06 4091 0000 		lds r20,path_array+22
 7533 2a0a 5091 0000 		lds r21,(path_array+22)+1
 7534 2a0e 81E0      		ldi r24,lo8(1)
 7535 2a10 90E0      		ldi r25,hi8(1)
 7536 2a12 61E0      		ldi r22,lo8(1)
 7537 2a14 70E0      		ldi r23,hi8(1)
 7538 2a16 21E0      		ldi r18,lo8(1)
 7539 2a18 30E0      		ldi r19,hi8(1)
 7540 2a1a 0E94 0000 		call lcd_write_int_xy
 7541               	.L538:
 7542               	.LBB705:
 7543               	.LBB706:
 7544               	.LM1043:
 7545 2a1e 8299      		sbic 48-32,2
 7546 2a20 00C0      		rjmp .L532
 7547               	.L537:
 7548               	.LBE706:
 7549               	.LBE705:
 7550               	.LM1044:
 7551 2a22 81E0      		ldi r24,lo8(1)
 7552 2a24 60E0      		ldi r22,lo8(0)
 7553 2a26 0E94 0000 		call lcd_byte
 7554               	.LM1045:
 7555 2a2a 81E0      		ldi r24,lo8(1)
 7556 2a2c 90E0      		ldi r25,hi8(1)
 7557 2a2e 0E94 0000 		call delay_sec
 7558               	.L535:
 7559               	.LBB704:
 7560               	.LM1046:
 7561 2a32 F701      		movw r30,r14
 7562 2a34 2081      		ld r18,Z
 7563 2a36 3181      		ldd r19,Z+1
 7564 2a38 2115      		cp r18,__zero_reg__
 7565 2a3a 3105      		cpc r19,__zero_reg__
 7566 2a3c 01F4      		brne .L533
 7567 2a3e 8281      		ldd r24,Z+2
 7568 2a40 9381      		ldd r25,Z+3
 7569 2a42 892B      		or r24,r25
 7570 2a44 01F4      		brne .+2
 7571 2a46 00C0      		rjmp .L546
 7572               	.L533:
 7573               	.LM1047:
 7574 2a48 F701      		movw r30,r14
 7575 2a4a 6281      		ldd r22,Z+2
 7576 2a4c 7381      		ldd r23,Z+3
 7577 2a4e C901      		movw r24,r18
 7578 2a50 0E94 0000 		call go_to_coordinate
 7579 2a54 84E0      		ldi r24,lo8(4)
 7580 2a56 90E0      		ldi r25,hi8(4)
 7581 2a58 E80E      		add r14,r24
 7582 2a5a F91E      		adc r15,r25
 7583               	.LM1048:
 7584 2a5c 90E0      		ldi r25,lo8(path_array+60)
 7585 2a5e E916      		cp r14,r25
 7586 2a60 90E0      		ldi r25,hi8(path_array+60)
 7587 2a62 F906      		cpc r15,r25
 7588 2a64 01F4      		brne .L535
 7589 2a66 00C0      		rjmp .L546
 7590               	.L519:
 7591               	.LBE704:
 7592               	.LBE703:
 7593               	.LBB714:
 7594               	.LBB715:
 7595               	.LM1049:
 7596 2a68 809B      		sbis 48-32,0
 7597 2a6a 00C0      		rjmp .L536
 7598 2a6c 00C0      		rjmp .L546
 7599               	.L532:
 7600               	.LBE715:
 7601               	.LBE714:
 7602               	.LBB716:
 7603               	.LBB708:
 7604               	.LBB709:
 7605 2a6e 809B      		sbis 48-32,0
 7606 2a70 00C0      		rjmp .L537
 7607               	.LBE709:
 7608               	.LBE708:
 7609               	.LBB710:
 7610               	.LBB711:
 7611               	.LM1050:
 7612 2a72 819B      		sbis 48-32,1
 7613 2a74 00C0      		rjmp .L537
 7614               	.LBE711:
 7615               	.LBE710:
 7616               	.LBB712:
 7617               	.LBB713:
 7618               	.LM1051:
 7619 2a76 839B      		sbis 48-32,3
 7620 2a78 00C0      		rjmp .L537
 7621 2a7a 00C0      		rjmp .L538
 7622               	.LBE713:
 7623               	.LBE712:
 7624               	.LBE716:
 7625               	.LFE76:
 7627               		.data
 7628               	.LC15:
 7629 008d 636F 7272 		.string	"correct"
 7629      6563 7400 
 7630               		.text
 7631               	.global	map_all
 7633               	map_all:
 7634               	.LFB75:
 7635               	.LM1052:
 7636 2a7c EF92      		push r14
 7637 2a7e FF92      		push r15
 7638 2a80 0F93      		push r16
 7639 2a82 1F93      		push r17
 7640 2a84 CF93      		push r28
 7641 2a86 DF93      		push r29
 7642               	/* prologue: function */
 7643               	/* frame size = 0 */
 7644               	.LBB717:
 7645               	.LBB718:
 7646               	.LM1053:
 7647 2a88 4FE8      		ldi r20,lo8(399)
 7648 2a8a E42E      		mov r14,r20
 7649 2a8c 41E0      		ldi r20,hi8(399)
 7650 2a8e F42E      		mov r15,r20
 7651               	.L565:
 7652               	.LBE718:
 7653               	.LBE717:
 7654               	.LBB720:
 7655               	.LBB721:
 7656               	.LM1054:
 7657 2a90 AC9A      		sbi 53-32,4
 7658               	.LM1055:
 7659 2a92 AD9A      		sbi 53-32,5
 7660               	.LM1056:
 7661 2a94 AE9A      		sbi 53-32,6
 7662               	.LM1057:
 7663 2a96 AF9A      		sbi 53-32,7
 7664               	.LBE721:
 7665               	.LBE720:
 7666               	.LM1058:
 7667 2a98 6091 0000 		lds r22,y_coordinate
 7668 2a9c 7091 0000 		lds r23,(y_coordinate)+1
 7669 2aa0 4091 0000 		lds r20,mx
 7670 2aa4 5091 0000 		lds r21,(mx)+1
 7671 2aa8 2091 0000 		lds r18,my
 7672 2aac 3091 0000 		lds r19,(my)+1
 7673 2ab0 8091 0000 		lds r24,x_coordinate
 7674 2ab4 9091 0000 		lds r25,(x_coordinate)+1
 7675 2ab8 0E94 0000 		call build_map
 7676               	.LM1059:
 7677 2abc 0E94 0000 		call get_path
 7678               	.LM1060:
 7679 2ac0 81E0      		ldi r24,lo8(1)
 7680 2ac2 60E0      		ldi r22,lo8(0)
 7681 2ac4 0E94 0000 		call lcd_byte
 7682               	.LM1061:
 7683 2ac8 4091 0000 		lds r20,path_array
 7684 2acc 5091 0000 		lds r21,(path_array)+1
 7685 2ad0 80E0      		ldi r24,lo8(0)
 7686 2ad2 90E0      		ldi r25,hi8(0)
 7687 2ad4 60E0      		ldi r22,lo8(0)
 7688 2ad6 70E0      		ldi r23,hi8(0)
 7689 2ad8 22E0      		ldi r18,lo8(2)
 7690 2ada 30E0      		ldi r19,hi8(2)
 7691 2adc 0E94 0000 		call lcd_write_int_xy
 7692               	.LM1062:
 7693 2ae0 4091 0000 		lds r20,path_array+2
 7694 2ae4 5091 0000 		lds r21,(path_array+2)+1
 7695 2ae8 83E0      		ldi r24,lo8(3)
 7696 2aea 90E0      		ldi r25,hi8(3)
 7697 2aec 60E0      		ldi r22,lo8(0)
 7698 2aee 70E0      		ldi r23,hi8(0)
 7699 2af0 22E0      		ldi r18,lo8(2)
 7700 2af2 30E0      		ldi r19,hi8(2)
 7701 2af4 0E94 0000 		call lcd_write_int_xy
 7702               	.LM1063:
 7703 2af8 4091 0000 		lds r20,path_array+4
 7704 2afc 5091 0000 		lds r21,(path_array+4)+1
 7705 2b00 86E0      		ldi r24,lo8(6)
 7706 2b02 90E0      		ldi r25,hi8(6)
 7707 2b04 60E0      		ldi r22,lo8(0)
 7708 2b06 70E0      		ldi r23,hi8(0)
 7709 2b08 22E0      		ldi r18,lo8(2)
 7710 2b0a 30E0      		ldi r19,hi8(2)
 7711 2b0c 0E94 0000 		call lcd_write_int_xy
 7712               	.LM1064:
 7713 2b10 4091 0000 		lds r20,path_array+6
 7714 2b14 5091 0000 		lds r21,(path_array+6)+1
 7715 2b18 89E0      		ldi r24,lo8(9)
 7716 2b1a 90E0      		ldi r25,hi8(9)
 7717 2b1c 60E0      		ldi r22,lo8(0)
 7718 2b1e 70E0      		ldi r23,hi8(0)
 7719 2b20 22E0      		ldi r18,lo8(2)
 7720 2b22 30E0      		ldi r19,hi8(2)
 7721 2b24 0E94 0000 		call lcd_write_int_xy
 7722 2b28 C0E0      		ldi r28,lo8(path_array)
 7723 2b2a D0E0      		ldi r29,hi8(path_array)
 7724               	.L552:
 7725               	.LBB722:
 7726               	.LM1065:
 7727 2b2c 2881      		ld r18,Y
 7728 2b2e 3981      		ldd r19,Y+1
 7729 2b30 2115      		cp r18,__zero_reg__
 7730 2b32 3105      		cpc r19,__zero_reg__
 7731 2b34 01F4      		brne .L550
 7732 2b36 8A81      		ldd r24,Y+2
 7733 2b38 9B81      		ldd r25,Y+3
 7734 2b3a 892B      		or r24,r25
 7735 2b3c 01F0      		breq .L551
 7736               	.L550:
 7737               	.LM1066:
 7738 2b3e 6A81      		ldd r22,Y+2
 7739 2b40 7B81      		ldd r23,Y+3
 7740 2b42 C901      		movw r24,r18
 7741 2b44 0E94 0000 		call go_to_coordinate
 7742 2b48 2496      		adiw r28,4
 7743               	.LM1067:
 7744 2b4a 80E0      		ldi r24,hi8(path_array+60)
 7745 2b4c C030      		cpi r28,lo8(path_array+60)
 7746 2b4e D807      		cpc r29,r24
 7747 2b50 01F4      		brne .L552
 7748               	.L551:
 7749               	.LBE722:
 7750               	.LM1068:
 7751 2b52 81E0      		ldi r24,lo8(1)
 7752 2b54 60E0      		ldi r22,lo8(0)
 7753 2b56 0E94 0000 		call lcd_byte
 7754               	.LM1069:
 7755 2b5a 0091 0000 		lds r16,x_coordinate
 7756 2b5e 1091 0000 		lds r17,(x_coordinate)+1
 7757 2b62 C091 0000 		lds r28,y_coordinate
 7758 2b66 D091 0000 		lds r29,(y_coordinate)+1
 7759 2b6a F801      		movw r30,r16
 7760 2b6c 34E0      		ldi r19,4
 7761 2b6e EE0F      	1:	lsl r30
 7762 2b70 FF1F      		rol r31
 7763 2b72 3A95      		dec r19
 7764 2b74 01F4      		brne 1b
 7765 2b76 EC0F      		add r30,r28
 7766 2b78 FD1F      		adc r31,r29
 7767 2b7a EE0F      		lsl r30
 7768 2b7c FF1F      		rol r31
 7769 2b7e EE0F      		lsl r30
 7770 2b80 FF1F      		rol r31
 7771 2b82 E050      		subi r30,lo8(-(dir_array))
 7772 2b84 F040      		sbci r31,hi8(-(dir_array))
 7773 2b86 8081      		ld r24,Z
 7774 2b88 8435      		cpi r24,lo8(84)
 7775 2b8a 01F4      		brne .L553
 7776 2b8c BE01      		movw r22,r28
 7777 2b8e 6F5F      		subi r22,lo8(-(1))
 7778 2b90 7F4F      		sbci r23,hi8(-(1))
 7779 2b92 C801      		movw r24,r16
 7780 2b94 0E94 0000 		call is_coordinate_null
 7781 2b98 892B      		or r24,r25
 7782 2b9a 01F0      		breq .L553
 7783               	.LM1070:
 7784 2b9c 82E0      		ldi r24,lo8(2)
 7785 2b9e 90E0      		ldi r25,hi8(2)
 7786 2ba0 00C0      		rjmp .L566
 7787               	.L553:
 7788               	.LM1071:
 7789 2ba2 F801      		movw r30,r16
 7790 2ba4 94E0      		ldi r25,4
 7791 2ba6 EE0F      	1:	lsl r30
 7792 2ba8 FF1F      		rol r31
 7793 2baa 9A95      		dec r25
 7794 2bac 01F4      		brne 1b
 7795 2bae EC0F      		add r30,r28
 7796 2bb0 FD1F      		adc r31,r29
 7797 2bb2 EE0F      		lsl r30
 7798 2bb4 FF1F      		rol r31
 7799 2bb6 EE0F      		lsl r30
 7800 2bb8 FF1F      		rol r31
 7801 2bba E050      		subi r30,lo8(-(dir_array))
 7802 2bbc F040      		sbci r31,hi8(-(dir_array))
 7803 2bbe 8181      		ldd r24,Z+1
 7804 2bc0 8435      		cpi r24,lo8(84)
 7805 2bc2 01F4      		brne .L555
 7806 2bc4 C801      		movw r24,r16
 7807 2bc6 0196      		adiw r24,1
 7808 2bc8 BE01      		movw r22,r28
 7809 2bca 0E94 0000 		call is_coordinate_null
 7810 2bce 892B      		or r24,r25
 7811 2bd0 01F0      		breq .L555
 7812               	.LM1072:
 7813 2bd2 81E0      		ldi r24,lo8(1)
 7814 2bd4 90E0      		ldi r25,hi8(1)
 7815 2bd6 00C0      		rjmp .L566
 7816               	.L555:
 7817               	.LM1073:
 7818 2bd8 F801      		movw r30,r16
 7819 2bda B4E0      		ldi r27,4
 7820 2bdc EE0F      	1:	lsl r30
 7821 2bde FF1F      		rol r31
 7822 2be0 BA95      		dec r27
 7823 2be2 01F4      		brne 1b
 7824 2be4 EC0F      		add r30,r28
 7825 2be6 FD1F      		adc r31,r29
 7826 2be8 EE0F      		lsl r30
 7827 2bea FF1F      		rol r31
 7828 2bec EE0F      		lsl r30
 7829 2bee FF1F      		rol r31
 7830 2bf0 E050      		subi r30,lo8(-(dir_array+2))
 7831 2bf2 F040      		sbci r31,hi8(-(dir_array+2))
 7832 2bf4 8081      		ld r24,Z
 7833 2bf6 8435      		cpi r24,lo8(84)
 7834 2bf8 01F4      		brne .L556
 7835 2bfa BE01      		movw r22,r28
 7836 2bfc 6150      		subi r22,lo8(-(-1))
 7837 2bfe 7040      		sbci r23,hi8(-(-1))
 7838 2c00 C801      		movw r24,r16
 7839 2c02 0E94 0000 		call is_coordinate_null
 7840 2c06 892B      		or r24,r25
 7841 2c08 01F0      		breq .L556
 7842               	.LM1074:
 7843 2c0a 8EEF      		ldi r24,lo8(-2)
 7844 2c0c 9FEF      		ldi r25,hi8(-2)
 7845 2c0e 00C0      		rjmp .L566
 7846               	.L556:
 7847               	.LM1075:
 7848 2c10 F801      		movw r30,r16
 7849 2c12 74E0      		ldi r23,4
 7850 2c14 EE0F      	1:	lsl r30
 7851 2c16 FF1F      		rol r31
 7852 2c18 7A95      		dec r23
 7853 2c1a 01F4      		brne 1b
 7854 2c1c EC0F      		add r30,r28
 7855 2c1e FD1F      		adc r31,r29
 7856 2c20 EE0F      		lsl r30
 7857 2c22 FF1F      		rol r31
 7858 2c24 EE0F      		lsl r30
 7859 2c26 FF1F      		rol r31
 7860 2c28 E050      		subi r30,lo8(-(dir_array))
 7861 2c2a F040      		sbci r31,hi8(-(dir_array))
 7862 2c2c 8381      		ldd r24,Z+3
 7863 2c2e 8435      		cpi r24,lo8(84)
 7864 2c30 01F4      		brne .L554
 7865 2c32 C801      		movw r24,r16
 7866 2c34 0197      		sbiw r24,1
 7867 2c36 BE01      		movw r22,r28
 7868 2c38 0E94 0000 		call is_coordinate_null
 7869 2c3c 892B      		or r24,r25
 7870 2c3e 01F0      		breq .L554
 7871               	.LM1076:
 7872 2c40 80E0      		ldi r24,lo8(.LC15)
 7873 2c42 90E0      		ldi r25,hi8(.LC15)
 7874 2c44 0E94 0000 		call lcd_write_string
 7875               	.LM1077:
 7876 2c48 82E0      		ldi r24,lo8(2)
 7877 2c4a 90E0      		ldi r25,hi8(2)
 7878 2c4c 0E94 0000 		call delay_sec
 7879               	.LM1078:
 7880 2c50 8FEF      		ldi r24,lo8(-1)
 7881 2c52 9FEF      		ldi r25,hi8(-1)
 7882               	.L566:
 7883 2c54 0E94 0000 		call checkAndCorrectDirection
 7884               	.L554:
 7885               	.LBB723:
 7886               	.LBB724:
 7887               	.LM1079:
 7888 2c58 AC9A      		sbi 53-32,4
 7889               	.LM1080:
 7890 2c5a AD9A      		sbi 53-32,5
 7891               	.LM1081:
 7892 2c5c AE9A      		sbi 53-32,6
 7893               	.LM1082:
 7894 2c5e AF9A      		sbi 53-32,7
 7895               	.LBE724:
 7896               	.LBE723:
 7897               	.LM1083:
 7898 2c60 1092 0000 		sts (Coordinates_changed_by)+1,__zero_reg__
 7899 2c64 1092 0000 		sts Coordinates_changed_by,__zero_reg__
 7900               	.LM1084:
 7901 2c68 1092 0000 		sts (irc)+1,__zero_reg__
 7902 2c6c 1092 0000 		sts irc,__zero_reg__
 7903               	.LM1085:
 7904 2c70 1092 0000 		sts (special_flag)+1,__zero_reg__
 7905 2c74 1092 0000 		sts special_flag,__zero_reg__
 7906               	.LM1086:
 7907 2c78 1092 0000 		sts (repeat)+1,__zero_reg__
 7908 2c7c 1092 0000 		sts repeat,__zero_reg__
 7909 2c80 00C0      		rjmp .L557
 7910               	.L559:
 7911               	.LM1087:
 7912 2c82 81E0      		ldi r24,lo8(1)
 7913 2c84 60E0      		ldi r22,lo8(0)
 7914 2c86 0E94 0000 		call lcd_byte
 7915               	.LM1088:
 7916 2c8a 0E94 0000 		call line_track_new
 7917               	.LM1089:
 7918 2c8e 85B3      		in r24,53-32
 7919 2c90 807F      		andi r24,lo8(-16)
 7920 2c92 85BB      		out 53-32,r24
 7921               	.LM1090:
 7922 2c94 85B3      		in r24,53-32
 7923 2c96 9091 0000 		lds r25,sensorbyte
 7924 2c9a 892B      		or r24,r25
 7925 2c9c 85BB      		out 53-32,r24
 7926               	.LM1091:
 7927 2c9e CF99      		sbic 57-32,7
 7928 2ca0 00C0      		rjmp .L558
 7929               	.LM1092:
 7930 2ca2 0E94 0000 		call right_junc_check
 7931               	.L558:
 7932               	.LM1093:
 7933 2ca6 0E94 0000 		call left_junc_check
 7934               	.LM1094:
 7935 2caa 0E94 0000 		call frSensorCheck
 7936               	.LM1095:
 7937 2cae 8091 0000 		lds r24,irc
 7938 2cb2 9091 0000 		lds r25,(irc)+1
 7939 2cb6 0196      		adiw r24,1
 7940 2cb8 9093 0000 		sts (irc)+1,r25
 7941 2cbc 8093 0000 		sts irc,r24
 7942               	.L557:
 7943               	.LM1096:
 7944 2cc0 8091 0000 		lds r24,repeat
 7945 2cc4 9091 0000 		lds r25,(repeat)+1
 7946 2cc8 892B      		or r24,r25
 7947 2cca 01F0      		breq .L559
 7948               	.LBB725:
 7949               	.LBB719:
 7950               	.LM1097:
 7951 2ccc FBBC      		out (74)+1-32,r15
 7952 2cce EABC      		out 74-32,r14
 7953               	.LBE719:
 7954               	.LBE725:
 7955               	.LBB726:
 7956               	.LBB727:
 7957               	.LM1098:
 7958 2cd0 F9BC      		out (72)+1-32,r15
 7959 2cd2 E8BC      		out 72-32,r14
 7960               	.LBE727:
 7961               	.LBE726:
 7962               	.LBB728:
 7963               	.LBB729:
 7964               	.LM1099:
 7965 2cd4 AC9A      		sbi 53-32,4
 7966               	.LM1100:
 7967 2cd6 AD9A      		sbi 53-32,5
 7968               	.LM1101:
 7969 2cd8 AE9A      		sbi 53-32,6
 7970               	.LM1102:
 7971 2cda AF9A      		sbi 53-32,7
 7972               	.LBE729:
 7973               	.LBE728:
 7974               	.LM1103:
 7975 2cdc 0E94 0000 		call fill_missed_array
 7976               	.LM1104:
 7977 2ce0 1092 0000 		sts (mx)+1,__zero_reg__
 7978 2ce4 1092 0000 		sts mx,__zero_reg__
 7979               	.LM1105:
 7980 2ce8 1092 0000 		sts (my)+1,__zero_reg__
 7981 2cec 1092 0000 		sts my,__zero_reg__
 7982               	.LM1106:
 7983 2cf0 0E94 0000 		call coordinates_tobe_reached
 7984               	.LM1107:
 7985 2cf4 8091 0000 		lds r24,mx
 7986 2cf8 9091 0000 		lds r25,(mx)+1
 7987 2cfc 892B      		or r24,r25
 7988 2cfe 01F0      		breq .+2
 7989 2d00 00C0      		rjmp .L565
 7990 2d02 8091 0000 		lds r24,my
 7991 2d06 9091 0000 		lds r25,(my)+1
 7992 2d0a 892B      		or r24,r25
 7993 2d0c 01F0      		breq .+2
 7994 2d0e 00C0      		rjmp .L565
 7995               	/* epilogue start */
 7996               	.LM1108:
 7997 2d10 DF91      		pop r29
 7998 2d12 CF91      		pop r28
 7999 2d14 1F91      		pop r17
 8000 2d16 0F91      		pop r16
 8001 2d18 FF90      		pop r15
 8002 2d1a EF90      		pop r14
 8003 2d1c 0895      		ret
 8004               	.LFE75:
 8006               	.global	retrieve_threshold
 8008               	retrieve_threshold:
 8009               	.LFB52:
 8010               	.LM1109:
 8011               	/* prologue: function */
 8012               	/* frame size = 0 */
 8013               	.LBB730:
 8014               	.LM1110:
 8015 2d1e 80E0      		ldi r24,lo8(0)
 8016 2d20 90E0      		ldi r25,hi8(0)
 8017 2d22 0E94 0000 		call __eerd_byte_m32
 8018 2d26 8093 0000 		sts threshold1,r24
 8019 2d2a 81E0      		ldi r24,lo8(1)
 8020 2d2c 90E0      		ldi r25,hi8(1)
 8021 2d2e 0E94 0000 		call __eerd_byte_m32
 8022 2d32 8093 0000 		sts threshold1+1,r24
 8023 2d36 82E0      		ldi r24,lo8(2)
 8024 2d38 90E0      		ldi r25,hi8(2)
 8025 2d3a 0E94 0000 		call __eerd_byte_m32
 8026 2d3e 8093 0000 		sts threshold1+2,r24
 8027 2d42 83E0      		ldi r24,lo8(3)
 8028 2d44 90E0      		ldi r25,hi8(3)
 8029 2d46 0E94 0000 		call __eerd_byte_m32
 8030 2d4a 8093 0000 		sts threshold1+3,r24
 8031               	/* epilogue start */
 8032               	.LBE730:
 8033               	.LM1111:
 8034 2d4e 0895      		ret
 8035               	.LFE52:
 8037               	.global	set_threshold
 8039               	set_threshold:
 8040               	.LFB17:
 8041               	.LM1112:
 8042 2d50 CF93      		push r28
 8043 2d52 DF93      		push r29
 8044               	/* prologue: function */
 8045               	/* frame size = 0 */
 8046               	.LM1113:
 8047 2d54 2091 0000 		lds r18,min
 8048 2d58 8091 0000 		lds r24,max
 8049 2d5c 90E0      		ldi r25,lo8(0)
 8050 2d5e 820F      		add r24,r18
 8051 2d60 911D      		adc r25,__zero_reg__
 8052 2d62 9595      		asr r25
 8053 2d64 8795      		ror r24
 8054 2d66 8093 0000 		sts threshold1,r24
 8055 2d6a 2091 0000 		lds r18,min+1
 8056 2d6e 8091 0000 		lds r24,max+1
 8057 2d72 90E0      		ldi r25,lo8(0)
 8058 2d74 820F      		add r24,r18
 8059 2d76 911D      		adc r25,__zero_reg__
 8060 2d78 9595      		asr r25
 8061 2d7a 8795      		ror r24
 8062 2d7c 8093 0000 		sts threshold1+1,r24
 8063 2d80 2091 0000 		lds r18,min+2
 8064 2d84 8091 0000 		lds r24,max+2
 8065 2d88 90E0      		ldi r25,lo8(0)
 8066 2d8a 820F      		add r24,r18
 8067 2d8c 911D      		adc r25,__zero_reg__
 8068 2d8e 9595      		asr r25
 8069 2d90 8795      		ror r24
 8070 2d92 8093 0000 		sts threshold1+2,r24
 8071 2d96 2091 0000 		lds r18,min+3
 8072 2d9a 8091 0000 		lds r24,max+3
 8073 2d9e 90E0      		ldi r25,lo8(0)
 8074 2da0 820F      		add r24,r18
 8075 2da2 911D      		adc r25,__zero_reg__
 8076 2da4 9595      		asr r25
 8077 2da6 8795      		ror r24
 8078 2da8 8093 0000 		sts threshold1+3,r24
 8079 2dac C0E0      		ldi r28,lo8(0)
 8080 2dae D0E0      		ldi r29,hi8(0)
 8081               	.LVL205:
 8082               	.L570:
 8083               	.LBB731:
 8084               	.LM1114:
 8085 2db0 FE01      		movw r30,r28
 8086 2db2 E050      		subi r30,lo8(-(threshold1))
 8087 2db4 F040      		sbci r31,hi8(-(threshold1))
 8088 2db6 CE01      		movw r24,r28
 8089 2db8 6081      		ld r22,Z
 8090 2dba 0E94 0000 		call __eewr_byte_m32
 8091               	.LM1115:
 8092 2dbe 2196      		adiw r28,1
 8093 2dc0 C430      		cpi r28,4
 8094 2dc2 D105      		cpc r29,__zero_reg__
 8095 2dc4 01F4      		brne .L570
 8096               	/* epilogue start */
 8097               	.LBE731:
 8098               	.LM1116:
 8099 2dc6 DF91      		pop r29
 8100 2dc8 CF91      		pop r28
 8101               	.LVL206:
 8102 2dca 0895      		ret
 8103               	.LFE17:
 8105               	.global	sensorbyte
 8106               	.global	sensorbyte
 8107               		.section .bss
 8110               	sensorbyte:
 8111 0000 00        		.skip 1,0
 8112               	.global	mpos
 8113               	.global	mpos
 8116               	mpos:
 8117 0001 0000      		.skip 2,0
 8118               	.global	opt
 8119               		.data
 8122               	opt:
 8123 0095 FF00      		.word	255
 8124               	.global	kp
 8127               	kp:
 8128 0097 00        		.byte	0
 8129 0098 00        		.byte	0
 8130 0099 70        		.byte	112
 8131 009a 41        		.byte	65
 8132               	.global	kd
 8135               	kd:
 8136 009b 66        		.byte	102
 8137 009c 66        		.byte	102
 8138 009d 46        		.byte	70
 8139 009e 40        		.byte	64
 8140               	.global	flcount
 8141               	.global	flcount
 8142               		.section .bss
 8145               	flcount:
 8146 0003 0000      		.skip 2,0
 8147               	.global	l
 8148               	.global	l
 8151               	l:
 8152 0005 0000      		.skip 2,0
 8153               	.global	lcount
 8154               	.global	lcount
 8157               	lcount:
 8158 0007 0000      		.skip 2,0
 8159               	.global	straight
 8160               	.global	straight
 8163               	straight:
 8164 0009 0000      		.skip 2,0
 8165               	.global	lcountPrev
 8166               	.global	lcountPrev
 8169               	lcountPrev:
 8170 000b 0000      		.skip 2,0
 8171               	.global	flag1
 8172               	.global	flag1
 8175               	flag1:
 8176 000d 0000      		.skip 2,0
 8177               	.global	irc
 8178               	.global	irc
 8181               	irc:
 8182 000f 0000      		.skip 2,0
 8183               	.global	lcount_forStraight_prev
 8184               	.global	lcount_forStraight_prev
 8187               	lcount_forStraight_prev:
 8188 0011 0000      		.skip 2,0
 8189               	.global	temp
 8190               	.global	temp
 8193               	temp:
 8194 0013 0000      		.skip 2,0
 8195               	.global	temp_forStraight
 8196               	.global	temp_forStraight
 8199               	temp_forStraight:
 8200 0015 0000      		.skip 2,0
 8201               	.global	turn
 8202               		.data
 8205               	turn:
 8206 009f 73        		.byte	115
 8207               	.global	dir
 8210               	dir:
 8211 00a0 0200      		.word	2
 8212               	.global	Coordinates_changed_by
 8213               	.global	Coordinates_changed_by
 8214               		.section .bss
 8217               	Coordinates_changed_by:
 8218 0017 0000      		.skip 2,0
 8219               	.global	x_coordinate
 8220               		.data
 8223               	x_coordinate:
 8224 00a2 0700      		.word	7
 8225               	.global	y_coordinate
 8228               	y_coordinate:
 8229 00a4 0700      		.word	7
 8230               	.global	mx
 8231               	.global	mx
 8232               		.section .bss
 8235               	mx:
 8236 0019 0000      		.skip 2,0
 8237               	.global	my
 8238               	.global	my
 8241               	my:
 8242 001b 0000      		.skip 2,0
 8243               	.global	special_flag
 8244               	.global	special_flag
 8247               	special_flag:
 8248 001d 0000      		.skip 2,0
 8249               	.global	repeat
 8250               	.global	repeat
 8253               	repeat:
 8254 001f 0000      		.skip 2,0
 8255               		.comm min,4,1
 8256               		.comm max,4,1
 8257               		.comm threshold1,4,1
 8258               		.comm control,4,1
 8259               		.comm prev_error,4,1
 8260               		.comm act_error,4,1
 8261               		.comm dir_array,1024,1
 8262               		.comm map_array,512,1
 8263               		.comm path_array,60,1
 8840               	.Letext0:
DEFINED SYMBOLS
                            *ABS*:00000000 main.c
C:\Users\Chirag\AppData\Local\Temp/ccOeHQ9N.s:2      *ABS*:0000003f __SREG__
C:\Users\Chirag\AppData\Local\Temp/ccOeHQ9N.s:3      *ABS*:0000003e __SP_H__
C:\Users\Chirag\AppData\Local\Temp/ccOeHQ9N.s:4      *ABS*:0000003d __SP_L__
C:\Users\Chirag\AppData\Local\Temp/ccOeHQ9N.s:5      *ABS*:00000034 __CCP__
C:\Users\Chirag\AppData\Local\Temp/ccOeHQ9N.s:6      *ABS*:00000000 __tmp_reg__
C:\Users\Chirag\AppData\Local\Temp/ccOeHQ9N.s:7      *ABS*:00000001 __zero_reg__
C:\Users\Chirag\AppData\Local\Temp/ccOeHQ9N.s:18     .text:00000000 port_init
C:\Users\Chirag\AppData\Local\Temp/ccOeHQ9N.s:47     .text:00000014 pwm1_init
C:\Users\Chirag\AppData\Local\Temp/ccOeHQ9N.s:89     .text:00000038 adc_init
C:\Users\Chirag\AppData\Local\Temp/ccOeHQ9N.s:114    .text:0000004a adc_start
C:\Users\Chirag\AppData\Local\Temp/ccOeHQ9N.s:144    .text:0000005c delay_sec
C:\Users\Chirag\AppData\Local\Temp/ccOeHQ9N.s:208    .text:0000008e delay_millisec
C:\Users\Chirag\AppData\Local\Temp/ccOeHQ9N.s:343    .text:00000138 delay_microsec
C:\Users\Chirag\AppData\Local\Temp/ccOeHQ9N.s:544    .text:0000023e check_sensors
C:\Users\Chirag\AppData\Local\Temp/ccOeHQ9N.s:8110   .bss:00000000 sensorbyte
C:\Users\Chirag\AppData\Local\Temp/ccOeHQ9N.s:595    .text:00000286 calibrate_white
                            *COM*:00000004 max
C:\Users\Chirag\AppData\Local\Temp/ccOeHQ9N.s:620    .text:000002b0 calibrate_black
                            *COM*:00000004 min
C:\Users\Chirag\AppData\Local\Temp/ccOeHQ9N.s:645    .text:000002da flick
C:\Users\Chirag\AppData\Local\Temp/ccOeHQ9N.s:687    .text:0000030a set_pwm1a
C:\Users\Chirag\AppData\Local\Temp/ccOeHQ9N.s:704    .text:00000310 set_pwm1b
C:\Users\Chirag\AppData\Local\Temp/ccOeHQ9N.s:721    .text:00000316 lcd_busy_loop
C:\Users\Chirag\AppData\Local\Temp/ccOeHQ9N.s:906    .text:0000036c lcd_byte
C:\Users\Chirag\AppData\Local\Temp/ccOeHQ9N.s:1045   .text:000003bc lcd_init
C:\Users\Chirag\AppData\Local\Temp/ccOeHQ9N.s:1181   .text:0000041c lcd_write_string
C:\Users\Chirag\AppData\Local\Temp/ccOeHQ9N.s:1214   .text:00000438 lcd_write_int
C:\Users\Chirag\AppData\Local\Temp/ccOeHQ9N.s:1345   .text:000004f4 lcd_goto_xy
C:\Users\Chirag\AppData\Local\Temp/ccOeHQ9N.s:1372   .text:00000506 lcd_write_string_xy
C:\Users\Chirag\AppData\Local\Temp/ccOeHQ9N.s:1397   .text:0000051c lcd_write_int_xy
C:\Users\Chirag\AppData\Local\Temp/ccOeHQ9N.s:1429   .text:0000053e usart_init
C:\Users\Chirag\AppData\Local\Temp/ccOeHQ9N.s:1456   .text:00000552 usart_transmit_char
C:\Users\Chirag\AppData\Local\Temp/ccOeHQ9N.s:1475   .text:0000055a usart_transmit_string
C:\Users\Chirag\AppData\Local\Temp/ccOeHQ9N.s:1509   .text:0000056e usart_transmit_newline
C:\Users\Chirag\AppData\Local\Temp/ccOeHQ9N.s:1543   .text:00000580 usart_receive_char
C:\Users\Chirag\AppData\Local\Temp/ccOeHQ9N.s:1561   .text:00000588 bot_motion_init
C:\Users\Chirag\AppData\Local\Temp/ccOeHQ9N.s:1576   .text:0000058e bot_left_forward
C:\Users\Chirag\AppData\Local\Temp/ccOeHQ9N.s:1596   .text:00000598 bot_left_backward
C:\Users\Chirag\AppData\Local\Temp/ccOeHQ9N.s:1616   .text:000005a2 bot_right_forward
C:\Users\Chirag\AppData\Local\Temp/ccOeHQ9N.s:1636   .text:000005ac bot_left
C:\Users\Chirag\AppData\Local\Temp/ccOeHQ9N.s:1660   .text:000005b6 bot_right
C:\Users\Chirag\AppData\Local\Temp/ccOeHQ9N.s:1684   .text:000005c0 bot_right_backward
C:\Users\Chirag\AppData\Local\Temp/ccOeHQ9N.s:1704   .text:000005ca bot_forward
C:\Users\Chirag\AppData\Local\Temp/ccOeHQ9N.s:1724   .text:000005d4 bot_backward
C:\Users\Chirag\AppData\Local\Temp/ccOeHQ9N.s:1744   .text:000005de bot_spot_left
C:\Users\Chirag\AppData\Local\Temp/ccOeHQ9N.s:1764   .text:000005e8 bot_spot_right
C:\Users\Chirag\AppData\Local\Temp/ccOeHQ9N.s:1784   .text:000005f2 bot_stop
C:\Users\Chirag\AppData\Local\Temp/ccOeHQ9N.s:1804   .text:000005fc bot_brake
C:\Users\Chirag\AppData\Local\Temp/ccOeHQ9N.s:1824   .text:00000606 switch_init
C:\Users\Chirag\AppData\Local\Temp/ccOeHQ9N.s:1844   .text:00000614 pressed_switch0
C:\Users\Chirag\AppData\Local\Temp/ccOeHQ9N.s:1864   .text:00000624 pressed_switch1
C:\Users\Chirag\AppData\Local\Temp/ccOeHQ9N.s:1886   .text:00000638 pressed_switch2
C:\Users\Chirag\AppData\Local\Temp/ccOeHQ9N.s:1910   .text:00000650 pressed_switch3
C:\Users\Chirag\AppData\Local\Temp/ccOeHQ9N.s:1935   .text:0000066a line_track
C:\Users\Chirag\AppData\Local\Temp/ccOeHQ9N.s:8116   .bss:00000001 mpos
C:\Users\Chirag\AppData\Local\Temp/ccOeHQ9N.s:8175   .bss:0000000d flag1
                            *COM*:00000004 prev_error
                            *COM*:00000004 act_error
C:\Users\Chirag\AppData\Local\Temp/ccOeHQ9N.s:8127   .data:00000097 kp
C:\Users\Chirag\AppData\Local\Temp/ccOeHQ9N.s:8135   .data:0000009b kd
                            *COM*:00000004 control
C:\Users\Chirag\AppData\Local\Temp/ccOeHQ9N.s:8122   .data:00000095 opt
C:\Users\Chirag\AppData\Local\Temp/ccOeHQ9N.s:2155   .text:0000080c init_devices
C:\Users\Chirag\AppData\Local\Temp/ccOeHQ9N.s:2210   .text:0000083c Uturn
C:\Users\Chirag\AppData\Local\Temp/ccOeHQ9N.s:8205   .data:0000009f turn
C:\Users\Chirag\AppData\Local\Temp/ccOeHQ9N.s:2354   .text:000008a2 left_count
C:\Users\Chirag\AppData\Local\Temp/ccOeHQ9N.s:8151   .bss:00000005 l
C:\Users\Chirag\AppData\Local\Temp/ccOeHQ9N.s:8157   .bss:00000007 lcount
C:\Users\Chirag\AppData\Local\Temp/ccOeHQ9N.s:2389   .text:000008dc special_case_check
C:\Users\Chirag\AppData\Local\Temp/ccOeHQ9N.s:2488   .text:0000094c line_track_new
C:\Users\Chirag\AppData\Local\Temp/ccOeHQ9N.s:2591   .text:000009bc end_zone_uturn
C:\Users\Chirag\AppData\Local\Temp/ccOeHQ9N.s:2747   .text:00000a38 turn_left
C:\Users\Chirag\AppData\Local\Temp/ccOeHQ9N.s:2881   .text:00000aa4 turn_right
C:\Users\Chirag\AppData\Local\Temp/ccOeHQ9N.s:3023   .text:00000b20 sense_of_directon
C:\Users\Chirag\AppData\Local\Temp/ccOeHQ9N.s:8210   .data:000000a0 dir
C:\Users\Chirag\AppData\Local\Temp/ccOeHQ9N.s:3147   .text:00000bee is_coordinate_null
                            *COM*:00000400 dir_array
C:\Users\Chirag\AppData\Local\Temp/ccOeHQ9N.s:3212   .text:00000c4c update_array
C:\Users\Chirag\AppData\Local\Temp/ccOeHQ9N.s:8223   .data:000000a2 x_coordinate
C:\Users\Chirag\AppData\Local\Temp/ccOeHQ9N.s:8228   .data:000000a4 y_coordinate
C:\Users\Chirag\AppData\Local\Temp/ccOeHQ9N.s:3405   .text:00000d88 update_coordinates
C:\Users\Chirag\AppData\Local\Temp/ccOeHQ9N.s:8217   .bss:00000017 Coordinates_changed_by
C:\Users\Chirag\AppData\Local\Temp/ccOeHQ9N.s:8253   .bss:0000001f repeat
C:\Users\Chirag\AppData\Local\Temp/ccOeHQ9N.s:3691   .text:00001002 left_junc_check
C:\Users\Chirag\AppData\Local\Temp/ccOeHQ9N.s:8181   .bss:0000000f irc
C:\Users\Chirag\AppData\Local\Temp/ccOeHQ9N.s:8247   .bss:0000001d special_flag
C:\Users\Chirag\AppData\Local\Temp/ccOeHQ9N.s:3853   .text:0000110e frSensorCheck
C:\Users\Chirag\AppData\Local\Temp/ccOeHQ9N.s:3981   .text:000011e2 fill_missed_array
C:\Users\Chirag\AppData\Local\Temp/ccOeHQ9N.s:4183   .text:0000131a coordinates_tobe_reached
C:\Users\Chirag\AppData\Local\Temp/ccOeHQ9N.s:8235   .bss:00000019 mx
C:\Users\Chirag\AppData\Local\Temp/ccOeHQ9N.s:8241   .bss:0000001b my
C:\Users\Chirag\AppData\Local\Temp/ccOeHQ9N.s:4760   .text:00001774 get_path
                            *COM*:0000003c path_array
                            *COM*:00000200 map_array
C:\Users\Chirag\AppData\Local\Temp/ccOeHQ9N.s:5364   .text:00001b8c build_map
C:\Users\Chirag\AppData\Local\Temp/ccOeHQ9N.s:5678   .text:00001d60 checkAndCorrectDirection
C:\Users\Chirag\AppData\Local\Temp/ccOeHQ9N.s:5895   .text:00001ee0 go_to_coordinate
C:\Users\Chirag\AppData\Local\Temp/ccOeHQ9N.s:6151   .text:00002030 right_junc_check
C:\Users\Chirag\AppData\Local\Temp/ccOeHQ9N.s:8169   .bss:0000000b lcountPrev
C:\Users\Chirag\AppData\Local\Temp/ccOeHQ9N.s:7633   .text:00002a7c map_all
C:\Users\Chirag\AppData\Local\Temp/ccOeHQ9N.s:8163   .bss:00000009 straight
C:\Users\Chirag\AppData\Local\Temp/ccOeHQ9N.s:8193   .bss:00000013 temp
C:\Users\Chirag\AppData\Local\Temp/ccOeHQ9N.s:6993   .text:000025ea main
C:\Users\Chirag\AppData\Local\Temp/ccOeHQ9N.s:8008   .text:00002d1e retrieve_threshold
                            *COM*:00000004 threshold1
C:\Users\Chirag\AppData\Local\Temp/ccOeHQ9N.s:8039   .text:00002d50 set_threshold
C:\Users\Chirag\AppData\Local\Temp/ccOeHQ9N.s:8145   .bss:00000003 flcount
C:\Users\Chirag\AppData\Local\Temp/ccOeHQ9N.s:8187   .bss:00000011 lcount_forStraight_prev
C:\Users\Chirag\AppData\Local\Temp/ccOeHQ9N.s:8199   .bss:00000015 temp_forStraight

UNDEFINED SYMBOLS
__floatsisf
__mulsf3
__ltsf2
__gtsf2
__fixunssfsi
__divsf3
__divmodhi4
__subsf3
__floatunsisf
__fixsfsi
__addsf3
__eewr_word_m32
__eerd_word_m32
__eerd_byte_m32
__eewr_byte_m32
__do_copy_data
__do_clear_bss
